TMS320C3x/4x COFF AssemblerVersion 5.11     Fri Sep 17 14:23:56 2010
Copyright (c) 1987-1999 Texas Instruments Incorporatedc:\lang\tms320c3x\511\bin\asm30.exe -l gpproface.asm gpproface.obj -tC:\Users\jds\AppData\Local\Temp\gpproface.tmp 

gpproface.asm                                                        PAGE    1

        1                   ;******************************************************************************
        2                   ;* TMS320C3x/4x ANSI C Code Generator                            Version 5.11 *
        3                   ;* Date/Time created: Fri Sep 17 14:23:55 2010                                *
        4                   ;******************************************************************************
        5                           .regalias       ; enable floating point register aliases
        6          0000000b fp      .set    ar3
        7          0000000b FP      .set    ar3
        8                   ;******************************************************************************
        9                   ;* GLOBAL FILE PARAMETERS                                                     *
       10                   ;*                                                                            *
       11                   ;*   Optimization       : Always Choose Smaller Code Size                     *
       12                   ;*   Memory             : Small Memory Model                                  *
       13                   ;*   Float-to-Int       : Normal Conversions (round toward zero)              *
       14                   ;*   Multiply           : in Hardware (24 bits max)                           *
       15                   ;*   Memory Info        : Unmapped Memory Exists                              *
       16                   ;*   Repeat Loops       : Use RPTS and/or RPTB                                *
       17                   ;*   Calls              : Normal Library ASM calls                            *
       18                   ;*   Debug Info         : Optimized TI Debug Information                      *
       19                   ;******************************************************************************
       20                   ;       c:\lang\tms320c3x\511\bin\ac30.exe gpproface.c C:\Users\jds\AppData\Local\Temp\gpproface.if 
       21                           .file   "gpproface.c"
       22                           .file   "ALL_DEF.h"
       23                           .sym    _DWORD,0,15,13,32
       24                           .sym    _USHORT,0,13,13,32
       25                           .sym    _UCHAR,0,12,13,32
       26                           .sym    _WORD,0,14,13,32
       27                           .file   "main.h"
       28                           .file   "z85c30.h"
       29                           .stag   .fake2,32
       30                           .member _B0,0,14,18,1
       31                           .member _B1,1,14,18,1
       32                           .member _B2,2,14,18,1
       33                           .member _B3,3,14,18,1
       34                           .member _B4,4,14,18,1
       35                           .member _B5,5,14,18,1
       36                           .member _B6,6,14,18,1
       37                           .member _B7,7,14,18,1
       38                           .eos
       39                           .utag   .fake1,32
       40                           .member _UCHAR,0,14,11,32
       41                           .member _BIT,0,8,11,32,.fake2
       42                           .eos
       43                           .stag   .fake0,32
       44                           .member _DR,0,9,8,32,.fake1
       45                           .eos
       46                           .sym    _SD,0,8,13,32,.fake0
       47                           .stag   .fake3,224
       48                           .member _nAA,0,12,8,32
       49                           .member _nBB,32,12,8,32
       50                           .member _nCC,64,12,8,32
       51                           .member _nLen_H,96,12,8,32
       52                           .member _nLen_L,128,12,8,32
       53                           .member _nLenCom_H,160,12,8,32
       54                           .member _nLenCom_L,192,12,8,32
TMS320C3x/4x COFF AssemblerVersion 5.11     Fri Sep 17 14:23:56 2010
Copyright (c) 1987-1999 Texas Instruments Incorporatedc:\lang\tms320c3x\511\bin\asm30.exe -l gpproface.asm gpproface.obj -tC:\Users\jds\AppData\Local\Temp\gpproface.tmp 

gpproface.asm                                                        PAGE    2

       55                           .eos
       56                           .sym    _SCC_HEAD,0,8,13,224,.fake3
       57                           .stag   .fake4,320
       58                           .member _nToAdd,0,12,8,32
       59                           .member _nFromAdd,32,12,8,32
       60                           .member _nCode,64,12,8,32
       61                           .member _nSp3,96,12,8,32
       62                           .member _nSp4,128,12,8,32
       63                           .member _nErBlk,160,12,8,32
       64                           .member _nDeStCode,192,12,8,32
       65                           .member _nSp7,224,12,8,32
       66                           .member _nSp8,256,12,8,32
       67                           .member _nSp9,288,12,8,32
       68                           .eos
       69                           .sym    _SCC_TEST,0,8,13,320,.fake4
       70                           .stag   .fake5,640
       71                           .member _nHead,0,8,8,224,.fake3
       72                           .member _nTest,224,8,8,320,.fake4
       73                           .member _Etx,544,12,8,32
       74                           .member _CRC_H,576,12,8,32
       75                           .member _CRC_L,608,12,8,32
       76                           .eos
       77                           .sym    _SCC_TX_DATA,0,8,13,640,.fake5
       78                           .sym    _PSCC_TX_DATA,0,24,13,32,.fake5
       79                           .stag   .fake6,320
       80                           .member _nToAdd,0,12,8,32
       81                           .member _nFromAdd,32,12,8,32
       82                           .member _nCode,64,12,8,32
       83                           .member _nSp3,96,12,8,32
       84                           .member _nNow,128,12,8,32
       85                           .member _nNext,160,12,8,32
       86                           .member _nDeSt,192,12,8,32
       87                           .member _nStartSt,224,12,8,32
       88                           .member _nDist_H,256,12,8,32
       89                           .member _nDist_L,288,12,8,32
       90                           .eos
       91                           .sym    _SCC_TEST_RND,0,8,13,320,.fake6
       92                           .stag   .fake7,640
       93                           .member _nHead,0,8,8,224,.fake3
       94                           .member _nTest,224,8,8,320,.fake6
       95                           .member _Etx,544,12,8,32
       96                           .member _CRC_H,576,12,8,32
       97                           .member _CRC_L,608,12,8,32
       98                           .eos
       99                           .sym    _SCC_RNDTX_DATA,0,8,13,640,.fake7
      100                           .sym    _PSCC_RNDTX_DATA,0,24,13,32,.fake7
      101                           .stag   .fake8,17696
      102                           .member _nToAdd,0,12,8,32
      103                           .member _nFromAdd,32,12,8,32
      104                           .member _nCode,64,12,8,32
      105                           .member _nTEXT,96,60,8,17600,,550
      106                           .eos
      107                           .sym    _SCC_TEXT,0,8,13,17696,.fake8
      108                           .stag   .fake9,17920
TMS320C3x/4x COFF AssemblerVersion 5.11     Fri Sep 17 14:23:56 2010
Copyright (c) 1987-1999 Texas Instruments Incorporatedc:\lang\tms320c3x\511\bin\asm30.exe -l gpproface.asm gpproface.obj -tC:\Users\jds\AppData\Local\Temp\gpproface.tmp 

gpproface.asm                                                        PAGE    3

      109                           .member _nHead,0,8,8,224,.fake3
      110                           .member _nText,224,8,8,17696,.fake8
      111                           .eos
      112                           .sym    _SCC_PIB_TEXT,0,8,13,17920,.fake9
      113                           .sym    _PSCC_PIB_TEXT,0,24,13,32,.fake9
      114                           .stag   .fake10,192
      115                           .member _nYY,0,12,8,32
      116                           .member _nMM,32,12,8,32
      117                           .member _nDD,64,12,8,32
      118                           .member _nhh,96,12,8,32
      119                           .member _nmm,128,12,8,32
      120                           .member _nss,160,12,8,32
      121                           .eos
      122                           .sym    _TIME,0,8,13,192,.fake10
      123                           .stag   .fake12,32
      124                           .member _nDoor1,0,14,18,1
      125                           .member _nDoor2,1,14,18,1
      126                           .member _nDcw,2,14,18,1
      127                           .member _nNextSt,3,14,18,1
      128                           .member _nExpress,4,14,18,1
      129                           .member _B5,5,14,18,1
      130                           .member _B6,6,14,18,1
      131                           .member _B7,7,14,18,1
      132                           .eos
      133                           .stag   .fake11,608
      134                           .member _nLAddres,0,12,8,32
      135                           .member _nHAddres,32,12,8,32
      136                           .member _nContro,64,12,8,32
      137                           .member _nDataDefin,96,12,8,32
      138                           .member _nStCode,128,12,8,32
      139                           .member _nNowCode,160,12,8,32
      140                           .member _nNextCode,192,12,8,32
      141                           .member _nDestCode,224,12,8,32
      142                           .member _BIT,256,8,8,32,.fake12
      143                           .member _nCarTrainNum,288,60,8,64,,2
      144                           .member _nSp,352,12,8,32
      145                           .member _nTime,384,8,8,192,.fake10
      146                           .member _nSp_2,576,12,8,32
      147                           .eos
      148                           .sym    _TMS_RX_DATA,0,8,13,608,.fake11
      149                           .sym    _PTMS_RX_DATA,0,24,13,32,.fake11
      150                           .stag   .fake13,416
      151                           .member _TxPos,0,12,8,32
      152                           .member _TxLen,32,12,8,32
      153                           .member _TxOK,64,12,8,32
      154                           .member _TX_RTS_OFF_TIME,96,12,8,32
      155                           .member _TxBuffer,128,28,8,32
      156                           .member _RxOK,160,12,8,32
      157                           .member _RxOKCnt,192,12,8,32
      158                           .member _RxPos,224,12,8,32
      159                           .member _RxDlyTm,256,12,8,32
      160                           .member _RxLen,288,12,8,32
      161                           .member _RX_RTS_OFF_TIME,320,12,8,32
      162                           .member _RxBuffer,352,28,8,32
TMS320C3x/4x COFF AssemblerVersion 5.11     Fri Sep 17 14:23:56 2010
Copyright (c) 1987-1999 Texas Instruments Incorporatedc:\lang\tms320c3x\511\bin\asm30.exe -l gpproface.asm gpproface.obj -tC:\Users\jds\AppData\Local\Temp\gpproface.tmp 

gpproface.asm                                                        PAGE    4

      163                           .member _RxTimeOut,384,12,8,32
      164                           .eos
      165                           .sym    _SCC_INIT_SHAPE,0,8,13,416,.fake13
      166                           .file   "Disk.h"
      167                           .stag   .fake14,416
      168                           .member _FileName,0,60,8,256,,8
      169                           .member _ExtName,256,60,8,96,,3
      170                           .member _StartCluster,352,14,8,32
      171                           .member _FileSize,384,14,8,32
      172                           .eos
      173                           .sym    _OPEN_FILE,0,8,13,416,.fake14
      174                           .stag   .fake15,1472
      175                           .member _StationCode,0,12,8,32
      176                           .member _EngName,32,60,8,480,,15
      177                           .member _IranName,512,60,8,960,,30
      178                           .eos
      179                           .sym    _STATION_NAME,0,8,13,1472,.fake15
      180                           .stag   .fake16,1472
      181                           .member _StationCode,0,12,8,32
      182                           .member _EngName,32,60,8,480,,15
      183                           .member _IranName,512,60,8,960,,30
      184                           .eos
      185                           .sym    _STATION_NAME_ALL,0,8,13,1472,.fake16
      186                           .stag   .fake17,96
      187                           .member _nDis_Point,0,15,8,32
      188                           .member _Type,32,12,8,32
      189                           .member _Number,64,12,8,32
      190                           .eos
      191                           .sym    _DISPLAY_INDEX,0,8,13,96,.fake17
      192                           .stag   .fake18,9664
      193                           .member _nCnt,0,12,8,32
      194                           .member _nDoor,32,12,8,32
      195                           .member _nDisplay_str,64,56,8,9600,.fake17,100
      196                           .eos
      197                           .sym    _DISPLAY_INDEX_NAME,0,8,13,9664,.fake18
      198                           .stag   .fake19,512
      199                           .member _nStationCode,0,12,8,32
      200                           .member _nStationName,32,60,8,480,,15
      201                           .eos
      202                           .sym    _DEST_SET_SCREEN,0,8,13,512,.fake19
      203                           .stag   .fake20,16032
      204                           .member _nScreenNum,0,12,8,32
      205                           .member _nDestSetNum,32,12,8,32
      206                           .member _nDestSetNumRe,64,12,8,32
      207                           .member _nStop_Patten_Num,96,12,8,32
      208                           .member _nTrainClass_Num,128,12,8,32
      209                           .member _nMatchCode,160,60,8,8192,,256
      210                           .member _nDestCodeList,8352,60,8,2560,,80
      211                           .member _nDestScreen,10912,56,8,5120,.fake19,10
      212                           .eos
      213                           .sym    _NVSRAM_VARIABLE,0,8,13,16032,.fake20
      214                           .stag   .fake21,64
      215                           .member _nData_Type,0,12,8,32
      216                           .eos
TMS320C3x/4x COFF AssemblerVersion 5.11     Fri Sep 17 14:23:56 2010
Copyright (c) 1987-1999 Texas Instruments Incorporatedc:\lang\tms320c3x\511\bin\asm30.exe -l gpproface.asm gpproface.obj -tC:\Users\jds\AppData\Local\Temp\gpproface.tmp 

gpproface.asm                                                        PAGE    5

      217                           .sym    _DATA_TYPE,0,8,13,64,.fake21
      218                           .sym    _PDATA_TYPE,0,24,13,32,.fake21
      219                           .stag   .fake22,192
      220                           .member _nYy,0,12,8,32
      221                           .member _nMm,32,12,8,32
      222                           .member _nDd,64,12,8,32
      223                           .member _nhh,96,12,8,32
      224                           .member _nmm,128,12,8,32
      225                           .member _nss,160,12,8,32
      226                           .eos
      227                           .sym    _DATE,0,8,13,192,.fake22
      228                           .stag   .fake23,1536
      229                           .member _nDataHead_b,0,60,8,832,,26
      230                           .member _nSp1,832,12,8,32
      231                           .member _nEEE_b,864,60,8,128,,4
      232                           .member _nSp2_b,992,60,8,96,,3
      233                           .member _nDD_b,1088,60,8,64,,2
      234                           .member _nSp3_b,1152,60,8,96,,3
      235                           .member _nDate,1248,8,8,192,.fake22
      236                           .member _nSp4_b,1440,60,8,96,,3
      237                           .eos
      238                           .sym    _PISC_HEAD,0,8,13,1536,.fake23
      239                           .sym    _pPISC_HEAD,0,24,13,32,.fake23
      240                           .stag   .fake24,2816
      241                           .member _nHead_h,0,8,8,1536,.fake23
      242                           .member _nAdd1_St_Name_b,1536,60,8,128,,4
      243                           .member _nAdd2_St_Info_b,1664,60,8,128,,4
      244                           .member _nAdd3_Dest_Info_b,1792,60,8,128,,4
      245                           .member _nAdd4_Stop_Pt_I_b,1920,60,8,128,,4
      246                           .member _nAdd5_Stop_Pt_G_b,2048,60,8,128,,4
      247                           .member _nAdd6_Display_I_b,2176,60,8,128,,4
      248                           .member _nAdd7_Display_G_b,2304,60,8,128,,4
      249                           .member _nAdd8_Dia_I_b,2432,60,8,128,,4
      250                           .member _nAdd9_Dia_G_b,2560,60,8,128,,4
      251                           .member _nAdd10_Text_Info_b,2688,60,8,128,,4
      252                           .eos
      253                           .sym    _PISC_DATA_ADD,0,8,13,2816,.fake24
      254                           .sym    _pPISC_DATA_ADD,0,24,13,32,.fake24
      255                           .stag   .fake25,64
      256                           .member _nNum_b,0,60,8,64,,2
      257                           .eos
      258                           .sym    _HEADER,0,8,13,64,.fake25
      259                           .sym    _pHEADER,0,24,13,32,.fake25
      260                           .stag   .fake26,1504
      261                           .member _nCode_b,0,60,8,64,,2
      262                           .member _nKorName_b,64,60,8,480,,15
      263                           .member _nEngName_b,544,60,8,960,,30
      264                           .eos
      265                           .sym    _ST_NAME_B,0,8,13,1504,.fake26
      266                           .sym    _pST_NAME_B,0,24,13,32,.fake26
      267                           .stag   .fake27,150464
      268                           .member _nCnt,0,8,8,64,.fake25
      269                           .member _pBody,64,56,8,150400,.fake26,100
      270                           .eos
TMS320C3x/4x COFF AssemblerVersion 5.11     Fri Sep 17 14:23:56 2010
Copyright (c) 1987-1999 Texas Instruments Incorporatedc:\lang\tms320c3x\511\bin\asm30.exe -l gpproface.asm gpproface.obj -tC:\Users\jds\AppData\Local\Temp\gpproface.tmp 

gpproface.asm                                                        PAGE    6

      271                           .sym    _ST_NAME,0,8,13,150464,.fake27
      272                           .sym    _pST_NAME,0,24,13,32,.fake27
      273                           .stag   .fake28,608
      274                           .member _nCode_b,0,60,8,64,,2
      275                           .member _nName_Index_b,64,60,8,64,,2
      276                           .member _nST_Name_b,128,60,8,480,,15
      277                           .eos
      278                           .sym    _DEST_INFO_B,0,8,13,608,.fake28
      279                           .sym    _pDEST_INFO_B,0,24,13,32,.fake28
      280                           .stag   .fake29,60864
      281                           .member _nCnt,0,8,8,64,.fake25
      282                           .member _pBody,64,56,8,60800,.fake28,100
      283                           .eos
      284                           .sym    _DEST_INFO,0,8,13,60864,.fake29
      285                           .sym    _pDEST_INFO,0,24,13,32,.fake29
      286                           .stag   .fake30,224
      287                           .member _nCode_b,0,60,8,64,,2
      288                           .member _nType,64,12,8,32
      289                           .member _nAddress_b,96,60,8,128,,4
      290                           .eos
      291                           .sym    _DIA_GROUP_B,0,8,13,224,.fake30
      292                           .sym    _pDIA_GROUP_B,0,24,13,32,.fake30
      293                           .stag   .fake31,22464
      294                           .member _nCnt,0,8,8,64,.fake25
      295                           .member _pBody,64,56,8,22400,.fake30,100
      296                           .eos
      297                           .sym    _DIA_GROUP,0,8,13,22464,.fake31
      298                           .sym    _pDIA_GROUP,0,24,13,32,.fake31
      299                           .stag   .fake32,480
      300                           .member _nCode_b,0,60,8,64,,2
      301                           .member _nSt_Time_b,64,60,8,96,,3
      302                           .member _nStopPtG_Addres_b,160,60,8,128,,4
      303                           .member _nDispG_Addres_b,288,60,8,128,,4
      304                           .member _nDest_Index_b,416,60,8,64,,2
      305                           .eos
      306                           .sym    _DIA_G_ITEM_B,0,8,13,480,.fake32
      307                           .sym    _pDIA_G_ITEM_B,0,24,13,32,.fake32
      308                           .stag   .fake33,48064
      309                           .member _nCnt,0,8,8,64,.fake25
      310                           .member _pBody,64,56,8,48000,.fake32,100
      311                           .eos
      312                           .sym    _DIA_G_ITEM,0,8,13,48064,.fake33
      313                           .sym    _pDIA_G_ITEM,0,24,13,32,.fake33
      314                           .stag   .fake34,192
      315                           .member _nSt_Cnt_b,0,60,8,64,,2
      316                           .member _nGuri_b,64,60,8,64,,2
      317                           .member _nItem_Index_b,128,60,8,64,,2
      318                           .eos
      319                           .sym    _DISPLAY_G_B,0,8,13,192,.fake34
      320                           .sym    _pDISPLAY_G_B,0,24,13,32,.fake34
      321                           .stag   .fake35,19264
      322                           .member _nCnt,0,8,8,64,.fake25
      323                           .member _pBody,64,56,8,19200,.fake34,100
      324                           .eos
TMS320C3x/4x COFF AssemblerVersion 5.11     Fri Sep 17 14:23:56 2010
Copyright (c) 1987-1999 Texas Instruments Incorporatedc:\lang\tms320c3x\511\bin\asm30.exe -l gpproface.asm gpproface.obj -tC:\Users\jds\AppData\Local\Temp\gpproface.tmp 

gpproface.asm                                                        PAGE    7

      325                           .sym    _DISPLAY_GROUP,0,8,13,19264,.fake35
      326                           .sym    _pDISPLAY_GROUP,0,24,13,32,.fake35
      327                           .stag   .fake36,128
      328                           .member _nText_Kind_b,0,60,8,64,,2
      329                           .member _nText_Index,64,60,8,64,,2
      330                           .eos
      331                           .sym    _DISPLAY_ITEM_B,0,8,13,128,.fake36
      332                           .sym    _pDISPLAY_ITEM_B,0,24,13,32,.fake36
      333                           .stag   .fake37,12864
      334                           .member _nCnt,0,8,8,64,.fake25
      335                           .member _pBody,64,56,8,12800,.fake36,100
      336                           .eos
      337                           .sym    _DISPLAY_ITEM,0,8,13,12864,.fake37
      338                           .sym    _pDISPLAY_ITEM,0,24,13,32,.fake37
      339                           .stag   .fake38,256
      340                           .member _nSt_Cnt_b,0,60,8,64,,2
      341                           .member _nGuri_b,64,60,8,64,,2
      342                           .member _nItem_Index_Flag,128,8,8,128,.fake36
      343                           .eos
      344                           .sym    _DISPLAY_G_I_B,0,8,13,256,.fake38
      345                           .sym    _pDISPLAY_G_I_B,0,24,13,32,.fake38
      346                           .stag   .fake39,25664
      347                           .member _nCnt,0,8,8,64,.fake25
      348                           .member _pBody,64,56,8,25600,.fake38,100
      349                           .eos
      350                           .sym    _DISPLAY_G_I_H,0,8,13,25664,.fake39
      351                           .sym    _pDISPLAY_G_I_H,0,24,13,32,.fake39
      352                           .stag   .fake40,192
      353                           .member _nSt_Index_b,0,60,8,64,,2
      354                           .member _nEn_Index_b,64,60,8,64,,2
      355                           .member _nSt_P_G_Cnt_b,128,60,8,64,,2
      356                           .eos
      357                           .sym    _STOP_PT_G_B_H,0,8,13,192,.fake40
      358                           .sym    _pSTOP_PT_G_B_H,0,24,13,32,.fake40
      359                           .stag   .fake41,64
      360                           .member _nSt_P_Item_Index_b,0,60,8,64,,2
      361                           .eos
      362                           .sym    _STOP_PT_G_B_B,0,8,13,64,.fake41
      363                           .sym    _pSTOP_PT_G_B_B,0,24,13,32,.fake41
      364                           .stag   .fake42,6592
      365                           .member _nHeader,0,8,8,192,.fake40
      366                           .member _pBody,192,56,8,6400,.fake41,100
      367                           .eos
      368                           .sym    _STOP_PT_G_B,0,8,13,6592,.fake42
      369                           .sym    _pSTOP_PT_G_B,0,24,13,32,.fake42
      370                           .stag   .fake43,659264
      371                           .member _nCnt,0,8,8,64,.fake25
      372                           .member _pBody,64,56,8,659200,.fake42,100
      373                           .eos
      374                           .sym    _STOP_PT_GROUP,0,8,13,659264,.fake43
      375                           .sym    _pSTOP_PT_GROUP,0,24,13,32,.fake43
      376                           .stag   .fake44,288
      377                           .member _nSt_Info_b,0,60,8,64,,2
      378                           .member _nDoor_Info,64,12,8,32
TMS320C3x/4x COFF AssemblerVersion 5.11     Fri Sep 17 14:23:56 2010
Copyright (c) 1987-1999 Texas Instruments Incorporatedc:\lang\tms320c3x\511\bin\asm30.exe -l gpproface.asm gpproface.obj -tC:\Users\jds\AppData\Local\Temp\gpproface.tmp 

gpproface.asm                                                        PAGE    8

      379                           .member _nSt_Time_b,96,60,8,96,,3
      380                           .member _nStop_Time_b,192,60,8,96,,3
      381                           .eos
      382                           .sym    _STOP_PT_ITEM_B,0,8,13,288,.fake44
      383                           .sym    _pSTOP_PT_ITEM_B,0,24,13,32,.fake44
      384                           .stag   .fake45,28864
      385                           .member _nCnt,0,8,8,64,.fake25
      386                           .member _pBody,64,56,8,28800,.fake44,100
      387                           .eos
      388                           .sym    _STOP_PT_ITEM,0,8,13,28864,.fake45
      389                           .sym    _pSTOP_PT_ITEM,0,24,13,32,.fake45
      390                           .stag   .fake46,192
      391                           .member _nSt_Index_b,0,60,8,64,,2
      392                           .member _nArr_Index_b,64,60,8,64,,2
      393                           .member _nSt_Dist_b,128,60,8,64,,2
      394                           .eos
      395                           .sym    _ST_INFO_B,0,8,13,192,.fake46
      396                           .sym    _pST_INFO_B,0,24,13,32,.fake46
      397                           .stag   .fake47,19264
      398                           .member _nCnt,0,8,8,64,.fake25
      399                           .member _pBody,64,56,8,19200,.fake46,100
      400                           .eos
      401                           .sym    _ST_INFO,0,8,13,19264,.fake47
      402                           .sym    _pST_INFO,0,24,13,32,.fake47
      403                           .stag   .fake48,416
      404                           .member _nSt_Info_flag,0,8,8,192,.fake46
      405                           .member _nDoor_Info,192,12,8,32
      406                           .member _nSt_Time_b,224,60,8,96,,3
      407                           .member _nStop_Time_b,320,60,8,96,,3
      408                           .eos
      409                           .sym    _STOP_PT_INFO_ITEM_B,0,8,13,416,.fake48
      410                           .sym    _pSTOP_PT_INFO_ITEM_B,0,24,13,32,.fake48
      411                           .stag   .fake49,41664
      412                           .member _nCnt,0,8,8,64,.fake25
      413                           .member _pBody,64,56,8,41600,.fake48,100
      414                           .eos
      415                           .sym    _STOP_PT_INFO_ITEM,0,8,13,41664,.fake49
      416                           .sym    _pSTOP_PT_INFO_ITEM,0,24,13,32,.fake49
      417                           .stag   .fake50,41792
      418                           .member _nHeader,0,8,8,192,.fake40
      419                           .member _nSt_Pt_G_I_Flage,192,56,8,41600,.fake48,100
      420                           .eos
      421                           .sym    _STOP_PT_G_I_HAP,0,8,13,41792,.fake50
      422                           .sym    _pSTOP_PT_G_I_HAP,0,24,13,32,.fake50
      423                           .stag   .fake51,9600
      424                           .member _nImCheck,0,12,8,32
      425                           .member _nImNum,32,12,8,32
      426                           .member _nImText,64,60,8,9536,,298
      427                           .eos
      428                           .sym    _IMTEXTBODY,0,8,13,9600,.fake51
      429                           .sym    _PIMTEXTBODY,0,24,13,32,.fake51
      430                           .stag   .fake52,960000
      431                           .member _nBody,0,56,8,960000,.fake51,100
      432                           .eos
TMS320C3x/4x COFF AssemblerVersion 5.11     Fri Sep 17 14:23:56 2010
Copyright (c) 1987-1999 Texas Instruments Incorporatedc:\lang\tms320c3x\511\bin\asm30.exe -l gpproface.asm gpproface.obj -tC:\Users\jds\AppData\Local\Temp\gpproface.tmp 

gpproface.asm                                                        PAGE    9

      433                           .sym    _IMTEXT,0,8,13,960000,.fake52
      434                           .sym    _PIMTEXT,0,24,13,32,.fake52
      435                           .stag   .fake53,16000
      436                           .member _nPrCheck,0,12,8,32
      437                           .member _nPrNum,32,12,8,32
      438                           .member _nPrText,64,60,8,15936,,498
      439                           .eos
      440                           .sym    _PRTEXTBODY,0,8,13,16000,.fake53
      441                           .sym    _PPRTEXTBODY,0,24,13,32,.fake53
      442                           .stag   .fake54,960000
      443                           .member _nBody,0,56,8,960000,.fake53,60
      444                           .eos
      445                           .sym    _PRTEXT,0,8,13,960000,.fake54
      446                           .sym    _PPRTEXT,0,24,13,32,.fake54
      447                           .stag   .fake55,1920128
      448                           .member _nBlockSize_b,0,60,8,128,,4
      449                           .member _nImBlock,128,8,8,960000,.fake52
      450                           .member _nPrBlock,960128,8,8,960000,.fake54
      451                           .eos
      452                           .sym    _TEXT_BLOCK,0,8,13,1920128,.fake55
      453                           .sym    _pTEXT_BLOCK,0,24,13,32,.fake55
      454                           .stag   .fake56,64
      455                           .member _nSt_Pt_G_Address,0,15,8,32
      456                           .member _nDisp_G_Address,32,15,8,32
      457                           .eos
      458                           .sym    _START_NV_ADDRESS,0,8,13,64,.fake56
      459                           .file   "LED_DOWNLOAD.h"
      460                           .stag   .fake57,160
      461                           .member _nST_1,0,12,8,32
      462                           .member _nST_2,32,12,8,32
      463                           .member _nTXCnt,64,12,8,32
      464                           .member _nRepCnt,96,12,8,32
      465                           .member _nErassOk,128,12,8,32
      466                           .eos
      467                           .sym    _DOWN_STEP,0,8,13,160,.fake57
      468                           .stag   .fake58,736
      469                           .member _nRNDSelt,0,12,8,32
      470                           .member _nFDDSelt,32,12,8,32
      471                           .member _nIDDSelt,64,12,8,32
      472                           .member _nTNDSelt,96,12,8,32
      473                           .member _nFDD_DATA_Selt,128,12,8,32
      474                           .member _nSFKindCode,160,12,8,32
      475                           .member _nWaitSDR,192,12,8,32
      476                           .member _nSelfTestFlag,224,12,8,32
      477                           .member _nSDR_RxCnt,256,12,8,32
      478                           .member _nErassFlag,288,8,8,160,.fake57
      479                           .member _nDataDownFlag,448,12,8,32
      480                           .member _nDataRepetFlag,480,12,8,32
      481                           .member _nDataRepetNum,512,12,8,32
      482                           .member _nDataRepetCnt,544,12,8,32
      483                           .member _nDataSDRFlag,576,12,8,32
      484                           .member _nDataSize,608,12,8,32
      485                           .member _nDataTxCnt,640,12,8,32
      486                           .member _nSWScreenSelt,672,12,8,32
TMS320C3x/4x COFF AssemblerVersion 5.11     Fri Sep 17 14:23:56 2010
Copyright (c) 1987-1999 Texas Instruments Incorporatedc:\lang\tms320c3x\511\bin\asm30.exe -l gpproface.asm gpproface.obj -tC:\Users\jds\AppData\Local\Temp\gpproface.tmp 

gpproface.asm                                                        PAGE   10

      487                           .member _nDATAScreenSelt,704,12,8,32
      488                           .eos
      489                           .sym    _LED_DATA_DOWNLOAD,0,8,13,736,.fake58
      490                           .file   "GpProface.h"
      491                           .stag   .fake59,160
      492                           .member _nFlag,0,12,8,32
      493                           .member _nNum,32,14,8,32
      494                           .member _nRemNum,64,14,8,32
      495                           .member _nNowSt_Re,96,12,8,32
      496                           .member _nNextSt_Re,128,12,8,32
      497                           .eos
      498                           .sym    _TRANNUM_INPUT,0,8,13,160,.fake59
      499                           .stag   .fake60,288
      500                           .member _nGPTranNumInput,0,8,8,160,.fake59
      501                           .member _nScreenSetNum,160,12,8,32
      502                           .member _nScreenRxTime,192,12,8,32
      503                           .member _nScreenSafe,224,12,8,32
      504                           .member _nScreen_Send_Delay_Time,256,12,8,32
      505                           .eos
      506                           .sym    _SELETC_BUTTON,0,8,13,288,.fake60
      507                           .file   "DataPro.h"
      508                           .stag   .fake61,128
      509                           .member _nTotalDestCnt,0,12,8,32
      510                           .member _nCheakSt,32,12,8,32
      511                           .member _nDiskInputCheckFlag,64,12,8,32
      512                           .member _nDiskUpChekFlag,96,12,8,32
      513                           .eos
      514                           .sym    _SANDISK_VARI,0,8,13,128,.fake61
      515                           .stag   .fake62,1472
      516                           .member _nCode,0,12,8,32
      517                           .member _nEnNameBuf,32,60,8,480,,15
      518                           .member _nIRNameBuf,512,60,8,960,,30
      519                           .eos
      520                           .sym    _STATION_INFO,0,8,13,1472,.fake62
      521                           .stag   .fake63,1920
      522                           .member _nPre,0,60,8,480,,15
      523                           .member _nNow,480,60,8,480,,15
      524                           .member _nNext,960,60,8,480,,15
      525                           .member _nDest,1440,60,8,480,,15
      526                           .eos
      527                           .sym    _GP_ST_NAME,0,8,13,1920,.fake63
      528                           .stag   .fake64,128
      529                           .member _nFlag_DI_INPUT,0,12,8,32
      530                           .member _nFlag_Simu,32,12,8,32
      531                           .member _nFlag_SelfTest,64,12,8,32
      532                           .member _nAutoPlay_Flag,96,12,8,32
      533                           .eos
      534                           .sym    _TIME_FLAG,0,8,13,128,.fake64
      535                           .stag   .fake65,5984
      536                           .member _nSELF_ADDDATA_BUF,0,60,8,1920,,60
      537                           .member _nSELF_RXDATA_Buf,1920,60,8,1920,,60
      538                           .member _nSELF_DownLoad_RxBuf,3840,60,8,960,,30
      539                           .member _nSELF_DownLoad_AddBuf,4800,60,8,960,,30
      540                           .member _nSELF_DownLoad_UnitCnt,5760,12,8,32
TMS320C3x/4x COFF AssemblerVersion 5.11     Fri Sep 17 14:23:56 2010
Copyright (c) 1987-1999 Texas Instruments Incorporatedc:\lang\tms320c3x\511\bin\asm30.exe -l gpproface.asm gpproface.obj -tC:\Users\jds\AppData\Local\Temp\gpproface.tmp 

gpproface.asm                                                        PAGE   11

      541                           .member _nSELF_TX_Cnt,5792,12,8,32
      542                           .member _nSELF_TX_Cnt_B,5824,12,8,32
      543                           .member _nSELF_All_Cnt,5856,12,8,32
      544                           .member _nSELF_All_Cnt_B,5888,12,8,32
      545                           .member _nSELF_ICR_SELECT,5920,12,8,32
      546                           .member _nSELF_Selt_Flag,5952,12,8,32
      547                           .eos
      548                           .sym    _SELF_TEST,0,8,13,5984,.fake65
      549                           .stag   .fake66,12032
      550                           .member _nStopPatNum,0,12,8,32
      551                           .member _nStation_MaxCnt,32,12,8,32
      552                           .member _nStation_StartPointCnt,64,12,8,32
      553                           .member _nStation_PointCnt,96,12,8,32
      554                           .member _nStation_PointCntRe,128,12,8,32
      555                           .member _nStation_List,160,60,8,1920,,60
      556                           .member _nPIBPatFlag,2080,12,8,32
      557                           .member _nDISFPatFlag,2112,12,8,32
      558                           .member _nSimulationFlag,2144,12,8,32
      559                           .member _nSimulationCnt,2176,12,8,32
      560                           .member _nSimulationRun,2208,12,8,32
      561                           .member _nAutoDoorFlag,2240,12,8,32
      562                           .member _nSpeed,2272,12,8,32
      563                           .member _nDoor,2304,12,8,32
      564                           .member _nDoorOPenCnt,2336,12,8,32
      565                           .member _nDistance,2368,12,8,32
      566                           .member _nSinmuScrCnt,2400,12,8,32
      567                           .member _nTcmsRxNGCnt,2432,12,8,32
      568                           .member _nStart,2464,8,8,1472,.fake62
      569                           .member _nPre,3936,8,8,1472,.fake62
      570                           .member _nNow,5408,8,8,1472,.fake62
      571                           .member _nNext,6880,8,8,1472,.fake62
      572                           .member _nDest,8352,8,8,1472,.fake62
      573                           .member _nGpStName,9824,8,8,1920,.fake63
      574                           .member _nSelf_Test_Flag,11744,12,8,32
      575                           .member _nClean_Flag,11776,12,8,32
      576                           .member _nTcmsAutoDriverFlag,11808,12,8,32
      577                           .member _nDoOp_StCh,11840,12,8,32
      578                           .member _nMasterFlag,11872,12,8,32
      579                           .member _nRxCode_NoNe_Flag,11904,12,8,32
      580                           .member _nSendIddTxFlag,11936,12,8,32
      581                           .member _nAutoManuFlag,11968,12,8,32
      582                           .member _nAutoManuFlagCnt,12000,12,8,32
      583                           .eos
      584                           .sym    _TRAN_STATION_INFO,0,8,13,12032,.fake66
      585                           .stag   .fake67,160
      586                           .member _nFlag,0,12,8,32
      587                           .member _nTime,32,12,8,32
      588                           .member _nTimeCnt,64,12,8,32
      589                           .member _nFlagCnt,96,12,8,32
      590                           .member _nRemem,128,12,8,32
      591                           .eos
      592                           .sym    _ONTD_CHECK,0,8,13,160,.fake67
      593                           .stag   .fake68,800
      594                           .member _nHcr,0,8,8,160,.fake67
TMS320C3x/4x COFF AssemblerVersion 5.11     Fri Sep 17 14:23:56 2010
Copyright (c) 1987-1999 Texas Instruments Incorporatedc:\lang\tms320c3x\511\bin\asm30.exe -l gpproface.asm gpproface.obj -tC:\Users\jds\AppData\Local\Temp\gpproface.tmp 

gpproface.asm                                                        PAGE   12

      595                           .member _nIcr,160,8,8,160,.fake67
      596                           .member _nTcr,320,8,8,160,.fake67
      597                           .member _nDoor,480,8,8,160,.fake67
      598                           .member _nDist,640,8,8,160,.fake67
      599                           .eos
      600                           .sym    _DI_CHECK,0,8,13,800,.fake68
      601                           .stag   .fake69,18496
      602                           .member _nIM_PR_TEXT,0,60,8,17600,,550
      603                           .member _nIndexBuf,17600,60,8,640,,20
      604                           .member _nIndexST_STAllCnt,18240,12,8,32
      605                           .member _nAllCnt_Cnt,18272,12,8,32
      606                           .member _nIndexDI_DICnt,18304,12,8,32
      607                           .member _nIndexCnt,18336,12,8,32
      608                           .member _nDistanRe,18368,15,8,32
      609                           .member _nDistanNew,18400,15,8,32
      610                           .member _nBetweenFlag,18432,12,8,32
      611                           .member _nTxEndTimeFlag,18464,12,8,32
      612                           .eos
      613                           .sym    _INDEX_FLAG,0,8,13,18496,.fake69
      614                           .stag   .fake70,192
      615                           .member _nDataDefin,0,12,8,32
      616                           .member _nCarNum,32,12,8,32
      617                           .member _nDist,64,12,8,32
      618                           .member _nNow,96,12,8,32
      619                           .member _nNext,128,12,8,32
      620                           .member _nDest,160,12,8,32
      621                           .eos
      622                           .sym    _TMS_RX_DATA_PR,0,8,13,192,.fake70
      623                           .stag   .fake71,64
      624                           .member _nTxNum,0,12,8,32
      625                           .member _nTxFlag,32,12,8,32
      626                           .eos
      627                           .sym    _IM_PR_SEND,0,8,13,64,.fake71
      628                           .stag   .fake72,384
      629                           .member _nDeSTCodeSet,0,12,8,32
      630                           .member _nTranNum,32,12,8,32
      631                           .member _nClean,64,12,8,32
      632                           .member _nPIBPaten,96,12,8,32
      633                           .member _nS_FDIPaten,128,12,8,32
      634                           .member _nCarNum,160,12,8,32
      635                           .member _nIM_Text,192,8,8,64,.fake71
      636                           .member _nPR_Text,256,8,8,64,.fake71
      637                           .member _nRNDTXFlag,320,12,8,32
      638                           .member _nManualSet,352,12,8,32
      639                           .eos
      640                           .sym    _SCC_SEND_FLAG,0,8,13,384,.fake72
      641                           .stag   .fake75,32
      642                           .member _B0,0,14,18,1
      643                           .member _B1,1,14,18,1
      644                           .member _B2,2,14,18,1
      645                           .member _B3,3,14,18,1
      646                           .member _B4,4,14,18,1
      647                           .member _B5,5,14,18,1
      648                           .member _B6,6,14,18,1
TMS320C3x/4x COFF AssemblerVersion 5.11     Fri Sep 17 14:23:56 2010
Copyright (c) 1987-1999 Texas Instruments Incorporatedc:\lang\tms320c3x\511\bin\asm30.exe -l gpproface.asm gpproface.obj -tC:\Users\jds\AppData\Local\Temp\gpproface.tmp 

gpproface.asm                                                        PAGE   13

      649                           .member _B7,7,14,18,1
      650                           .eos
      651                           .utag   .fake74,32
      652                           .member _BYTE,0,14,11,32
      653                           .member _BIT,0,8,11,32,.fake75
      654                           .eos
      655                           .stag   .fake73,32
      656                           .member _DR,0,9,8,32,.fake74
      657                           .eos
      658                           .sym    _TMS_SEND_DATA,0,8,13,32,.fake73
      659                           .stag   .fake76,192
      660                           .member _nIDC_ROM_Flag,0,12,8,32
      661                           .member _nErCnt,32,12,8,32
      662                           .member _nDataNvsrLoad,64,12,8,32
      663                           .member _nDataNvsrWait,96,12,8,32
      664                           .member _nRomWriteCnt,128,12,8,32
      665                           .member _nKO_Flag,160,12,8,32
      666                           .eos
      667                           .sym    _IDC_ROM_WRITE,0,8,13,192,.fake76
      668                           .stag   .fake77,288
      669                           .member _nTimeTranNum,0,14,8,32
      670                           .member _nStartHour,32,60,8,64,,2
      671                           .member _nStartMin,96,60,8,64,,2
      672                           .member _nEndHour,160,60,8,64,,2
      673                           .member _nEndMin,224,60,8,64,,2
      674                           .eos
      675                           .sym    _TRANNUMTIME,0,8,13,288,.fake77
      676                           .sym    _PTRANNUMTIME,0,24,13,32,.fake77
      677                           .stag   .fake78,9792
      678                           .member _nTIMEBUF,0,56,8,9792,.fake77,34
      679                           .eos
      680                           .sym    _TIMEBUF,0,8,13,9792,.fake78
      681                           .sym    _PTIMEBUF,0,24,13,32,.fake78
      682                           .file   "string.h"
      683                           .sym    _size_t,0,14,13,32
      684                           .file   "gpproface.c"
      685                   
      686 00000000                  .sect   ".cinit"
      687 00000000 00000001         .field          1,32
      688 00000001 00000000-        .field          _m_StartScreenSetTime+0,32
      689 00000002 00000000         .field          0,32            ; _m_StartScreenSetTime @ 0
      690                   
      691 00000000                  .sect   ".text"
      692                   
      693                           .global _m_StartScreenSetTime
      694 00000000                  .bss    _m_StartScreenSetTime,1
      695                           .sym    _m_StartScreenSetTime,_m_StartScreenSetTime,4,2,32
      696                   
      697 00000003                  .sect   ".cinit"
      698 00000003 00000001         .field          1,32
      699 00000004 00000001-        .field          _nTimeGp_Cnt+0,32
      700 00000005 00000000         .field          0,32            ; _nTimeGp_Cnt @ 0
      701                   
      702 00000000                  .sect   ".text"
TMS320C3x/4x COFF AssemblerVersion 5.11     Fri Sep 17 14:23:56 2010
Copyright (c) 1987-1999 Texas Instruments Incorporatedc:\lang\tms320c3x\511\bin\asm30.exe -l gpproface.asm gpproface.obj -tC:\Users\jds\AppData\Local\Temp\gpproface.tmp 

gpproface.asm                                                        PAGE   14

      703                   
      704                           .global _nTimeGp_Cnt
      705 00000001                  .bss    _nTimeGp_Cnt,1
      706                           .sym    _nTimeGp_Cnt,_nTimeGp_Cnt,12,2,32
      707                   
      708 00000006                  .sect   ".cinit"
      709 00000006 00000001         .field          1,32
      710 00000007 00000002-        .field          _glTxA3_Len+0,32
      711 00000008 00000000         .field          0,32            ; _glTxA3_Len @ 0
      712                   
      713 00000000                  .sect   ".text"
      714                   
      715                           .global _glTxA3_Len
      716 00000002                  .bss    _glTxA3_Len,1
      717                           .sym    _glTxA3_Len,_glTxA3_Len,12,2,32
      718 00000000                  .sect    ".text"
      719                   
      720                           .global _gp_WritingDWord
      721                           .sym    _gp_WritingDWord,_gp_WritingDWord,32,2,0
      722                           .func   53
      723                   ;******************************************************************************
      724                   ;* FUNCTION NAME: _gp_WritingDWord                                            *
      725                   ;*                                                                            *
      726                   ;*   Architecture       : TMS320C30                                           *
      727                   ;*   Calling Convention : Stack Parameter Convention                          *
      728                   ;*   Function Uses Regs : r0,r1,ar0,ir0                                       *
      729                   ;*   Regs Saved         :                                                     *
      730                   ;*   Stack Frame        : Full (w/ debug)                                     *
      731                   ;*   Total Frame Size   : 2 Call + 2 Parm + 0 Auto + 0 SOE = 4 words          *
      732                   ;******************************************************************************
      733 00000000          _gp_WritingDWord:
      734                           .sym    _Addr,-2,14,9,32
      735                           .sym    _nData,-3,14,9,32
      736                           .line   1
      737                   ;----------------------------------------------------------------------
      738                   ;  53 | void gp_WritingDWord(WORD Addr,WORD nData)                             
      739                   ;----------------------------------------------------------------------
      740 00000000 0f2b0000         push      fp
      741 00000001 500b0014         ldiu      sp,fp
      742                           .line   2
      743                           .line   3
      744                   ;----------------------------------------------------------------------
      745                   ;  55 | glTxBufA3[glTxA3_Len++] = STX;                                         
      746                   ;----------------------------------------------------------------------
      747 00000002 50610001         ldiu      1,r1
      748 00000003 5028020a-        ldiu      @CL1,ar0
      749 00000004 50310002-        ldiu      @_glTxA3_Len+0,ir0
      750 00000005 5060001b         ldiu      27,r0
      751 00000006 02010011         addi      ir0,r1
      752 00000007 15210002-        sti       r1,@_glTxA3_Len+0
      753 00000008 15404000         sti       r0,*+ar0(ir0)
      754                           .line   4
      755                   ;----------------------------------------------------------------------
      756                   ;  56 | glTxBufA3[glTxA3_Len++] = 'W';                                         
TMS320C3x/4x COFF AssemblerVersion 5.11     Fri Sep 17 14:23:56 2010
Copyright (c) 1987-1999 Texas Instruments Incorporatedc:\lang\tms320c3x\511\bin\asm30.exe -l gpproface.asm gpproface.obj -tC:\Users\jds\AppData\Local\Temp\gpproface.tmp 

gpproface.asm                                                        PAGE   15

      757                   ;----------------------------------------------------------------------
      758 00000009 50610001         ldiu      1,r1
      759 0000000a 50310002-        ldiu      @_glTxA3_Len+0,ir0
      760 0000000b 50600057         ldiu      87,r0
      761 0000000c 02010011         addi      ir0,r1
      762 0000000d 15210002-        sti       r1,@_glTxA3_Len+0
      763 0000000e 15404000         sti       r0,*+ar0(ir0)
      764                           .line   5
      765                   ;----------------------------------------------------------------------
      766                   ;  57 | glTxBufA3[glTxA3_Len++] = (Addr>>8)&0xff;                              
      767                   ;----------------------------------------------------------------------
      768 0000000f 50610001         ldiu      1,r1
      769 00000010 50400b02         ldiu      *-fp(2),r0
      770 00000011 50310002-        ldiu      @_glTxA3_Len+0,ir0
      771 00000012 09e0fff8         lsh       -8,r0
      772 00000013 02010011         addi      ir0,r1
      773 00000014 02e000ff         and       255,r0
      774 00000015 15210002-        sti       r1,@_glTxA3_Len+0
      775 00000016 15404000         sti       r0,*+ar0(ir0)
      776                           .line   6
      777                   ;----------------------------------------------------------------------
      778                   ;  58 | glTxBufA3[glTxA3_Len++] = Addr&0xff;                                   
      779                   ;----------------------------------------------------------------------
      780 00000017 506000ff         ldiu      255,r0
      781 00000018 50310002-        ldiu      @_glTxA3_Len+0,ir0
      782 00000019 50610001         ldiu      1,r1
      783 0000001a 02010011         addi      ir0,r1
      784 0000001b 15210002-        sti       r1,@_glTxA3_Len+0
      785 0000001c 02c00b02         and       *-fp(2),r0
      786 0000001d 15404000         sti       r0,*+ar0(ir0)
      787                           .line   7
      788                   ;----------------------------------------------------------------------
      789                   ;  59 | glTxBufA3[glTxA3_Len++] = 0x00;                                        
      790                   ;----------------------------------------------------------------------
      791 0000001e 50600001         ldiu      1,r0
      792 0000001f 50310002-        ldiu      @_glTxA3_Len+0,ir0
      793 00000020 02000011         addi      ir0,r0
      794 00000021 50610000         ldiu      0,r1
      795 00000022 15200002-        sti       r0,@_glTxA3_Len+0
      796 00000023 15414000         sti       r1,*+ar0(ir0)
      797                           .line   8
      798                   ;----------------------------------------------------------------------
      799                   ;  60 | glTxBufA3[glTxA3_Len++] = 0x02;                                        
      800                   ;----------------------------------------------------------------------
      801 00000024 50310002-        ldiu      @_glTxA3_Len+0,ir0
      802 00000025 50600001         ldiu      1,r0
      803 00000026 02000011         addi      ir0,r0
      804 00000027 50610002         ldiu      2,r1
      805 00000028 15200002-        sti       r0,@_glTxA3_Len+0
      806 00000029 15414000         sti       r1,*+ar0(ir0)
      807                           .line   9
      808                   ;----------------------------------------------------------------------
      809                   ;  61 | glTxBufA3[glTxA3_Len++] = (nData >> 24) & 0xff;                        
      810                   ;----------------------------------------------------------------------
TMS320C3x/4x COFF AssemblerVersion 5.11     Fri Sep 17 14:23:56 2010
Copyright (c) 1987-1999 Texas Instruments Incorporatedc:\lang\tms320c3x\511\bin\asm30.exe -l gpproface.asm gpproface.obj -tC:\Users\jds\AppData\Local\Temp\gpproface.tmp 

gpproface.asm                                                        PAGE   16

      811 0000002a 50310002-        ldiu      @_glTxA3_Len+0,ir0
      812 0000002b 50600001         ldiu      1,r0
      813 0000002c 02000011         addi      ir0,r0
      814 0000002d 15200002-        sti       r0,@_glTxA3_Len+0
      815 0000002e 50400b03         ldiu      *-fp(3),r0
      816 0000002f 09e0ffe8         lsh       -24,r0
      817 00000030 02e000ff         and       255,r0
      818 00000031 15404000         sti       r0,*+ar0(ir0)
      819                           .line   10
      820                   ;----------------------------------------------------------------------
      821                   ;  62 | glTxBufA3[glTxA3_Len++] = (nData >> 16) & 0xff;                        
      822                   ;----------------------------------------------------------------------
      823 00000032 50400b03         ldiu      *-fp(3),r0
      824 00000033 50610001         ldiu      1,r1
      825 00000034 50310002-        ldiu      @_glTxA3_Len+0,ir0
      826 00000035 09e0fff0         lsh       -16,r0
      827 00000036 02010011         addi      ir0,r1
      828 00000037 02e000ff         and       255,r0
      829 00000038 15210002-        sti       r1,@_glTxA3_Len+0
      830 00000039 15404000         sti       r0,*+ar0(ir0)
      831                           .line   11
      832                   ;----------------------------------------------------------------------
      833                   ;  63 | glTxBufA3[glTxA3_Len++] = (nData >> 8) & 0xff;                         
      834                   ;----------------------------------------------------------------------
      835 0000003a 50400b03         ldiu      *-fp(3),r0
      836 0000003b 09e0fff8         lsh       -8,r0
      837 0000003c 02e000ff         and       255,r0
      838 0000003d 50310002-        ldiu      @_glTxA3_Len+0,ir0
      839 0000003e 50610001         ldiu      1,r1
      840 0000003f 02010011         addi      ir0,r1
      841 00000040 15210002-        sti       r1,@_glTxA3_Len+0
      842 00000041 15404000         sti       r0,*+ar0(ir0)
      843                           .line   12
      844                   ;----------------------------------------------------------------------
      845                   ;  64 | glTxBufA3[glTxA3_Len++] = nData&0xff;                                  
      846                   ;----------------------------------------------------------------------
      847 00000042 506000ff         ldiu      255,r0
      848 00000043 50610001         ldiu      1,r1
      849 00000044 50310002-        ldiu      @_glTxA3_Len+0,ir0
      850 00000045 02010011         addi      ir0,r1
      851 00000046 02c00b03         and       *-fp(3),r0
      852 00000047 15210002-        sti       r1,@_glTxA3_Len+0
      853 00000048 15404000         sti       r0,*+ar0(ir0)
      854                           .line   13
      855 00000049 50510b01         ldiu      *-fp(1),ir0
      856 0000004a 504bc300         ldiu      *fp,fp
      857 0000004b 18740002         subi      2,sp
      858 0000004c 68000011         bu        ir0
      859                   ;*      Branch Occurs to ir0 
      860                           .endfunc        65,000000000h,0
      861                   
      862                   
      863 0000004d                  .sect    ".text"
      864                   
TMS320C3x/4x COFF AssemblerVersion 5.11     Fri Sep 17 14:23:56 2010
Copyright (c) 1987-1999 Texas Instruments Incorporatedc:\lang\tms320c3x\511\bin\asm30.exe -l gpproface.asm gpproface.obj -tC:\Users\jds\AppData\Local\Temp\gpproface.tmp 

gpproface.asm                                                        PAGE   17

      865                           .global _gp_WritingWord
      866                           .sym    _gp_WritingWord,_gp_WritingWord,32,2,0
      867                           .func   66
      868                   ;******************************************************************************
      869                   ;* FUNCTION NAME: _gp_WritingWord                                             *
      870                   ;*                                                                            *
      871                   ;*   Architecture       : TMS320C30                                           *
      872                   ;*   Calling Convention : Stack Parameter Convention                          *
      873                   ;*   Function Uses Regs : r0,r1,ar0,ir0                                       *
      874                   ;*   Regs Saved         :                                                     *
      875                   ;*   Stack Frame        : Full (w/ debug)                                     *
      876                   ;*   Total Frame Size   : 2 Call + 2 Parm + 0 Auto + 0 SOE = 4 words          *
      877                   ;******************************************************************************
      878 0000004d          _gp_WritingWord:
      879                           .sym    _Addr,-2,14,9,32
      880                           .sym    _nData,-3,14,9,32
      881                           .line   1
      882                   ;----------------------------------------------------------------------
      883                   ;  66 | void gp_WritingWord(WORD Addr,WORD nData)                              
      884                   ;----------------------------------------------------------------------
      885 0000004d 0f2b0000         push      fp
      886 0000004e 500b0014         ldiu      sp,fp
      887                           .line   2
      888                           .line   3
      889                   ;----------------------------------------------------------------------
      890                   ;  68 | glTxBufA3[glTxA3_Len++] = STX;                                         
      891                   ;----------------------------------------------------------------------
      892 0000004f 50610001         ldiu      1,r1
      893 00000050 5028020a-        ldiu      @CL1,ar0
      894 00000051 50310002-        ldiu      @_glTxA3_Len+0,ir0
      895 00000052 5060001b         ldiu      27,r0
      896 00000053 02010011         addi      ir0,r1
      897 00000054 15210002-        sti       r1,@_glTxA3_Len+0
      898 00000055 15404000         sti       r0,*+ar0(ir0)
      899                           .line   4
      900                   ;----------------------------------------------------------------------
      901                   ;  69 | glTxBufA3[glTxA3_Len++] = 'W';                                         
      902                   ;----------------------------------------------------------------------
      903 00000056 50610001         ldiu      1,r1
      904 00000057 50310002-        ldiu      @_glTxA3_Len+0,ir0
      905 00000058 50600057         ldiu      87,r0
      906 00000059 02010011         addi      ir0,r1
      907 0000005a 15210002-        sti       r1,@_glTxA3_Len+0
      908 0000005b 15404000         sti       r0,*+ar0(ir0)
      909                           .line   5
      910                   ;----------------------------------------------------------------------
      911                   ;  70 | glTxBufA3[glTxA3_Len++] = (Addr>>8)&0xff;                              
      912                   ;----------------------------------------------------------------------
      913 0000005c 50610001         ldiu      1,r1
      914 0000005d 50400b02         ldiu      *-fp(2),r0
      915 0000005e 50310002-        ldiu      @_glTxA3_Len+0,ir0
      916 0000005f 09e0fff8         lsh       -8,r0
      917 00000060 02010011         addi      ir0,r1
      918 00000061 02e000ff         and       255,r0
TMS320C3x/4x COFF AssemblerVersion 5.11     Fri Sep 17 14:23:56 2010
Copyright (c) 1987-1999 Texas Instruments Incorporatedc:\lang\tms320c3x\511\bin\asm30.exe -l gpproface.asm gpproface.obj -tC:\Users\jds\AppData\Local\Temp\gpproface.tmp 

gpproface.asm                                                        PAGE   18

      919 00000062 15210002-        sti       r1,@_glTxA3_Len+0
      920 00000063 15404000         sti       r0,*+ar0(ir0)
      921                           .line   6
      922                   ;----------------------------------------------------------------------
      923                   ;  71 | glTxBufA3[glTxA3_Len++] = Addr&0xff;                                   
      924                   ;----------------------------------------------------------------------
      925 00000064 506000ff         ldiu      255,r0
      926 00000065 50310002-        ldiu      @_glTxA3_Len+0,ir0
      927 00000066 50610001         ldiu      1,r1
      928 00000067 02010011         addi      ir0,r1
      929 00000068 15210002-        sti       r1,@_glTxA3_Len+0
      930 00000069 02c00b02         and       *-fp(2),r0
      931 0000006a 15404000         sti       r0,*+ar0(ir0)
      932                           .line   7
      933                   ;----------------------------------------------------------------------
      934                   ;  72 | glTxBufA3[glTxA3_Len++] = 0x00;                                        
      935                   ;----------------------------------------------------------------------
      936 0000006b 50600001         ldiu      1,r0
      937 0000006c 50310002-        ldiu      @_glTxA3_Len+0,ir0
      938 0000006d 02000011         addi      ir0,r0
      939 0000006e 50610000         ldiu      0,r1
      940 0000006f 15200002-        sti       r0,@_glTxA3_Len+0
      941 00000070 15414000         sti       r1,*+ar0(ir0)
      942                           .line   8
      943                   ;----------------------------------------------------------------------
      944                   ;  73 | glTxBufA3[glTxA3_Len++] = 0x01;                                        
      945                   ;----------------------------------------------------------------------
      946 00000071 50310002-        ldiu      @_glTxA3_Len+0,ir0
      947 00000072 50600001         ldiu      1,r0
      948 00000073 02000011         addi      ir0,r0
      949 00000074 50610001         ldiu      1,r1
      950 00000075 15200002-        sti       r0,@_glTxA3_Len+0
      951 00000076 15414000         sti       r1,*+ar0(ir0)
      952                           .line   9
      953                   ;----------------------------------------------------------------------
      954                   ;  74 | glTxBufA3[glTxA3_Len++] = (nData >> 8) & 0xff;                         
      955                   ;----------------------------------------------------------------------
      956 00000077 50310002-        ldiu      @_glTxA3_Len+0,ir0
      957 00000078 50600001         ldiu      1,r0
      958 00000079 02000011         addi      ir0,r0
      959 0000007a 15200002-        sti       r0,@_glTxA3_Len+0
      960 0000007b 50400b03         ldiu      *-fp(3),r0
      961 0000007c 09e0fff8         lsh       -8,r0
      962 0000007d 02e000ff         and       255,r0
      963 0000007e 15404000         sti       r0,*+ar0(ir0)
      964                           .line   10
      965                   ;----------------------------------------------------------------------
      966                   ;  75 | glTxBufA3[glTxA3_Len++] = nData&0xff;                                  
      967                   ;----------------------------------------------------------------------
      968 0000007f 506000ff         ldiu      255,r0
      969 00000080 50310002-        ldiu      @_glTxA3_Len+0,ir0
      970 00000081 02010011         addi      ir0,r1
      971 00000082 02c00b03         and       *-fp(3),r0
      972 00000083 15210002-        sti       r1,@_glTxA3_Len+0
TMS320C3x/4x COFF AssemblerVersion 5.11     Fri Sep 17 14:23:56 2010
Copyright (c) 1987-1999 Texas Instruments Incorporatedc:\lang\tms320c3x\511\bin\asm30.exe -l gpproface.asm gpproface.obj -tC:\Users\jds\AppData\Local\Temp\gpproface.tmp 

gpproface.asm                                                        PAGE   19

      973 00000084 15404000         sti       r0,*+ar0(ir0)
      974                           .line   11
      975 00000085 50510b01         ldiu      *-fp(1),ir0
      976 00000086 504bc300         ldiu      *fp,fp
      977 00000087 18740002         subi      2,sp
      978 00000088 68000011         bu        ir0
      979                   ;*      Branch Occurs to ir0 
      980                           .endfunc        76,000000000h,0
      981                   
      982                   
      983 00000089                  .sect    ".text"
      984                   
      985                           .global _gp_ReadingWord
      986                           .sym    _gp_ReadingWord,_gp_ReadingWord,32,2,0
      987                           .func   78
      988                   ;******************************************************************************
      989                   ;* FUNCTION NAME: _gp_ReadingWord                                             *
      990                   ;*                                                                            *
      991                   ;*   Architecture       : TMS320C30                                           *
      992                   ;*   Calling Convention : Stack Parameter Convention                          *
      993                   ;*   Function Uses Regs : r0,r1,ar0,ir0                                       *
      994                   ;*   Regs Saved         :                                                     *
      995                   ;*   Stack Frame        : Full (w/ debug)                                     *
      996                   ;*   Total Frame Size   : 2 Call + 2 Parm + 0 Auto + 0 SOE = 4 words          *
      997                   ;******************************************************************************
      998 00000089          _gp_ReadingWord:
      999                           .sym    _Addr,-2,14,9,32
     1000                           .sym    _nCnt,-3,14,9,32
     1001                           .line   1
     1002                   ;----------------------------------------------------------------------
     1003                   ;  78 | void gp_ReadingWord(WORD Addr,WORD nCnt)                               
     1004                   ;----------------------------------------------------------------------
     1005 00000089 0f2b0000         push      fp
     1006 0000008a 500b0014         ldiu      sp,fp
     1007                           .line   2
     1008                           .line   3
     1009                   ;----------------------------------------------------------------------
     1010                   ;  80 | glTxBufA3[glTxA3_Len++] = STX;                                         
     1011                   ;----------------------------------------------------------------------
     1012 0000008b 50610001         ldiu      1,r1
     1013 0000008c 5028020a-        ldiu      @CL1,ar0
     1014 0000008d 50310002-        ldiu      @_glTxA3_Len+0,ir0
     1015 0000008e 5060001b         ldiu      27,r0
     1016 0000008f 02010011         addi      ir0,r1
     1017 00000090 15210002-        sti       r1,@_glTxA3_Len+0
     1018 00000091 15404000         sti       r0,*+ar0(ir0)
     1019                           .line   4
     1020                   ;----------------------------------------------------------------------
     1021                   ;  81 | glTxBufA3[glTxA3_Len++] = 'R';                                         
     1022                   ;----------------------------------------------------------------------
     1023 00000092 50610001         ldiu      1,r1
     1024 00000093 50310002-        ldiu      @_glTxA3_Len+0,ir0
     1025 00000094 50600052         ldiu      82,r0
     1026 00000095 02010011         addi      ir0,r1
TMS320C3x/4x COFF AssemblerVersion 5.11     Fri Sep 17 14:23:56 2010
Copyright (c) 1987-1999 Texas Instruments Incorporatedc:\lang\tms320c3x\511\bin\asm30.exe -l gpproface.asm gpproface.obj -tC:\Users\jds\AppData\Local\Temp\gpproface.tmp 

gpproface.asm                                                        PAGE   20

     1027 00000096 15210002-        sti       r1,@_glTxA3_Len+0
     1028 00000097 15404000         sti       r0,*+ar0(ir0)
     1029                           .line   5
     1030                   ;----------------------------------------------------------------------
     1031                   ;  82 | glTxBufA3[glTxA3_Len++] = (Addr>>8)&0xff;                              
     1032                   ;----------------------------------------------------------------------
     1033 00000098 50610001         ldiu      1,r1
     1034 00000099 50400b02         ldiu      *-fp(2),r0
     1035 0000009a 50310002-        ldiu      @_glTxA3_Len+0,ir0
     1036 0000009b 09e0fff8         lsh       -8,r0
     1037 0000009c 02010011         addi      ir0,r1
     1038 0000009d 02e000ff         and       255,r0
     1039 0000009e 15210002-        sti       r1,@_glTxA3_Len+0
     1040 0000009f 15404000         sti       r0,*+ar0(ir0)
     1041                           .line   6
     1042                   ;----------------------------------------------------------------------
     1043                   ;  83 | glTxBufA3[glTxA3_Len++] = Addr&0xff;                                   
     1044                   ;----------------------------------------------------------------------
     1045 000000a0 506000ff         ldiu      255,r0
     1046 000000a1 50310002-        ldiu      @_glTxA3_Len+0,ir0
     1047 000000a2 50610001         ldiu      1,r1
     1048 000000a3 02010011         addi      ir0,r1
     1049 000000a4 15210002-        sti       r1,@_glTxA3_Len+0
     1050 000000a5 02c00b02         and       *-fp(2),r0
     1051 000000a6 15404000         sti       r0,*+ar0(ir0)
     1052                           .line   7
     1053                   ;----------------------------------------------------------------------
     1054                   ;  84 | glTxBufA3[glTxA3_Len++] = (nCnt >> 8) & 0xff;                          
     1055                   ;----------------------------------------------------------------------
     1056 000000a7 50600001         ldiu      1,r0
     1057 000000a8 50310002-        ldiu      @_glTxA3_Len+0,ir0
     1058 000000a9 02000011         addi      ir0,r0
     1059 000000aa 15200002-        sti       r0,@_glTxA3_Len+0
     1060 000000ab 50400b03         ldiu      *-fp(3),r0
     1061 000000ac 09e0fff8         lsh       -8,r0
     1062 000000ad 02e000ff         and       255,r0
     1063 000000ae 15404000         sti       r0,*+ar0(ir0)
     1064                           .line   8
     1065                   ;----------------------------------------------------------------------
     1066                   ;  85 | glTxBufA3[glTxA3_Len++] = nCnt&0xff;                                   
     1067                   ;----------------------------------------------------------------------
     1068 000000af 506000ff         ldiu      255,r0
     1069 000000b0 02c00b03         and       *-fp(3),r0
     1070 000000b1 50310002-        ldiu      @_glTxA3_Len+0,ir0
     1071 000000b2 50610001         ldiu      1,r1
     1072 000000b3 02010011         addi      ir0,r1
     1073 000000b4 15210002-        sti       r1,@_glTxA3_Len+0
     1074 000000b5 15404000         sti       r0,*+ar0(ir0)
     1075                           .line   9
     1076 000000b6 50510b01         ldiu      *-fp(1),ir0
     1077 000000b7 504bc300         ldiu      *fp,fp
     1078 000000b8 18740002         subi      2,sp
     1079 000000b9 68000011         bu        ir0
     1080                   ;*      Branch Occurs to ir0 
TMS320C3x/4x COFF AssemblerVersion 5.11     Fri Sep 17 14:23:56 2010
Copyright (c) 1987-1999 Texas Instruments Incorporatedc:\lang\tms320c3x\511\bin\asm30.exe -l gpproface.asm gpproface.obj -tC:\Users\jds\AppData\Local\Temp\gpproface.tmp 

gpproface.asm                                                        PAGE   21

     1081                           .endfunc        86,000000000h,0
     1082                   
     1083                   
     1084 000000ba                  .sect    ".text"
     1085                   
     1086                           .global _gp_WritingStr
     1087                           .sym    _gp_WritingStr,_gp_WritingStr,32,2,0
     1088                           .func   88
     1089                   ;******************************************************************************
     1090                   ;* FUNCTION NAME: _gp_WritingStr                                              *
     1091                   ;*                                                                            *
     1092                   ;*   Architecture       : TMS320C30                                           *
     1093                   ;*   Calling Convention : Stack Parameter Convention                          *
     1094                   ;*   Function Uses Regs : r0,r1,r2,ar0,ar1,ir0,ir1,st                         *
     1095                   ;*   Regs Saved         :                                                     *
     1096                   ;*   Stack Frame        : Full (w/ debug)                                     *
     1097                   ;*   Total Frame Size   : 2 Call + 3 Parm + 1 Auto + 0 SOE = 6 words          *
     1098                   ;******************************************************************************
     1099 000000ba          _gp_WritingStr:
     1100                           .sym    _Addr,-2,14,9,32
     1101                           .sym    _Len,-3,14,9,32
     1102                           .sym    _pData,-4,28,9,32
     1103                           .sym    _i,1,4,1,32
     1104                           .line   1
     1105                   ;----------------------------------------------------------------------
     1106                   ;  88 | void gp_WritingStr(WORD Addr,WORD Len, UCHAR *pData)                   
     1107                   ;----------------------------------------------------------------------
     1108 000000ba 0f2b0000         push      fp
     1109 000000bb 500b0014         ldiu      sp,fp
     1110 000000bc 02740001         addi      1,sp
     1111                           .line   2
     1112                   ;----------------------------------------------------------------------
     1113                   ;  90 | int i;                                                                 
     1114                   ;----------------------------------------------------------------------
     1115                           .line   5
     1116                   ;----------------------------------------------------------------------
     1117                   ;  92 | glTxBufA3[glTxA3_Len++] = STX;                                         
     1118                   ;----------------------------------------------------------------------
     1119 000000bd 50610001         ldiu      1,r1
     1120 000000be 5028020a-        ldiu      @CL1,ar0
     1121 000000bf 50310002-        ldiu      @_glTxA3_Len+0,ir0
     1122 000000c0 5060001b         ldiu      27,r0
     1123 000000c1 02010011         addi      ir0,r1
     1124 000000c2 15210002-        sti       r1,@_glTxA3_Len+0
     1125 000000c3 15404000         sti       r0,*+ar0(ir0)
     1126                           .line   6
     1127                   ;----------------------------------------------------------------------
     1128                   ;  93 | glTxBufA3[glTxA3_Len++] = 'W';                                         
     1129                   ;----------------------------------------------------------------------
     1130 000000c4 50610001         ldiu      1,r1
     1131 000000c5 50310002-        ldiu      @_glTxA3_Len+0,ir0
     1132 000000c6 50600057         ldiu      87,r0
     1133 000000c7 02010011         addi      ir0,r1
     1134 000000c8 15210002-        sti       r1,@_glTxA3_Len+0
TMS320C3x/4x COFF AssemblerVersion 5.11     Fri Sep 17 14:23:56 2010
Copyright (c) 1987-1999 Texas Instruments Incorporatedc:\lang\tms320c3x\511\bin\asm30.exe -l gpproface.asm gpproface.obj -tC:\Users\jds\AppData\Local\Temp\gpproface.tmp 

gpproface.asm                                                        PAGE   22

     1135 000000c9 15404000         sti       r0,*+ar0(ir0)
     1136                           .line   7
     1137                   ;----------------------------------------------------------------------
     1138                   ;  94 | glTxBufA3[glTxA3_Len++] = (Addr>>8)&0xff;                              
     1139                   ;----------------------------------------------------------------------
     1140 000000ca 50610001         ldiu      1,r1
     1141 000000cb 50400b02         ldiu      *-fp(2),r0
     1142 000000cc 50310002-        ldiu      @_glTxA3_Len+0,ir0
     1143 000000cd 09e0fff8         lsh       -8,r0
     1144 000000ce 02010011         addi      ir0,r1
     1145 000000cf 02e000ff         and       255,r0
     1146 000000d0 15210002-        sti       r1,@_glTxA3_Len+0
     1147 000000d1 15404000         sti       r0,*+ar0(ir0)
     1148                           .line   8
     1149                   ;----------------------------------------------------------------------
     1150                   ;  95 | glTxBufA3[glTxA3_Len++] = Addr&0xff;                                   
     1151                   ;----------------------------------------------------------------------
     1152 000000d2 506000ff         ldiu      255,r0
     1153 000000d3 50310002-        ldiu      @_glTxA3_Len+0,ir0
     1154 000000d4 50610001         ldiu      1,r1
     1155 000000d5 02010011         addi      ir0,r1
     1156 000000d6 15210002-        sti       r1,@_glTxA3_Len+0
     1157 000000d7 02c00b02         and       *-fp(2),r0
     1158 000000d8 15404000         sti       r0,*+ar0(ir0)
     1159                           .line   9
     1160                   ;----------------------------------------------------------------------
     1161                   ;  96 | glTxBufA3[glTxA3_Len++] = (Len>>8)&0xff;                               
     1162                   ;----------------------------------------------------------------------
     1163 000000d9 50600001         ldiu      1,r0
     1164 000000da 50310002-        ldiu      @_glTxA3_Len+0,ir0
     1165 000000db 02000011         addi      ir0,r0
     1166 000000dc 15200002-        sti       r0,@_glTxA3_Len+0
     1167 000000dd 50400b03         ldiu      *-fp(3),r0
     1168 000000de 09e0fff8         lsh       -8,r0
     1169 000000df 02e000ff         and       255,r0
     1170 000000e0 15404000         sti       r0,*+ar0(ir0)
     1171                           .line   10
     1172                   ;----------------------------------------------------------------------
     1173                   ;  97 | glTxBufA3[glTxA3_Len++] = Len&0xff;                                    
     1174                   ;----------------------------------------------------------------------
     1175 000000e1 506000ff         ldiu      255,r0
     1176 000000e2 02c00b03         and       *-fp(3),r0
     1177 000000e3 50610001         ldiu      1,r1
     1178 000000e4 50310002-        ldiu      @_glTxA3_Len+0,ir0
     1179 000000e5 02010011         addi      ir0,r1
     1180 000000e6 15210002-        sti       r1,@_glTxA3_Len+0
     1181 000000e7 15404000         sti       r0,*+ar0(ir0)
     1182                           .line   12
     1183                   ;----------------------------------------------------------------------
     1184                   ;  99 | for(i=0;i<Len*2;i++)                                                   
     1185                   ;----------------------------------------------------------------------
     1186 000000e8 50600000         ldiu      0,r0
     1187 000000e9 15400301         sti       r0,*+fp(1)
     1188 000000ea 50400b03         ldiu      *-fp(3),r0
TMS320C3x/4x COFF AssemblerVersion 5.11     Fri Sep 17 14:23:56 2010
Copyright (c) 1987-1999 Texas Instruments Incorporatedc:\lang\tms320c3x\511\bin\asm30.exe -l gpproface.asm gpproface.obj -tC:\Users\jds\AppData\Local\Temp\gpproface.tmp 

gpproface.asm                                                        PAGE   23

     1189 000000eb 0ae00002         mpyi      2,r0
     1190 000000ec 50420301         ldiu      *+fp(1),r2
     1191 000000ed 23800200         cmpi3     r0,r2
     1192 000000ee 506100ff         ldiu      255,r1
     1193 000000ef 6a040011         bhs       L12
     1194                   ;*      Branch Occurs to L12 
     1195 000000f0          L11:        
     1196                           .line   14
     1197                   ;----------------------------------------------------------------------
     1198                   ; 101 | glTxBufA3[glTxA3_Len++] = WORD_L(pData[i]);                            
     1199                   ;----------------------------------------------------------------------
     1200 000000f0 50620001         ldiu      1,r2
     1201 000000f1 50310002-        ldiu      @_glTxA3_Len+0,ir0
     1202 000000f2 50520b04         ldiu      *-fp(4),ir1
     1203 000000f3 50490301         ldiu      *+fp(1),ar1
     1204 000000f4 5028020a-        ldiu      @CL1,ar0
     1205 000000f5 02020011         addi      ir0,r2
     1206 000000f6 21a08101         and3      r1,*+ar1(ir1),r0
     1207 000000f7 15220002-        sti       r2,@_glTxA3_Len+0
     1208 000000f8 15404000         sti       r0,*+ar0(ir0)
     1209                           .line   12
     1210 000000f9 50600001         ldiu      1,r0
     1211 000000fa 02400301         addi      *+fp(1),r0
     1212 000000fb 15400301         sti       r0,*+fp(1)
     1213 000000fc 50400b03         ldiu      *-fp(3),r0
     1214 000000fd 50420301         ldiu      *+fp(1),r2
     1215 000000fe 0ae00002         mpyi      2,r0
     1216 000000ff 23800200         cmpi3     r0,r2
     1217 00000100 6a01ffef         blo       L11
     1218                   ;*      Branch Occurs to L11 
     1219 00000101          L12:        
     1220                           .line   16
     1221 00000101 50520b01         ldiu      *-fp(1),ir1
     1222 00000102 504bc300         ldiu      *fp,fp
     1223 00000103 18740003         subi      3,sp
     1224 00000104 68000012         bu        ir1
     1225                   ;*      Branch Occurs to ir1 
     1226                           .endfunc        103,000000000h,1
     1227                   
     1228                   
     1229 00000105                  .sect    ".text"
     1230                   
     1231                           .global _Hex2ASCIIW
     1232                           .sym    _Hex2ASCIIW,_Hex2ASCIIW,44,2,0
     1233                           .func   114
     1234                   ;******************************************************************************
     1235                   ;* FUNCTION NAME: _Hex2ASCIIW                                                 *
     1236                   ;*                                                                            *
     1237                   ;*   Architecture       : TMS320C30                                           *
     1238                   ;*   Calling Convention : Stack Parameter Convention                          *
     1239                   ;*   Function Uses Regs : r0,r1,ar0                                           *
     1240                   ;*   Regs Saved         :                                                     *
     1241                   ;*   Stack Frame        : Full (w/ debug)                                     *
     1242                   ;*   Total Frame Size   : 2 Call + 2 Parm + 0 Auto + 0 SOE = 4 words          *
TMS320C3x/4x COFF AssemblerVersion 5.11     Fri Sep 17 14:23:56 2010
Copyright (c) 1987-1999 Texas Instruments Incorporatedc:\lang\tms320c3x\511\bin\asm30.exe -l gpproface.asm gpproface.obj -tC:\Users\jds\AppData\Local\Temp\gpproface.tmp 

gpproface.asm                                                        PAGE   24

     1243                   ;******************************************************************************
     1244 00000105          _Hex2ASCIIW:
     1245                           .sym    _nInput,-2,14,9,32
     1246                           .sym    _pOutput,-3,28,9,32
     1247                           .line   1
     1248                   ;----------------------------------------------------------------------
     1249                   ; 114 | UCHAR Hex2ASCIIW(WORD nInput, UCHAR *pOutput)                          
     1250                   ;----------------------------------------------------------------------
     1251 00000105 0f2b0000         push      fp
     1252 00000106 500b0014         ldiu      sp,fp
     1253                           .line   2
     1254                           .line   3
     1255                   ;----------------------------------------------------------------------
     1256                   ; 116 | pOutput[0] = 0x30;                                                     
     1257                   ;----------------------------------------------------------------------
     1258 00000107 50480b03         ldiu      *-fp(3),ar0
     1259 00000108 50600030         ldiu      48,r0
     1260 00000109 1540c000         sti       r0,*ar0
     1261                           .line   4
     1262                   ;----------------------------------------------------------------------
     1263                   ; 117 | pOutput[1] = ((nInput>>12)&0xf)%10 +0x30;                              
     1264                   ;----------------------------------------------------------------------
     1265 0000010a 50400b02         ldiu      *-fp(2),r0
     1266 0000010b 09e0fff4         lsh       -12,r0
     1267 0000010c 02e0000f         and       15,r0
     1268 0000010d 5061000a         ldiu      10,r1
     1269 0000010e 62000000!        call      MOD_U30
     1270                                                           ; Call Occurs
     1271 0000010f 50480b03         ldiu      *-fp(3),ar0
     1272 00000110 02600030         addi      48,r0                 ; Unsigned
     1273 00000111 15400001         sti       r0,*+ar0(1)
     1274                           .line   5
     1275                   ;----------------------------------------------------------------------
     1276                   ; 118 | pOutput[2] = ((nInput>>8 )&0xf)%10 +0x30;                              
     1277                   ;----------------------------------------------------------------------
     1278 00000112 50400b02         ldiu      *-fp(2),r0
     1279 00000113 09e0fff8         lsh       -8,r0
     1280 00000114 02e0000f         and       15,r0
     1281 00000115 5061000a         ldiu      10,r1
     1282 00000116 62000000!        call      MOD_U30
     1283                                                           ; Call Occurs
     1284 00000117 50480b03         ldiu      *-fp(3),ar0
     1285 00000118 02600030         addi      48,r0                 ; Unsigned
     1286 00000119 15400002         sti       r0,*+ar0(2)
     1287                           .line   6
     1288                   ;----------------------------------------------------------------------
     1289                   ; 119 | pOutput[3] = ((nInput>>4 )&0xf)%10 +0x30;                              
     1290                   ;----------------------------------------------------------------------
     1291 0000011a 50400b02         ldiu      *-fp(2),r0
     1292 0000011b 09e0fffc         lsh       -4,r0
     1293 0000011c 02e0000f         and       15,r0
     1294 0000011d 5061000a         ldiu      10,r1
     1295 0000011e 62000000!        call      MOD_U30
     1296                                                           ; Call Occurs
TMS320C3x/4x COFF AssemblerVersion 5.11     Fri Sep 17 14:23:56 2010
Copyright (c) 1987-1999 Texas Instruments Incorporatedc:\lang\tms320c3x\511\bin\asm30.exe -l gpproface.asm gpproface.obj -tC:\Users\jds\AppData\Local\Temp\gpproface.tmp 

gpproface.asm                                                        PAGE   25

     1297 0000011f 50480b03         ldiu      *-fp(3),ar0
     1298 00000120 02600030         addi      48,r0                 ; Unsigned
     1299 00000121 15400003         sti       r0,*+ar0(3)
     1300                           .line   7
     1301                   ;----------------------------------------------------------------------
     1302                   ; 120 | pOutput[4] = (nInput&0xf)%10 +0x30;                                    
     1303                   ;----------------------------------------------------------------------
     1304 00000122 5060000f         ldiu      15,r0
     1305 00000123 02c00b02         and       *-fp(2),r0
     1306 00000124 5061000a         ldiu      10,r1
     1307 00000125 62000000!        call      MOD_U30
     1308                                                           ; Call Occurs
     1309 00000126 50480b03         ldiu      *-fp(3),ar0
     1310 00000127 02600030         addi      48,r0                 ; Unsigned
     1311 00000128 15400004         sti       r0,*+ar0(4)
     1312                           .line   8
     1313 00000129 50490b01         ldiu      *-fp(1),ar1
     1314 0000012a 504bc300         ldiu      *fp,fp
     1315 0000012b 18740002         subi      2,sp
     1316 0000012c 68000009         bu        ar1
     1317                   ;*      Branch Occurs to ar1 
     1318                           .endfunc        121,000000000h,0
     1319                   
     1320                   
     1321 0000012d                  .sect    ".text"
     1322                   
     1323                           .global _BCD_BIN
     1324                           .sym    _BCD_BIN,_BCD_BIN,46,2,0
     1325                           .func   123
     1326                   ;******************************************************************************
     1327                   ;* FUNCTION NAME: _BCD_BIN                                                    *
     1328                   ;*                                                                            *
     1329                   ;*   Architecture       : TMS320C30                                           *
     1330                   ;*   Calling Convention : Stack Parameter Convention                          *
     1331                   ;*   Function Uses Regs : r0                                                  *
     1332                   ;*   Regs Saved         :                                                     *
     1333                   ;*   Stack Frame        : Full (w/ debug)                                     *
     1334                   ;*   Total Frame Size   : 2 Call + 1 Parm + 1 Auto + 0 SOE = 4 words          *
     1335                   ;******************************************************************************
     1336 0000012d          _BCD_BIN:
     1337                           .sym    _nInput,-2,14,9,32
     1338                           .sym    _sNum,1,14,1,32
     1339                           .line   1
     1340                   ;----------------------------------------------------------------------
     1341                   ; 123 | WORD BCD_BIN(WORD nInput)                                              
     1342                   ;----------------------------------------------------------------------
     1343 0000012d 0f2b0000         push      fp
     1344 0000012e 500b0014         ldiu      sp,fp
     1345 0000012f 02740001         addi      1,sp
     1346                           .line   2
     1347                           .line   3
     1348                   ;----------------------------------------------------------------------
     1349                   ; 125 | WORD sNum = 0;                                                         
     1350                   ;----------------------------------------------------------------------
TMS320C3x/4x COFF AssemblerVersion 5.11     Fri Sep 17 14:23:56 2010
Copyright (c) 1987-1999 Texas Instruments Incorporatedc:\lang\tms320c3x\511\bin\asm30.exe -l gpproface.asm gpproface.obj -tC:\Users\jds\AppData\Local\Temp\gpproface.tmp 

gpproface.asm                                                        PAGE   26

     1351 00000130 50600000         ldiu      0,r0
     1352 00000131 15400301         sti       r0,*+fp(1)
     1353                           .line   5
     1354                   ;----------------------------------------------------------------------
     1355                   ; 127 | sNum += ((nInput>>12)&0xf) * 1000;                                     
     1356                   ;----------------------------------------------------------------------
     1357 00000132 50400b02         ldiu      *-fp(2),r0
     1358 00000133 09e0fff4         lsh       -12,r0
     1359 00000134 02e0000f         and       15,r0
     1360 00000135 0ae003e8         mpyi      1000,r0
     1361 00000136 02400301         addi      *+fp(1),r0            ; Unsigned
     1362 00000137 15400301         sti       r0,*+fp(1)
     1363                           .line   6
     1364                   ;----------------------------------------------------------------------
     1365                   ; 128 | sNum += ((nInput>>8)&0xf) * 100;                                       
     1366                   ;----------------------------------------------------------------------
     1367 00000138 50400b02         ldiu      *-fp(2),r0
     1368 00000139 09e0fff8         lsh       -8,r0
     1369 0000013a 02e0000f         and       15,r0
     1370 0000013b 0ae00064         mpyi      100,r0
     1371 0000013c 02400301         addi      *+fp(1),r0            ; Unsigned
     1372 0000013d 15400301         sti       r0,*+fp(1)
     1373                           .line   7
     1374                   ;----------------------------------------------------------------------
     1375                   ; 129 | sNum += ((nInput>>4)&0xf) * 10;                                        
     1376                   ;----------------------------------------------------------------------
     1377 0000013e 50400b02         ldiu      *-fp(2),r0
     1378 0000013f 09e0fffc         lsh       -4,r0
     1379 00000140 02e0000f         and       15,r0
     1380 00000141 0ae0000a         mpyi      10,r0
     1381 00000142 02400301         addi      *+fp(1),r0            ; Unsigned
     1382 00000143 15400301         sti       r0,*+fp(1)
     1383                           .line   8
     1384                   ;----------------------------------------------------------------------
     1385                   ; 130 | sNum += ((nInput)&0xf) * 1;                                            
     1386                   ;----------------------------------------------------------------------
     1387 00000144 5060000f         ldiu      15,r0
     1388 00000145 02c00b02         and       *-fp(2),r0
     1389 00000146 02400301         addi      *+fp(1),r0            ; Unsigned
     1390 00000147 15400301         sti       r0,*+fp(1)
     1391                           .line   9
     1392                   ;----------------------------------------------------------------------
     1393                   ; 131 | return sNum;                                                           
     1394                   ;----------------------------------------------------------------------
     1395                           .line   10
     1396 00000148 50410b01         ldiu      *-fp(1),r1
     1397 00000149 504bc300         ldiu      *fp,fp
     1398 0000014a 18740003         subi      3,sp
     1399 0000014b 68000001         bu        r1
     1400                   ;*      Branch Occurs to r1 
     1401                           .endfunc        132,000000000h,1
     1402                   
     1403                   
     1404 0000014c                  .sect    ".text"
TMS320C3x/4x COFF AssemblerVersion 5.11     Fri Sep 17 14:23:56 2010
Copyright (c) 1987-1999 Texas Instruments Incorporatedc:\lang\tms320c3x\511\bin\asm30.exe -l gpproface.asm gpproface.obj -tC:\Users\jds\AppData\Local\Temp\gpproface.tmp 

gpproface.asm                                                        PAGE   27

     1405                   
     1406                           .global _BIN_BCD
     1407                           .sym    _BIN_BCD,_BIN_BCD,46,2,0
     1408                           .func   134
     1409                   ;******************************************************************************
     1410                   ;* FUNCTION NAME: _BIN_BCD                                                    *
     1411                   ;*                                                                            *
     1412                   ;*   Architecture       : TMS320C30                                           *
     1413                   ;*   Calling Convention : Stack Parameter Convention                          *
     1414                   ;*   Function Uses Regs : r0,r1                                               *
     1415                   ;*   Regs Saved         :                                                     *
     1416                   ;*   Stack Frame        : Full (w/ debug)                                     *
     1417                   ;*   Total Frame Size   : 2 Call + 1 Parm + 1 Auto + 0 SOE = 4 words          *
     1418                   ;******************************************************************************
     1419 0000014c          _BIN_BCD:
     1420                           .sym    _nInput,-2,14,9,32
     1421                           .sym    _sNum,1,14,1,32
     1422                           .line   1
     1423                   ;----------------------------------------------------------------------
     1424                   ; 134 | WORD BIN_BCD(WORD nInput)                                              
     1425                   ;----------------------------------------------------------------------
     1426 0000014c 0f2b0000         push      fp
     1427 0000014d 500b0014         ldiu      sp,fp
     1428 0000014e 02740001         addi      1,sp
     1429                           .line   2
     1430                           .line   3
     1431                   ;----------------------------------------------------------------------
     1432                   ; 136 | WORD sNum = 0;                                                         
     1433                   ;----------------------------------------------------------------------
     1434 0000014f 50600000         ldiu      0,r0
     1435 00000150 15400301         sti       r0,*+fp(1)
     1436                           .line   5
     1437                   ;----------------------------------------------------------------------
     1438                   ; 138 | sNum = (((nInput/1000)%10)<<12)&0xf000;                                
     1439                   ;----------------------------------------------------------------------
     1440 00000151 506103e8         ldiu      1000,r1
     1441 00000152 50400b02         ldiu      *-fp(2),r0
     1442 00000153 62000000!        call      DIV_U30
     1443                                                           ; Call Occurs
     1444 00000154 5061000a         ldiu      10,r1
     1445 00000155 62000000!        call      MOD_U30
     1446                                                           ; Call Occurs
     1447 00000156 03e0000c         ash       12,r0
     1448 00000157 02e0f000         and       61440,r0
     1449 00000158 15400301         sti       r0,*+fp(1)
     1450                           .line   6
     1451                   ;----------------------------------------------------------------------
     1452                   ; 139 | sNum |= (((nInput/100)%10)<<8)&0xf00;                                  
     1453                   ;----------------------------------------------------------------------
     1454 00000159 50400b02         ldiu      *-fp(2),r0
     1455 0000015a 50610064         ldiu      100,r1
     1456 0000015b 62000000!        call      DIV_U30
     1457                                                           ; Call Occurs
     1458 0000015c 5061000a         ldiu      10,r1
TMS320C3x/4x COFF AssemblerVersion 5.11     Fri Sep 17 14:23:56 2010
Copyright (c) 1987-1999 Texas Instruments Incorporatedc:\lang\tms320c3x\511\bin\asm30.exe -l gpproface.asm gpproface.obj -tC:\Users\jds\AppData\Local\Temp\gpproface.tmp 

gpproface.asm                                                        PAGE   28

     1459 0000015d 62000000!        call      MOD_U30
     1460                                                           ; Call Occurs
     1461 0000015e 03e00008         ash       8,r0
     1462 0000015f 02e00f00         and       3840,r0
     1463 00000160 10400301         or        *+fp(1),r0
     1464 00000161 15400301         sti       r0,*+fp(1)
     1465                           .line   7
     1466                   ;----------------------------------------------------------------------
     1467                   ; 140 | sNum |= (((nInput/10)%10)<<4)&0xf0;                                    
     1468                   ;----------------------------------------------------------------------
     1469 00000162 50400b02         ldiu      *-fp(2),r0
     1470 00000163 5061000a         ldiu      10,r1
     1471 00000164 62000000!        call      DIV_U30
     1472                                                           ; Call Occurs
     1473 00000165 5061000a         ldiu      10,r1
     1474 00000166 62000000!        call      MOD_U30
     1475                                                           ; Call Occurs
     1476 00000167 03e00004         ash       4,r0
     1477 00000168 02e000f0         and       240,r0
     1478 00000169 10400301         or        *+fp(1),r0
     1479 0000016a 15400301         sti       r0,*+fp(1)
     1480                           .line   8
     1481                   ;----------------------------------------------------------------------
     1482                   ; 141 | sNum |= ((nInput%10)&0xf);                                             
     1483                   ;----------------------------------------------------------------------
     1484 0000016b 50400b02         ldiu      *-fp(2),r0
     1485 0000016c 5061000a         ldiu      10,r1
     1486 0000016d 62000000!        call      MOD_U30
     1487                                                           ; Call Occurs
     1488 0000016e 02e0000f         and       15,r0
     1489 0000016f 10400301         or        *+fp(1),r0
     1490 00000170 15400301         sti       r0,*+fp(1)
     1491                           .line   9
     1492                   ;----------------------------------------------------------------------
     1493                   ; 142 | return sNum;                                                           
     1494                   ;----------------------------------------------------------------------
     1495                           .line   11
     1496 00000171 50490b01         ldiu      *-fp(1),ar1
     1497 00000172 504bc300         ldiu      *fp,fp
     1498 00000173 18740003         subi      3,sp
     1499 00000174 68000009         bu        ar1
     1500                   ;*      Branch Occurs to ar1 
     1501                           .endfunc        144,000000000h,1
     1502                   
     1503                   
     1504 00000175                  .sect    ".text"
     1505                   
     1506                           .global _GpProface_Init
     1507                           .sym    _GpProface_Init,_GpProface_Init,32,2,0
     1508                           .func   147
     1509                   ;******************************************************************************
     1510                   ;* FUNCTION NAME: _GpProface_Init                                             *
     1511                   ;*                                                                            *
     1512                   ;*   Architecture       : TMS320C30                                           *
TMS320C3x/4x COFF AssemblerVersion 5.11     Fri Sep 17 14:23:56 2010
Copyright (c) 1987-1999 Texas Instruments Incorporatedc:\lang\tms320c3x\511\bin\asm30.exe -l gpproface.asm gpproface.obj -tC:\Users\jds\AppData\Local\Temp\gpproface.tmp 

gpproface.asm                                                        PAGE   29

     1513                   ;*   Calling Convention : Stack Parameter Convention                          *
     1514                   ;*   Function Uses Regs : r0,r1,fp,sp                                         *
     1515                   ;*   Regs Saved         :                                                     *
     1516                   ;*   Stack Frame        : Full (w/ debug)                                     *
     1517                   ;*   Total Frame Size   : 2 Call + 0 Parm + 0 Auto + 0 SOE = 2 words          *
     1518                   ;******************************************************************************
     1519 00000175          _GpProface_Init:
     1520                           .line   1
     1521                   ;----------------------------------------------------------------------
     1522                   ; 147 | void GpProface_Init()                                                  
     1523                   ;----------------------------------------------------------------------
     1524 00000175 0f2b0000         push      fp
     1525 00000176 500b0014         ldiu      sp,fp
     1526                           .line   3
     1527                   ;----------------------------------------------------------------------
     1528                   ; 149 | nSelect_Button.nGPTranNumInput.nFlag = 0;                              
     1529                   ;----------------------------------------------------------------------
     1530 00000177 50600000         ldiu      0,r0
     1531 00000178 15200201-        sti       r0,@_nSelect_Button+0
     1532                           .line   4
     1533                   ;----------------------------------------------------------------------
     1534                   ; 150 | nSelect_Button.nScreenRxTime = 100;                                    
     1535                   ;----------------------------------------------------------------------
     1536 00000179 50600064         ldiu      100,r0
     1537 0000017a 15200207-        sti       r0,@_nSelect_Button+6
     1538                           .line   5
     1539                   ;----------------------------------------------------------------------
     1540                   ; 151 | nSelect_Button.nScreenSafe = 600;                                      
     1541                   ;----------------------------------------------------------------------
     1542 0000017b 50600258         ldiu      600,r0
     1543 0000017c 15200208-        sti       r0,@_nSelect_Button+7
     1544                           .line   6
     1545                   ;----------------------------------------------------------------------
     1546                   ; 152 | nSelect_Button.nScreenSetNum = 1;                                      
     1547                   ;----------------------------------------------------------------------
     1548 0000017d 50600001         ldiu      1,r0
     1549 0000017e 15200206-        sti       r0,@_nSelect_Button+5
     1550                           .line   7
     1551                   ;----------------------------------------------------------------------
     1552                   ; 153 | nSelect_Button.nScreen_Send_Delay_Time = 0;                            
     1553                   ; 155 | //   .                                               
     1554                   ;----------------------------------------------------------------------
     1555 0000017f 50600000         ldiu      0,r0
     1556 00000180 15200209-        sti       r0,@_nSelect_Button+8
     1557                           .line   10
     1558                   ;----------------------------------------------------------------------
     1559                   ; 156 | nTr_St_Info.nAutoDoorFlag = 0;                                         
     1560                   ;----------------------------------------------------------------------
     1561 00000181 15200046!        sti       r0,@_nTr_St_Info+70
     1562                           .line   11
     1563                   ;----------------------------------------------------------------------
     1564                   ; 157 | nTr_St_Info.nSimulationFlag = 0;                                       
     1565                   ;----------------------------------------------------------------------
     1566 00000182 15200043!        sti       r0,@_nTr_St_Info+67
TMS320C3x/4x COFF AssemblerVersion 5.11     Fri Sep 17 14:23:56 2010
Copyright (c) 1987-1999 Texas Instruments Incorporatedc:\lang\tms320c3x\511\bin\asm30.exe -l gpproface.asm gpproface.obj -tC:\Users\jds\AppData\Local\Temp\gpproface.tmp 

gpproface.asm                                                        PAGE   30

     1567                           .line   12
     1568                   ;----------------------------------------------------------------------
     1569                   ; 158 | nTr_St_Info.nDISFPatFlag  = 0;                                         
     1570                   ;----------------------------------------------------------------------
     1571 00000183 15200042!        sti       r0,@_nTr_St_Info+66
     1572                           .line   13
     1573                   ;----------------------------------------------------------------------
     1574                   ; 159 | nTr_St_Info.nPIBPatFlag = 0;                                           
     1575                   ;----------------------------------------------------------------------
     1576 00000184 15200041!        sti       r0,@_nTr_St_Info+65
     1577                           .line   14
     1578                   ;----------------------------------------------------------------------
     1579                   ; 160 | gp_WritingWord(0x41,0);                                                
     1580                   ;----------------------------------------------------------------------
     1581 00000185 50610000         ldiu      0,r1
     1582 00000186 0f210000         push      r1
     1583 00000187 50600041         ldiu      65,r0
     1584 00000188 0f200000         push      r0
     1585 00000189 6200004d'        call      _gp_WritingWord
     1586                                                           ; Call Occurs
     1587 0000018a 18740002         subi      2,sp
     1588                           .line   16
     1589                   ;----------------------------------------------------------------------
     1590                   ; 162 | nTr_St_Info.nDest.nCode = 1;                                           
     1591                   ;----------------------------------------------------------------------
     1592 0000018b 50600001         ldiu      1,r0
     1593 0000018c 15200105!        sti       r0,@_nTr_St_Info+261
     1594                           .line   18
     1595                   ;----------------------------------------------------------------------
     1596                   ; 164 | gpTURNOFFINIT;                                                         
     1597                   ; 166 | //gpSTATE; //                                      
     1598                   ;----------------------------------------------------------------------
     1599 0000018d 50600040         ldiu      64,r0
     1600 0000018e 0f200000         push      r0
     1601 0000018f 5061000b         ldiu      11,r1
     1602 00000190 0f210000         push      r1
     1603 00000191 6200004d'        call      _gp_WritingWord
     1604                                                           ; Call Occurs
     1605 00000192 18740002         subi      2,sp
     1606                           .line   22
     1607 00000193 50530b01         ldiu      *-fp(1),bk
     1608 00000194 504bc300         ldiu      *fp,fp
     1609 00000195 18740002         subi      2,sp
     1610 00000196 68000013         bu        bk
     1611                   ;*      Branch Occurs to bk 
     1612                           .endfunc        168,000000000h,0
     1613                   
     1614                   
     1615                   
     1616 00000009                  .sect   ".cinit"
     1617 00000009 00000001         .field          1,32
     1618 0000000a 00000003-        .field          _m_StScreen+0,32
     1619 0000000b 00000000         .field          0,32            ; _m_StScreen @ 0
     1620                   
TMS320C3x/4x COFF AssemblerVersion 5.11     Fri Sep 17 14:23:56 2010
Copyright (c) 1987-1999 Texas Instruments Incorporatedc:\lang\tms320c3x\511\bin\asm30.exe -l gpproface.asm gpproface.obj -tC:\Users\jds\AppData\Local\Temp\gpproface.tmp 

gpproface.asm                                                        PAGE   31

     1621 00000197                  .sect   ".text"
     1622                   
     1623                           .global _m_StScreen
     1624 00000003                  .bss    _m_StScreen,1
     1625                           .sym    _m_StScreen,_m_StScreen,4,2,32
     1626 00000197                  .sect    ".text"
     1627                   
     1628                           .global _Gp_Pro_Main
     1629                           .sym    _Gp_Pro_Main,_Gp_Pro_Main,32,2,0
     1630                           .func   172
     1631                   ;******************************************************************************
     1632                   ;* FUNCTION NAME: _Gp_Pro_Main                                                *
     1633                   ;*                                                                            *
     1634                   ;*   Architecture       : TMS320C30                                           *
     1635                   ;*   Calling Convention : Stack Parameter Convention                          *
     1636                   ;*   Function Uses Regs : r0,r1,r2,r3,fp,sp,st                                *
     1637                   ;*   Regs Saved         :                                                     *
     1638                   ;*   Stack Frame        : Full (w/ debug)                                     *
     1639                   ;*   Total Frame Size   : 2 Call + 0 Parm + 1 Auto + 0 SOE = 3 words          *
     1640                   ;******************************************************************************
     1641 00000197          _Gp_Pro_Main:
     1642                           .sym    _sGpTxLen,1,4,1,32
     1643                           .line   1
     1644                   ;----------------------------------------------------------------------
     1645                   ; 172 | void Gp_Pro_Main()                                                     
     1646                   ;----------------------------------------------------------------------
     1647 00000197 0f2b0000         push      fp
     1648 00000198 500b0014         ldiu      sp,fp
     1649 00000199 02740001         addi      1,sp
     1650                           .line   3
     1651                   ;----------------------------------------------------------------------
     1652                   ; 174 | int sGpTxLen = 0;                                                      
     1653                   ;----------------------------------------------------------------------
     1654 0000019a 50600000         ldiu      0,r0
     1655 0000019b 15400301         sti       r0,*+fp(1)
     1656                           .line   5
     1657                   ;----------------------------------------------------------------------
     1658                   ; 176 | if((m_StartScreenSetTime >= 25) && !m_StScreen)                        
     1659                   ;----------------------------------------------------------------------
     1660 0000019c 50200000-        ldiu      @_m_StartScreenSetTime+0,r0
     1661 0000019d 04e00019         cmpi      25,r0
     1662 0000019e 6a070038         blt       L34
     1663                   ;*      Branch Occurs to L34 
     1664 0000019f 08200003-        ldi       @_m_StScreen+0,r0
     1665 000001a0 6a060036         bne       L34
     1666                   ;*      Branch Occurs to L34 
     1667                           .line   8
     1668                   ;----------------------------------------------------------------------
     1669                   ; 179 | if(!WORD_L(SCC1_INIT_A.RxOKCnt))                                       
     1670                   ;----------------------------------------------------------------------
     1671 000001a1 506000ff         ldiu      255,r0
     1672 000001a2 1a200006!        tstb      @_SCC1_INIT_A+6,r0
     1673 000001a3 6a060018         bne       L31
     1674                   ;*      Branch Occurs to L31 
TMS320C3x/4x COFF AssemblerVersion 5.11     Fri Sep 17 14:23:56 2010
Copyright (c) 1987-1999 Texas Instruments Incorporatedc:\lang\tms320c3x\511\bin\asm30.exe -l gpproface.asm gpproface.obj -tC:\Users\jds\AppData\Local\Temp\gpproface.tmp 

gpproface.asm                                                        PAGE   32

     1675                           .line   10
     1676                   ;----------------------------------------------------------------------
     1677                   ; 181 | if(m_StartScreenSetTime == 25)                                         
     1678                   ;----------------------------------------------------------------------
     1679 000001a4 50200000-        ldiu      @_m_StartScreenSetTime+0,r0
     1680 000001a5 04e00019         cmpi      25,r0
     1681 000001a6 6a06002d         bne       L33
     1682                   ;*      Branch Occurs to L33 
     1683                           .line   12
     1684                   ;----------------------------------------------------------------------
     1685                   ; 183 | m_StartScreenSetTime = 0;                                              
     1686                   ;----------------------------------------------------------------------
     1687 000001a7 50600000         ldiu      0,r0
     1688 000001a8 15200000-        sti       r0,@_m_StartScreenSetTime+0
     1689                           .line   14
     1690                   ;----------------------------------------------------------------------
     1691                   ; 185 | nSelect_Button.nScreenSetNum = 14;                                     
     1692                   ;----------------------------------------------------------------------
     1693 000001a9 5060000e         ldiu      14,r0
     1694 000001aa 15200206-        sti       r0,@_nSelect_Button+5
     1695                           .line   15
     1696                   ;----------------------------------------------------------------------
     1697                   ; 186 | gpExpNomScreenSet;                                                     
     1698                   ;----------------------------------------------------------------------
     1699 000001ab 50610036         ldiu      54,r1
     1700 000001ac 0f210000         push      r1
     1701 000001ad 5060000f         ldiu      15,r0
     1702 000001ae 0f200000         push      r0
     1703 000001af 6200004d'        call      _gp_WritingWord
     1704                                                           ; Call Occurs
     1705 000001b0 18740002         subi      2,sp
     1706                           .line   17
     1707                   ;----------------------------------------------------------------------
     1708                   ; 188 | Delay_SCC3_SendTo(glTxBufA3,glTxA3_Len,SCC_A_CHANNEL,2);               
     1709                   ;----------------------------------------------------------------------
     1710 000001b1 50610002         ldiu      2,r1
     1711 000001b2 50600000         ldiu      0,r0
     1712 000001b3 0f210000         push      r1
     1713 000001b4 0f200000         push      r0
     1714 000001b5 50200002-        ldiu      @_glTxA3_Len+0,r0
     1715 000001b6 5022020a-        ldiu      @CL1,r2
     1716 000001b7 0f200000         push      r0
     1717 000001b8 0f220000         push      r2
     1718 000001b9 62000000!        call      _Delay_SCC3_SendTo
     1719                                                           ; Call Occurs
     1720 000001ba 18740004         subi      4,sp
     1721 000001bb 6a000018         bu        L33
     1722                   ;*      Branch Occurs to L33 
     1723 000001bc          L31:        
     1724                           .line   20
     1725                   ;----------------------------------------------------------------------
     1726                   ; 191 | else if(WORD_L(SCC1_INIT_A.RxOKCnt))                                   
     1727                   ;----------------------------------------------------------------------
     1728 000001bc 506000ff         ldiu      255,r0
TMS320C3x/4x COFF AssemblerVersion 5.11     Fri Sep 17 14:23:56 2010
Copyright (c) 1987-1999 Texas Instruments Incorporatedc:\lang\tms320c3x\511\bin\asm30.exe -l gpproface.asm gpproface.obj -tC:\Users\jds\AppData\Local\Temp\gpproface.tmp 

gpproface.asm                                                        PAGE   33

     1729 000001bd 1a200006!        tstb      @_SCC1_INIT_A+6,r0
     1730 000001be 6a050015         beq       L33
     1731                   ;*      Branch Occurs to L33 
     1732                           .line   22
     1733                   ;----------------------------------------------------------------------
     1734                   ; 193 | nSelect_Button.nScreenSetNum = 1;                                      
     1735                   ;----------------------------------------------------------------------
     1736 000001bf 50600001         ldiu      1,r0
     1737 000001c0 15200206-        sti       r0,@_nSelect_Button+5
     1738                           .line   23
     1739                   ;----------------------------------------------------------------------
     1740                   ; 194 | gpSTATE;                                                               
     1741                   ;----------------------------------------------------------------------
     1742 000001c1 5061000f         ldiu      15,r1
     1743 000001c2 5060003c         ldiu      60,r0
     1744 000001c3 0f200000         push      r0
     1745 000001c4 0f210000         push      r1
     1746 000001c5 6200004d'        call      _gp_WritingWord
     1747                                                           ; Call Occurs
     1748 000001c6 18740002         subi      2,sp
     1749                           .line   25
     1750                   ;----------------------------------------------------------------------
     1751                   ; 196 | m_StScreen++;                                                          
     1752                   ;----------------------------------------------------------------------
     1753 000001c7 50600001         ldiu      1,r0
     1754 000001c8 02200003-        addi      @_m_StScreen+0,r0
     1755 000001c9 15200003-        sti       r0,@_m_StScreen+0
     1756                           .line   27
     1757                   ;----------------------------------------------------------------------
     1758                   ; 198 | Delay_SCC3_SendTo(glTxBufA3,glTxA3_Len,SCC_A_CHANNEL,2);               
     1759                   ; 200 | } //    }                                          
     1760                   ;----------------------------------------------------------------------
     1761 000001ca 50620002         ldiu      2,r2
     1762 000001cb 50610000         ldiu      0,r1
     1763 000001cc 0f220000         push      r2
     1764 000001cd 0f210000         push      r1
     1765 000001ce 50210002-        ldiu      @_glTxA3_Len+0,r1
     1766 000001cf 0f210000         push      r1
     1767 000001d0 5020020a-        ldiu      @CL1,r0
     1768 000001d1 0f200000         push      r0
     1769 000001d2 62000000!        call      _Delay_SCC3_SendTo
     1770                                                           ; Call Occurs
     1771 000001d3 18740004         subi      4,sp
     1772 000001d4          L33:        
     1773                           .line   31
     1774                   ;----------------------------------------------------------------------
     1775                   ; 202 | m_StartScreenSetTime++;                                                
     1776                   ;----------------------------------------------------------------------
     1777 000001d4 50600001         ldiu      1,r0
     1778 000001d5 02200000-        addi      @_m_StartScreenSetTime+0,r0
     1779 000001d6 15200000-        sti       r0,@_m_StartScreenSetTime+0
     1780 000001d7          L34:        
     1781                           .line   36
     1782                   ;----------------------------------------------------------------------
TMS320C3x/4x COFF AssemblerVersion 5.11     Fri Sep 17 14:23:56 2010
Copyright (c) 1987-1999 Texas Instruments Incorporatedc:\lang\tms320c3x\511\bin\asm30.exe -l gpproface.asm gpproface.obj -tC:\Users\jds\AppData\Local\Temp\gpproface.tmp 

gpproface.asm                                                        PAGE   34

     1783                   ; 207 | if(m_StartScreenSetTime>25 || m_StScreen)                              
     1784                   ; 209 |         //GP       .             
     1785                   ;----------------------------------------------------------------------
     1786 000001d7 50200000-        ldiu      @_m_StartScreenSetTime+0,r0
     1787 000001d8 04e00019         cmpi      25,r0
     1788 000001d9 6a090002         bgt       L36
     1789                   ;*      Branch Occurs to L36 
     1790 000001da 08200003-        ldi       @_m_StScreen+0,r0
     1791 000001db 6a050027         beq       L45
     1792                   ;*      Branch Occurs to L45 
     1793 000001dc          L36:        
     1794                           .line   39
     1795                   ;----------------------------------------------------------------------
     1796                   ; 210 | if(!(nTimeGp_Cnt%100) && !SCC3_INIT_A.TxPos && !SCC3_INIT_A.RxPos)     
     1797                   ;----------------------------------------------------------------------
     1798 000001dc 50200001-        ldiu      @_nTimeGp_Cnt+0,r0
     1799 000001dd 50610064         ldiu      100,r1
     1800 000001de 62000000!        call      MOD_U30
     1801                                                           ; Call Occurs
     1802 000001df 04e00000         cmpi      0,r0
     1803 000001e0 6a060013         bne       L41
     1804                   ;*      Branch Occurs to L41 
     1805 000001e1 08200000!        ldi       @_SCC3_INIT_A+0,r0
     1806 000001e2 6a060011         bne       L41
     1807                   ;*      Branch Occurs to L41 
     1808 000001e3 08200007!        ldi       @_SCC3_INIT_A+7,r0
     1809 000001e4 6a06000f         bne       L41
     1810                   ;*      Branch Occurs to L41 
     1811                           .line   41
     1812                   ;----------------------------------------------------------------------
     1813                   ; 212 | if(glTxA3_Len)                                                         
     1814                   ;----------------------------------------------------------------------
     1815 000001e5 08200002-        ldi       @_glTxA3_Len+0,r0
     1816 000001e6 6a05000d         beq       L41
     1817                   ;*      Branch Occurs to L41 
     1818                           .line   43
     1819                   ;----------------------------------------------------------------------
     1820                   ; 214 | sGpTxLen = glTxA3_Len;                                                 
     1821                   ;----------------------------------------------------------------------
     1822 000001e7 50200002-        ldiu      @_glTxA3_Len+0,r0
     1823 000001e8 15400301         sti       r0,*+fp(1)
     1824                           .line   44
     1825                   ;----------------------------------------------------------------------
     1826                   ; 215 | glTxA3_Len = 0;                                                        
     1827                   ;----------------------------------------------------------------------
     1828 000001e9 50600000         ldiu      0,r0
     1829 000001ea 15200002-        sti       r0,@_glTxA3_Len+0
     1830                           .line   45
     1831                   ;----------------------------------------------------------------------
     1832                   ; 216 | Delay_SCC3_SendTo(glTxBufA3,sGpTxLen,SCC_A_CHANNEL,2);                 
     1833                   ; 220 | //        .                
     1834                   ;----------------------------------------------------------------------
     1835 000001eb 50610002         ldiu      2,r1
     1836 000001ec 50420301         ldiu      *+fp(1),r2
TMS320C3x/4x COFF AssemblerVersion 5.11     Fri Sep 17 14:23:56 2010
Copyright (c) 1987-1999 Texas Instruments Incorporatedc:\lang\tms320c3x\511\bin\asm30.exe -l gpproface.asm gpproface.obj -tC:\Users\jds\AppData\Local\Temp\gpproface.tmp 

gpproface.asm                                                        PAGE   35

     1837 000001ed 5023020a-        ldiu      @CL1,r3
     1838 000001ee 0f210000         push      r1
     1839 000001ef 0f200000         push      r0
     1840 000001f0 0f220000         push      r2
     1841 000001f1 0f230000         push      r3
     1842 000001f2 62000000!        call      _Delay_SCC3_SendTo
     1843                                                           ; Call Occurs
     1844 000001f3 18740004         subi      4,sp
     1845 000001f4          L41:        
     1846                           .line   50
     1847                   ;----------------------------------------------------------------------
     1848                   ; 221 | if(!(nTimeGp_Cnt%300) && !(nSelect_Button.nScreenRxTime) && SCC2_INIT_A
     1849                   ;     | .TxOK)                                                                 
     1850                   ;----------------------------------------------------------------------
     1851 000001f4 50200001-        ldiu      @_nTimeGp_Cnt+0,r0
     1852 000001f5 5061012c         ldiu      300,r1
     1853 000001f6 62000000!        call      MOD_U30
     1854                                                           ; Call Occurs
     1855 000001f7 04e00000         cmpi      0,r0
     1856 000001f8 6a06000a         bne       L45
     1857                   ;*      Branch Occurs to L45 
     1858 000001f9 08200207-        ldi       @_nSelect_Button+6,r0
     1859 000001fa 6a060008         bne       L45
     1860                   ;*      Branch Occurs to L45 
     1861 000001fb 08200002!        ldi       @_SCC2_INIT_A+2,r0
     1862 000001fc 6a050006         beq       L45
     1863                   ;*      Branch Occurs to L45 
     1864                           .line   52
     1865                   ;----------------------------------------------------------------------
     1866                   ; 223 | nSelect_Button.nScreenRxTime = 100;                                    
     1867                   ;----------------------------------------------------------------------
     1868 000001fd 50600064         ldiu      100,r0
     1869 000001fe 15200207-        sti       r0,@_nSelect_Button+6
     1870                           .line   53
     1871                   ;----------------------------------------------------------------------
     1872                   ; 224 | GP_SEND_SCREEN(nSelect_Button.nScreenSetNum);                          
     1873                   ;----------------------------------------------------------------------
     1874 000001ff 50200206-        ldiu      @_nSelect_Button+5,r0
     1875 00000200 0f200000         push      r0
     1876 00000201 620002c3'        call      _GP_SEND_SCREEN
     1877                                                           ; Call Occurs
     1878 00000202 18740001         subi      1,sp
     1879 00000203          L45:        
     1880                           .line   57
     1881 00000203 50530b01         ldiu      *-fp(1),bk
     1882 00000204 504bc300         ldiu      *fp,fp
     1883 00000205 18740003         subi      3,sp
     1884 00000206 68000013         bu        bk
     1885                   ;*      Branch Occurs to bk 
     1886                           .endfunc        228,000000000h,1
     1887                   
     1888                   
     1889                   
     1890 0000000c                  .sect   ".cinit"
TMS320C3x/4x COFF AssemblerVersion 5.11     Fri Sep 17 14:23:56 2010
Copyright (c) 1987-1999 Texas Instruments Incorporatedc:\lang\tms320c3x\511\bin\asm30.exe -l gpproface.asm gpproface.obj -tC:\Users\jds\AppData\Local\Temp\gpproface.tmp 

gpproface.asm                                                        PAGE   36

     1891 0000000c 00000001         .field          1,32
     1892 0000000d 00000004-        .field          _d_TranNum+0,32
     1893 0000000e 00000000         .field          0,32            ; _d_TranNum @ 0
     1894                   
     1895 00000207                  .sect   ".text"
     1896                   
     1897                           .global _d_TranNum
     1898 00000004                  .bss    _d_TranNum,1
     1899                           .sym    _d_TranNum,_d_TranNum,12,2,32
     1900 00000207                  .sect    ".text"
     1901                   
     1902                           .global _Gp_Receive
     1903                           .sym    _Gp_Receive,_Gp_Receive,32,2,0
     1904                           .func   232
     1905                   ;******************************************************************************
     1906                   ;* FUNCTION NAME: _Gp_Receive                                                 *
     1907                   ;*                                                                            *
     1908                   ;*   Architecture       : TMS320C30                                           *
     1909                   ;*   Calling Convention : Stack Parameter Convention                          *
     1910                   ;*   Function Uses Regs : r0,r1,r2,ar0,ar1,fp,sp,st                           *
     1911                   ;*   Regs Saved         :                                                     *
     1912                   ;*   Stack Frame        : Full (w/ debug)                                     *
     1913                   ;*   Total Frame Size   : 2 Call + 1 Parm + 0 Auto + 0 SOE = 3 words          *
     1914                   ;******************************************************************************
     1915 00000207          _Gp_Receive:
     1916                           .sym    _pGpRXData,-2,28,9,32
     1917                           .line   1
     1918                   ;----------------------------------------------------------------------
     1919                   ; 232 | void Gp_Receive(UCHAR *pGpRXData)                                      
     1920                   ;----------------------------------------------------------------------
     1921 00000207 0f2b0000         push      fp
     1922 00000208 500b0014         ldiu      sp,fp
     1923                           .line   2
     1924                           .line   3
     1925                   ;----------------------------------------------------------------------
     1926                   ; 234 | if(pGpRXData[1] == 0x41)        //GP     .       
     1927                   ;----------------------------------------------------------------------
     1928 00000209 50480b02         ldiu      *-fp(2),ar0
     1929 0000020a 50400001         ldiu      *+ar0(1),r0
     1930 0000020b 04e00041         cmpi      65,r0
     1931 0000020c 6a06004b         bne       L56
     1932                   ;*      Branch Occurs to L56 
     1933                           .line   5
     1934                   ;----------------------------------------------------------------------
     1935                   ; 236 | nSelect_Button.nScreenRxTime = 100;                                    
     1936                   ; 238 | //nSelect_Button.nGPTranNumInput.nNum = MAKE_WORD(pGpRXData[2],pGpRXDat
     1937                   ;     | a[3]);                                                                 
     1938                   ;----------------------------------------------------------------------
     1939 0000020d 50600064         ldiu      100,r0
     1940 0000020e 15200207-        sti       r0,@_nSelect_Button+6
     1941                           .line   9
     1942                   ;----------------------------------------------------------------------
     1943                   ; 240 | d_TranNum = nSelect_Button.nGPTranNumInput.nNum = BCD_BIN(MAKE_WORD(pGp
     1944                   ;     | RXData[2],pGpRXData[3]));                                              
TMS320C3x/4x COFF AssemblerVersion 5.11     Fri Sep 17 14:23:56 2010
Copyright (c) 1987-1999 Texas Instruments Incorporatedc:\lang\tms320c3x\511\bin\asm30.exe -l gpproface.asm gpproface.obj -tC:\Users\jds\AppData\Local\Temp\gpproface.tmp 

gpproface.asm                                                        PAGE   37

     1945                   ;----------------------------------------------------------------------
     1946 0000020f 50090008         ldiu      ar0,ar1
     1947 00000210 506000ff         ldiu      255,r0
     1948 00000211 50410102         ldiu      *+ar1(2),r1
     1949 00000212 02c00003         and       *+ar0(3),r0
     1950 00000213 03e10008         ash       8,r1
     1951 00000214 25800001         or3       r1,r0,r0
     1952 00000215 02e0ffff         and       65535,r0
     1953 00000216 0f200000         push      r0
     1954 00000217 6200012d'        call      _BCD_BIN
     1955                                                           ; Call Occurs
     1956 00000218 15200202-        sti       r0,@_nSelect_Button+1
     1957 00000219 15200004-        sti       r0,@_d_TranNum+0
     1958 0000021a 18740001         subi      1,sp
     1959                           .line   12
     1960                   ;----------------------------------------------------------------------
     1961                   ; 243 | if(DWORD_L(nSelect_Button.nGPTranNumInput.nRemNum) != DWORD_L(nSelect_B
     1962                   ;     | utton.nGPTranNumInput.nNum))                                           
     1963                   ;----------------------------------------------------------------------
     1964 0000021b 50010000         ldiu      r0,r1
     1965 0000021c 02e1ffff         and       65535,r1
     1966 0000021d 50200203-        ldiu      @_nSelect_Button+2,r0
     1967 0000021e 02e0ffff         and       65535,r0
     1968 0000021f 23800001         cmpi3     r1,r0
     1969 00000220 6a25002a         beqd      L54
     1970 00000221 0c800000         nop
     1971 00000222 52a10202-        ldieq     @_nSelect_Button+1,r1
     1972 00000223 52a00203-        ldieq     @_nSelect_Button+2,r0
     1973                   ;*      Branch Occurs to L54 
     1974                           .line   14
     1975                   ;----------------------------------------------------------------------
     1976                   ; 245 | if(DWORD_L(nSelect_Button.nGPTranNumInput.nNum))                       
     1977                   ;----------------------------------------------------------------------
     1978 00000224 50200202-        ldiu      @_nSelect_Button+1,r0
     1979 00000225 1a60ffff         tstb      65535,r0
     1980 00000226 6a250008         beqd      L52
     1981 00000227 52e2000f         ldieq     15,r2
     1982 00000228 52e10020         ldieq     32,r1
     1983 00000229 52a0020b-        ldieq     @CL2,r0
     1984                   ;*      Branch Occurs to L52 
     1985                           .line   16
     1986                   ;----------------------------------------------------------------------
     1987                   ; 247 | nSccSendFlag.nTranNum = 2; //    .         
     1988                   ;----------------------------------------------------------------------
     1989 0000022a 50600002         ldiu      2,r0
     1990 0000022b 15200001!        sti       r0,@_nSccSendFlag+1
     1991                           .line   18
     1992                   ;----------------------------------------------------------------------
     1993                   ; 249 | nSelect_Button.nGPTranNumInput.nRemNum = nSelect_Button.nGPTranNumInput
     1994                   ;     | .nNum;                                                                 
     1995                   ;----------------------------------------------------------------------
     1996 0000022c 50200202-        ldiu      @_nSelect_Button+1,r0
     1997 0000022d 15200203-        sti       r0,@_nSelect_Button+2
     1998                           .line   20
TMS320C3x/4x COFF AssemblerVersion 5.11     Fri Sep 17 14:23:56 2010
Copyright (c) 1987-1999 Texas Instruments Incorporatedc:\lang\tms320c3x\511\bin\asm30.exe -l gpproface.asm gpproface.obj -tC:\Users\jds\AppData\Local\Temp\gpproface.tmp 

gpproface.asm                                                        PAGE   38

     1999                   ;----------------------------------------------------------------------
     2000                   ; 251 | nSelect_Button.nGPTranNumInput.nFlag = TRUE;                           
     2001                   ; 253 | else{ //  "0" .                                    
     2002                   ;----------------------------------------------------------------------
     2003 0000022e 50600001         ldiu      1,r0
     2004 0000022f 15200201-        sti       r0,@_nSelect_Button+0
     2005 00000230 6a00008c         bu        L59
     2006                   ;*      Branch Occurs to L59 
     2007                           .line   23
     2008                   ;----------------------------------------------------------------------
     2009                   ; 254 | memset(nTr_St_Info.nGpStName.nNow,0x20,15);                            
     2010                   ;----------------------------------------------------------------------
     2011 00000231          L52:        
     2012 00000231 0f220000         push      r2
     2013 00000232 0f210000         push      r1
     2014 00000233 0f200000         push      r0
     2015 00000234 62000000!        call      _memset
     2016                                                           ; Call Occurs
     2017 00000235 18740003         subi      3,sp
     2018                           .line   24
     2019                   ;----------------------------------------------------------------------
     2020                   ; 255 | memset(nTr_St_Info.nGpStName.nNext,0x20,15);                           
     2021                   ;----------------------------------------------------------------------
     2022 00000236 5061000f         ldiu      15,r1
     2023 00000237 50600020         ldiu      32,r0
     2024 00000238 5022020c-        ldiu      @CL3,r2
     2025 00000239 0f210000         push      r1
     2026 0000023a 0f200000         push      r0
     2027 0000023b 0f220000         push      r2
     2028 0000023c 62000000!        call      _memset
     2029                                                           ; Call Occurs
     2030 0000023d 18740003         subi      3,sp
     2031                           .line   25
     2032                   ;----------------------------------------------------------------------
     2033                   ; 256 | memset(nTr_St_Info.nGpStName.nDest,0x20,15);                           
     2034                   ;----------------------------------------------------------------------
     2035 0000023e 5060000f         ldiu      15,r0
     2036 0000023f 50610020         ldiu      32,r1
     2037 00000240 0f200000         push      r0
     2038 00000241 0f210000         push      r1
     2039 00000242 5022020d-        ldiu      @CL4,r2
     2040 00000243 0f220000         push      r2
     2041 00000244 62000000!        call      _memset
     2042                                                           ; Call Occurs
     2043 00000245 18740003         subi      3,sp
     2044                           .line   26
     2045                   ;----------------------------------------------------------------------
     2046                   ; 257 | gpSETERR;                                                              
     2047                   ;----------------------------------------------------------------------
     2048 00000246 50610002         ldiu      2,r1
     2049 00000247 0f210000         push      r1
     2050 00000248 50600052         ldiu      82,r0
     2051 00000249 0f200000         push      r0
     2052 0000024a 6200004d'        call      _gp_WritingWord
TMS320C3x/4x COFF AssemblerVersion 5.11     Fri Sep 17 14:23:56 2010
Copyright (c) 1987-1999 Texas Instruments Incorporatedc:\lang\tms320c3x\511\bin\asm30.exe -l gpproface.asm gpproface.obj -tC:\Users\jds\AppData\Local\Temp\gpproface.tmp 

gpproface.asm                                                        PAGE   39

     2053                                                           ; Call Occurs
     2054 0000024b 18740002         subi      2,sp
     2055 0000024c 6a000070         bu        L59
     2056                   ;*      Branch Occurs to L59 
     2057                           .line   29
     2058                   ;----------------------------------------------------------------------
     2059                   ; 260 | else if(DWORD_L(nSelect_Button.nGPTranNumInput.nRemNum) == DWORD_L(nSel
     2060                   ;     | ect_Button.nGPTranNumInput.nNum))                                      
     2061                   ;----------------------------------------------------------------------
     2062 0000024d          L54:        
     2063 0000024d 02e1ffff         and       65535,r1
     2064 0000024e 02e0ffff         and       65535,r0
     2065 0000024f 23800001         cmpi3     r1,r0
     2066 00000250 6a06006c         bne       L59
     2067                   ;*      Branch Occurs to L59 
     2068                           .line   31
     2069                   ;----------------------------------------------------------------------
     2070                   ; 262 | gpSETCLR;                                                              
     2071                   ;----------------------------------------------------------------------
     2072 00000251 50610000         ldiu      0,r1
     2073 00000252 50600052         ldiu      82,r0
     2074 00000253 0f210000         push      r1
     2075 00000254 0f200000         push      r0
     2076 00000255 6200004d'        call      _gp_WritingWord
     2077                                                           ; Call Occurs
     2078 00000256 18740002         subi      2,sp
     2079 00000257 6a000065         bu        L59
     2080                   ;*      Branch Occurs to L59 
     2081 00000258          L56:        
     2082                           .line   35
     2083                   ;----------------------------------------------------------------------
     2084                   ; 266 | else if(pGpRXData[1] == 0x49)                                          
     2085                   ;----------------------------------------------------------------------
     2086 00000258 50480b02         ldiu      *-fp(2),ar0
     2087 00000259 50400001         ldiu      *+ar0(1),r0
     2088 0000025a 04e00049         cmpi      73,r0
     2089 0000025b 6a060061         bne       L59
     2090                   ;*      Branch Occurs to L59 
     2091                           .line   38
     2092                   ;----------------------------------------------------------------------
     2093                   ; 269 | nSelect_Button.nScreenRxTime = 100;                                    
     2094                   ;----------------------------------------------------------------------
     2095 0000025c 50600064         ldiu      100,r0
     2096 0000025d 15200207-        sti       r0,@_nSelect_Button+6
     2097                           .line   39
     2098                   ;----------------------------------------------------------------------
     2099                   ; 270 | GP_STATE_SCREEN(WORD_L(pGpRXData[3]));          // .   
     2100                   ;----------------------------------------------------------------------
     2101 0000025e 506000ff         ldiu      255,r0
     2102 0000025f 02c00003         and       *+ar0(3),r0
     2103 00000260 0f200000         push      r0
     2104 00000261 62000803'        call      _GP_STATE_SCREEN
     2105                                                           ; Call Occurs
     2106 00000262 18740001         subi      1,sp
TMS320C3x/4x COFF AssemblerVersion 5.11     Fri Sep 17 14:23:56 2010
Copyright (c) 1987-1999 Texas Instruments Incorporatedc:\lang\tms320c3x\511\bin\asm30.exe -l gpproface.asm gpproface.obj -tC:\Users\jds\AppData\Local\Temp\gpproface.tmp 

gpproface.asm                                                        PAGE   40

     2107                           .line   40
     2108                   ;----------------------------------------------------------------------
     2109                   ; 271 | GP_MANUAL_SCREEN(WORD_L(pGpRXData[3]));         //   . 
     2110                   ;----------------------------------------------------------------------
     2111 00000263 50480b02         ldiu      *-fp(2),ar0
     2112 00000264 506000ff         ldiu      255,r0
     2113 00000265 02c00003         and       *+ar0(3),r0
     2114 00000266 0f200000         push      r0
     2115 00000267 6200082f'        call      _GP_MANUAL_SCREEN
     2116                                                           ; Call Occurs
     2117 00000268 18740001         subi      1,sp
     2118                           .line   41
     2119                   ;----------------------------------------------------------------------
     2120                   ; 272 | GP_MENU_SCREEN(WORD_L(pGpRXData[3]));           //         
     2121                   ;----------------------------------------------------------------------
     2122 00000269 50480b02         ldiu      *-fp(2),ar0
     2123 0000026a 506000ff         ldiu      255,r0
     2124 0000026b 02c00003         and       *+ar0(3),r0
     2125 0000026c 0f200000         push      r0
     2126 0000026d 620008d5'        call      _GP_MENU_SCREEN
     2127                                                           ; Call Occurs
     2128 0000026e 18740001         subi      1,sp
     2129                           .line   42
     2130                   ;----------------------------------------------------------------------
     2131                   ; 273 | GP_DEST_SCREEN(WORD_L(pGpRXData[3]));           //             
     2132                   ;----------------------------------------------------------------------
     2133 0000026f 50480b02         ldiu      *-fp(2),ar0
     2134 00000270 506000ff         ldiu      255,r0
     2135 00000271 02c00003         and       *+ar0(3),r0
     2136 00000272 0f200000         push      r0
     2137 00000273 62000a0a'        call      _GP_DEST_SCREEN
     2138                                                           ; Call Occurs
     2139 00000274 18740001         subi      1,sp
     2140                           .line   43
     2141                   ;----------------------------------------------------------------------
     2142                   ; 274 | GP_SIMU_SCREEN(WORD_L(pGpRXData[3]));           //   . 
     2143                   ;----------------------------------------------------------------------
     2144 00000275 50480b02         ldiu      *-fp(2),ar0
     2145 00000276 506000ff         ldiu      255,r0
     2146 00000277 02c00003         and       *+ar0(3),r0
     2147 00000278 0f200000         push      r0
     2148 00000279 62000c7d'        call      _GP_SIMU_SCREEN
     2149                                                           ; Call Occurs
     2150 0000027a 18740001         subi      1,sp
     2151                           .line   44
     2152                   ;----------------------------------------------------------------------
     2153                   ; 275 | GP_POINT_SCREEN(WORD_L(pGpRXData[3]));          //     
     2154                   ;----------------------------------------------------------------------
     2155 0000027b 50480b02         ldiu      *-fp(2),ar0
     2156 0000027c 506000ff         ldiu      255,r0
     2157 0000027d 02c00003         and       *+ar0(3),r0
     2158 0000027e 0f200000         push      r0
     2159 0000027f 62000dca'        call      _GP_POINT_SCREEN
     2160                                                           ; Call Occurs
TMS320C3x/4x COFF AssemblerVersion 5.11     Fri Sep 17 14:23:56 2010
Copyright (c) 1987-1999 Texas Instruments Incorporatedc:\lang\tms320c3x\511\bin\asm30.exe -l gpproface.asm gpproface.obj -tC:\Users\jds\AppData\Local\Temp\gpproface.tmp 

gpproface.asm                                                        PAGE   41

     2161 00000280 18740001         subi      1,sp
     2162                           .line   45
     2163                   ;----------------------------------------------------------------------
     2164                   ; 276 | GP_SELFTEST_SCREEN(WORD_L(pGpRXData[3]));       //.            
     2165                   ;----------------------------------------------------------------------
     2166 00000281 50480b02         ldiu      *-fp(2),ar0
     2167 00000282 506000ff         ldiu      255,r0
     2168 00000283 02c00003         and       *+ar0(3),r0
     2169 00000284 0f200000         push      r0
     2170 00000285 62000e78'        call      _GP_SELFTEST_SCREEN
     2171                                                           ; Call Occurs
     2172 00000286 18740001         subi      1,sp
     2173                           .line   46
     2174                   ;----------------------------------------------------------------------
     2175                   ; 277 | GP_TRAIN_SCREEN(WORD_L(pGpRXData[3]));          //     
     2176                   ;----------------------------------------------------------------------
     2177 00000287 50480b02         ldiu      *-fp(2),ar0
     2178 00000288 506000ff         ldiu      255,r0
     2179 00000289 02c00003         and       *+ar0(3),r0
     2180 0000028a 0f200000         push      r0
     2181 0000028b 62000fe7'        call      _GP_TRAIN_SCREEN
     2182                                                           ; Call Occurs
     2183 0000028c 18740001         subi      1,sp
     2184                           .line   47
     2185                   ;----------------------------------------------------------------------
     2186                   ; 278 | GP_CLEAN(WORD_L(pGpRXData[3]));                         // . 
     2187                   ;----------------------------------------------------------------------
     2188 0000028d 50480b02         ldiu      *-fp(2),ar0
     2189 0000028e 506000ff         ldiu      255,r0
     2190 0000028f 02c00003         and       *+ar0(3),r0
     2191 00000290 0f200000         push      r0
     2192 00000291 620007e5'        call      _GP_CLEAN
     2193                                                           ; Call Occurs
     2194 00000292 18740001         subi      1,sp
     2195                           .line   48
     2196                   ;----------------------------------------------------------------------
     2197                   ; 279 | GP_DISPLAY_SAFETY(WORD_L(pGpRXData[3]));        //  .      
     2198                   ;----------------------------------------------------------------------
     2199 00000293 50480b02         ldiu      *-fp(2),ar0
     2200 00000294 506000ff         ldiu      255,r0
     2201 00000295 02c00003         and       *+ar0(3),r0
     2202 00000296 0f200000         push      r0
     2203 00000297 620007d3'        call      _GP_DISPLAY_SAFETY
     2204                                                           ; Call Occurs
     2205 00000298 18740001         subi      1,sp
     2206                           .line   49
     2207                   ;----------------------------------------------------------------------
     2208                   ; 280 | GP_SDR_SCREEN(WORD_L(pGpRXData[3]));            //           
     2209                   ;----------------------------------------------------------------------
     2210 00000299 50480b02         ldiu      *-fp(2),ar0
     2211 0000029a 506000ff         ldiu      255,r0
     2212 0000029b 02c00003         and       *+ar0(3),r0
     2213 0000029c 0f200000         push      r0
     2214 0000029d 62000909'        call      _GP_SDR_SCREEN
TMS320C3x/4x COFF AssemblerVersion 5.11     Fri Sep 17 14:23:56 2010
Copyright (c) 1987-1999 Texas Instruments Incorporatedc:\lang\tms320c3x\511\bin\asm30.exe -l gpproface.asm gpproface.obj -tC:\Users\jds\AppData\Local\Temp\gpproface.tmp 

gpproface.asm                                                        PAGE   42

     2215                                                           ; Call Occurs
     2216 0000029e 18740001         subi      1,sp
     2217                           .line   50
     2218                   ;----------------------------------------------------------------------
     2219                   ; 281 | GP_IDC_SW_UPLOAD(WORD_L(pGpRXData[3]));         //SW UPLOAD        
     2220                   ;----------------------------------------------------------------------
     2221 0000029f 50480b02         ldiu      *-fp(2),ar0
     2222 000002a0 506000ff         ldiu      255,r0
     2223 000002a1 02c00003         and       *+ar0(3),r0
     2224 000002a2 0f200000         push      r0
     2225 000002a3 62001141'        call      _GP_IDC_SW_UPLOAD
     2226                                                           ; Call Occurs
     2227 000002a4 18740001         subi      1,sp
     2228                           .line   51
     2229                   ;----------------------------------------------------------------------
     2230                   ; 282 | GP_SFDD_SW_UPLOAD(WORD_L(pGpRXData[3]));        //LED   
     2231                   ;     | .                                                                     
     2232                   ;----------------------------------------------------------------------
     2233 000002a5 50480b02         ldiu      *-fp(2),ar0
     2234 000002a6 506000ff         ldiu      255,r0
     2235 000002a7 02c00003         and       *+ar0(3),r0
     2236 000002a8 0f200000         push      r0
     2237 000002a9 6200123e'        call      _GP_SFDD_SW_UPLOAD
     2238                                                           ; Call Occurs
     2239 000002aa 18740001         subi      1,sp
     2240                           .line   52
     2241                   ;----------------------------------------------------------------------
     2242                   ; 283 | GP_SFDD_DATA_UPLOAD(WORD_L(pGpRXData[3]));  //       
     2243                   ;----------------------------------------------------------------------
     2244 000002ab 50480b02         ldiu      *-fp(2),ar0
     2245 000002ac 506000ff         ldiu      255,r0
     2246 000002ad 02c00003         and       *+ar0(3),r0
     2247 000002ae 0f200000         push      r0
     2248 000002af 620013d1'        call      _GP_SFDD_DATA_UPLOAD
     2249                                                           ; Call Occurs
     2250 000002b0 18740001         subi      1,sp
     2251                           .line   53
     2252                   ;----------------------------------------------------------------------
     2253                   ; 284 | GP_START_SET(WORD_L(pGpRXData[3]));                                    
     2254                   ;----------------------------------------------------------------------
     2255 000002b1 50480b02         ldiu      *-fp(2),ar0
     2256 000002b2 506000ff         ldiu      255,r0
     2257 000002b3 02c00003         and       *+ar0(3),r0
     2258 000002b4 0f200000         push      r0
     2259 000002b5 62001497'        call      _GP_START_SET
     2260                                                           ; Call Occurs
     2261 000002b6 18740001         subi      1,sp
     2262                           .line   54
     2263                   ;----------------------------------------------------------------------
     2264                   ; 285 | GP_AUTO_MANU_SET(WORD_L(pGpRXData[3]));                                
     2265                   ;----------------------------------------------------------------------
     2266 000002b7 50480b02         ldiu      *-fp(2),ar0
     2267 000002b8 506000ff         ldiu      255,r0
     2268 000002b9 02c00003         and       *+ar0(3),r0
TMS320C3x/4x COFF AssemblerVersion 5.11     Fri Sep 17 14:23:56 2010
Copyright (c) 1987-1999 Texas Instruments Incorporatedc:\lang\tms320c3x\511\bin\asm30.exe -l gpproface.asm gpproface.obj -tC:\Users\jds\AppData\Local\Temp\gpproface.tmp 

gpproface.asm                                                        PAGE   43

     2269 000002ba 0f200000         push      r0
     2270 000002bb 620014c9'        call      _GP_AUTO_MANU_SET
     2271                                                           ; Call Occurs
     2272 000002bc 18740001         subi      1,sp
     2273 000002bd          L59:        
     2274                           .line   58
     2275                   ;----------------------------------------------------------------------
     2276                   ; 289 | nSelect_Button.nScreenSafe = 300;       //                 
     2277                   ;----------------------------------------------------------------------
     2278 000002bd 5060012c         ldiu      300,r0
     2279 000002be 15200208-        sti       r0,@_nSelect_Button+7
     2280                           .line   59
     2281 000002bf 50530b01         ldiu      *-fp(1),bk
     2282 000002c0 504bc300         ldiu      *fp,fp
     2283 000002c1 18740002         subi      2,sp
     2284 000002c2 68000013         bu        bk
     2285                   ;*      Branch Occurs to bk 
     2286                           .endfunc        290,000000000h,0
     2287                   
     2288                   
     2289                   
     2290 0000000f                  .sect   ".cinit"
     2291 0000000f 00000001         .field          1,32
     2292 00000010 00000005-        .field          _d_NowStPoint+0,32
     2293 00000011 00000000         .field          0,32            ; _d_NowStPoint @ 0
     2294                   
     2295 000002c3                  .sect   ".text"
     2296                   
     2297                           .global _d_NowStPoint
     2298 00000005                  .bss    _d_NowStPoint,1
     2299                           .sym    _d_NowStPoint,_d_NowStPoint,12,2,32
     2300                   
     2301 00000012                  .sect   ".cinit"
     2302 00000012 00000001         .field          1,32
     2303 00000013 00000006-        .field          _d_abab+0,32
     2304 00000014 00000000         .field          0,32            ; _d_abab @ 0
     2305                   
     2306 000002c3                  .sect   ".text"
     2307                   
     2308                           .global _d_abab
     2309 00000006                  .bss    _d_abab,1
     2310                           .sym    _d_abab,_d_abab,12,2,32
     2311                   
     2312 00000015                  .sect   ".cinit"
     2313 00000015 00000001         .field          1,32
     2314 00000016 00000007-        .field          _d_exCnt+0,32
     2315 00000017 00000000         .field          0,32            ; _d_exCnt @ 0
     2316                   
     2317 000002c3                  .sect   ".text"
     2318                   
     2319                           .global _d_exCnt
     2320 00000007                  .bss    _d_exCnt,1
     2321                           .sym    _d_exCnt,_d_exCnt,12,2,32
     2322                   
TMS320C3x/4x COFF AssemblerVersion 5.11     Fri Sep 17 14:23:56 2010
Copyright (c) 1987-1999 Texas Instruments Incorporatedc:\lang\tms320c3x\511\bin\asm30.exe -l gpproface.asm gpproface.obj -tC:\Users\jds\AppData\Local\Temp\gpproface.tmp 

gpproface.asm                                                        PAGE   44

     2323 00000018                  .sect   ".cinit"
     2324 00000018 00000001         .field          1,32
     2325 00000019 00000008-        .field          _d_NorCnt+0,32
     2326 0000001a 00000000         .field          0,32            ; _d_NorCnt @ 0
     2327                   
     2328 000002c3                  .sect   ".text"
     2329                   
     2330                           .global _d_NorCnt
     2331 00000008                  .bss    _d_NorCnt,1
     2332                           .sym    _d_NorCnt,_d_NorCnt,12,2,32
     2333 000002c3                  .sect    ".text"
     2334                   
     2335                           .global _GP_SEND_SCREEN
     2336                           .sym    _GP_SEND_SCREEN,_GP_SEND_SCREEN,32,2,0
     2337                           .func   300
     2338                   ;******************************************************************************
     2339                   ;* FUNCTION NAME: _GP_SEND_SCREEN                                             *
     2340                   ;*                                                                            *
     2341                   ;*   Architecture       : TMS320C30                                           *
     2342                   ;*   Calling Convention : Stack Parameter Convention                          *
     2343                   ;*   Function Uses Regs : r0,r1,r2,ar0,ar1,fp,ir0,ir1,sp,st,rs,re,rc          *
     2344                   ;*   Regs Saved         :                                                     *
     2345                   ;*   Stack Frame        : Full (w/ debug)                                     *
     2346                   ;*   Total Frame Size   : 2 Call + 1 Parm + 121 Auto + 0 SOE = 124 words      *
     2347                   ;******************************************************************************
     2348 000002c3          _GP_SEND_SCREEN:
     2349                           .sym    _nScreenNum,-2,12,9,32
     2350                           .sym    _sTemp,1,12,1,32
     2351                           .sym    _sCharBuf,2,60,1,320,,10
     2352                           .sym    _glVer,12,60,1,480,,15
     2353                           .sym    _sSelfTestBuf,27,60,1,1920,,60
     2354                           .sym    _sClean_Buf,87,60,1,640,,20
     2355                           .sym    _sDowRep,107,60,1,480,,15
     2356                           .line   1
     2357                   ;----------------------------------------------------------------------
     2358                   ; 300 | void GP_SEND_SCREEN(UCHAR nScreenNum)                                  
     2359                   ;----------------------------------------------------------------------
     2360                           .line   2
     2361                   ;----------------------------------------------------------------------
     2362                   ; 302 | UCHAR sTemp;                                                           
     2363                   ; 303 | UCHAR sCharBuf[10];                                                    
     2364                   ; 304 | UCHAR glVer[15];                                                       
     2365                   ; 305 | UCHAR sSelfTestBuf[60];                                                
     2366                   ; 306 | UCHAR sClean_Buf[20];                                                  
     2367                   ; 307 | UCHAR sDowRep[15];                                                     
     2368                   ; 309 | switch(WORD_L(nScreenNum))                                             
     2369                   ; 311 |         case 1: //                                             
     2370                   ;----------------------------------------------------------------------
     2371 000002c3 6a2004f1         bud       L180
     2372 000002c4 0f2b0000         push      fp
     2373 000002c5 500b0014         ldiu      sp,fp
     2374 000002c6 02740079         addi      121,sp
     2375                   ;*      Branch Occurs to L180 
     2376 000002c7          L63:        
TMS320C3x/4x COFF AssemblerVersion 5.11     Fri Sep 17 14:23:56 2010
Copyright (c) 1987-1999 Texas Instruments Incorporatedc:\lang\tms320c3x\511\bin\asm30.exe -l gpproface.asm gpproface.obj -tC:\Users\jds\AppData\Local\Temp\gpproface.tmp 

gpproface.asm                                                        PAGE   45

     2377                           .line   14
     2378                   ;----------------------------------------------------------------------
     2379                   ; 313 | if(nDi_Check.nHcr.nFlag) {gpHCR;}                                      
     2380                   ;----------------------------------------------------------------------
     2381 000002c7 08200000!        ldi       @_nDi_Check+0,r0
     2382 000002c8 6a250006         beqd      L65
     2383 000002c9 0c800000         nop
     2384 000002ca 53610002         ldine     2,r1
     2385 000002cb 53600035         ldine     53,r0
     2386                   ;*      Branch Occurs to L65 
     2387 000002cc 0f210000         push      r1
     2388 000002cd 0f200000         push      r0
     2389 000002ce 6200004d'        call      _gp_WritingWord
     2390                                                           ; Call Occurs
     2391 000002cf 18740002         subi      2,sp
     2392 000002d0 6a00001a         bu        L71
     2393                   ;*      Branch Occurs to L71 
     2394 000002d1          L65:        
     2395                           .line   15
     2396                   ;----------------------------------------------------------------------
     2397                   ; 314 | else if(nDi_Check.nIcr.nFlag){gpICR;}                                  
     2398                   ;----------------------------------------------------------------------
     2399 000002d1 08200005!        ldi       @_nDi_Check+5,r0
     2400 000002d2 6a250006         beqd      L67
     2401 000002d3 0c800000         nop
     2402 000002d4 53600004         ldine     4,r0
     2403 000002d5 53610035         ldine     53,r1
     2404                   ;*      Branch Occurs to L67 
     2405 000002d6 0f200000         push      r0
     2406 000002d7 0f210000         push      r1
     2407 000002d8 6200004d'        call      _gp_WritingWord
     2408                                                           ; Call Occurs
     2409 000002d9 18740002         subi      2,sp
     2410 000002da 6a000010         bu        L71
     2411                   ;*      Branch Occurs to L71 
     2412 000002db          L67:        
     2413                           .line   16
     2414                   ;----------------------------------------------------------------------
     2415                   ; 315 | else if(nDi_Check.nTcr.nFlag){gpTCR;}                                  
     2416                   ;----------------------------------------------------------------------
     2417 000002db 0820000a!        ldi       @_nDi_Check+10,r0
     2418 000002dc 6a250008         beqd      L70
     2419 000002dd 0c800000         nop
     2420 000002de 52e00010         ldieq     16,r0
     2421 000002df 52e10035         ldieq     53,r1
     2422                   ;*      Branch Occurs to L70 
     2423 000002e0 50600008         ldiu      8,r0
     2424 000002e1 50610035         ldiu      53,r1
     2425 000002e2 0f200000         push      r0
     2426 000002e3 0f210000         push      r1
     2427 000002e4 6200004d'        call      _gp_WritingWord
     2428                                                           ; Call Occurs
     2429 000002e5 18740002         subi      2,sp
     2430 000002e6 6a000004         bu        L71
TMS320C3x/4x COFF AssemblerVersion 5.11     Fri Sep 17 14:23:56 2010
Copyright (c) 1987-1999 Texas Instruments Incorporatedc:\lang\tms320c3x\511\bin\asm30.exe -l gpproface.asm gpproface.obj -tC:\Users\jds\AppData\Local\Temp\gpproface.tmp 

gpproface.asm                                                        PAGE   46

     2431                   ;*      Branch Occurs to L71 
     2432                           .line   17
     2433                   ;----------------------------------------------------------------------
     2434                   ; 316 | else {gpDI_CHECK;}                                                     
     2435                   ;----------------------------------------------------------------------
     2436 000002e7          L70:        
     2437 000002e7 0f200000         push      r0
     2438 000002e8 0f210000         push      r1
     2439 000002e9 6200004d'        call      _gp_WritingWord
     2440                                                           ; Call Occurs
     2441 000002ea 18740002         subi      2,sp
     2442 000002eb          L71:        
     2443                           .line   19
     2444                   ;----------------------------------------------------------------------
     2445                   ; 318 | if(SanDisk_Vari.nDiskInputCheckFlag){gpCARDOK;}                        
     2446                   ;----------------------------------------------------------------------
     2447 000002eb 08200002!        ldi       @_SanDisk_Vari+2,r0
     2448 000002ec 6a250008         beqd      L74
     2449 000002ed 0c800000         nop
     2450 000002ee 52e00001         ldieq     1,r0
     2451 000002ef 52e10034         ldieq     52,r1
     2452                   ;*      Branch Occurs to L74 
     2453 000002f0 50610000         ldiu      0,r1
     2454 000002f1 50600034         ldiu      52,r0
     2455 000002f2 0f210000         push      r1
     2456 000002f3 0f200000         push      r0
     2457 000002f4 6200004d'        call      _gp_WritingWord
     2458                                                           ; Call Occurs
     2459 000002f5 18740002         subi      2,sp
     2460 000002f6 6a000004         bu        L75
     2461                   ;*      Branch Occurs to L75 
     2462                           .line   20
     2463                   ;----------------------------------------------------------------------
     2464                   ; 319 | else {gpCARDERR; }                                                     
     2465                   ;----------------------------------------------------------------------
     2466 000002f7          L74:        
     2467 000002f7 0f200000         push      r0
     2468 000002f8 0f210000         push      r1
     2469 000002f9 6200004d'        call      _gp_WritingWord
     2470                                                           ; Call Occurs
     2471 000002fa 18740002         subi      2,sp
     2472 000002fb          L75:        
     2473                           .line   22
     2474                   ;----------------------------------------------------------------------
     2475                   ; 321 | if(WORD_L(nTr_St_Info.nTcmsRxNGCnt)>5)                                 
     2476                   ;----------------------------------------------------------------------
     2477 000002fb 506000ff         ldiu      255,r0
     2478 000002fc 02a0004c!        and       @_nTr_St_Info+76,r0
     2479 000002fd 04e00005         cmpi      5,r0
     2480 000002fe 6a22000a         blsd      L78
     2481 000002ff 0c800000         nop
     2482 00000300 51600000         ldils     0,r0
     2483 00000301 5161005d         ldils     93,r1
     2484                   ;*      Branch Occurs to L78 
TMS320C3x/4x COFF AssemblerVersion 5.11     Fri Sep 17 14:23:56 2010
Copyright (c) 1987-1999 Texas Instruments Incorporatedc:\lang\tms320c3x\511\bin\asm30.exe -l gpproface.asm gpproface.obj -tC:\Users\jds\AppData\Local\Temp\gpproface.tmp 

gpproface.asm                                                        PAGE   47

     2485                           .line   24
     2486                   ;----------------------------------------------------------------------
     2487                   ; 323 | nTr_St_Info.nTcmsAutoDriverFlag = FALSE;                               
     2488                   ;----------------------------------------------------------------------
     2489 00000302 50600000         ldiu      0,r0
     2490 00000303 15200171!        sti       r0,@_nTr_St_Info+369
     2491                           .line   25
     2492                   ;----------------------------------------------------------------------
     2493                   ; 324 | gpCOMERR;                                                              
     2494                   ; 325 | } //TCMS    .                                          
     2495                   ;----------------------------------------------------------------------
     2496 00000304 50610001         ldiu      1,r1
     2497 00000305 0f210000         push      r1
     2498 00000306 5060005d         ldiu      93,r0
     2499 00000307 0f200000         push      r0
     2500 00000308 6200004d'        call      _gp_WritingWord
     2501                                                           ; Call Occurs
     2502 00000309 18740002         subi      2,sp
     2503 0000030a 6a000004         bu        L79
     2504                   ;*      Branch Occurs to L79 
     2505                           .line   27
     2506                   ;----------------------------------------------------------------------
     2507                   ; 326 | else { gpCOMCLR; }                                                     
     2508                   ;----------------------------------------------------------------------
     2509 0000030b          L78:        
     2510 0000030b 0f200000         push      r0
     2511 0000030c 0f210000         push      r1
     2512 0000030d 6200004d'        call      _gp_WritingWord
     2513                                                           ; Call Occurs
     2514 0000030e 18740002         subi      2,sp
     2515 0000030f          L79:        
     2516                           .line   29
     2517                   ;----------------------------------------------------------------------
     2518                   ; 328 | if(!nSelf_Test.nSELF_ICR_SELECT) {gpNorClr; gpExp;}  //-         
     2519                   ;----------------------------------------------------------------------
     2520 0000030f 082000b9!        ldi       @_nSelf_Test+185,r0
     2521 00000310 6a26000e         bned      L82
     2522 00000311 0c800000         nop
     2523 00000312 53600000         ldine     0,r0
     2524 00000313 53610065         ldine     101,r1
     2525                   ;*      Branch Occurs to L82 
     2526 00000314 50600000         ldiu      0,r0
     2527 00000315 50610066         ldiu      102,r1
     2528 00000316 0f200000         push      r0
     2529 00000317 0f210000         push      r1
     2530 00000318 6200004d'        call      _gp_WritingWord
     2531                                                           ; Call Occurs
     2532 00000319 18740002         subi      2,sp
     2533 0000031a 50600001         ldiu      1,r0
     2534 0000031b 50610065         ldiu      101,r1
     2535 0000031c 0f200000         push      r0
     2536 0000031d 0f210000         push      r1
     2537 0000031e 6200004d'        call      _gp_WritingWord
     2538                                                           ; Call Occurs
TMS320C3x/4x COFF AssemblerVersion 5.11     Fri Sep 17 14:23:56 2010
Copyright (c) 1987-1999 Texas Instruments Incorporatedc:\lang\tms320c3x\511\bin\asm30.exe -l gpproface.asm gpproface.obj -tC:\Users\jds\AppData\Local\Temp\gpproface.tmp 

gpproface.asm                                                        PAGE   48

     2539 0000031f 18740002         subi      2,sp
     2540 00000320 6a00000a         bu        L83
     2541                   ;*      Branch Occurs to L83 
     2542                           .line   30
     2543                   ;----------------------------------------------------------------------
     2544                   ; 329 | else {gpExpClr; gpNor; }                                               
     2545                   ;----------------------------------------------------------------------
     2546 00000321          L82:        
     2547 00000321 0f200000         push      r0
     2548 00000322 0f210000         push      r1
     2549 00000323 6200004d'        call      _gp_WritingWord
     2550                                                           ; Call Occurs
     2551 00000324 18740002         subi      2,sp
     2552 00000325 50600001         ldiu      1,r0
     2553 00000326 50610066         ldiu      102,r1
     2554 00000327 0f200000         push      r0
     2555 00000328 0f210000         push      r1
     2556 00000329 6200004d'        call      _gp_WritingWord
     2557                                                           ; Call Occurs
     2558 0000032a 18740002         subi      2,sp
     2559 0000032b          L83:        
     2560                           .line   32
     2561                   ;----------------------------------------------------------------------
     2562                   ; 331 | if(WORD_L(nTr_St_Info.nSimulationFlag)){                               
     2563                   ;----------------------------------------------------------------------
     2564 0000032b 506000ff         ldiu      255,r0
     2565 0000032c 1a200043!        tstb      @_nTr_St_Info+67,r0
     2566 0000032d 6a250008         beqd      L86
     2567 0000032e 0c800000         nop
     2568 0000032f 52a0020e-        ldieq     @CL5,r0
     2569 00000330 52e10067         ldieq     103,r1
     2570                   ;*      Branch Occurs to L86 
     2571                           .line   33
     2572                   ;----------------------------------------------------------------------
     2573                   ; 332 | gpDISTANCE(nTr_St_Info.nDistance);                                     
     2574                   ; 334 | else{                                                                  
     2575                   ;----------------------------------------------------------------------
     2576 00000331 5020004a!        ldiu      @_nTr_St_Info+74,r0
     2577 00000332 50610067         ldiu      103,r1
     2578 00000333 0f200000         push      r0
     2579 00000334 0f210000         push      r1
     2580 00000335 62000000'        call      _gp_WritingDWord
     2581                                                           ; Call Occurs
     2582 00000336 18740002         subi      2,sp
     2583 00000337 6a000005         bu        L87
     2584                   ;*      Branch Occurs to L87 
     2585                           .line   36
     2586                   ;----------------------------------------------------------------------
     2587                   ; 335 | gpDISTANCE(DWORD_L(nTmsRxData.nDist));                                 
     2588                   ;----------------------------------------------------------------------
     2589 00000338          L86:        
     2590 00000338 02a00002!        and       @_nTmsRxData+2,r0
     2591 00000339 0f200000         push      r0
     2592 0000033a 0f210000         push      r1
TMS320C3x/4x COFF AssemblerVersion 5.11     Fri Sep 17 14:23:56 2010
Copyright (c) 1987-1999 Texas Instruments Incorporatedc:\lang\tms320c3x\511\bin\asm30.exe -l gpproface.asm gpproface.obj -tC:\Users\jds\AppData\Local\Temp\gpproface.tmp 

gpproface.asm                                                        PAGE   49

     2593 0000033b 62000000'        call      _gp_WritingDWord
     2594                                                           ; Call Occurs
     2595 0000033c 18740002         subi      2,sp
     2596 0000033d          L87:        
     2597                           .line   40
     2598                   ;----------------------------------------------------------------------
     2599                   ; 339 | if(WORD_L(nTr_St_Info.nTcmsAutoDriverFlag) && !WORD_L(nTr_St_Info.nAuto
     2600                   ;     | ManuFlag)) {d_exCnt++; gpManu_OFF;gpAuto_ON;} //               
     2601                   ;----------------------------------------------------------------------
     2602 0000033d 506000ff         ldiu      255,r0
     2603 0000033e 1a200171!        tstb      @_nTr_St_Info+369,r0
     2604 0000033f 6a050012         beq       L90
     2605                   ;*      Branch Occurs to L90 
     2606 00000340 1a200176!        tstb      @_nTr_St_Info+374,r0
     2607 00000341 6a060010         bne       L90
     2608                   ;*      Branch Occurs to L90 
     2609 00000342 50600001         ldiu      1,r0
     2610 00000343 02200007-        addi      @_d_exCnt+0,r0        ; Unsigned
     2611 00000344 15200007-        sti       r0,@_d_exCnt+0
     2612 00000345 50610000         ldiu      0,r1
     2613 00000346 0f210000         push      r1
     2614 00000347 506000fb         ldiu      251,r0
     2615 00000348 0f200000         push      r0
     2616 00000349 6200004d'        call      _gp_WritingWord
     2617                                                           ; Call Occurs
     2618 0000034a 18740002         subi      2,sp
     2619 0000034b 50600001         ldiu      1,r0
     2620 0000034c 506100fa         ldiu      250,r1
     2621 0000034d 0f200000         push      r0
     2622 0000034e 0f210000         push      r1
     2623 0000034f 6200004d'        call      _gp_WritingWord
     2624                                                           ; Call Occurs
     2625 00000350 18740002         subi      2,sp
     2626 00000351 6a00000f         bu        L91
     2627                   ;*      Branch Occurs to L91 
     2628 00000352          L90:        
     2629                           .line   41
     2630                   ;----------------------------------------------------------------------
     2631                   ; 340 | else  {d_NorCnt++;gpAuto_OFF; gpManu_ON;}                              
     2632                   ;----------------------------------------------------------------------
     2633 00000352 50600001         ldiu      1,r0
     2634 00000353 02200008-        addi      @_d_NorCnt+0,r0       ; Unsigned
     2635 00000354 15200008-        sti       r0,@_d_NorCnt+0
     2636 00000355 50610000         ldiu      0,r1
     2637 00000356 0f210000         push      r1
     2638 00000357 506000fa         ldiu      250,r0
     2639 00000358 0f200000         push      r0
     2640 00000359 6200004d'        call      _gp_WritingWord
     2641                                                           ; Call Occurs
     2642 0000035a 18740002         subi      2,sp
     2643 0000035b 50610001         ldiu      1,r1
     2644 0000035c 506000fb         ldiu      251,r0
     2645 0000035d 0f210000         push      r1
     2646 0000035e 0f200000         push      r0
TMS320C3x/4x COFF AssemblerVersion 5.11     Fri Sep 17 14:23:56 2010
Copyright (c) 1987-1999 Texas Instruments Incorporatedc:\lang\tms320c3x\511\bin\asm30.exe -l gpproface.asm gpproface.obj -tC:\Users\jds\AppData\Local\Temp\gpproface.tmp 

gpproface.asm                                                        PAGE   50

     2647 0000035f 6200004d'        call      _gp_WritingWord
     2648                                                           ; Call Occurs
     2649 00000360 18740002         subi      2,sp
     2650 00000361          L91:        
     2651                           .line   44
     2652                   ;----------------------------------------------------------------------
     2653                   ; 343 | gp_WritingWord(0x64,BIN_BCD(nSelect_Button.nGPTranNumInput.nNum));     
     2654                   ;----------------------------------------------------------------------
     2655 00000361 50200202-        ldiu      @_nSelect_Button+1,r0
     2656 00000362 0f200000         push      r0
     2657 00000363 6200014c'        call      _BIN_BCD
     2658                                                           ; Call Occurs
     2659 00000364 50610064         ldiu      100,r1
     2660 00000365 18740001         subi      1,sp
     2661 00000366 0f200000         push      r0
     2662 00000367 0f210000         push      r1
     2663 00000368 6200004d'        call      _gp_WritingWord
     2664                                                           ; Call Occurs
     2665 00000369 18740002         subi      2,sp
     2666                           .line   47
     2667                   ;----------------------------------------------------------------------
     2668                   ; 346 | memset(sClean_Buf,0x20,20);                                            
     2669                   ;----------------------------------------------------------------------
     2670 0000036a 50620014         ldiu      20,r2
     2671 0000036b 50610020         ldiu      32,r1
     2672 0000036c 0f220000         push      r2
     2673 0000036d 5000000b         ldiu      fp,r0
     2674 0000036e 0f210000         push      r1
     2675 0000036f 02600057         addi      87,r0
     2676 00000370 0f200000         push      r0
     2677 00000371 62000000!        call      _memset
     2678                                                           ; Call Occurs
     2679 00000372 18740003         subi      3,sp
     2680                           .line   50
     2681                   ;----------------------------------------------------------------------
     2682                   ; 349 | if(nDi_Check.nDoor.nFlag)// .                                
     2683                   ;----------------------------------------------------------------------
     2684 00000373 0820000f!        ldi       @_nDi_Check+15,r0
     2685 00000374 6a25002d         beqd      L97
     2686 00000375 0c800000         nop
     2687 00000376 52e10002         ldieq     2,r1
     2688 00000377 52e0005e         ldieq     94,r0
     2689                   ;*      Branch Occurs to L97 
     2690                           .line   52
     2691                   ;----------------------------------------------------------------------
     2692                   ; 351 | gpSTATEOPEN;                                                           
     2693                   ;----------------------------------------------------------------------
     2694 00000378 50610001         ldiu      1,r1
     2695 00000379 5060005e         ldiu      94,r0
     2696 0000037a 0f210000         push      r1
     2697 0000037b 0f200000         push      r0
     2698 0000037c 6200004d'        call      _gp_WritingWord
     2699                                                           ; Call Occurs
     2700 0000037d 18740002         subi      2,sp
TMS320C3x/4x COFF AssemblerVersion 5.11     Fri Sep 17 14:23:56 2010
Copyright (c) 1987-1999 Texas Instruments Incorporatedc:\lang\tms320c3x\511\bin\asm30.exe -l gpproface.asm gpproface.obj -tC:\Users\jds\AppData\Local\Temp\gpproface.tmp 

gpproface.asm                                                        PAGE   51

     2701                           .line   53
     2702                   ;----------------------------------------------------------------------
     2703                   ; 352 | gpNOWSTATION;                                                          
     2704                   ;----------------------------------------------------------------------
     2705 0000037e 50610001         ldiu      1,r1
     2706 0000037f 5060004e         ldiu      78,r0
     2707 00000380 0f210000         push      r1
     2708 00000381 0f200000         push      r0
     2709 00000382 6200004d'        call      _gp_WritingWord
     2710                                                           ; Call Occurs
     2711 00000383 18740002         subi      2,sp
     2712                           .line   54
     2713                   ;----------------------------------------------------------------------
     2714                   ; 353 | if((nTr_St_Info.nNow.nCode != 0xFF) && (nTr_St_Info.nStopPatNum))      
     2715                   ;----------------------------------------------------------------------
     2716 00000384 502000a9!        ldiu      @_nTr_St_Info+169,r0
     2717 00000385 04e000ff         cmpi      255,r0
     2718 00000386 6a050013         beq       L95
     2719                   ;*      Branch Occurs to L95 
     2720 00000387 08200000!        ldi       @_nTr_St_Info+0,r0
     2721 00000388 6a050011         beq       L95
     2722                   ;*      Branch Occurs to L95 
     2723                           .line   56
     2724                   ;----------------------------------------------------------------------
     2725                   ; 355 | NVSRAM_Rd_StationName_Code(nTr_St_Info.nNow.nCode,&nTr_St_Info.nNow.nEn
     2726                   ;     | NameBuf[0],&nTr_St_Info.nGpStName.nNow[0]);                            
     2727                   ;----------------------------------------------------------------------
     2728 00000389 5020020b-        ldiu      @CL2,r0
     2729 0000038a 5021020f-        ldiu      @CL6,r1
     2730 0000038b 0f200000         push      r0
     2731 0000038c 0f210000         push      r1
     2732 0000038d 502000a9!        ldiu      @_nTr_St_Info+169,r0
     2733 0000038e 0f200000         push      r0
     2734 0000038f 62000000!        call      _NVSRAM_Rd_StationName_Code
     2735                                                           ; Call Occurs
     2736 00000390 18740003         subi      3,sp
     2737                           .line   57
     2738                   ;----------------------------------------------------------------------
     2739                   ; 356 | gp_WritingStr(0x82,5,nTr_St_Info.nGpStName.nNow);       //       
     2740                   ; 358 | else                                                                   
     2741                   ;----------------------------------------------------------------------
     2742 00000391 5022020b-        ldiu      @CL2,r2
     2743 00000392 50610005         ldiu      5,r1
     2744 00000393 50600082         ldiu      130,r0
     2745 00000394 0f220000         push      r2
     2746 00000395 0f210000         push      r1
     2747 00000396 0f200000         push      r0
     2748 00000397 620000ba'        call      _gp_WritingStr
     2749                                                           ; Call Occurs
     2750 00000398 18740003         subi      3,sp
     2751 00000399 6a000033         bu        L101
     2752                   ;*      Branch Occurs to L101 
     2753 0000039a          L95:        
     2754                           .line   61
TMS320C3x/4x COFF AssemblerVersion 5.11     Fri Sep 17 14:23:56 2010
Copyright (c) 1987-1999 Texas Instruments Incorporatedc:\lang\tms320c3x\511\bin\asm30.exe -l gpproface.asm gpproface.obj -tC:\Users\jds\AppData\Local\Temp\gpproface.tmp 

gpproface.asm                                                        PAGE   52

     2755                   ;----------------------------------------------------------------------
     2756                   ; 360 | gp_WritingStr(0x82,5,sClean_Buf);       //                       
     2757                   ; 363 | else                                                                   
     2758                   ;----------------------------------------------------------------------
     2759 0000039a 5000000b         ldiu      fp,r0
     2760 0000039b 50610005         ldiu      5,r1
     2761 0000039c 50620082         ldiu      130,r2
     2762 0000039d 02600057         addi      87,r0
     2763 0000039e 0f200000         push      r0
     2764 0000039f 0f210000         push      r1
     2765 000003a0 0f220000         push      r2
     2766 000003a1 620000ba'        call      _gp_WritingStr
     2767                                                           ; Call Occurs
     2768 000003a2 18740003         subi      3,sp
     2769 000003a3 6a000029         bu        L101
     2770                   ;*      Branch Occurs to L101 
     2771                           .line   66
     2772                   ;----------------------------------------------------------------------
     2773                   ; 365 | gpSTATECLOSE ;                                                         
     2774                   ;----------------------------------------------------------------------
     2775 000003a4          L97:        
     2776 000003a4 0f210000         push      r1
     2777 000003a5 0f200000         push      r0
     2778 000003a6 6200004d'        call      _gp_WritingWord
     2779                                                           ; Call Occurs
     2780 000003a7 18740002         subi      2,sp
     2781                           .line   67
     2782                   ;----------------------------------------------------------------------
     2783                   ; 366 | gpAFTERSTATION;                                                        
     2784                   ;----------------------------------------------------------------------
     2785 000003a8 50610002         ldiu      2,r1
     2786 000003a9 5060004e         ldiu      78,r0
     2787 000003aa 0f210000         push      r1
     2788 000003ab 0f200000         push      r0
     2789 000003ac 6200004d'        call      _gp_WritingWord
     2790                                                           ; Call Occurs
     2791 000003ad 18740002         subi      2,sp
     2792                           .line   68
     2793                   ;----------------------------------------------------------------------
     2794                   ; 367 | if((nTr_St_Info.nNext.nCode != 0xFF)&&(nTr_St_Info.nStopPatNum))       
     2795                   ;----------------------------------------------------------------------
     2796 000003ae 502000d7!        ldiu      @_nTr_St_Info+215,r0
     2797 000003af 04e000ff         cmpi      255,r0
     2798 000003b0 6a050013         beq       L100
     2799                   ;*      Branch Occurs to L100 
     2800 000003b1 08200000!        ldi       @_nTr_St_Info+0,r0
     2801 000003b2 6a050011         beq       L100
     2802                   ;*      Branch Occurs to L100 
     2803                           .line   70
     2804                   ;----------------------------------------------------------------------
     2805                   ; 369 | NVSRAM_Rd_StationName_Code(nTr_St_Info.nNext.nCode,&nTr_St_Info.nNext.n
     2806                   ;     | EnNameBuf[0],&nTr_St_Info.nGpStName.nNext[0]);                         
     2807                   ;----------------------------------------------------------------------
     2808 000003b3 5020020c-        ldiu      @CL3,r0
TMS320C3x/4x COFF AssemblerVersion 5.11     Fri Sep 17 14:23:56 2010
Copyright (c) 1987-1999 Texas Instruments Incorporatedc:\lang\tms320c3x\511\bin\asm30.exe -l gpproface.asm gpproface.obj -tC:\Users\jds\AppData\Local\Temp\gpproface.tmp 

gpproface.asm                                                        PAGE   53

     2809 000003b4 50210210-        ldiu      @CL7,r1
     2810 000003b5 0f200000         push      r0
     2811 000003b6 0f210000         push      r1
     2812 000003b7 502000d7!        ldiu      @_nTr_St_Info+215,r0
     2813 000003b8 0f200000         push      r0
     2814 000003b9 62000000!        call      _NVSRAM_Rd_StationName_Code
     2815                                                           ; Call Occurs
     2816 000003ba 18740003         subi      3,sp
     2817                           .line   71
     2818                   ;----------------------------------------------------------------------
     2819                   ; 370 | gp_WritingStr(0x82,5,nTr_St_Info.nGpStName.nNext);      //   
     2820                   ; 372 | else                                                                   
     2821                   ;----------------------------------------------------------------------
     2822 000003bb 5022020c-        ldiu      @CL3,r2
     2823 000003bc 50610005         ldiu      5,r1
     2824 000003bd 50600082         ldiu      130,r0
     2825 000003be 0f220000         push      r2
     2826 000003bf 0f210000         push      r1
     2827 000003c0 0f200000         push      r0
     2828 000003c1 620000ba'        call      _gp_WritingStr
     2829                                                           ; Call Occurs
     2830 000003c2 18740003         subi      3,sp
     2831 000003c3 6a000009         bu        L101
     2832                   ;*      Branch Occurs to L101 
     2833 000003c4          L100:        
     2834                           .line   75
     2835                   ;----------------------------------------------------------------------
     2836                   ; 374 | gp_WritingStr(0x82,5,sClean_Buf);       //                       
     2837                   ;----------------------------------------------------------------------
     2838 000003c4 5000000b         ldiu      fp,r0
     2839 000003c5 50610005         ldiu      5,r1
     2840 000003c6 50620082         ldiu      130,r2
     2841 000003c7 02600057         addi      87,r0
     2842 000003c8 0f200000         push      r0
     2843 000003c9 0f210000         push      r1
     2844 000003ca 0f220000         push      r2
     2845 000003cb 620000ba'        call      _gp_WritingStr
     2846                                                           ; Call Occurs
     2847 000003cc 18740003         subi      3,sp
     2848 000003cd          L101:        
     2849                           .line   80
     2850                   ;----------------------------------------------------------------------
     2851                   ; 379 | if((nTr_St_Info.nDest.nCode != 0xFF)&&(nTr_St_Info.nStopPatNum))       
     2852                   ;----------------------------------------------------------------------
     2853 000003cd 50200105!        ldiu      @_nTr_St_Info+261,r0
     2854 000003ce 04e000ff         cmpi      255,r0
     2855 000003cf 6a05000b         beq       L104
     2856                   ;*      Branch Occurs to L104 
     2857 000003d0 08200000!        ldi       @_nTr_St_Info+0,r0
     2858 000003d1 6a050009         beq       L104
     2859                   ;*      Branch Occurs to L104 
     2860                           .line   82
     2861                   ;----------------------------------------------------------------------
     2862                   ; 381 | gp_WritingStr(0x96,5,nTr_St_Info.nGpStName.nDest);      //     
TMS320C3x/4x COFF AssemblerVersion 5.11     Fri Sep 17 14:23:56 2010
Copyright (c) 1987-1999 Texas Instruments Incorporatedc:\lang\tms320c3x\511\bin\asm30.exe -l gpproface.asm gpproface.obj -tC:\Users\jds\AppData\Local\Temp\gpproface.tmp 

gpproface.asm                                                        PAGE   54

     2863                   ; 383 | else                                                                   
     2864                   ;----------------------------------------------------------------------
     2865 000003d2 5022020d-        ldiu      @CL4,r2
     2866 000003d3 50600005         ldiu      5,r0
     2867 000003d4 50610096         ldiu      150,r1
     2868 000003d5 0f220000         push      r2
     2869 000003d6 0f200000         push      r0
     2870 000003d7 0f210000         push      r1
     2871 000003d8 620000ba'        call      _gp_WritingStr
     2872                                                           ; Call Occurs
     2873 000003d9 18740003         subi      3,sp
     2874 000003da 6a000009         bu        L105
     2875                   ;*      Branch Occurs to L105 
     2876 000003db          L104:        
     2877                           .line   86
     2878                   ;----------------------------------------------------------------------
     2879                   ; 385 | gp_WritingStr(0x96,5,sClean_Buf);       //                     
     2880                   ;----------------------------------------------------------------------
     2881 000003db 5002000b         ldiu      fp,r2
     2882 000003dc 50600005         ldiu      5,r0
     2883 000003dd 50610096         ldiu      150,r1
     2884 000003de 02620057         addi      87,r2
     2885 000003df 0f220000         push      r2
     2886 000003e0 0f200000         push      r0
     2887 000003e1 0f210000         push      r1
     2888 000003e2 620000ba'        call      _gp_WritingStr
     2889                                                           ; Call Occurs
     2890 000003e3 18740003         subi      3,sp
     2891 000003e4          L105:        
     2892                           .line   90
     2893                   ;----------------------------------------------------------------------
     2894                   ; 389 | glVer[0] = BYTE_H(nTmsRxData.nDataDefin)%10+0x30;                      
     2895                   ;----------------------------------------------------------------------
     2896 000003e4 50200000!        ldiu      @_nTmsRxData+0,r0
     2897 000003e5 09e0fffc         lsh       -4,r0
     2898 000003e6 02e0000f         and       15,r0
     2899 000003e7 5061000a         ldiu      10,r1
     2900 000003e8 62000000!        call      MOD_U30
     2901                                                           ; Call Occurs
     2902 000003e9 5008000b         ldiu      fp,ar0
     2903 000003ea 0268000c         addi      12,ar0
     2904 000003eb 02600030         addi      48,r0                 ; Unsigned
     2905 000003ec 1540c000         sti       r0,*ar0
     2906                           .line   91
     2907                   ;----------------------------------------------------------------------
     2908                   ; 390 | glVer[1] = BYTE_L(nTmsRxData.nDataDefin)%10+0x30;                      
     2909                   ;----------------------------------------------------------------------
     2910 000003ed 5060000f         ldiu      15,r0
     2911 000003ee 02a00000!        and       @_nTmsRxData+0,r0
     2912 000003ef 5061000a         ldiu      10,r1
     2913 000003f0 62000000!        call      MOD_U30
     2914                                                           ; Call Occurs
     2915 000003f1 5008000b         ldiu      fp,ar0
     2916 000003f2 0268000d         addi      13,ar0
TMS320C3x/4x COFF AssemblerVersion 5.11     Fri Sep 17 14:23:56 2010
Copyright (c) 1987-1999 Texas Instruments Incorporatedc:\lang\tms320c3x\511\bin\asm30.exe -l gpproface.asm gpproface.obj -tC:\Users\jds\AppData\Local\Temp\gpproface.tmp 

gpproface.asm                                                        PAGE   55

     2917 000003f3 02600030         addi      48,r0                 ; Unsigned
     2918 000003f4 1540c000         sti       r0,*ar0
     2919                           .line   92
     2920                   ;----------------------------------------------------------------------
     2921                   ; 391 | glVer[2] = ((ROM_VER /100)+0x30);                                      
     2922                   ;----------------------------------------------------------------------
     2923 000003f5 5008000b         ldiu      fp,ar0
     2924 000003f6 0268000e         addi      14,ar0
     2925 000003f7 50600030         ldiu      48,r0
     2926 000003f8 1540c000         sti       r0,*ar0
     2927                           .line   93
     2928                   ;----------------------------------------------------------------------
     2929                   ; 392 | glVer[3] = (ROM_VER %100)/10+0x30;                                     
     2930                   ;----------------------------------------------------------------------
     2931 000003f9 5008000b         ldiu      fp,ar0
     2932 000003fa 0268000f         addi      15,ar0
     2933 000003fb 50600032         ldiu      50,r0
     2934 000003fc 1540c000         sti       r0,*ar0
     2935                           .line   94
     2936                   ;----------------------------------------------------------------------
     2937                   ; 393 | glVer[4] = '.';                                                        
     2938                   ;----------------------------------------------------------------------
     2939 000003fd 5008000b         ldiu      fp,ar0
     2940 000003fe 02680010         addi      16,ar0
     2941 000003ff 5060002e         ldiu      46,r0
     2942 00000400 1540c000         sti       r0,*ar0
     2943                           .line   95
     2944                   ;----------------------------------------------------------------------
     2945                   ; 394 | glVer[5] = (ROM_VER %100)%10+0x30;                                     
     2946                   ;----------------------------------------------------------------------
     2947 00000401 5008000b         ldiu      fp,ar0
     2948 00000402 02680011         addi      17,ar0
     2949 00000403 50600031         ldiu      49,r0
     2950 00000404 1540c000         sti       r0,*ar0
     2951                           .line   97
     2952                   ;----------------------------------------------------------------------
     2953                   ; 396 | sTemp = MAKE_WORD(WORD_L(NVSRAM(m_FileSize-4)),WORD_L(NVSRAM(m_FileSize
     2954                   ;     | -3)));                                                                 
     2955                   ;----------------------------------------------------------------------
     2956 00000405 506000ff         ldiu      255,r0
     2957 00000406 50310000!        ldiu      @_m_FileSize+0,ir0
     2958 00000407 50280212-        ldiu      @CL9,ar0
     2959 00000408 50290211-        ldiu      @CL8,ar1
     2960 00000409 21a04000         and3      r0,*+ar0(ir0),r0
     2961 0000040a 506100ff         ldiu      255,r1
     2962 0000040b 50120011         ldiu      ir0,ir1
     2963 0000040c 03e00008         ash       8,r0
     2964 0000040d 21a18101         and3      r1,*+ar1(ir1),r1
     2965 0000040e 25800100         or3       r0,r1,r0
     2966 0000040f 02e0ffff         and       65535,r0
     2967 00000410 15400301         sti       r0,*+fp(1)
     2968                           .line   99
     2969                   ;----------------------------------------------------------------------
     2970                   ; 398 | glVer[6] = DP_ConvHex2Asc(BYTE_H(WORD_H(sTemp)));                      
TMS320C3x/4x COFF AssemblerVersion 5.11     Fri Sep 17 14:23:56 2010
Copyright (c) 1987-1999 Texas Instruments Incorporatedc:\lang\tms320c3x\511\bin\asm30.exe -l gpproface.asm gpproface.obj -tC:\Users\jds\AppData\Local\Temp\gpproface.tmp 

gpproface.asm                                                        PAGE   56

     2971                   ;----------------------------------------------------------------------
     2972 00000411 09e0fff8         lsh       -8,r0
     2973 00000412 02e000ff         and       255,r0
     2974 00000413 09e0fffc         lsh       -4,r0
     2975 00000414 02e0000f         and       15,r0
     2976 00000415 0f200000         push      r0
     2977 00000416 62000000!        call      _DP_ConvHex2Asc
     2978                                                           ; Call Occurs
     2979 00000417 18740001         subi      1,sp
     2980 00000418 5008000b         ldiu      fp,ar0
     2981 00000419 02680012         addi      18,ar0
     2982 0000041a 1540c000         sti       r0,*ar0
     2983                           .line   100
     2984                   ;----------------------------------------------------------------------
     2985                   ; 399 | glVer[7] = DP_ConvHex2Asc(BYTE_L(WORD_H(sTemp)));                      
     2986                   ;----------------------------------------------------------------------
     2987 0000041b 50400301         ldiu      *+fp(1),r0
     2988 0000041c 09e0fff8         lsh       -8,r0
     2989 0000041d 02e0000f         and       15,r0
     2990 0000041e 0f200000         push      r0
     2991 0000041f 62000000!        call      _DP_ConvHex2Asc
     2992                                                           ; Call Occurs
     2993 00000420 18740001         subi      1,sp
     2994 00000421 5008000b         ldiu      fp,ar0
     2995 00000422 02680013         addi      19,ar0
     2996 00000423 1540c000         sti       r0,*ar0
     2997                           .line   101
     2998                   ;----------------------------------------------------------------------
     2999                   ; 400 | glVer[8] = '.';                                                        
     3000                   ;----------------------------------------------------------------------
     3001 00000424 5008000b         ldiu      fp,ar0
     3002 00000425 02680014         addi      20,ar0
     3003 00000426 5060002e         ldiu      46,r0
     3004 00000427 1540c000         sti       r0,*ar0
     3005                           .line   102
     3006                   ;----------------------------------------------------------------------
     3007                   ; 401 | glVer[9] =  DP_ConvHex2Asc(BYTE_H(WORD_L(sTemp)));                     
     3008                   ;----------------------------------------------------------------------
     3009 00000428 506000ff         ldiu      255,r0
     3010 00000429 02c00301         and       *+fp(1),r0
     3011 0000042a 09e0fffc         lsh       -4,r0
     3012 0000042b 02e0000f         and       15,r0
     3013 0000042c 0f200000         push      r0
     3014 0000042d 62000000!        call      _DP_ConvHex2Asc
     3015                                                           ; Call Occurs
     3016 0000042e 18740001         subi      1,sp
     3017 0000042f 5008000b         ldiu      fp,ar0
     3018 00000430 02680015         addi      21,ar0
     3019 00000431 1540c000         sti       r0,*ar0
     3020                           .line   103
     3021                   ;----------------------------------------------------------------------
     3022                   ; 402 | glVer[10] = DP_ConvHex2Asc(BYTE_L(WORD_L(sTemp)));                     
     3023                   ;----------------------------------------------------------------------
     3024 00000432 5060000f         ldiu      15,r0
TMS320C3x/4x COFF AssemblerVersion 5.11     Fri Sep 17 14:23:56 2010
Copyright (c) 1987-1999 Texas Instruments Incorporatedc:\lang\tms320c3x\511\bin\asm30.exe -l gpproface.asm gpproface.obj -tC:\Users\jds\AppData\Local\Temp\gpproface.tmp 

gpproface.asm                                                        PAGE   57

     3025 00000433 02c00301         and       *+fp(1),r0
     3026 00000434 0f200000         push      r0
     3027 00000435 62000000!        call      _DP_ConvHex2Asc
     3028                                                           ; Call Occurs
     3029 00000436 18740001         subi      1,sp
     3030 00000437 5008000b         ldiu      fp,ar0
     3031 00000438 02680016         addi      22,ar0
     3032 00000439 1540c000         sti       r0,*ar0
     3033                           .line   105
     3034                   ;----------------------------------------------------------------------
     3035                   ; 404 | gp_WritingStr(0xc8,6,glVer);                                           
     3036                   ;----------------------------------------------------------------------
     3037 0000043a 5000000b         ldiu      fp,r0
     3038 0000043b 0260000c         addi      12,r0
     3039 0000043c 50620006         ldiu      6,r2
     3040 0000043d 0f200000         push      r0
     3041 0000043e 0f220000         push      r2
     3042 0000043f 506100c8         ldiu      200,r1
     3043 00000440 0f210000         push      r1
     3044 00000441 620000ba'        call      _gp_WritingStr
     3045                                                           ; Call Occurs
     3046 00000442 18740003         subi      3,sp
     3047                           .line   108
     3048                   ;----------------------------------------------------------------------
     3049                   ; 407 | break;                                                                 
     3050                   ; 409 | case 2: // .                                                   
     3051                   ;----------------------------------------------------------------------
     3052 00000443 6a00038b         bu        L182
     3053                   ;*      Branch Occurs to L182 
     3054 00000444          L106:        
     3055                           .line   112
     3056                   ;----------------------------------------------------------------------
     3057                   ; 411 | gp_WritingWord(0x64,BIN_BCD(nSelect_Button.nGPTranNumInput.nNum));     
     3058                   ;----------------------------------------------------------------------
     3059 00000444 50200202-        ldiu      @_nSelect_Button+1,r0
     3060 00000445 0f200000         push      r0
     3061 00000446 6200014c'        call      _BIN_BCD
     3062                                                           ; Call Occurs
     3063 00000447 50610064         ldiu      100,r1
     3064 00000448 18740001         subi      1,sp
     3065 00000449 0f200000         push      r0
     3066 0000044a 0f210000         push      r1
     3067 0000044b 6200004d'        call      _gp_WritingWord
     3068                                                           ; Call Occurs
     3069 0000044c 18740002         subi      2,sp
     3070                           .line   115
     3071                   ;----------------------------------------------------------------------
     3072                   ; 414 | if((nTr_St_Info.nDest.nCode != 0xFF)&&(nTr_St_Info.nStopPatNum))       
     3073                   ;----------------------------------------------------------------------
     3074 0000044d 50200105!        ldiu      @_nTr_St_Info+261,r0
     3075 0000044e 04e000ff         cmpi      255,r0
     3076 0000044f 6a05000b         beq       L109
     3077                   ;*      Branch Occurs to L109 
     3078 00000450 08200000!        ldi       @_nTr_St_Info+0,r0
TMS320C3x/4x COFF AssemblerVersion 5.11     Fri Sep 17 14:23:56 2010
Copyright (c) 1987-1999 Texas Instruments Incorporatedc:\lang\tms320c3x\511\bin\asm30.exe -l gpproface.asm gpproface.obj -tC:\Users\jds\AppData\Local\Temp\gpproface.tmp 

gpproface.asm                                                        PAGE   58

     3079 00000451 6a050009         beq       L109
     3080                   ;*      Branch Occurs to L109 
     3081                           .line   117
     3082                   ;----------------------------------------------------------------------
     3083                   ; 416 | gp_WritingStr(0x96,5,nTr_St_Info.nGpStName.nDest);      //     
     3084                   ; 418 | else                                                                   
     3085                   ;----------------------------------------------------------------------
     3086 00000452 5022020d-        ldiu      @CL4,r2
     3087 00000453 50600005         ldiu      5,r0
     3088 00000454 50610096         ldiu      150,r1
     3089 00000455 0f220000         push      r2
     3090 00000456 0f200000         push      r0
     3091 00000457 0f210000         push      r1
     3092 00000458 620000ba'        call      _gp_WritingStr
     3093                                                           ; Call Occurs
     3094 00000459 18740003         subi      3,sp
     3095 0000045a 6a000009         bu        L110
     3096                   ;*      Branch Occurs to L110 
     3097 0000045b          L109:        
     3098                           .line   121
     3099                   ;----------------------------------------------------------------------
     3100                   ; 420 | gp_WritingStr(0x96,5,sClean_Buf);       //                     
     3101                   ;----------------------------------------------------------------------
     3102 0000045b 5000000b         ldiu      fp,r0
     3103 0000045c 50610005         ldiu      5,r1
     3104 0000045d 50620096         ldiu      150,r2
     3105 0000045e 02600057         addi      87,r0
     3106 0000045f 0f200000         push      r0
     3107 00000460 0f210000         push      r1
     3108 00000461 0f220000         push      r2
     3109 00000462 620000ba'        call      _gp_WritingStr
     3110                                                           ; Call Occurs
     3111 00000463 18740003         subi      3,sp
     3112 00000464          L110:        
     3113                           .line   124
     3114                   ;----------------------------------------------------------------------
     3115                   ; 423 | if(nTr_St_Info.nDistance > 100)                                        
     3116                   ;----------------------------------------------------------------------
     3117 00000464 5020004a!        ldiu      @_nTr_St_Info+74,r0
     3118 00000465 04e00064         cmpi      100,r0
     3119 00000466 6a220014         blsd      L113
     3120 00000467 0c800000         nop
     3121 00000468 51610001         ldils     1,r1
     3122 00000469 5160004e         ldils     78,r0
     3123                   ;*      Branch Occurs to L113 
     3124                           .line   126
     3125                   ;----------------------------------------------------------------------
     3126                   ; 425 | gpAFTERSTATION;                                                        
     3127                   ;----------------------------------------------------------------------
     3128 0000046a 50610002         ldiu      2,r1
     3129 0000046b 5060004e         ldiu      78,r0
     3130 0000046c 0f210000         push      r1
     3131 0000046d 0f200000         push      r0
     3132 0000046e 6200004d'        call      _gp_WritingWord
TMS320C3x/4x COFF AssemblerVersion 5.11     Fri Sep 17 14:23:56 2010
Copyright (c) 1987-1999 Texas Instruments Incorporatedc:\lang\tms320c3x\511\bin\asm30.exe -l gpproface.asm gpproface.obj -tC:\Users\jds\AppData\Local\Temp\gpproface.tmp 

gpproface.asm                                                        PAGE   59

     3133                                                           ; Call Occurs
     3134 0000046f 18740002         subi      2,sp
     3135                           .line   127
     3136                   ;----------------------------------------------------------------------
     3137                   ; 426 | gpMANUINIT;                                                            
     3138                   ; 428 | else                                                                   
     3139                   ;----------------------------------------------------------------------
     3140 00000470 50610000         ldiu      0,r1
     3141 00000471 50600055         ldiu      85,r0
     3142 00000472 0f210000         push      r1
     3143 00000473 0f200000         push      r0
     3144 00000474 6200004d'        call      _gp_WritingWord
     3145                                                           ; Call Occurs
     3146 00000475 18740002         subi      2,sp
     3147 00000476 50610000         ldiu      0,r1
     3148 00000477 50600056         ldiu      86,r0
     3149 00000478 0f210000         push      r1
     3150 00000479 0f200000         push      r0
     3151 0000047a 6200004d'        call      _gp_WritingWord
     3152                                                           ; Call Occurs
     3153 0000047b 18740002         subi      2,sp
     3154 0000047c 6a000010         bu        L114
     3155                   ;*      Branch Occurs to L114 
     3156                           .line   131
     3157                   ;----------------------------------------------------------------------
     3158                   ; 430 | gpNOWSTATION;                                                          
     3159                   ;----------------------------------------------------------------------
     3160 0000047d          L113:        
     3161 0000047d 0f210000         push      r1
     3162 0000047e 0f200000         push      r0
     3163 0000047f 6200004d'        call      _gp_WritingWord
     3164                                                           ; Call Occurs
     3165 00000480 18740002         subi      2,sp
     3166                           .line   132
     3167                   ;----------------------------------------------------------------------
     3168                   ; 431 | gpMANUINIT;                                                            
     3169                   ;----------------------------------------------------------------------
     3170 00000481 50610000         ldiu      0,r1
     3171 00000482 50600055         ldiu      85,r0
     3172 00000483 0f210000         push      r1
     3173 00000484 0f200000         push      r0
     3174 00000485 6200004d'        call      _gp_WritingWord
     3175                                                           ; Call Occurs
     3176 00000486 18740002         subi      2,sp
     3177 00000487 50610000         ldiu      0,r1
     3178 00000488 50600056         ldiu      86,r0
     3179 00000489 0f210000         push      r1
     3180 0000048a 0f200000         push      r0
     3181 0000048b 6200004d'        call      _gp_WritingWord
     3182                                                           ; Call Occurs
     3183 0000048c 18740002         subi      2,sp
     3184 0000048d          L114:        
     3185                           .line   135
     3186                   ;----------------------------------------------------------------------
TMS320C3x/4x COFF AssemblerVersion 5.11     Fri Sep 17 14:23:56 2010
Copyright (c) 1987-1999 Texas Instruments Incorporatedc:\lang\tms320c3x\511\bin\asm30.exe -l gpproface.asm gpproface.obj -tC:\Users\jds\AppData\Local\Temp\gpproface.tmp 

gpproface.asm                                                        PAGE   60

     3187                   ; 434 | nSelect_Button.nScreenSetNum = 0;                                      
     3188                   ;----------------------------------------------------------------------
     3189 0000048d 50600000         ldiu      0,r0
     3190 0000048e 15200206-        sti       r0,@_nSelect_Button+5
     3191                           .line   137
     3192                   ;----------------------------------------------------------------------
     3193                   ; 436 | break;                                                                 
     3194                   ; 437 | case 3: // .                                                   
     3195                   ;----------------------------------------------------------------------
     3196 0000048f 6a00033f         bu        L182
     3197                   ;*      Branch Occurs to L182 
     3198 00000490          L115:        
     3199                           .line   140
     3200                   ;----------------------------------------------------------------------
     3201                   ; 439 | if(WORD_L(nTr_St_Info.nSelf_Test_Flag)) //               
     3202                   ;----------------------------------------------------------------------
     3203 00000490 506000ff         ldiu      255,r0
     3204 00000491 1a20016f!        tstb      @_nTr_St_Info+367,r0
     3205 00000492 6a250008         beqd      L118
     3206 00000493 0c800000         nop
     3207 00000494 52e10000         ldieq     0,r1
     3208 00000495 52e00052         ldieq     82,r0
     3209                   ;*      Branch Occurs to L118 
     3210                           .line   142
     3211                   ;----------------------------------------------------------------------
     3212                   ; 441 | gpSDRCHK;                                                              
     3213                   ; 443 | else    //  .                                          
     3214                   ;----------------------------------------------------------------------
     3215 00000496 50610008         ldiu      8,r1
     3216 00000497 50600052         ldiu      82,r0
     3217 00000498 0f210000         push      r1
     3218 00000499 0f200000         push      r0
     3219 0000049a 6200004d'        call      _gp_WritingWord
     3220                                                           ; Call Occurs
     3221 0000049b 18740002         subi      2,sp
     3222 0000049c 6a000332         bu        L182
     3223                   ;*      Branch Occurs to L182 
     3224                           .line   146
     3225                   ;----------------------------------------------------------------------
     3226                   ; 445 | gpSETCLR;                                                              
     3227                   ;----------------------------------------------------------------------
     3228 0000049d          L118:        
     3229 0000049d 0f210000         push      r1
     3230 0000049e 0f200000         push      r0
     3231 0000049f 6200004d'        call      _gp_WritingWord
     3232                                                           ; Call Occurs
     3233 000004a0 18740002         subi      2,sp
     3234                           .line   147
     3235                   ;----------------------------------------------------------------------
     3236                   ; 446 | gpROOTEN;                                                              
     3237                   ;----------------------------------------------------------------------
     3238 000004a1 50610001         ldiu      1,r1
     3239 000004a2 50600039         ldiu      57,r0
     3240 000004a3 0f210000         push      r1
TMS320C3x/4x COFF AssemblerVersion 5.11     Fri Sep 17 14:23:56 2010
Copyright (c) 1987-1999 Texas Instruments Incorporatedc:\lang\tms320c3x\511\bin\asm30.exe -l gpproface.asm gpproface.obj -tC:\Users\jds\AppData\Local\Temp\gpproface.tmp 

gpproface.asm                                                        PAGE   61

     3241 000004a4 0f200000         push      r0
     3242 000004a5 6200004d'        call      _gp_WritingWord
     3243                                                           ; Call Occurs
     3244 000004a6 18740002         subi      2,sp
     3245                           .line   149
     3246                   ;----------------------------------------------------------------------
     3247                   ; 448 | memset(sSelfTestBuf,0x01,60);                                          
     3248                   ;----------------------------------------------------------------------
     3249 000004a7 5062003c         ldiu      60,r2
     3250 000004a8 5000000b         ldiu      fp,r0
     3251 000004a9 50610001         ldiu      1,r1
     3252 000004aa 0260001b         addi      27,r0
     3253 000004ab 0f220000         push      r2
     3254 000004ac 0f210000         push      r1
     3255 000004ad 0f200000         push      r0
     3256 000004ae 62000000!        call      _memset
     3257                                                           ; Call Occurs
     3258 000004af 18740003         subi      3,sp
     3259                           .line   151
     3260                   ;----------------------------------------------------------------------
     3261                   ; 450 | if(!nSelf_Test.nSELF_ICR_SELECT)                                       
     3262                   ;----------------------------------------------------------------------
     3263 000004b0 082000b9!        ldi       @_nSelf_Test+185,r0
     3264 000004b1 6a260010         bned      L120
     3265 000004b2 0c800000         nop
     3266 000004b3 5288000b         ldieq     fp,ar0
     3267 000004b4 52a90213-        ldieq     @CL10,ar1
     3268                   ;*      Branch Occurs to L120 
     3269                           .line   153
     3270                   ;----------------------------------------------------------------------
     3271                   ; 452 | memcpy(sSelfTestBuf,nSelf_Test.nSELF_RXDATA_Buf,DISPLAY_UNIT);         
     3272                   ;----------------------------------------------------------------------
     3273 000004b5 0268001b         addi      27,ar0
     3274 000004b6 50402101         ldiu      *ar1++(1),r0
     3275 000004b7 13fb001a         rpts      26                    ; Fast MEMCPY(#3)
     3276 000004b8 da002021         sti       r0,*ar0++(1)
     3277                   ||      ldi       *ar1++(1),r0
     3278 000004b9 15402001         sti       r0,*ar0++(1)
     3279                           .line   154
     3280                   ;----------------------------------------------------------------------
     3281                   ; 453 | SDR_Routine_Complete(sSelfTestBuf,DISPLAY_UNIT,TRUE);   // GP  0/
     3282                   ;     | X .                                                          
     3283                   ;----------------------------------------------------------------------
     3284 000004ba 50620001         ldiu      1,r2
     3285 000004bb 5061001c         ldiu      28,r1
     3286 000004bc 0f220000         push      r2
     3287 000004bd 5000000b         ldiu      fp,r0
     3288 000004be 0f210000         push      r1
     3289 000004bf 0260001b         addi      27,r0
     3290 000004c0 0f200000         push      r0
     3291 000004c1 62000f8b'        call      _SDR_Routine_Complete
     3292                                                           ; Call Occurs
     3293 000004c2 18740003         subi      3,sp
     3294 000004c3 6a000012         bu        L122
TMS320C3x/4x COFF AssemblerVersion 5.11     Fri Sep 17 14:23:56 2010
Copyright (c) 1987-1999 Texas Instruments Incorporatedc:\lang\tms320c3x\511\bin\asm30.exe -l gpproface.asm gpproface.obj -tC:\Users\jds\AppData\Local\Temp\gpproface.tmp 

gpproface.asm                                                        PAGE   62

     3295                   ;*      Branch Occurs to L122 
     3296 000004c4          L120:        
     3297                           .line   156
     3298                   ;----------------------------------------------------------------------
     3299                   ; 455 | else if(nSelf_Test.nSELF_ICR_SELECT)                                   
     3300                   ;----------------------------------------------------------------------
     3301 000004c4 082000b9!        ldi       @_nSelf_Test+185,r0
     3302 000004c5 6a050010         beq       L122
     3303                   ;*      Branch Occurs to L122 
     3304                           .line   158
     3305                   ;----------------------------------------------------------------------
     3306                   ; 457 | memcpy(sSelfTestBuf,nSelf_Test.nSELF_RXDATA_Buf,DISPLAY_STANDARD_UNIT);
     3307                   ;----------------------------------------------------------------------
     3308 000004c6 5008000b         ldiu      fp,ar0
     3309 000004c7 50290213-        ldiu      @CL10,ar1
     3310 000004c8 0268001b         addi      27,ar0
     3311 000004c9 50402101         ldiu      *ar1++(1),r0
     3312 000004ca 13fb0032         rpts      50                    ; Fast MEMCPY(#6)
     3313 000004cb da002021         sti       r0,*ar0++(1)
     3314                   ||      ldi       *ar1++(1),r0
     3315 000004cc 15402001         sti       r0,*ar0++(1)
     3316                           .line   159
     3317                   ;----------------------------------------------------------------------
     3318                   ; 458 | SDR_Routine_Complete(sSelfTestBuf,DISPLAY_STANDARD_UNIT,TRUE);  // GP 
     3319                   ;     |  0/X .                                                  
     3320                   ;----------------------------------------------------------------------
     3321 000004cd 50610001         ldiu      1,r1
     3322 000004ce 50620034         ldiu      52,r2
     3323 000004cf 0f210000         push      r1
     3324 000004d0 5000000b         ldiu      fp,r0
     3325 000004d1 0f220000         push      r2
     3326 000004d2 0260001b         addi      27,r0
     3327 000004d3 0f200000         push      r0
     3328 000004d4 62000f8b'        call      _SDR_Routine_Complete
     3329                                                           ; Call Occurs
     3330 000004d5 18740003         subi      3,sp
     3331 000004d6          L122:        
     3332                           .line   164
     3333                   ;----------------------------------------------------------------------
     3334                   ; 463 | nSelect_Button.nScreenSetNum  = 0;                                     
     3335                   ;----------------------------------------------------------------------
     3336 000004d6 50600000         ldiu      0,r0
     3337 000004d7 15200206-        sti       r0,@_nSelect_Button+5
     3338                           .line   167
     3339                   ;----------------------------------------------------------------------
     3340                   ; 466 | break;                                                                 
     3341                   ; 467 | case 4: // .                                                   
     3342                   ;----------------------------------------------------------------------
     3343 000004d8 6a0002f6         bu        L182
     3344                   ;*      Branch Occurs to L182 
     3345 000004d9          L123:        
     3346                           .line   170
     3347                   ;----------------------------------------------------------------------
     3348                   ; 469 | gpSPEED(nTr_St_Info.nSpeed);                                           
TMS320C3x/4x COFF AssemblerVersion 5.11     Fri Sep 17 14:23:56 2010
Copyright (c) 1987-1999 Texas Instruments Incorporatedc:\lang\tms320c3x\511\bin\asm30.exe -l gpproface.asm gpproface.obj -tC:\Users\jds\AppData\Local\Temp\gpproface.tmp 

gpproface.asm                                                        PAGE   63

     3349                   ;----------------------------------------------------------------------
     3350 000004d9 50200047!        ldiu      @_nTr_St_Info+71,r0
     3351 000004da 50610066         ldiu      102,r1
     3352 000004db 0f200000         push      r0
     3353 000004dc 0f210000         push      r1
     3354 000004dd 6200004d'        call      _gp_WritingWord
     3355                                                           ; Call Occurs
     3356 000004de 18740002         subi      2,sp
     3357                           .line   171
     3358                   ;----------------------------------------------------------------------
     3359                   ; 470 | gpDISTANCE(nTr_St_Info.nDistance);                                     
     3360                   ;----------------------------------------------------------------------
     3361 000004df 5020004a!        ldiu      @_nTr_St_Info+74,r0
     3362 000004e0 50610067         ldiu      103,r1
     3363 000004e1 0f200000         push      r0
     3364 000004e2 0f210000         push      r1
     3365 000004e3 62000000'        call      _gp_WritingDWord
     3366                                                           ; Call Occurs
     3367 000004e4 18740002         subi      2,sp
     3368                           .line   173
     3369                   ;----------------------------------------------------------------------
     3370                   ; 472 | if(nTr_St_Info.nDoor){gpDOOROPEN;}                                     
     3371                   ;----------------------------------------------------------------------
     3372 000004e5 08200048!        ldi       @_nTr_St_Info+72,r0
     3373 000004e6 6a250008         beqd      L126
     3374 000004e7 0c800000         nop
     3375 000004e8 52e00000         ldieq     0,r0
     3376 000004e9 52e10042         ldieq     66,r1
     3377                   ;*      Branch Occurs to L126 
     3378 000004ea 50600001         ldiu      1,r0
     3379 000004eb 50610042         ldiu      66,r1
     3380 000004ec 0f200000         push      r0
     3381 000004ed 0f210000         push      r1
     3382 000004ee 6200004d'        call      _gp_WritingWord
     3383                                                           ; Call Occurs
     3384 000004ef 18740002         subi      2,sp
     3385 000004f0 6a0002de         bu        L182
     3386                   ;*      Branch Occurs to L182 
     3387                           .line   174
     3388                   ;----------------------------------------------------------------------
     3389                   ; 473 | else {gpDOORCLOSE;}                                                    
     3390                   ;----------------------------------------------------------------------
     3391 000004f1          L126:        
     3392 000004f1 0f200000         push      r0
     3393 000004f2 0f210000         push      r1
     3394 000004f3 6200004d'        call      _gp_WritingWord
     3395                                                           ; Call Occurs
     3396 000004f4 18740002         subi      2,sp
     3397                           .line   176
     3398                   ;----------------------------------------------------------------------
     3399                   ; 475 | break;                                                                 
     3400                   ; 476 | case 5: // .                                                   
     3401                   ;----------------------------------------------------------------------
     3402 000004f5 6a0002d9         bu        L182
TMS320C3x/4x COFF AssemblerVersion 5.11     Fri Sep 17 14:23:56 2010
Copyright (c) 1987-1999 Texas Instruments Incorporatedc:\lang\tms320c3x\511\bin\asm30.exe -l gpproface.asm gpproface.obj -tC:\Users\jds\AppData\Local\Temp\gpproface.tmp 

gpproface.asm                                                        PAGE   64

     3403                   ;*      Branch Occurs to L182 
     3404 000004f6          L127:        
     3405                           .line   179
     3406                   ;----------------------------------------------------------------------
     3407                   ; 478 | if(nTr_St_Info.nStopPatNum)                                            
     3408                   ;----------------------------------------------------------------------
     3409 000004f6 08200000!        ldi       @_nTr_St_Info+0,r0
     3410 000004f7 6a0502d7         beq       L182
     3411                   ;*      Branch Occurs to L182 
     3412                           .line   181
     3413                   ;----------------------------------------------------------------------
     3414                   ; 480 | if(nTr_St_Info.nAutoDoorFlag && nTr_St_Info.nSimulationFlag)           
     3415                   ;----------------------------------------------------------------------
     3416 000004f8 08200046!        ldi       @_nTr_St_Info+70,r0
     3417 000004f9 6a050020         beq       L135
     3418                   ;*      Branch Occurs to L135 
     3419 000004fa 08200043!        ldi       @_nTr_St_Info+67,r0
     3420 000004fb 6a05001e         beq       L135
     3421                   ;*      Branch Occurs to L135 
     3422                           .line   183
     3423                   ;----------------------------------------------------------------------
     3424                   ; 482 | if(nTr_St_Info.nDoor && (nTr_St_Info.nDoorOPenCnt == 1)) //        
     3425                   ;----------------------------------------------------------------------
     3426 000004fc 08200048!        ldi       @_nTr_St_Info+72,r0
     3427 000004fd 6a05000f         beq       L133
     3428                   ;*      Branch Occurs to L133 
     3429 000004fe 50200049!        ldiu      @_nTr_St_Info+73,r0
     3430 000004ff 04e00001         cmpi      1,r0
     3431 00000500 6a26000a         bned      L133
     3432 00000501 0c800000         nop
     3433 00000502 52e1006e         ldieq     110,r1
     3434 00000503 52e0000f         ldieq     15,r0
     3435                   ;*      Branch Occurs to L133 
     3436                           .line   185
     3437                   ;----------------------------------------------------------------------
     3438                   ; 484 | gpSPOT;                                                                
     3439                   ;----------------------------------------------------------------------
     3440 00000504 0f210000         push      r1
     3441 00000505 0f200000         push      r0
     3442 00000506 6200004d'        call      _gp_WritingWord
     3443                                                           ; Call Occurs
     3444 00000507 18740002         subi      2,sp
     3445                           .line   186
     3446                   ;----------------------------------------------------------------------
     3447                   ; 485 | GP_POINT_ST_PRO(nTr_St_Info.nStation_PointCnt);                        
     3448                   ;----------------------------------------------------------------------
     3449 00000508 50200003!        ldiu      @_nTr_St_Info+3,r0
     3450 00000509 0f200000         push      r0
     3451 0000050a 62001061'        call      _GP_POINT_ST_PRO
     3452                                                           ; Call Occurs
     3453 0000050b 18740001         subi      1,sp
     3454 0000050c 6a000027         bu        L139
     3455                   ;*      Branch Occurs to L139 
     3456 0000050d          L133:        
TMS320C3x/4x COFF AssemblerVersion 5.11     Fri Sep 17 14:23:56 2010
Copyright (c) 1987-1999 Texas Instruments Incorporatedc:\lang\tms320c3x\511\bin\asm30.exe -l gpproface.asm gpproface.obj -tC:\Users\jds\AppData\Local\Temp\gpproface.tmp 

gpproface.asm                                                        PAGE   65

     3457                           .line   188
     3458                   ;----------------------------------------------------------------------
     3459                   ; 487 | else if(!nTr_St_Info.nDoor) //close                                    
     3460                   ;----------------------------------------------------------------------
     3461 0000050d 08200048!        ldi       @_nTr_St_Info+72,r0
     3462 0000050e 6a060025         bne       L139
     3463                   ;*      Branch Occurs to L139 
     3464                           .line   190
     3465                   ;----------------------------------------------------------------------
     3466                   ; 489 | gpSPOT2;                                                               
     3467                   ;----------------------------------------------------------------------
     3468 0000050f 50610073         ldiu      115,r1
     3469 00000510 5060000f         ldiu      15,r0
     3470 00000511 0f210000         push      r1
     3471 00000512 0f200000         push      r0
     3472 00000513 6200004d'        call      _gp_WritingWord
     3473                                                           ; Call Occurs
     3474 00000514 18740002         subi      2,sp
     3475                           .line   191
     3476                   ;----------------------------------------------------------------------
     3477                   ; 490 | GP_POINT_ST_PRO(nTr_St_Info.nStation_PointCnt);                        
     3478                   ; 493 | else                                                                   
     3479                   ;----------------------------------------------------------------------
     3480 00000515 50200003!        ldiu      @_nTr_St_Info+3,r0
     3481 00000516 0f200000         push      r0
     3482 00000517 62001061'        call      _GP_POINT_ST_PRO
     3483                                                           ; Call Occurs
     3484 00000518 18740001         subi      1,sp
     3485 00000519 6a00001a         bu        L139
     3486                   ;*      Branch Occurs to L139 
     3487 0000051a          L135:        
     3488                           .line   196
     3489                   ;----------------------------------------------------------------------
     3490                   ; 495 | if(nDi_Check.nDoor.nFlag) //                                       
     3491                   ;----------------------------------------------------------------------
     3492 0000051a 0820000f!        ldi       @_nDi_Check+15,r0
     3493 0000051b 6a25000a         beqd      L137
     3494 0000051c 0c800000         nop
     3495 0000051d 5361006e         ldine     110,r1
     3496 0000051e 5360000f         ldine     15,r0
     3497                   ;*      Branch Occurs to L137 
     3498                           .line   198
     3499                   ;----------------------------------------------------------------------
     3500                   ; 497 | gpSPOT;                                                                
     3501                   ;----------------------------------------------------------------------
     3502 0000051f 0f210000         push      r1
     3503 00000520 0f200000         push      r0
     3504 00000521 6200004d'        call      _gp_WritingWord
     3505                                                           ; Call Occurs
     3506 00000522 18740002         subi      2,sp
     3507                           .line   199
     3508                   ;----------------------------------------------------------------------
     3509                   ; 498 | GP_POINT_ST_PRO(nTr_St_Info.nStation_PointCnt);                        
     3510                   ;----------------------------------------------------------------------
TMS320C3x/4x COFF AssemblerVersion 5.11     Fri Sep 17 14:23:56 2010
Copyright (c) 1987-1999 Texas Instruments Incorporatedc:\lang\tms320c3x\511\bin\asm30.exe -l gpproface.asm gpproface.obj -tC:\Users\jds\AppData\Local\Temp\gpproface.tmp 

gpproface.asm                                                        PAGE   66

     3511 00000523 50200003!        ldiu      @_nTr_St_Info+3,r0
     3512 00000524 0f200000         push      r0
     3513 00000525 62001061'        call      _GP_POINT_ST_PRO
     3514                                                           ; Call Occurs
     3515 00000526 18740001         subi      1,sp
     3516 00000527 6a00000c         bu        L139
     3517                   ;*      Branch Occurs to L139 
     3518 00000528          L137:        
     3519                           .line   201
     3520                   ;----------------------------------------------------------------------
     3521                   ; 500 | else if(!nDi_Check.nDoor.nFlag) //close                                
     3522                   ;----------------------------------------------------------------------
     3523 00000528 0820000f!        ldi       @_nDi_Check+15,r0
     3524 00000529 6a06000a         bne       L139
     3525                   ;*      Branch Occurs to L139 
     3526                           .line   203
     3527                   ;----------------------------------------------------------------------
     3528                   ; 502 | gpSPOT2;                                                               
     3529                   ;----------------------------------------------------------------------
     3530 0000052a 50610073         ldiu      115,r1
     3531 0000052b 5060000f         ldiu      15,r0
     3532 0000052c 0f210000         push      r1
     3533 0000052d 0f200000         push      r0
     3534 0000052e 6200004d'        call      _gp_WritingWord
     3535                                                           ; Call Occurs
     3536 0000052f 18740002         subi      2,sp
     3537                           .line   204
     3538                   ;----------------------------------------------------------------------
     3539                   ; 503 | GP_POINT_ST_PRO(nTr_St_Info.nStation_PointCnt);                        
     3540                   ;----------------------------------------------------------------------
     3541 00000530 50200003!        ldiu      @_nTr_St_Info+3,r0
     3542 00000531 0f200000         push      r0
     3543 00000532 62001061'        call      _GP_POINT_ST_PRO
     3544                                                           ; Call Occurs
     3545 00000533 18740001         subi      1,sp
     3546 00000534          L139:        
     3547                           .line   208
     3548                   ;----------------------------------------------------------------------
     3549                   ; 507 | d_NowStPoint = nTr_St_Info.nStation_PointCnt;                          
     3550                   ; 509 | //gpDISTANCE(nTr_St_Info.nDistance); //  .           
     3551                   ;----------------------------------------------------------------------
     3552 00000534 50200003!        ldiu      @_nTr_St_Info+3,r0
     3553 00000535 15200005-        sti       r0,@_d_NowStPoint+0
     3554                           .line   211
     3555                   ;----------------------------------------------------------------------
     3556                   ; 510 | if(nTr_St_Info.nSimulationFlag){                                       
     3557                   ;----------------------------------------------------------------------
     3558 00000536 08200043!        ldi       @_nTr_St_Info+67,r0
     3559 00000537 6a250008         beqd      L142
     3560 00000538 0c800000         nop
     3561 00000539 52a10002!        ldieq     @_nTmsRxData+2,r1
     3562 0000053a 52e00067         ldieq     103,r0
     3563                   ;*      Branch Occurs to L142 
     3564                           .line   212
TMS320C3x/4x COFF AssemblerVersion 5.11     Fri Sep 17 14:23:56 2010
Copyright (c) 1987-1999 Texas Instruments Incorporatedc:\lang\tms320c3x\511\bin\asm30.exe -l gpproface.asm gpproface.obj -tC:\Users\jds\AppData\Local\Temp\gpproface.tmp 

gpproface.asm                                                        PAGE   67

     3565                   ;----------------------------------------------------------------------
     3566                   ; 511 | gpDISTANCE(nTr_St_Info.nDistance);                                     
     3567                   ; 513 | else{                                                                  
     3568                   ;----------------------------------------------------------------------
     3569 0000053b 5021004a!        ldiu      @_nTr_St_Info+74,r1
     3570 0000053c 50600067         ldiu      103,r0
     3571 0000053d 0f210000         push      r1
     3572 0000053e 0f200000         push      r0
     3573 0000053f 62000000'        call      _gp_WritingDWord
     3574                                                           ; Call Occurs
     3575 00000540 18740002         subi      2,sp
     3576 00000541 6a00028d         bu        L182
     3577                   ;*      Branch Occurs to L182 
     3578                           .line   215
     3579                   ;----------------------------------------------------------------------
     3580                   ; 514 | gpDISTANCE(nTmsRxData.nDist);                                          
     3581                   ;----------------------------------------------------------------------
     3582 00000542          L142:        
     3583 00000542 0f210000         push      r1
     3584 00000543 0f200000         push      r0
     3585 00000544 62000000'        call      _gp_WritingDWord
     3586                                                           ; Call Occurs
     3587 00000545 18740002         subi      2,sp
     3588                           .line   219
     3589                   ;----------------------------------------------------------------------
     3590                   ; 518 | break;                                                                 
     3591                   ; 519 | case 6: //  .                                              
     3592                   ;----------------------------------------------------------------------
     3593 00000546 6a000288         bu        L182
     3594                   ;*      Branch Occurs to L182 
     3595 00000547          L143:        
     3596                           .line   221
     3597                   ;----------------------------------------------------------------------
     3598                   ; 520 | gpROOTEN;                                                              
     3599                   ;----------------------------------------------------------------------
     3600 00000547 50610001         ldiu      1,r1
     3601 00000548 50600039         ldiu      57,r0
     3602 00000549 0f210000         push      r1
     3603 0000054a 0f200000         push      r0
     3604 0000054b 6200004d'        call      _gp_WritingWord
     3605                                                           ; Call Occurs
     3606 0000054c 18740002         subi      2,sp
     3607                           .line   222
     3608                   ;----------------------------------------------------------------------
     3609                   ; 521 | break;                                                                 
     3610                   ; 522 | case 7: //  .                                              
     3611                   ;----------------------------------------------------------------------
     3612 0000054d 6a000281         bu        L182
     3613                   ;*      Branch Occurs to L182 
     3614 0000054e          L144:        
     3615                           .line   225
     3616                   ;----------------------------------------------------------------------
     3617                   ; 524 | gp_WritingWord(0x64,BIN_BCD(nSelect_Button.nGPTranNumInput.nNum));     
     3618                   ;----------------------------------------------------------------------
TMS320C3x/4x COFF AssemblerVersion 5.11     Fri Sep 17 14:23:56 2010
Copyright (c) 1987-1999 Texas Instruments Incorporatedc:\lang\tms320c3x\511\bin\asm30.exe -l gpproface.asm gpproface.obj -tC:\Users\jds\AppData\Local\Temp\gpproface.tmp 

gpproface.asm                                                        PAGE   68

     3619 0000054e 50200202-        ldiu      @_nSelect_Button+1,r0
     3620 0000054f 0f200000         push      r0
     3621 00000550 6200014c'        call      _BIN_BCD
     3622                                                           ; Call Occurs
     3623 00000551 50610064         ldiu      100,r1
     3624 00000552 18740001         subi      1,sp
     3625 00000553 0f200000         push      r0
     3626 00000554 0f210000         push      r1
     3627 00000555 6200004d'        call      _gp_WritingWord
     3628                                                           ; Call Occurs
     3629 00000556 18740002         subi      2,sp
     3630                           .line   228
     3631                   ;----------------------------------------------------------------------
     3632                   ; 527 | if((nTr_St_Info.nDest.nCode != 0xFF)&&(nTr_St_Info.nStopPatNum))       
     3633                   ;----------------------------------------------------------------------
     3634 00000557 50200105!        ldiu      @_nTr_St_Info+261,r0
     3635 00000558 04e000ff         cmpi      255,r0
     3636 00000559 6a05000b         beq       L147
     3637                   ;*      Branch Occurs to L147 
     3638 0000055a 08200000!        ldi       @_nTr_St_Info+0,r0
     3639 0000055b 6a050009         beq       L147
     3640                   ;*      Branch Occurs to L147 
     3641                           .line   230
     3642                   ;----------------------------------------------------------------------
     3643                   ; 529 | gp_WritingStr(0x96,5,nTr_St_Info.nGpStName.nDest);      //     
     3644                   ; 531 | else                                                                   
     3645                   ;----------------------------------------------------------------------
     3646 0000055c 5020020d-        ldiu      @CL4,r0
     3647 0000055d 50610005         ldiu      5,r1
     3648 0000055e 50620096         ldiu      150,r2
     3649 0000055f 0f200000         push      r0
     3650 00000560 0f210000         push      r1
     3651 00000561 0f220000         push      r2
     3652 00000562 620000ba'        call      _gp_WritingStr
     3653                                                           ; Call Occurs
     3654 00000563 18740003         subi      3,sp
     3655 00000564 6a00026a         bu        L182
     3656                   ;*      Branch Occurs to L182 
     3657 00000565          L147:        
     3658                           .line   234
     3659                   ;----------------------------------------------------------------------
     3660                   ; 533 | gp_WritingStr(0x96,5,sClean_Buf);       //                     
     3661                   ;----------------------------------------------------------------------
     3662 00000565 5000000b         ldiu      fp,r0
     3663 00000566 50620005         ldiu      5,r2
     3664 00000567 50610096         ldiu      150,r1
     3665 00000568 02600057         addi      87,r0
     3666 00000569 0f200000         push      r0
     3667 0000056a 0f220000         push      r2
     3668 0000056b 0f210000         push      r1
     3669 0000056c 620000ba'        call      _gp_WritingStr
     3670                                                           ; Call Occurs
     3671 0000056d 18740003         subi      3,sp
     3672                           .line   238
TMS320C3x/4x COFF AssemblerVersion 5.11     Fri Sep 17 14:23:56 2010
Copyright (c) 1987-1999 Texas Instruments Incorporatedc:\lang\tms320c3x\511\bin\asm30.exe -l gpproface.asm gpproface.obj -tC:\Users\jds\AppData\Local\Temp\gpproface.tmp 

gpproface.asm                                                        PAGE   69

     3673                   ;----------------------------------------------------------------------
     3674                   ; 537 | break;                                                                 
     3675                   ; 538 | case 8: //                                                   
     3676                   ;----------------------------------------------------------------------
     3677 0000056e 6a000260         bu        L182
     3678                   ;*      Branch Occurs to L182 
     3679 0000056f          L148:        
     3680                           .line   241
     3681                   ;----------------------------------------------------------------------
     3682                   ; 540 | if(SCC1_INIT_A.TxOK )                                                  
     3683                   ;----------------------------------------------------------------------
     3684 0000056f 08200002!        ldi       @_SCC1_INIT_A+2,r0
     3685 00000570 6a05025e         beq       L182
     3686                   ;*      Branch Occurs to L182 
     3687                           .line   243
     3688                   ;----------------------------------------------------------------------
     3689                   ; 542 | nSelect_Button.nScreen_Send_Delay_Time++;                              
     3690                   ;----------------------------------------------------------------------
     3691 00000571 50600001         ldiu      1,r0
     3692 00000572 02200209-        addi      @_nSelect_Button+8,r0 ; Unsigned
     3693 00000573 15200209-        sti       r0,@_nSelect_Button+8
     3694                           .line   244
     3695                   ;----------------------------------------------------------------------
     3696                   ; 543 | GP_SDR_PRINT(m_Scc1RXBuff_Ach_Back,m_Scc1TXBuff_Ach,nSelect_Button.nScr
     3697                   ;     | een_Send_Delay_Time);                                                  
     3698                   ;----------------------------------------------------------------------
     3699 00000574 50210215-        ldiu      @CL12,r1
     3700 00000575 50020000         ldiu      r0,r2
     3701 00000576 50200214-        ldiu      @CL11,r0
     3702 00000577 0f220000         push      r2
     3703 00000578 0f200000         push      r0
     3704 00000579 0f210000         push      r1
     3705 0000057a 62000943'        call      _GP_SDR_PRINT
     3706                                                           ; Call Occurs
     3707 0000057b 18740003         subi      3,sp
     3708                           .line   247
     3709                   ;----------------------------------------------------------------------
     3710                   ; 546 | break;                                                                 
     3711                   ; 547 | case 9:                                                                
     3712                   ;----------------------------------------------------------------------
     3713 0000057c 6a000252         bu        L182
     3714                   ;*      Branch Occurs to L182 
     3715 0000057d          L150:        
     3716                           .line   250
     3717                   ;----------------------------------------------------------------------
     3718                   ; 549 | gpROOTDIS;                                                             
     3719                   ;----------------------------------------------------------------------
     3720 0000057d 50610000         ldiu      0,r1
     3721 0000057e 50600039         ldiu      57,r0
     3722 0000057f 0f210000         push      r1
     3723 00000580 0f200000         push      r0
     3724 00000581 6200004d'        call      _gp_WritingWord
     3725                                                           ; Call Occurs
     3726 00000582 18740002         subi      2,sp
TMS320C3x/4x COFF AssemblerVersion 5.11     Fri Sep 17 14:23:56 2010
Copyright (c) 1987-1999 Texas Instruments Incorporatedc:\lang\tms320c3x\511\bin\asm30.exe -l gpproface.asm gpproface.obj -tC:\Users\jds\AppData\Local\Temp\gpproface.tmp 

gpproface.asm                                                        PAGE   70

     3727                           .line   252
     3728                   ;----------------------------------------------------------------------
     3729                   ; 551 | gp_WritingStr(555,5,(UCHAR*)"UpLoading!");                             
     3730                   ;----------------------------------------------------------------------
     3731 00000583 50200216-        ldiu      @CL13,r0
     3732 00000584 50610005         ldiu      5,r1
     3733 00000585 5062022b         ldiu      555,r2
     3734 00000586 0f200000         push      r0
     3735 00000587 0f210000         push      r1
     3736 00000588 0f220000         push      r2
     3737 00000589 620000ba'        call      _gp_WritingStr
     3738                                                           ; Call Occurs
     3739 0000058a 18740003         subi      3,sp
     3740                           .line   254
     3741                   ;----------------------------------------------------------------------
     3742                   ; 553 | gp_WritingWord(600,2086);                                              
     3743                   ;----------------------------------------------------------------------
     3744 0000058b 50610826         ldiu      2086,r1
     3745 0000058c 0f210000         push      r1
     3746 0000058d 50600258         ldiu      600,r0
     3747 0000058e 0f200000         push      r0
     3748 0000058f 6200004d'        call      _gp_WritingWord
     3749                                                           ; Call Occurs
     3750 00000590 18740002         subi      2,sp
     3751                           .line   256
     3752                   ;----------------------------------------------------------------------
     3753                   ; 555 | memset(sClean_Buf,0x20,20);                                            
     3754                   ;----------------------------------------------------------------------
     3755 00000591 50600014         ldiu      20,r0
     3756 00000592 0f200000         push      r0
     3757 00000593 50610020         ldiu      32,r1
     3758 00000594 5000000b         ldiu      fp,r0
     3759 00000595 0f210000         push      r1
     3760 00000596 02600057         addi      87,r0
     3761 00000597 0f200000         push      r0
     3762 00000598 62000000!        call      _memset
     3763                                                           ; Call Occurs
     3764 00000599 18740003         subi      3,sp
     3765                           .line   258
     3766                   ;----------------------------------------------------------------------
     3767                   ; 557 | if(WORD_L(Idc_Load.nErCnt) && !WORD_L(Idc_Load.nDataNvsrLoad ))        
     3768                   ;----------------------------------------------------------------------
     3769 0000059a 506000ff         ldiu      255,r0
     3770 0000059b 1a200001!        tstb      @_Idc_Load+1,r0
     3771 0000059c 6a050039         beq       L153
     3772                   ;*      Branch Occurs to L153 
     3773 0000059d 1a200002!        tstb      @_Idc_Load+2,r0
     3774 0000059e 6a060037         bne       L153
     3775                   ;*      Branch Occurs to L153 
     3776                           .line   260
     3777                   ;----------------------------------------------------------------------
     3778                   ; 559 | sTemp = (WORD_L(Idc_Load.nErCnt)*100)/50;                              
     3779                   ;----------------------------------------------------------------------
     3780 0000059f 02a00001!        and       @_Idc_Load+1,r0
TMS320C3x/4x COFF AssemblerVersion 5.11     Fri Sep 17 14:23:56 2010
Copyright (c) 1987-1999 Texas Instruments Incorporatedc:\lang\tms320c3x\511\bin\asm30.exe -l gpproface.asm gpproface.obj -tC:\Users\jds\AppData\Local\Temp\gpproface.tmp 

gpproface.asm                                                        PAGE   71

     3781 000005a0 50610064         ldiu      100,r1
     3782 000005a1 25000001         mpyi3     r1,r0,r0
     3783 000005a2 50610032         ldiu      50,r1
     3784 000005a3 62000000!        call      DIV_U30
     3785                                                           ; Call Occurs
     3786 000005a4 15400301         sti       r0,*+fp(1)
     3787                           .line   263
     3788                   ;----------------------------------------------------------------------
     3789                   ; 562 | sCharBuf[0] = sTemp/100 +0x30;                                         
     3790                   ;----------------------------------------------------------------------
     3791 000005a5 50610064         ldiu      100,r1
     3792 000005a6 62000000!        call      DIV_U30
     3793                                                           ; Call Occurs
     3794 000005a7 5008000b         ldiu      fp,ar0
     3795 000005a8 02680002         addi      2,ar0
     3796 000005a9 02600030         addi      48,r0                 ; Unsigned
     3797 000005aa 1540c000         sti       r0,*ar0
     3798                           .line   264
     3799                   ;----------------------------------------------------------------------
     3800                   ; 563 | sCharBuf[1] = sTemp/10 +0x30;                                          
     3801                   ;----------------------------------------------------------------------
     3802 000005ab 50400301         ldiu      *+fp(1),r0
     3803 000005ac 5061000a         ldiu      10,r1
     3804 000005ad 62000000!        call      DIV_U30
     3805                                                           ; Call Occurs
     3806 000005ae 5008000b         ldiu      fp,ar0
     3807 000005af 02680003         addi      3,ar0
     3808 000005b0 02600030         addi      48,r0                 ; Unsigned
     3809 000005b1 1540c000         sti       r0,*ar0
     3810                           .line   265
     3811                   ;----------------------------------------------------------------------
     3812                   ; 564 | sCharBuf[2] = sTemp%10 +0x30;                                          
     3813                   ;----------------------------------------------------------------------
     3814 000005b2 50400301         ldiu      *+fp(1),r0
     3815 000005b3 5061000a         ldiu      10,r1
     3816 000005b4 62000000!        call      MOD_U30
     3817                                                           ; Call Occurs
     3818 000005b5 5008000b         ldiu      fp,ar0
     3819 000005b6 02680004         addi      4,ar0
     3820 000005b7 02600030         addi      48,r0                 ; Unsigned
     3821 000005b8 1540c000         sti       r0,*ar0
     3822                           .line   266
     3823                   ;----------------------------------------------------------------------
     3824                   ; 565 | sCharBuf[3] = 0x25;                                                    
     3825                   ;----------------------------------------------------------------------
     3826 000005b9 5008000b         ldiu      fp,ar0
     3827 000005ba 02680005         addi      5,ar0
     3828 000005bb 50600025         ldiu      37,r0
     3829 000005bc 1540c000         sti       r0,*ar0
     3830                           .line   268
     3831                   ;----------------------------------------------------------------------
     3832                   ; 567 | gp_WritingWord(300,sTemp);                                             
     3833                   ;----------------------------------------------------------------------
     3834 000005bd 50410301         ldiu      *+fp(1),r1
TMS320C3x/4x COFF AssemblerVersion 5.11     Fri Sep 17 14:23:56 2010
Copyright (c) 1987-1999 Texas Instruments Incorporatedc:\lang\tms320c3x\511\bin\asm30.exe -l gpproface.asm gpproface.obj -tC:\Users\jds\AppData\Local\Temp\gpproface.tmp 

gpproface.asm                                                        PAGE   72

     3835 000005be 0f210000         push      r1
     3836 000005bf 5060012c         ldiu      300,r0
     3837 000005c0 0f200000         push      r0
     3838 000005c1 6200004d'        call      _gp_WritingWord
     3839                                                           ; Call Occurs
     3840 000005c2 18740002         subi      2,sp
     3841                           .line   270
     3842                   ;----------------------------------------------------------------------
     3843                   ; 569 | gp_WritingStr(540,2,sCharBuf);                                         
     3844                   ;----------------------------------------------------------------------
     3845 000005c3 5000000b         ldiu      fp,r0
     3846 000005c4 02600002         addi      2,r0
     3847 000005c5 0f200000         push      r0
     3848 000005c6 50610002         ldiu      2,r1
     3849 000005c7 5062021c         ldiu      540,r2
     3850 000005c8 0f210000         push      r1
     3851 000005c9 0f220000         push      r2
     3852 000005ca 620000ba'        call      _gp_WritingStr
     3853                                                           ; Call Occurs
     3854 000005cb 18740003         subi      3,sp
     3855                           .line   271
     3856                   ;----------------------------------------------------------------------
     3857                   ; 570 | gp_WritingStr(545,2,sClean_Buf);                                       
     3858                   ;----------------------------------------------------------------------
     3859 000005cc 5002000b         ldiu      fp,r2
     3860 000005cd 02620057         addi      87,r2
     3861 000005ce 50600002         ldiu      2,r0
     3862 000005cf 0f220000         push      r2
     3863 000005d0 50610221         ldiu      545,r1
     3864 000005d1 0f200000         push      r0
     3865 000005d2 0f210000         push      r1
     3866 000005d3 620000ba'        call      _gp_WritingStr
     3867                                                           ; Call Occurs
     3868 000005d4 18740003         subi      3,sp
     3869 000005d5 6a00003e         bu        L155
     3870                   ;*      Branch Occurs to L155 
     3871 000005d6          L153:        
     3872                           .line   274
     3873                   ;----------------------------------------------------------------------
     3874                   ; 573 | else if(DWORD_L(Idc_Load.nDataNvsrLoad))                               
     3875                   ;----------------------------------------------------------------------
     3876 000005d6 50200002!        ldiu      @_Idc_Load+2,r0
     3877 000005d7 1a60ffff         tstb      65535,r0
     3878 000005d8 6a250039         beqd      L155
     3879 000005d9 53620064         ldine     100,r2
     3880 000005da 53200004!        ldine     @_Idc_Load+4,r0
     3881 000005db 53210002!        ldine     @_Idc_Load+2,r1
     3882                   ;*      Branch Occurs to L155 
     3883                           .line   276
     3884                   ;----------------------------------------------------------------------
     3885                   ; 575 | sTemp = (DWORD_MASKING(Idc_Load.nRomWriteCnt)*100)/DWORD_MASKING(Idc_Lo
     3886                   ;     | ad.nDataNvsrLoad);                                                     
     3887                   ;----------------------------------------------------------------------
     3888 000005dc 25000002         mpyi3     r2,r0,r0
TMS320C3x/4x COFF AssemblerVersion 5.11     Fri Sep 17 14:23:56 2010
Copyright (c) 1987-1999 Texas Instruments Incorporatedc:\lang\tms320c3x\511\bin\asm30.exe -l gpproface.asm gpproface.obj -tC:\Users\jds\AppData\Local\Temp\gpproface.tmp 

gpproface.asm                                                        PAGE   73

     3889 000005dd 62000000!        call      DIV_U30
     3890                                                           ; Call Occurs
     3891 000005de 15400301         sti       r0,*+fp(1)
     3892                           .line   278
     3893                   ;----------------------------------------------------------------------
     3894                   ; 577 | sCharBuf[0] = sTemp/100 +0x30;                                         
     3895                   ;----------------------------------------------------------------------
     3896 000005df 50610064         ldiu      100,r1
     3897 000005e0 62000000!        call      DIV_U30
     3898                                                           ; Call Occurs
     3899 000005e1 5008000b         ldiu      fp,ar0
     3900 000005e2 02680002         addi      2,ar0
     3901 000005e3 02600030         addi      48,r0                 ; Unsigned
     3902 000005e4 1540c000         sti       r0,*ar0
     3903                           .line   279
     3904                   ;----------------------------------------------------------------------
     3905                   ; 578 | sCharBuf[1] = sTemp/10 +0x30;                                          
     3906                   ;----------------------------------------------------------------------
     3907 000005e5 50400301         ldiu      *+fp(1),r0
     3908 000005e6 5061000a         ldiu      10,r1
     3909 000005e7 62000000!        call      DIV_U30
     3910                                                           ; Call Occurs
     3911 000005e8 5008000b         ldiu      fp,ar0
     3912 000005e9 02680003         addi      3,ar0
     3913 000005ea 02600030         addi      48,r0                 ; Unsigned
     3914 000005eb 1540c000         sti       r0,*ar0
     3915                           .line   280
     3916                   ;----------------------------------------------------------------------
     3917                   ; 579 | sCharBuf[2] = sTemp%10 +0x30;                                          
     3918                   ;----------------------------------------------------------------------
     3919 000005ec 50400301         ldiu      *+fp(1),r0
     3920 000005ed 5061000a         ldiu      10,r1
     3921 000005ee 62000000!        call      MOD_U30
     3922                                                           ; Call Occurs
     3923 000005ef 5008000b         ldiu      fp,ar0
     3924 000005f0 02680004         addi      4,ar0
     3925 000005f1 02600030         addi      48,r0                 ; Unsigned
     3926 000005f2 1540c000         sti       r0,*ar0
     3927                           .line   281
     3928                   ;----------------------------------------------------------------------
     3929                   ; 580 | sCharBuf[3] = 0x25;                                                    
     3930                   ;----------------------------------------------------------------------
     3931 000005f3 5008000b         ldiu      fp,ar0
     3932 000005f4 02680005         addi      5,ar0
     3933 000005f5 50600025         ldiu      37,r0
     3934 000005f6 1540c000         sti       r0,*ar0
     3935                           .line   283
     3936                   ;----------------------------------------------------------------------
     3937                   ; 582 | gp_WritingWord(300,100);                                               
     3938                   ;----------------------------------------------------------------------
     3939 000005f7 5061012c         ldiu      300,r1
     3940 000005f8 50600064         ldiu      100,r0
     3941 000005f9 0f200000         push      r0
     3942 000005fa 0f210000         push      r1
TMS320C3x/4x COFF AssemblerVersion 5.11     Fri Sep 17 14:23:56 2010
Copyright (c) 1987-1999 Texas Instruments Incorporatedc:\lang\tms320c3x\511\bin\asm30.exe -l gpproface.asm gpproface.obj -tC:\Users\jds\AppData\Local\Temp\gpproface.tmp 

gpproface.asm                                                        PAGE   74

     3943 000005fb 6200004d'        call      _gp_WritingWord
     3944                                                           ; Call Occurs
     3945 000005fc 18740002         subi      2,sp
     3946                           .line   284
     3947                   ;----------------------------------------------------------------------
     3948                   ; 583 | gp_WritingStr(540,2,(UCHAR*)"100%");                                   
     3949                   ;----------------------------------------------------------------------
     3950 000005fd 50220217-        ldiu      @CL14,r2
     3951 000005fe 0f220000         push      r2
     3952 000005ff 50610002         ldiu      2,r1
     3953 00000600 0f210000         push      r1
     3954 00000601 5060021c         ldiu      540,r0
     3955 00000602 0f200000         push      r0
     3956 00000603 620000ba'        call      _gp_WritingStr
     3957                                                           ; Call Occurs
     3958 00000604 18740003         subi      3,sp
     3959                           .line   286
     3960                   ;----------------------------------------------------------------------
     3961                   ; 585 | gp_WritingWord(301,sTemp);                                             
     3962                   ;----------------------------------------------------------------------
     3963 00000605 5061012d         ldiu      301,r1
     3964 00000606 50400301         ldiu      *+fp(1),r0
     3965 00000607 0f200000         push      r0
     3966 00000608 0f210000         push      r1
     3967 00000609 6200004d'        call      _gp_WritingWord
     3968                                                           ; Call Occurs
     3969 0000060a 18740002         subi      2,sp
     3970                           .line   287
     3971                   ;----------------------------------------------------------------------
     3972                   ; 586 | gp_WritingStr(545,2,sCharBuf);                                         
     3973                   ;----------------------------------------------------------------------
     3974 0000060b 5000000b         ldiu      fp,r0
     3975 0000060c 02600002         addi      2,r0
     3976 0000060d 0f200000         push      r0
     3977 0000060e 50610002         ldiu      2,r1
     3978 0000060f 50620221         ldiu      545,r2
     3979 00000610 0f210000         push      r1
     3980 00000611 0f220000         push      r2
     3981 00000612 620000ba'        call      _gp_WritingStr
     3982                                                           ; Call Occurs
     3983 00000613 18740003         subi      3,sp
     3984 00000614          L155:        
     3985                           .line   291
     3986                   ;----------------------------------------------------------------------
     3987                   ; 590 | if(Idc_Load.nKO_Flag)                                                  
     3988                   ;----------------------------------------------------------------------
     3989 00000614 08200005!        ldi       @_Idc_Load+5,r0
     3990 00000615 6a2501b7         beqd      L182
     3991 00000616 0c800000         nop
     3992 00000617 53610064         ldine     100,r1
     3993 00000618 5360012d         ldine     301,r0
     3994                   ;*      Branch Occurs to L182 
     3995                           .line   294
     3996                   ;----------------------------------------------------------------------
TMS320C3x/4x COFF AssemblerVersion 5.11     Fri Sep 17 14:23:56 2010
Copyright (c) 1987-1999 Texas Instruments Incorporatedc:\lang\tms320c3x\511\bin\asm30.exe -l gpproface.asm gpproface.obj -tC:\Users\jds\AppData\Local\Temp\gpproface.tmp 

gpproface.asm                                                        PAGE   75

     3997                   ; 593 | gp_WritingWord(301,100);                                               
     3998                   ;----------------------------------------------------------------------
     3999 00000619 0f210000         push      r1
     4000 0000061a 0f200000         push      r0
     4001 0000061b 6200004d'        call      _gp_WritingWord
     4002                                                           ; Call Occurs
     4003 0000061c 18740002         subi      2,sp
     4004                           .line   295
     4005                   ;----------------------------------------------------------------------
     4006                   ; 594 | gp_WritingStr(545,2,(UCHAR*)"100%");                                   
     4007                   ;----------------------------------------------------------------------
     4008 0000061d 50220217-        ldiu      @CL14,r2
     4009 0000061e 50610002         ldiu      2,r1
     4010 0000061f 50600221         ldiu      545,r0
     4011 00000620 0f220000         push      r2
     4012 00000621 0f210000         push      r1
     4013 00000622 0f200000         push      r0
     4014 00000623 620000ba'        call      _gp_WritingStr
     4015                                                           ; Call Occurs
     4016 00000624 18740003         subi      3,sp
     4017                           .line   297
     4018                   ;----------------------------------------------------------------------
     4019                   ; 596 | gp_WritingStr(555,5,sClean_Buf);                                       
     4020                   ;----------------------------------------------------------------------
     4021 00000625 5000000b         ldiu      fp,r0
     4022 00000626 02600057         addi      87,r0
     4023 00000627 0f200000         push      r0
     4024 00000628 50620005         ldiu      5,r2
     4025 00000629 0f220000         push      r2
     4026 0000062a 5061022b         ldiu      555,r1
     4027 0000062b 0f210000         push      r1
     4028 0000062c 620000ba'        call      _gp_WritingStr
     4029                                                           ; Call Occurs
     4030 0000062d 18740003         subi      3,sp
     4031                           .line   298
     4032                   ;----------------------------------------------------------------------
     4033                   ; 597 | gp_WritingStr(550,5,(UCHAR*)"OK_Finish!");                             
     4034                   ;----------------------------------------------------------------------
     4035 0000062e 50210218-        ldiu      @CL15,r1
     4036 0000062f 0f210000         push      r1
     4037 00000630 50600005         ldiu      5,r0
     4038 00000631 0f200000         push      r0
     4039 00000632 50620226         ldiu      550,r2
     4040 00000633 0f220000         push      r2
     4041 00000634 620000ba'        call      _gp_WritingStr
     4042                                                           ; Call Occurs
     4043 00000635 18740003         subi      3,sp
     4044                           .line   301
     4045                   ;----------------------------------------------------------------------
     4046                   ; 600 | nSelect_Button.nScreenSetNum = 0;                                      
     4047                   ;----------------------------------------------------------------------
     4048 00000636 50600000         ldiu      0,r0
     4049 00000637 15200206-        sti       r0,@_nSelect_Button+5
     4050                           .line   303
TMS320C3x/4x COFF AssemblerVersion 5.11     Fri Sep 17 14:23:56 2010
Copyright (c) 1987-1999 Texas Instruments Incorporatedc:\lang\tms320c3x\511\bin\asm30.exe -l gpproface.asm gpproface.obj -tC:\Users\jds\AppData\Local\Temp\gpproface.tmp 

gpproface.asm                                                        PAGE   76

     4051                   ;----------------------------------------------------------------------
     4052                   ; 602 | gpBuzzerOff;                                                           
     4053                   ;----------------------------------------------------------------------
     4054 00000638 50610010         ldiu      16,r1
     4055 00000639 5060000b         ldiu      11,r0
     4056 0000063a 0f210000         push      r1
     4057 0000063b 0f200000         push      r0
     4058 0000063c 6200004d'        call      _gp_WritingWord
     4059                                                           ; Call Occurs
     4060 0000063d 18740002         subi      2,sp
     4061                           .line   305
     4062                   ;----------------------------------------------------------------------
     4063                   ; 604 | gpROOTEN;                                                              
     4064                   ;----------------------------------------------------------------------
     4065 0000063e 50610001         ldiu      1,r1
     4066 0000063f 0f210000         push      r1
     4067 00000640 50600039         ldiu      57,r0
     4068 00000641 0f200000         push      r0
     4069 00000642 6200004d'        call      _gp_WritingWord
     4070                                                           ; Call Occurs
     4071 00000643 18740002         subi      2,sp
     4072                           .line   308
     4073                   ;----------------------------------------------------------------------
     4074                   ; 607 | break;                                                                 
     4075                   ; 608 | case 11:                //                         
     4076                   ;----------------------------------------------------------------------
     4077 00000644 6a00018a         bu        L182
     4078                   ;*      Branch Occurs to L182 
     4079 00000645          L157:        
     4080                           .line   310
     4081                   ;----------------------------------------------------------------------
     4082                   ; 609 | if(!nLedDataLoad.nSelfTestFlag)                                        
     4083                   ;----------------------------------------------------------------------
     4084 00000645 08200007!        ldi       @_nLedDataLoad+7,r0
     4085 00000646 6a060188         bne       L182
     4086                   ;*      Branch Occurs to L182 
     4087                           .line   312
     4088                   ;----------------------------------------------------------------------
     4089                   ; 611 | nSelect_Button.nScreenSetNum = 0;                                      
     4090                   ;----------------------------------------------------------------------
     4091 00000647 50600000         ldiu      0,r0
     4092 00000648 15200206-        sti       r0,@_nSelect_Button+5
     4093                           .line   314
     4094                   ;----------------------------------------------------------------------
     4095                   ; 613 | gpROOTEN;                                                              
     4096                   ;----------------------------------------------------------------------
     4097 00000649 50610001         ldiu      1,r1
     4098 0000064a 0f210000         push      r1
     4099 0000064b 50600039         ldiu      57,r0
     4100 0000064c 0f200000         push      r0
     4101 0000064d 6200004d'        call      _gp_WritingWord
     4102                                                           ; Call Occurs
     4103 0000064e 18740002         subi      2,sp
     4104                           .line   316
TMS320C3x/4x COFF AssemblerVersion 5.11     Fri Sep 17 14:23:56 2010
Copyright (c) 1987-1999 Texas Instruments Incorporatedc:\lang\tms320c3x\511\bin\asm30.exe -l gpproface.asm gpproface.obj -tC:\Users\jds\AppData\Local\Temp\gpproface.tmp 

gpproface.asm                                                        PAGE   77

     4105                   ;----------------------------------------------------------------------
     4106                   ; 615 | memset(sSelfTestBuf,0x01,nSelf_Test.nSELF_DownLoad_UnitCnt);           
     4107                   ;----------------------------------------------------------------------
     4108 0000064f 502200b4!        ldiu      @_nSelf_Test+180,r2
     4109 00000650 50610001         ldiu      1,r1
     4110 00000651 5000000b         ldiu      fp,r0
     4111 00000652 0f220000         push      r2
     4112 00000653 0260001b         addi      27,r0
     4113 00000654 0f210000         push      r1
     4114 00000655 0f200000         push      r0
     4115 00000656 62000000!        call      _memset
     4116                                                           ; Call Occurs
     4117 00000657 18740003         subi      3,sp
     4118                           .line   317
     4119                   ;----------------------------------------------------------------------
     4120                   ; 616 | memcpy(sSelfTestBuf,nSelf_Test.nSELF_DownLoad_RxBuf,nSelf_Test.nSELF_Do
     4121                   ;     | wnLoad_UnitCnt);                                                       
     4122                   ;----------------------------------------------------------------------
     4123 00000658 5000000b         ldiu      fp,r0
     4124 00000659 50210219-        ldiu      @CL16,r1
     4125 0000065a 502200b4!        ldiu      @_nSelf_Test+180,r2
     4126 0000065b 0f220000         push      r2
     4127 0000065c 0260001b         addi      27,r0
     4128 0000065d 0f210000         push      r1
     4129 0000065e 0f200000         push      r0
     4130 0000065f 62000000!        call      _memcpy
     4131                                                           ; Call Occurs
     4132 00000660 18740003         subi      3,sp
     4133                           .line   318
     4134                   ;----------------------------------------------------------------------
     4135                   ; 617 | SDR_Routine_Complete(sSelfTestBuf,nSelf_Test.nSELF_DownLoad_UnitCnt,TRU
     4136                   ;     | E);      // GP  0/X .                                  
     4137                   ;----------------------------------------------------------------------
     4138 00000661 50600001         ldiu      1,r0
     4139 00000662 0f200000         push      r0
     4140 00000663 502000b4!        ldiu      @_nSelf_Test+180,r0
     4141 00000664 0f200000         push      r0
     4142 00000665 5000000b         ldiu      fp,r0
     4143 00000666 0260001b         addi      27,r0
     4144 00000667 0f200000         push      r0
     4145 00000668 62000f8b'        call      _SDR_Routine_Complete
     4146                                                           ; Call Occurs
     4147 00000669 18740003         subi      3,sp
     4148                           .line   320
     4149                   ;----------------------------------------------------------------------
     4150                   ; 619 | if(nLedDataLoad.nSDR_RxCnt)//                        
     4151                   ;----------------------------------------------------------------------
     4152 0000066a 08200008!        ldi       @_nLedDataLoad+8,r0
     4153 0000066b 6a250016         beqd      L161
     4154 0000066c 52a1021b-        ldieq     @CL18,r1
     4155 0000066d 52e20008         ldieq     8,r2
     4156 0000066e 52e00249         ldieq     585,r0
     4157                   ;*      Branch Occurs to L161 
     4158                           .line   322
TMS320C3x/4x COFF AssemblerVersion 5.11     Fri Sep 17 14:23:56 2010
Copyright (c) 1987-1999 Texas Instruments Incorporatedc:\lang\tms320c3x\511\bin\asm30.exe -l gpproface.asm gpproface.obj -tC:\Users\jds\AppData\Local\Temp\gpproface.tmp 

gpproface.asm                                                        PAGE   78

     4159                   ;----------------------------------------------------------------------
     4160                   ; 621 | gpLED_UPLOAD_ERBUT;     //      .    
     4161                   ;----------------------------------------------------------------------
     4162 0000066f 50610001         ldiu      1,r1
     4163 00000670 506002bc         ldiu      700,r0
     4164 00000671 0f210000         push      r1
     4165 00000672 0f200000         push      r0
     4166 00000673 6200004d'        call      _gp_WritingWord
     4167                                                           ; Call Occurs
     4168 00000674 18740002         subi      2,sp
     4169                           .line   323
     4170                   ;----------------------------------------------------------------------
     4171                   ; 622 | gpLED_UPLOAD_ERBUT_SF_ON;                                              
     4172                   ;----------------------------------------------------------------------
     4173 00000675 50610001         ldiu      1,r1
     4174 00000676 506002c6         ldiu      710,r0
     4175 00000677 0f210000         push      r1
     4176 00000678 0f200000         push      r0
     4177 00000679 6200004d'        call      _gp_WritingWord
     4178                                                           ; Call Occurs
     4179 0000067a 18740002         subi      2,sp
     4180                           .line   325
     4181                   ;----------------------------------------------------------------------
     4182                   ; 624 | gp_WritingStr(585,8,(UCHAR *)"UNIT FiND -> OK");                       
     4183                   ; 626 | else    //  .                                        
     4184                   ;----------------------------------------------------------------------
     4185 0000067b 5022021a-        ldiu      @CL17,r2
     4186 0000067c 50610008         ldiu      8,r1
     4187 0000067d 50600249         ldiu      585,r0
     4188 0000067e 0f220000         push      r2
     4189 0000067f 0f210000         push      r1
     4190 00000680 0f200000         push      r0
     4191 00000681 620000ba'        call      _gp_WritingStr
     4192                                                           ; Call Occurs
     4193 00000682 18740003         subi      3,sp
     4194 00000683 6a000005         bu        L162
     4195                   ;*      Branch Occurs to L162 
     4196                           .line   329
     4197                   ;----------------------------------------------------------------------
     4198                   ; 628 | gp_WritingStr(585,8,(UCHAR *)"UNIT FiND -> NG");                       
     4199                   ;----------------------------------------------------------------------
     4200 00000684          L161:        
     4201 00000684 0f210000         push      r1
     4202 00000685 0f220000         push      r2
     4203 00000686 0f200000         push      r0
     4204 00000687 620000ba'        call      _gp_WritingStr
     4205                                                           ; Call Occurs
     4206 00000688 18740003         subi      3,sp
     4207 00000689          L162:        
     4208                           .line   333
     4209                   ;----------------------------------------------------------------------
     4210                   ; 632 | nLedDataLoad.nSDR_RxCnt = 0;    // .                         
     4211                   ;----------------------------------------------------------------------
     4212 00000689 50600000         ldiu      0,r0
TMS320C3x/4x COFF AssemblerVersion 5.11     Fri Sep 17 14:23:56 2010
Copyright (c) 1987-1999 Texas Instruments Incorporatedc:\lang\tms320c3x\511\bin\asm30.exe -l gpproface.asm gpproface.obj -tC:\Users\jds\AppData\Local\Temp\gpproface.tmp 

gpproface.asm                                                        PAGE   79

     4213 0000068a 15200008!        sti       r0,@_nLedDataLoad+8
     4214                           .line   335
     4215                   ;----------------------------------------------------------------------
     4216                   ; 634 | break;                                                                 
     4217                   ; 635 | case 12:        //                               
     4218                   ;----------------------------------------------------------------------
     4219 0000068b 6a000143         bu        L182
     4220                   ;*      Branch Occurs to L182 
     4221 0000068c          L163:        
     4222                           .line   338
     4223                   ;----------------------------------------------------------------------
     4224                   ; 637 | if(nLedDataLoad.nErassFlag.nST_2)                                      
     4225                   ;----------------------------------------------------------------------
     4226 0000068c 0820000a!        ldi       @_nLedDataLoad+10,r0
     4227 0000068d 6a05003e         beq       L165
     4228                   ;*      Branch Occurs to L165 
     4229                           .line   340
     4230                   ;----------------------------------------------------------------------
     4231                   ; 639 | sTemp = (DWORD_L(nLedDataLoad.nSDR_RxCnt)*100)/DWORD_L(nLedDataLoad.nEr
     4232                   ;     | assFlag.nTXCnt);                                                       
     4233                   ;----------------------------------------------------------------------
     4234 0000068e 50200008!        ldiu      @_nLedDataLoad+8,r0
     4235 0000068f 50620064         ldiu      100,r2
     4236 00000690 5021020e-        ldiu      @CL5,r1
     4237 00000691 02e0ffff         and       65535,r0
     4238 00000692 25000002         mpyi3     r2,r0,r0
     4239 00000693 02a1000b!        and       @_nLedDataLoad+11,r1
     4240 00000694 62000000!        call      DIV_U30
     4241                                                           ; Call Occurs
     4242 00000695 15400301         sti       r0,*+fp(1)
     4243                           .line   341
     4244                   ;----------------------------------------------------------------------
     4245                   ; 640 | sCharBuf[0] = sTemp/100 +0x30;                                         
     4246                   ;----------------------------------------------------------------------
     4247 00000696 50610064         ldiu      100,r1
     4248 00000697 62000000!        call      DIV_U30
     4249                                                           ; Call Occurs
     4250 00000698 5008000b         ldiu      fp,ar0
     4251 00000699 02680002         addi      2,ar0
     4252 0000069a 02600030         addi      48,r0                 ; Unsigned
     4253 0000069b 1540c000         sti       r0,*ar0
     4254                           .line   342
     4255                   ;----------------------------------------------------------------------
     4256                   ; 641 | sCharBuf[1] = sTemp/10 +0x30;                                          
     4257                   ;----------------------------------------------------------------------
     4258 0000069c 50400301         ldiu      *+fp(1),r0
     4259 0000069d 5061000a         ldiu      10,r1
     4260 0000069e 62000000!        call      DIV_U30
     4261                                                           ; Call Occurs
     4262 0000069f 5008000b         ldiu      fp,ar0
     4263 000006a0 02680003         addi      3,ar0
     4264 000006a1 02600030         addi      48,r0                 ; Unsigned
     4265 000006a2 1540c000         sti       r0,*ar0
     4266                           .line   343
TMS320C3x/4x COFF AssemblerVersion 5.11     Fri Sep 17 14:23:56 2010
Copyright (c) 1987-1999 Texas Instruments Incorporatedc:\lang\tms320c3x\511\bin\asm30.exe -l gpproface.asm gpproface.obj -tC:\Users\jds\AppData\Local\Temp\gpproface.tmp 

gpproface.asm                                                        PAGE   80

     4267                   ;----------------------------------------------------------------------
     4268                   ; 642 | sCharBuf[2] = sTemp%10 +0x30;                                          
     4269                   ;----------------------------------------------------------------------
     4270 000006a3 50400301         ldiu      *+fp(1),r0
     4271 000006a4 5061000a         ldiu      10,r1
     4272 000006a5 62000000!        call      MOD_U30
     4273                                                           ; Call Occurs
     4274 000006a6 5008000b         ldiu      fp,ar0
     4275 000006a7 02680004         addi      4,ar0
     4276 000006a8 02600030         addi      48,r0                 ; Unsigned
     4277 000006a9 1540c000         sti       r0,*ar0
     4278                           .line   344
     4279                   ;----------------------------------------------------------------------
     4280                   ; 643 | sCharBuf[3] = 0x25;                                                    
     4281                   ;----------------------------------------------------------------------
     4282 000006aa 5008000b         ldiu      fp,ar0
     4283 000006ab 02680005         addi      5,ar0
     4284 000006ac 50600025         ldiu      37,r0
     4285 000006ad 1540c000         sti       r0,*ar0
     4286                           .line   346
     4287                   ;----------------------------------------------------------------------
     4288                   ; 645 | gp_WritingWord(300,sTemp);                                             
     4289                   ;----------------------------------------------------------------------
     4290 000006ae 50410301         ldiu      *+fp(1),r1
     4291 000006af 5060012c         ldiu      300,r0
     4292 000006b0 0f210000         push      r1
     4293 000006b1 0f200000         push      r0
     4294 000006b2 6200004d'        call      _gp_WritingWord
     4295                                                           ; Call Occurs
     4296 000006b3 18740002         subi      2,sp
     4297                           .line   347
     4298                   ;----------------------------------------------------------------------
     4299                   ; 646 | gp_WritingStr(540,2,sCharBuf);                                         
     4300                   ;----------------------------------------------------------------------
     4301 000006b4 5000000b         ldiu      fp,r0
     4302 000006b5 02600002         addi      2,r0
     4303 000006b6 5062021c         ldiu      540,r2
     4304 000006b7 0f200000         push      r0
     4305 000006b8 50610002         ldiu      2,r1
     4306 000006b9 0f210000         push      r1
     4307 000006ba 0f220000         push      r2
     4308 000006bb 620000ba'        call      _gp_WritingStr
     4309                                                           ; Call Occurs
     4310 000006bc 18740003         subi      3,sp
     4311                           .line   349
     4312                   ;----------------------------------------------------------------------
     4313                   ; 648 | gp_WritingWord(301,000);                                               
     4314                   ;----------------------------------------------------------------------
     4315 000006bd 50610000         ldiu      0,r1
     4316 000006be 0f210000         push      r1
     4317 000006bf 5060012d         ldiu      301,r0
     4318 000006c0 0f200000         push      r0
     4319 000006c1 6200004d'        call      _gp_WritingWord
     4320                                                           ; Call Occurs
TMS320C3x/4x COFF AssemblerVersion 5.11     Fri Sep 17 14:23:56 2010
Copyright (c) 1987-1999 Texas Instruments Incorporatedc:\lang\tms320c3x\511\bin\asm30.exe -l gpproface.asm gpproface.obj -tC:\Users\jds\AppData\Local\Temp\gpproface.tmp 

gpproface.asm                                                        PAGE   81

     4321 000006c2 18740002         subi      2,sp
     4322                           .line   350
     4323                   ;----------------------------------------------------------------------
     4324                   ; 649 | gp_WritingStr(545,2,(UCHAR*)"000%");                                   
     4325                   ; 652 | else                                                                   
     4326                   ;----------------------------------------------------------------------
     4327 000006c3 5020021c-        ldiu      @CL19,r0
     4328 000006c4 0f200000         push      r0
     4329 000006c5 50610002         ldiu      2,r1
     4330 000006c6 0f210000         push      r1
     4331 000006c7 50620221         ldiu      545,r2
     4332 000006c8 0f220000         push      r2
     4333 000006c9 620000ba'        call      _gp_WritingStr
     4334                                                           ; Call Occurs
     4335 000006ca 18740003         subi      3,sp
     4336 000006cb 6a000103         bu        L182
     4337                   ;*      Branch Occurs to L182 
     4338 000006cc          L165:        
     4339                           .line   355
     4340                   ;----------------------------------------------------------------------
     4341                   ; 654 | nSelect_Button.nScreenSetNum = 0;                                      
     4342                   ;----------------------------------------------------------------------
     4343 000006cc 50600000         ldiu      0,r0
     4344 000006cd 15200206-        sti       r0,@_nSelect_Button+5
     4345                           .line   356
     4346                   ;----------------------------------------------------------------------
     4347                   ; 655 | if(WORD_L(nLedDataLoad.nErassFlag.nRepCnt))                            
     4348                   ;----------------------------------------------------------------------
     4349 000006ce 506000ff         ldiu      255,r0
     4350 000006cf 1a20000c!        tstb      @_nLedDataLoad+12,r0
     4351 000006d0 6a25001c         beqd      L167
     4352 000006d1 0c800000         nop
     4353 000006d2 5308000b         ldine     fp,ar0
     4354 000006d3 5329021d-        ldine     @CL20,ar1
     4355                   ;*      Branch Occurs to L167 
     4356                           .line   358
     4357                   ;----------------------------------------------------------------------
     4358                   ; 657 | memcpy(sDowRep,(UCHAR *)"Repet Num -> ",13);                           
     4359                   ;----------------------------------------------------------------------
     4360 000006d4 0268006b         addi      107,ar0
     4361 000006d5 50402101         ldiu      *ar1++(1),r0
     4362 000006d6 13fb000b         rpts      11                    ; Fast MEMCPY(#9)
     4363 000006d7 da002021         sti       r0,*ar0++(1)
     4364                   ||      ldi       *ar1++(1),r0
     4365 000006d8 15402001         sti       r0,*ar0++(1)
     4366                           .line   359
     4367                   ;----------------------------------------------------------------------
     4368                   ; 658 | sDowRep[13] = 0x30;                                                    
     4369                   ;----------------------------------------------------------------------
     4370 000006d9 5008000b         ldiu      fp,ar0
     4371 000006da 02680078         addi      120,ar0
     4372 000006db 50600030         ldiu      48,r0
     4373 000006dc 1540c000         sti       r0,*ar0
     4374                           .line   360
TMS320C3x/4x COFF AssemblerVersion 5.11     Fri Sep 17 14:23:56 2010
Copyright (c) 1987-1999 Texas Instruments Incorporatedc:\lang\tms320c3x\511\bin\asm30.exe -l gpproface.asm gpproface.obj -tC:\Users\jds\AppData\Local\Temp\gpproface.tmp 

gpproface.asm                                                        PAGE   82

     4375                   ;----------------------------------------------------------------------
     4376                   ; 659 | sDowRep[14] = WORD_L(nLedDataLoad.nErassFlag.nRepCnt)%10 + 0x30;       
     4377                   ;----------------------------------------------------------------------
     4378 000006dd 506000ff         ldiu      255,r0
     4379 000006de 02a0000c!        and       @_nLedDataLoad+12,r0
     4380 000006df 5061000a         ldiu      10,r1
     4381 000006e0 62000000!        call      MOD_U30
     4382                                                           ; Call Occurs
     4383 000006e1 5008000b         ldiu      fp,ar0
     4384 000006e2 02680079         addi      121,ar0
     4385 000006e3 02600030         addi      48,r0                 ; Unsigned
     4386 000006e4 1540c000         sti       r0,*ar0
     4387                           .line   362
     4388                   ;----------------------------------------------------------------------
     4389                   ; 661 | gp_WritingStr(595,8,sDowRep);                                          
     4390                   ; 663 | else                                                                   
     4391                   ;----------------------------------------------------------------------
     4392 000006e5 50620008         ldiu      8,r2
     4393 000006e6 5000000b         ldiu      fp,r0
     4394 000006e7 0260006b         addi      107,r0
     4395 000006e8 0f200000         push      r0
     4396 000006e9 0f220000         push      r2
     4397 000006ea 50610253         ldiu      595,r1
     4398 000006eb 0f210000         push      r1
     4399 000006ec 620000ba'        call      _gp_WritingStr
     4400                                                           ; Call Occurs
     4401 000006ed 18740003         subi      3,sp
     4402 000006ee 6a0000e0         bu        L182
     4403                   ;*      Branch Occurs to L182 
     4404 000006ef          L167:        
     4405                           .line   366
     4406                   ;----------------------------------------------------------------------
     4407                   ; 665 | if(!nLedDataLoad.nErassFlag.nErassOk)           { gp_WritingStr(595,8,(
     4408                   ;     | UCHAR *)"ERASER    -> NG");}                                           
     4409                   ;----------------------------------------------------------------------
     4410 000006ef 0820000d!        ldi       @_nLedDataLoad+13,r0
     4411 000006f0 6a260007         bned      L169
     4412 000006f1 52a1021e-        ldieq     @CL21,r1
     4413 000006f2 52e00008         ldieq     8,r0
     4414 000006f3 52e20253         ldieq     595,r2
     4415                   ;*      Branch Occurs to L169 
     4416 000006f4 0f210000         push      r1
     4417 000006f5 0f200000         push      r0
     4418 000006f6 0f220000         push      r2
     4419 000006f7 620000ba'        call      _gp_WritingStr
     4420                                                           ; Call Occurs
     4421 000006f8 18740003         subi      3,sp
     4422 000006f9 6a00002a         bu        L171
     4423                   ;*      Branch Occurs to L171 
     4424 000006fa          L169:        
     4425                           .line   367
     4426                   ;----------------------------------------------------------------------
     4427                   ; 666 | else if(nLedDataLoad.nErassFlag.nErassOk)                              
     4428                   ;----------------------------------------------------------------------
TMS320C3x/4x COFF AssemblerVersion 5.11     Fri Sep 17 14:23:56 2010
Copyright (c) 1987-1999 Texas Instruments Incorporatedc:\lang\tms320c3x\511\bin\asm30.exe -l gpproface.asm gpproface.obj -tC:\Users\jds\AppData\Local\Temp\gpproface.tmp 

gpproface.asm                                                        PAGE   83

     4429 000006fa 0820000d!        ldi       @_nLedDataLoad+13,r0
     4430 000006fb 6a050028         beq       L171
     4431                   ;*      Branch Occurs to L171 
     4432                           .line   369
     4433                   ;----------------------------------------------------------------------
     4434                   ; 668 | gp_WritingStr(595,8,(UCHAR *)"ERASS     -> OK");                       
     4435                   ;----------------------------------------------------------------------
     4436 000006fc 5020021f-        ldiu      @CL22,r0
     4437 000006fd 50620008         ldiu      8,r2
     4438 000006fe 50610253         ldiu      595,r1
     4439 000006ff 0f200000         push      r0
     4440 00000700 0f220000         push      r2
     4441 00000701 0f210000         push      r1
     4442 00000702 620000ba'        call      _gp_WritingStr
     4443                                                           ; Call Occurs
     4444 00000703 18740003         subi      3,sp
     4445                           .line   370
     4446                   ;----------------------------------------------------------------------
     4447                   ; 669 | gp_WritingWord(300,100);                                               
     4448                   ;----------------------------------------------------------------------
     4449 00000704 50610064         ldiu      100,r1
     4450 00000705 5060012c         ldiu      300,r0
     4451 00000706 0f210000         push      r1
     4452 00000707 0f200000         push      r0
     4453 00000708 6200004d'        call      _gp_WritingWord
     4454                                                           ; Call Occurs
     4455 00000709 18740002         subi      2,sp
     4456                           .line   371
     4457                   ;----------------------------------------------------------------------
     4458                   ; 670 | gp_WritingStr(540,2,(UCHAR*)"100%");                                   
     4459                   ;----------------------------------------------------------------------
     4460 0000070a 50600002         ldiu      2,r0
     4461 0000070b 50220217-        ldiu      @CL14,r2
     4462 0000070c 0f220000         push      r2
     4463 0000070d 5061021c         ldiu      540,r1
     4464 0000070e 0f200000         push      r0
     4465 0000070f 0f210000         push      r1
     4466 00000710 620000ba'        call      _gp_WritingStr
     4467                                                           ; Call Occurs
     4468 00000711 18740003         subi      3,sp
     4469                           .line   373
     4470                   ;----------------------------------------------------------------------
     4471                   ; 672 | gpLED_UPLOAD_DABUT;                                                    
     4472                   ;----------------------------------------------------------------------
     4473 00000712 50600001         ldiu      1,r0
     4474 00000713 0f200000         push      r0
     4475 00000714 506102bd         ldiu      701,r1
     4476 00000715 0f210000         push      r1
     4477 00000716 6200004d'        call      _gp_WritingWord
     4478                                                           ; Call Occurs
     4479 00000717 18740002         subi      2,sp
     4480                           .line   374
     4481                   ;----------------------------------------------------------------------
     4482                   ; 673 | gpLED_UPLOAD_DABUT_SF_ON;                                              
TMS320C3x/4x COFF AssemblerVersion 5.11     Fri Sep 17 14:23:56 2010
Copyright (c) 1987-1999 Texas Instruments Incorporatedc:\lang\tms320c3x\511\bin\asm30.exe -l gpproface.asm gpproface.obj -tC:\Users\jds\AppData\Local\Temp\gpproface.tmp 

gpproface.asm                                                        PAGE   84

     4483                   ;----------------------------------------------------------------------
     4484 00000718 50600001         ldiu      1,r0
     4485 00000719 506102c7         ldiu      711,r1
     4486 0000071a 0f200000         push      r0
     4487 0000071b 0f210000         push      r1
     4488 0000071c 6200004d'        call      _gp_WritingWord
     4489                                                           ; Call Occurs
     4490 0000071d 18740002         subi      2,sp
     4491                           .line   376
     4492                   ;----------------------------------------------------------------------
     4493                   ; 675 | gpLED_UPLOAD_BUTOFF;                                                   
     4494                   ;----------------------------------------------------------------------
     4495 0000071e 506102bc         ldiu      700,r1
     4496 0000071f 50600000         ldiu      0,r0
     4497 00000720 0f200000         push      r0
     4498 00000721 0f210000         push      r1
     4499 00000722 6200004d'        call      _gp_WritingWord
     4500                                                           ; Call Occurs
     4501 00000723 18740002         subi      2,sp
     4502 00000724          L171:        
     4503                           .line   380
     4504                   ;----------------------------------------------------------------------
     4505                   ; 679 | gpROOTEN;                                                              
     4506                   ;----------------------------------------------------------------------
     4507 00000724 50600001         ldiu      1,r0
     4508 00000725 50610039         ldiu      57,r1
     4509 00000726 0f200000         push      r0
     4510 00000727 0f210000         push      r1
     4511 00000728 6200004d'        call      _gp_WritingWord
     4512                                                           ; Call Occurs
     4513 00000729 18740002         subi      2,sp
     4514                           .line   386
     4515                   ;----------------------------------------------------------------------
     4516                   ; 685 | break;                                                                 
     4517                   ; 686 | case 13:        //                               
     4518                   ;----------------------------------------------------------------------
     4519 0000072a 6a0000a4         bu        L182
     4520                   ;*      Branch Occurs to L182 
     4521 0000072b          L172:        
     4522                           .line   388
     4523                   ;----------------------------------------------------------------------
     4524                   ; 687 | if(nLedDataLoad.nDataSize)                                             
     4525                   ;----------------------------------------------------------------------
     4526 0000072b 08200013!        ldi       @_nLedDataLoad+19,r0
     4527 0000072c 6a25003b         beqd      L174
     4528 0000072d 53600064         ldine     100,r0
     4529 0000072e 53220014!        ldine     @_nLedDataLoad+20,r2
     4530 0000072f 53210013!        ldine     @_nLedDataLoad+19,r1
     4531                   ;*      Branch Occurs to L174 
     4532                           .line   391
     4533                   ;----------------------------------------------------------------------
     4534                   ; 690 | sTemp = (DWORD_MASKING(nLedDataLoad.nDataTxCnt)*100)/(DWORD_MASKING(nLe
     4535                   ;     | dDataLoad.nDataSize)/128) ;                                            
     4536                   ;----------------------------------------------------------------------
TMS320C3x/4x COFF AssemblerVersion 5.11     Fri Sep 17 14:23:56 2010
Copyright (c) 1987-1999 Texas Instruments Incorporatedc:\lang\tms320c3x\511\bin\asm30.exe -l gpproface.asm gpproface.obj -tC:\Users\jds\AppData\Local\Temp\gpproface.tmp 

gpproface.asm                                                        PAGE   85

     4537 00000730 25000200         mpyi3     r0,r2,r0
     4538 00000731 09e1fff9         lsh       -7,r1
     4539 00000732 62000000!        call      DIV_U30
     4540                                                           ; Call Occurs
     4541 00000733 15400301         sti       r0,*+fp(1)
     4542                           .line   392
     4543                   ;----------------------------------------------------------------------
     4544                   ; 691 | sCharBuf[0] = sTemp/100 +0x30;                                         
     4545                   ;----------------------------------------------------------------------
     4546 00000734 50610064         ldiu      100,r1
     4547 00000735 62000000!        call      DIV_U30
     4548                                                           ; Call Occurs
     4549 00000736 5008000b         ldiu      fp,ar0
     4550 00000737 02680002         addi      2,ar0
     4551 00000738 02600030         addi      48,r0                 ; Unsigned
     4552 00000739 1540c000         sti       r0,*ar0
     4553                           .line   393
     4554                   ;----------------------------------------------------------------------
     4555                   ; 692 | sCharBuf[1] = sTemp/10 +0x30;                                          
     4556                   ;----------------------------------------------------------------------
     4557 0000073a 5061000a         ldiu      10,r1
     4558 0000073b 50400301         ldiu      *+fp(1),r0
     4559 0000073c 62000000!        call      DIV_U30
     4560                                                           ; Call Occurs
     4561 0000073d 5008000b         ldiu      fp,ar0
     4562 0000073e 02680003         addi      3,ar0
     4563 0000073f 02600030         addi      48,r0                 ; Unsigned
     4564 00000740 1540c000         sti       r0,*ar0
     4565                           .line   394
     4566                   ;----------------------------------------------------------------------
     4567                   ; 693 | sCharBuf[2] = sTemp%10 +0x30;                                          
     4568                   ;----------------------------------------------------------------------
     4569 00000741 50400301         ldiu      *+fp(1),r0
     4570 00000742 5061000a         ldiu      10,r1
     4571 00000743 62000000!        call      MOD_U30
     4572                                                           ; Call Occurs
     4573 00000744 5008000b         ldiu      fp,ar0
     4574 00000745 02680004         addi      4,ar0
     4575 00000746 02600030         addi      48,r0                 ; Unsigned
     4576 00000747 1540c000         sti       r0,*ar0
     4577                           .line   395
     4578                   ;----------------------------------------------------------------------
     4579                   ; 694 | sCharBuf[3] = 0x25;                                                    
     4580                   ;----------------------------------------------------------------------
     4581 00000748 5008000b         ldiu      fp,ar0
     4582 00000749 02680005         addi      5,ar0
     4583 0000074a 50600025         ldiu      37,r0
     4584 0000074b 1540c000         sti       r0,*ar0
     4585                           .line   397
     4586                   ;----------------------------------------------------------------------
     4587                   ; 696 | gp_WritingWord(300,100);                                               
     4588                   ;----------------------------------------------------------------------
     4589 0000074c 50610064         ldiu      100,r1
     4590 0000074d 0f210000         push      r1
TMS320C3x/4x COFF AssemblerVersion 5.11     Fri Sep 17 14:23:56 2010
Copyright (c) 1987-1999 Texas Instruments Incorporatedc:\lang\tms320c3x\511\bin\asm30.exe -l gpproface.asm gpproface.obj -tC:\Users\jds\AppData\Local\Temp\gpproface.tmp 

gpproface.asm                                                        PAGE   86

     4591 0000074e 5060012c         ldiu      300,r0
     4592 0000074f 0f200000         push      r0
     4593 00000750 6200004d'        call      _gp_WritingWord
     4594                                                           ; Call Occurs
     4595 00000751 18740002         subi      2,sp
     4596                           .line   398
     4597                   ;----------------------------------------------------------------------
     4598                   ; 697 | gp_WritingStr(540,2,(UCHAR*)"100%");                                   
     4599                   ;----------------------------------------------------------------------
     4600 00000752 50210217-        ldiu      @CL14,r1
     4601 00000753 50600002         ldiu      2,r0
     4602 00000754 0f210000         push      r1
     4603 00000755 0f200000         push      r0
     4604 00000756 5062021c         ldiu      540,r2
     4605 00000757 0f220000         push      r2
     4606 00000758 620000ba'        call      _gp_WritingStr
     4607                                                           ; Call Occurs
     4608 00000759 18740003         subi      3,sp
     4609                           .line   400
     4610                   ;----------------------------------------------------------------------
     4611                   ; 699 | gp_WritingWord(301,sTemp);                                             
     4612                   ;----------------------------------------------------------------------
     4613 0000075a 50410301         ldiu      *+fp(1),r1
     4614 0000075b 5060012d         ldiu      301,r0
     4615 0000075c 0f210000         push      r1
     4616 0000075d 0f200000         push      r0
     4617 0000075e 6200004d'        call      _gp_WritingWord
     4618                                                           ; Call Occurs
     4619 0000075f 18740002         subi      2,sp
     4620                           .line   401
     4621                   ;----------------------------------------------------------------------
     4622                   ; 700 | gp_WritingStr(545,2,sCharBuf);                                         
     4623                   ;----------------------------------------------------------------------
     4624 00000760 5000000b         ldiu      fp,r0
     4625 00000761 02600002         addi      2,r0
     4626 00000762 50610002         ldiu      2,r1
     4627 00000763 0f200000         push      r0
     4628 00000764 0f210000         push      r1
     4629 00000765 50620221         ldiu      545,r2
     4630 00000766 0f220000         push      r2
     4631 00000767 620000ba'        call      _gp_WritingStr
     4632                                                           ; Call Occurs
     4633 00000768 18740003         subi      3,sp
     4634 00000769 6a000065         bu        L182
     4635                   ;*      Branch Occurs to L182 
     4636 0000076a          L174:        
     4637                           .line   404
     4638                   ;----------------------------------------------------------------------
     4639                   ; 703 | else if(!nLedDataLoad.nDataSize)                                       
     4640                   ;----------------------------------------------------------------------
     4641 0000076a 08200013!        ldi       @_nLedDataLoad+19,r0
     4642 0000076b 6a260061         bned      L182
     4643 0000076c 0c800000         nop
     4644 0000076d 52e00064         ldieq     100,r0
TMS320C3x/4x COFF AssemblerVersion 5.11     Fri Sep 17 14:23:56 2010
Copyright (c) 1987-1999 Texas Instruments Incorporatedc:\lang\tms320c3x\511\bin\asm30.exe -l gpproface.asm gpproface.obj -tC:\Users\jds\AppData\Local\Temp\gpproface.tmp 

gpproface.asm                                                        PAGE   87

     4645 0000076e 52e1012d         ldieq     301,r1
     4646                   ;*      Branch Occurs to L182 
     4647                           .line   407
     4648                   ;----------------------------------------------------------------------
     4649                   ; 706 | gp_WritingWord(301,100);                                               
     4650                   ;----------------------------------------------------------------------
     4651 0000076f 0f200000         push      r0
     4652 00000770 0f210000         push      r1
     4653 00000771 6200004d'        call      _gp_WritingWord
     4654                                                           ; Call Occurs
     4655 00000772 18740002         subi      2,sp
     4656                           .line   408
     4657                   ;----------------------------------------------------------------------
     4658                   ; 707 | gp_WritingStr(545,2,(UCHAR*)"100%");                                   
     4659                   ;----------------------------------------------------------------------
     4660 00000773 50220217-        ldiu      @CL14,r2
     4661 00000774 50600002         ldiu      2,r0
     4662 00000775 50610221         ldiu      545,r1
     4663 00000776 0f220000         push      r2
     4664 00000777 0f200000         push      r0
     4665 00000778 0f210000         push      r1
     4666 00000779 620000ba'        call      _gp_WritingStr
     4667                                                           ; Call Occurs
     4668 0000077a 18740003         subi      3,sp
     4669                           .line   410
     4670                   ;----------------------------------------------------------------------
     4671                   ; 709 | gp_WritingStr(605,8,(UCHAR *)"DATA DOWN -> OK");                       
     4672                   ;----------------------------------------------------------------------
     4673 0000077b 50220220-        ldiu      @CL23,r2
     4674 0000077c 0f220000         push      r2
     4675 0000077d 50610008         ldiu      8,r1
     4676 0000077e 0f210000         push      r1
     4677 0000077f 5060025d         ldiu      605,r0
     4678 00000780 0f200000         push      r0
     4679 00000781 620000ba'        call      _gp_WritingStr
     4680                                                           ; Call Occurs
     4681 00000782 18740003         subi      3,sp
     4682                           .line   412
     4683                   ;----------------------------------------------------------------------
     4684                   ; 711 | memset(sSelfTestBuf,0x01,60);                                          
     4685                   ;----------------------------------------------------------------------
     4686 00000783 50610001         ldiu      1,r1
     4687 00000784 5060003c         ldiu      60,r0
     4688 00000785 0f200000         push      r0
     4689 00000786 5000000b         ldiu      fp,r0
     4690 00000787 0260001b         addi      27,r0
     4691 00000788 0f210000         push      r1
     4692 00000789 0f200000         push      r0
     4693 0000078a 62000000!        call      _memset
     4694                                                           ; Call Occurs
     4695 0000078b 18740003         subi      3,sp
     4696                           .line   414
     4697                   ;----------------------------------------------------------------------
     4698                   ; 713 | SDR_Routine_Complete(sSelfTestBuf,DISPLAY_UNIT,FALSE);// . 
TMS320C3x/4x COFF AssemblerVersion 5.11     Fri Sep 17 14:23:56 2010
Copyright (c) 1987-1999 Texas Instruments Incorporatedc:\lang\tms320c3x\511\bin\asm30.exe -l gpproface.asm gpproface.obj -tC:\Users\jds\AppData\Local\Temp\gpproface.tmp 

gpproface.asm                                                        PAGE   88

     4699                   ;----------------------------------------------------------------------
     4700 0000078c 50600000         ldiu      0,r0
     4701 0000078d 0f200000         push      r0
     4702 0000078e 5061001c         ldiu      28,r1
     4703 0000078f 5000000b         ldiu      fp,r0
     4704 00000790 0f210000         push      r1
     4705 00000791 0260001b         addi      27,r0
     4706 00000792 0f200000         push      r0
     4707 00000793 62000f8b'        call      _SDR_Routine_Complete
     4708                                                           ; Call Occurs
     4709 00000794 18740003         subi      3,sp
     4710                           .line   416
     4711                   ;----------------------------------------------------------------------
     4712                   ; 715 | if(nLedDataLoad.nDataSDRFlag)                                          
     4713                   ;----------------------------------------------------------------------
     4714 00000795 08200012!        ldi       @_nLedDataLoad+18,r0
     4715 00000796 6a250007         beqd      L177
     4716 00000797 53220221-        ldine     @CL24,r2
     4717 00000798 53600008         ldine     8,r0
     4718 00000799 53610267         ldine     615,r1
     4719                   ;*      Branch Occurs to L177 
     4720                           .line   418
     4721                   ;----------------------------------------------------------------------
     4722                   ; 717 | gp_WritingStr(615,8,(UCHAR *)"DATA SDR CHACK.");                       
     4723                   ;----------------------------------------------------------------------
     4724 0000079a 0f220000         push      r2
     4725 0000079b 0f200000         push      r0
     4726 0000079c 0f210000         push      r1
     4727 0000079d 620000ba'        call      _gp_WritingStr
     4728                                                           ; Call Occurs
     4729 0000079e 18740003         subi      3,sp
     4730 0000079f 6a00002f         bu        L182
     4731                   ;*      Branch Occurs to L182 
     4732 000007a0          L177:        
     4733                           .line   420
     4734                   ;----------------------------------------------------------------------
     4735                   ; 719 | else if(!nLedDataLoad.nDataSDRFlag)                                    
     4736                   ;----------------------------------------------------------------------
     4737 000007a0 08200012!        ldi       @_nLedDataLoad+18,r0
     4738 000007a1 6a26002b         bned      L182
     4739 000007a2 52a200b4!        ldieq     @_nSelf_Test+180,r2
     4740 000007a3 5280000b         ldieq     fp,r0
     4741 000007a4 52a10219-        ldieq     @CL16,r1
     4742                   ;*      Branch Occurs to L182 
     4743                           .line   422
     4744                   ;----------------------------------------------------------------------
     4745                   ; 721 | memcpy(sSelfTestBuf,nSelf_Test.nSELF_DownLoad_RxBuf,nSelf_Test.nSELF_Do
     4746                   ;     | wnLoad_UnitCnt);                                                       
     4747                   ;----------------------------------------------------------------------
     4748 000007a5 0f220000         push      r2
     4749 000007a6 0260001b         addi      27,r0
     4750 000007a7 0f210000         push      r1
     4751 000007a8 0f200000         push      r0
     4752 000007a9 62000000!        call      _memcpy
TMS320C3x/4x COFF AssemblerVersion 5.11     Fri Sep 17 14:23:56 2010
Copyright (c) 1987-1999 Texas Instruments Incorporatedc:\lang\tms320c3x\511\bin\asm30.exe -l gpproface.asm gpproface.obj -tC:\Users\jds\AppData\Local\Temp\gpproface.tmp 

gpproface.asm                                                        PAGE   89

     4753                                                           ; Call Occurs
     4754 000007aa 18740003         subi      3,sp
     4755                           .line   423
     4756                   ;----------------------------------------------------------------------
     4757                   ; 722 | SDR_Routine_Complete(sSelfTestBuf,nSelf_Test.nSELF_DownLoad_UnitCnt,TRU
     4758                   ;     | E);      // GP  0/X                                    
     4759                   ;----------------------------------------------------------------------
     4760 000007ab 50600001         ldiu      1,r0
     4761 000007ac 0f200000         push      r0
     4762 000007ad 5000000b         ldiu      fp,r0
     4763 000007ae 502100b4!        ldiu      @_nSelf_Test+180,r1
     4764 000007af 0260001b         addi      27,r0
     4765 000007b0 0f210000         push      r1
     4766 000007b1 0f200000         push      r0
     4767 000007b2 62000f8b'        call      _SDR_Routine_Complete
     4768                                                           ; Call Occurs
     4769 000007b3 18740003         subi      3,sp
     4770                           .line   424
     4771                   ;----------------------------------------------------------------------
     4772                   ; 723 | nSelect_Button.nScreenSetNum = 0;                                      
     4773                   ;----------------------------------------------------------------------
     4774 000007b4 50600000         ldiu      0,r0
     4775 000007b5 15200206-        sti       r0,@_nSelect_Button+5
     4776                           .line   427
     4777                   ;----------------------------------------------------------------------
     4778                   ; 726 | break;                                                                 
     4779                   ; 727 | case 14: //                                                            
     4780                   ;----------------------------------------------------------------------
     4781 000007b6 6a000018         bu        L182
     4782                   ;*      Branch Occurs to L182 
     4783                           .line   430
     4784                   ;----------------------------------------------------------------------
     4785                   ; 729 | break;                                                                 
     4786                   ;----------------------------------------------------------------------
     4787 000007b7          L180:        
     4788                           .line   10
     4789 000007b7 507100ff         ldiu      255,ir0
     4790 000007b8 50600001         ldiu      1,r0
     4791 000007b9 02d10b02         and       *-fp(2),ir0
     4792 000007ba 19800011         subri     ir0,r0
     4793 000007bb 04e0000d         cmpi      13,r0
     4794 000007bc 6a030012         bhi       L182
     4795                   ;*      Branch Occurs to L182 
     4796 000007bd 18710001         subi      1,ir0                 ; Unsigned
     4797 000007be 50280222-        ldiu      @CL25,ar0
     4798 000007bf 50404000         ldiu      *+ar0(ir0),r0
     4799 000007c0 68000000         bu        r0
     4800                   
     4801 000007c1                  .sect   ".text"
     4802 000007c1 000002c7'SW0:    .word   L63     ; 1
     4803 000007c2 00000444'        .word   L106    ; 2
     4804 000007c3 00000490'        .word   L115    ; 3
     4805 000007c4 000004d9'        .word   L123    ; 4
     4806 000007c5 000004f6'        .word   L127    ; 5
TMS320C3x/4x COFF AssemblerVersion 5.11     Fri Sep 17 14:23:56 2010
Copyright (c) 1987-1999 Texas Instruments Incorporatedc:\lang\tms320c3x\511\bin\asm30.exe -l gpproface.asm gpproface.obj -tC:\Users\jds\AppData\Local\Temp\gpproface.tmp 

gpproface.asm                                                        PAGE   90

     4807 000007c6 00000547'        .word   L143    ; 6
     4808 000007c7 0000054e'        .word   L144    ; 7
     4809 000007c8 0000056f'        .word   L148    ; 8
     4810 000007c9 0000057d'        .word   L150    ; 9
     4811 000007ca 000007cf'        .word   L182    ; 0
     4812 000007cb 00000645'        .word   L157    ; 11
     4813 000007cc 0000068c'        .word   L163    ; 12
     4814 000007cd 0000072b'        .word   L172    ; 13
     4815 000007ce 000007cf'        .word   L182    ; 14
     4816 000007cf                  .sect   ".text"
     4817                   ;*      Branch Occurs to r0 
     4818 000007cf          L182:        
     4819                           .line   434
     4820 000007cf 50530b01         ldiu      *-fp(1),bk
     4821 000007d0 504bc300         ldiu      *fp,fp
     4822 000007d1 1874007b         subi      123,sp
     4823 000007d2 68000013         bu        bk
     4824                   ;*      Branch Occurs to bk 
     4825                           .endfunc        733,000000000h,121
     4826                   
     4827                   
     4828 000007d3                  .sect    ".text"
     4829                   
     4830                           .global _GP_DISPLAY_SAFETY
     4831                           .sym    _GP_DISPLAY_SAFETY,_GP_DISPLAY_SAFETY,32,2,0
     4832                           .func   737
     4833                   ;******************************************************************************
     4834                   ;* FUNCTION NAME: _GP_DISPLAY_SAFETY                                          *
     4835                   ;*                                                                            *
     4836                   ;*   Architecture       : TMS320C30                                           *
     4837                   ;*   Calling Convention : Stack Parameter Convention                          *
     4838                   ;*   Function Uses Regs : r0,r1,fp,sp,st                                      *
     4839                   ;*   Regs Saved         :                                                     *
     4840                   ;*   Stack Frame        : Full (w/ debug)                                     *
     4841                   ;*   Total Frame Size   : 2 Call + 1 Parm + 0 Auto + 0 SOE = 3 words          *
     4842                   ;******************************************************************************
     4843 000007d3          _GP_DISPLAY_SAFETY:
     4844                           .sym    _nScreenInf,-2,12,9,32
     4845                           .line   1
     4846                   ;----------------------------------------------------------------------
     4847                   ; 737 | void GP_DISPLAY_SAFETY(UCHAR nScreenInf)                               
     4848                   ;----------------------------------------------------------------------
     4849                           .line   2
     4850                   ;----------------------------------------------------------------------
     4851                   ; 739 | switch(nScreenInf)                                                     
     4852                   ; 741 | case 0x39:                                                             
     4853                   ;----------------------------------------------------------------------
     4854 000007d3 6a200006         bud       L188
     4855 000007d4 0f2b0000         push      fp
     4856 000007d5 500b0014         ldiu      sp,fp
     4857 000007d6 50400b02         ldiu      *-fp(2),r0
     4858                   ;*      Branch Occurs to L188 
     4859                           .line   6
     4860                   ;----------------------------------------------------------------------
TMS320C3x/4x COFF AssemblerVersion 5.11     Fri Sep 17 14:23:56 2010
Copyright (c) 1987-1999 Texas Instruments Incorporatedc:\lang\tms320c3x\511\bin\asm30.exe -l gpproface.asm gpproface.obj -tC:\Users\jds\AppData\Local\Temp\gpproface.tmp 

gpproface.asm                                                        PAGE   91

     4861                   ; 742 | gpTURNOFF;                                                             
     4862                   ;----------------------------------------------------------------------
     4863 000007d7          L186:        
     4864 000007d7 0f210000         push      r1
     4865 000007d8 0f200000         push      r0
     4866 000007d9 6200004d'        call      _gp_WritingWord
     4867                                                           ; Call Occurs
     4868 000007da 18740002         subi      2,sp
     4869                           .line   7
     4870                   ;----------------------------------------------------------------------
     4871                   ; 743 | break;                                                                 
     4872                   ;----------------------------------------------------------------------
     4873 000007db 6a000005         bu        L189
     4874                   ;*      Branch Occurs to L189 
     4875                           .line   3
     4876 000007dc          L188:        
     4877 000007dc 04e00039         cmpi      57,r0
     4878 000007dd 6a25fff7         beqd      L186
     4879 000007de 0c800000         nop
     4880 000007df 52a1020e-        ldieq     @CL5,r1
     4881 000007e0 52e0000c         ldieq     12,r0
     4882                   ;*      Branch Occurs to L186 
     4883 000007e1          L189:        
     4884                           .line   9
     4885 000007e1 50530b01         ldiu      *-fp(1),bk
     4886 000007e2 504bc300         ldiu      *fp,fp
     4887 000007e3 18740002         subi      2,sp
     4888 000007e4 68000013         bu        bk
     4889                   ;*      Branch Occurs to bk 
     4890                           .endfunc        745,000000000h,0
     4891                   
     4892                   
     4893 000007e5                  .sect    ".text"
     4894                   
     4895                           .global _GP_CLEAN
     4896                           .sym    _GP_CLEAN,_GP_CLEAN,32,2,0
     4897                           .func   750
     4898                   ;******************************************************************************
     4899                   ;* FUNCTION NAME: _GP_CLEAN                                                   *
     4900                   ;*                                                                            *
     4901                   ;*   Architecture       : TMS320C30                                           *
     4902                   ;*   Calling Convention : Stack Parameter Convention                          *
     4903                   ;*   Function Uses Regs : r0,r1,fp,sp,st                                      *
     4904                   ;*   Regs Saved         :                                                     *
     4905                   ;*   Stack Frame        : Full (w/ debug)                                     *
     4906                   ;*   Total Frame Size   : 2 Call + 1 Parm + 0 Auto + 0 SOE = 3 words          *
     4907                   ;******************************************************************************
     4908 000007e5          _GP_CLEAN:
     4909                           .sym    _nScreenInf,-2,12,9,32
     4910                           .line   1
     4911                   ;----------------------------------------------------------------------
     4912                   ; 750 | void GP_CLEAN(UCHAR nScreenInf)                                        
     4913                   ;----------------------------------------------------------------------
     4914                           .line   2
TMS320C3x/4x COFF AssemblerVersion 5.11     Fri Sep 17 14:23:56 2010
Copyright (c) 1987-1999 Texas Instruments Incorporatedc:\lang\tms320c3x\511\bin\asm30.exe -l gpproface.asm gpproface.obj -tC:\Users\jds\AppData\Local\Temp\gpproface.tmp 

gpproface.asm                                                        PAGE   92

     4915                   ;----------------------------------------------------------------------
     4916                   ; 753 | switch(nScreenInf)                                                     
     4917                   ; 755 | case 0x4B:                                                             
     4918                   ;----------------------------------------------------------------------
     4919 000007e5 6a200015         bud       L197
     4920 000007e6 0f2b0000         push      fp
     4921 000007e7 500b0014         ldiu      sp,fp
     4922 000007e8 50400b02         ldiu      *-fp(2),r0
     4923                   ;*      Branch Occurs to L197 
     4924 000007e9          L192:        
     4925                           .line   10
     4926                   ;----------------------------------------------------------------------
     4927                   ; 759 | nTr_St_Info.nClean_Flag = NOT(nTr_St_Info.nClean_Flag); // 
     4928                   ;     |                                                                        
     4929                   ;----------------------------------------------------------------------
     4930 000007e9 50600001         ldiu      1,r0
     4931 000007ea 03200170!        andn      @_nTr_St_Info+368,r0
     4932 000007eb 15200170!        sti       r0,@_nTr_St_Info+368
     4933                           .line   12
     4934                   ;----------------------------------------------------------------------
     4935                   ; 761 | if(nTr_St_Info.nClean_Flag)                                            
     4936                   ;----------------------------------------------------------------------
     4937 000007ec 6a250009         beqd      L195
     4938 000007ed 0c800000         nop
     4939 000007ee 52e00000         ldieq     0,r0
     4940 000007ef 52e10064         ldieq     100,r1
     4941                   ;*      Branch Occurs to L195 
     4942                           .line   14
     4943                   ;----------------------------------------------------------------------
     4944                   ; 763 | nSccSendFlag.nClean = 1;                                               
     4945                   ;----------------------------------------------------------------------
     4946 000007f0 50600001         ldiu      1,r0
     4947 000007f1 15200002!        sti       r0,@_nSccSendFlag+2
     4948                           .line   16
     4949                   ;----------------------------------------------------------------------
     4950                   ; 765 | gp_WritingWord(100,1);                                                 
     4951                   ; 767 | else                                                                   
     4952                   ;----------------------------------------------------------------------
     4953 000007f2 50610064         ldiu      100,r1
     4954 000007f3 0f200000         push      r0
     4955 000007f4 0f210000         push      r1
     4956 000007f5 6200004d'        call      _gp_WritingWord
     4957                                                           ; Call Occurs
     4958 000007f6 18740002         subi      2,sp
     4959 000007f7 6a000007         bu        L198
     4960                   ;*      Branch Occurs to L198 
     4961                           .line   20
     4962                   ;----------------------------------------------------------------------
     4963                   ; 769 | gp_WritingWord(100,0);                                                 
     4964                   ;----------------------------------------------------------------------
     4965 000007f8          L195:        
     4966 000007f8 0f200000         push      r0
     4967 000007f9 0f210000         push      r1
     4968 000007fa 6200004d'        call      _gp_WritingWord
TMS320C3x/4x COFF AssemblerVersion 5.11     Fri Sep 17 14:23:56 2010
Copyright (c) 1987-1999 Texas Instruments Incorporatedc:\lang\tms320c3x\511\bin\asm30.exe -l gpproface.asm gpproface.obj -tC:\Users\jds\AppData\Local\Temp\gpproface.tmp 

gpproface.asm                                                        PAGE   93

     4969                                                           ; Call Occurs
     4970 000007fb 18740002         subi      2,sp
     4971                           .line   25
     4972                   ;----------------------------------------------------------------------
     4973                   ; 774 | break;                                                                 
     4974                   ;----------------------------------------------------------------------
     4975 000007fc 6a000002         bu        L198
     4976                   ;*      Branch Occurs to L198 
     4977                           .line   4
     4978 000007fd          L197:        
     4979 000007fd 04e0004b         cmpi      75,r0
     4980 000007fe 6a05ffea         beq       L192
     4981                   ;*      Branch Occurs to L192 
     4982 000007ff          L198:        
     4983                           .line   28
     4984 000007ff 50530b01         ldiu      *-fp(1),bk
     4985 00000800 504bc300         ldiu      *fp,fp
     4986 00000801 18740002         subi      2,sp
     4987 00000802 68000013         bu        bk
     4988                   ;*      Branch Occurs to bk 
     4989                           .endfunc        777,000000000h,0
     4990                   
     4991                   
     4992 00000803                  .sect    ".text"
     4993                   
     4994                           .global _GP_STATE_SCREEN
     4995                           .sym    _GP_STATE_SCREEN,_GP_STATE_SCREEN,32,2,0
     4996                           .func   781
     4997                   ;******************************************************************************
     4998                   ;* FUNCTION NAME: _GP_STATE_SCREEN                                            *
     4999                   ;*                                                                            *
     5000                   ;*   Architecture       : TMS320C30                                           *
     5001                   ;*   Calling Convention : Stack Parameter Convention                          *
     5002                   ;*   Function Uses Regs : r0,r1,r2,fp,sp,st                                   *
     5003                   ;*   Regs Saved         :                                                     *
     5004                   ;*   Stack Frame        : Full (w/ debug)                                     *
     5005                   ;*   Total Frame Size   : 2 Call + 1 Parm + 30 Auto + 0 SOE = 33 words        *
     5006                   ;******************************************************************************
     5007 00000803          _GP_STATE_SCREEN:
     5008                           .sym    _nScreenInf,-2,12,9,32
     5009                           .sym    _sClean_Buf,1,60,1,960,,30
     5010                           .line   1
     5011                   ;----------------------------------------------------------------------
     5012                   ; 781 | void GP_STATE_SCREEN(UCHAR nScreenInf)                                 
     5013                   ;----------------------------------------------------------------------
     5014                           .line   2
     5015                   ;----------------------------------------------------------------------
     5016                   ; 783 | UCHAR sClean_Buf[30];                                                  
     5017                   ; 784 | switch(nScreenInf)                                                     
     5018                   ; 786 | case 0x33: //                                                  
     5019                   ;----------------------------------------------------------------------
     5020 00000803 6a20001f         bud       L204
     5021 00000804 0f2b0000         push      fp
     5022 00000805 500b0014         ldiu      sp,fp
TMS320C3x/4x COFF AssemblerVersion 5.11     Fri Sep 17 14:23:56 2010
Copyright (c) 1987-1999 Texas Instruments Incorporatedc:\lang\tms320c3x\511\bin\asm30.exe -l gpproface.asm gpproface.obj -tC:\Users\jds\AppData\Local\Temp\gpproface.tmp 

gpproface.asm                                                        PAGE   94

     5023 00000806 0274001e         addi      30,sp
     5024                   ;*      Branch Occurs to L204 
     5025                           .line   7
     5026                   ;----------------------------------------------------------------------
     5027                   ; 787 | memset(sClean_Buf,0x20,30);                                            
     5028                   ;----------------------------------------------------------------------
     5029 00000807          L202:        
     5030 00000807 0f220000         push      r2
     5031 00000808 02600001         addi      1,r0
     5032 00000809 0f210000         push      r1
     5033 0000080a 0f200000         push      r0
     5034 0000080b 62000000!        call      _memset
     5035                                                           ; Call Occurs
     5036 0000080c 18740003         subi      3,sp
     5037                           .line   8
     5038                   ;----------------------------------------------------------------------
     5039                   ; 788 | gp_WritingStr(300,15,sClean_Buf);                                      
     5040                   ;----------------------------------------------------------------------
     5041 0000080d 5000000b         ldiu      fp,r0
     5042 0000080e 5061000f         ldiu      15,r1
     5043 0000080f 5062012c         ldiu      300,r2
     5044 00000810 02600001         addi      1,r0
     5045 00000811 0f200000         push      r0
     5046 00000812 0f210000         push      r1
     5047 00000813 0f220000         push      r2
     5048 00000814 620000ba'        call      _gp_WritingStr
     5049                                                           ; Call Occurs
     5050 00000815 18740003         subi      3,sp
     5051                           .line   10
     5052                   ;----------------------------------------------------------------------
     5053                   ; 790 | nLedDataLoad.nSWScreenSelt = 0;                                        
     5054                   ;----------------------------------------------------------------------
     5055 00000816 50600000         ldiu      0,r0
     5056 00000817 15200015!        sti       r0,@_nLedDataLoad+21
     5057                           .line   11
     5058                   ;----------------------------------------------------------------------
     5059                   ; 791 | nLedDataLoad.nDATAScreenSelt = 0;                                      
     5060                   ;----------------------------------------------------------------------
     5061 00000818 15200016!        sti       r0,@_nLedDataLoad+22
     5062                           .line   14
     5063                   ;----------------------------------------------------------------------
     5064                   ; 794 | nSelect_Button.nScreenSetNum = 1;                                      
     5065                   ;----------------------------------------------------------------------
     5066 00000819 50600001         ldiu      1,r0
     5067 0000081a 15200206-        sti       r0,@_nSelect_Button+5
     5068                           .line   15
     5069                   ;----------------------------------------------------------------------
     5070                   ; 795 | nTr_St_Info.nSinmuScrCnt = 0;                                          
     5071                   ;----------------------------------------------------------------------
     5072 0000081b 50600000         ldiu      0,r0
     5073 0000081c 1520004b!        sti       r0,@_nTr_St_Info+75
     5074                           .line   16
     5075                   ;----------------------------------------------------------------------
     5076                   ; 796 | nTr_St_Info.nAutoManuFlagCnt = 0;                                      
TMS320C3x/4x COFF AssemblerVersion 5.11     Fri Sep 17 14:23:56 2010
Copyright (c) 1987-1999 Texas Instruments Incorporatedc:\lang\tms320c3x\511\bin\asm30.exe -l gpproface.asm gpproface.obj -tC:\Users\jds\AppData\Local\Temp\gpproface.tmp 

gpproface.asm                                                        PAGE   95

     5077                   ;----------------------------------------------------------------------
     5078 0000081d 15200177!        sti       r0,@_nTr_St_Info+375
     5079                           .line   17
     5080                   ;----------------------------------------------------------------------
     5081                   ; 797 | gpSTATE;                                                               
     5082                   ;----------------------------------------------------------------------
     5083 0000081e 5060003c         ldiu      60,r0
     5084 0000081f 5061000f         ldiu      15,r1
     5085 00000820 0f200000         push      r0
     5086 00000821 0f210000         push      r1
     5087 00000822 6200004d'        call      _gp_WritingWord
     5088                                                           ; Call Occurs
     5089 00000823 18740002         subi      2,sp
     5090                           .line   18
     5091                   ;----------------------------------------------------------------------
     5092                   ; 798 | break;                                                                 
     5093                   ;----------------------------------------------------------------------
     5094 00000824 6a000006         bu        L205
     5095                   ;*      Branch Occurs to L205 
     5096 00000825          L204:        
     5097                           .line   4
     5098 00000825 50400b02         ldiu      *-fp(2),r0
     5099 00000826 04e00033         cmpi      51,r0
     5100 00000827 6a25ffdd         beqd      L202
     5101 00000828 52e2001e         ldieq     30,r2
     5102 00000829 5280000b         ldieq     fp,r0
     5103 0000082a 52e10020         ldieq     32,r1
     5104                   ;*      Branch Occurs to L202 
     5105 0000082b          L205:        
     5106                           .line   20
     5107 0000082b 50530b01         ldiu      *-fp(1),bk
     5108 0000082c 504bc300         ldiu      *fp,fp
     5109 0000082d 18740020         subi      32,sp
     5110 0000082e 68000013         bu        bk
     5111                   ;*      Branch Occurs to bk 
     5112                           .endfunc        800,000000000h,30
     5113                   
     5114                   
     5115 0000082f                  .sect    ".text"
     5116                   
     5117                           .global _GP_MANUAL_SCREEN
     5118                           .sym    _GP_MANUAL_SCREEN,_GP_MANUAL_SCREEN,32,2,0
     5119                           .func   804
     5120                   ;******************************************************************************
     5121                   ;* FUNCTION NAME: _GP_MANUAL_SCREEN                                           *
     5122                   ;*                                                                            *
     5123                   ;*   Architecture       : TMS320C30                                           *
     5124                   ;*   Calling Convention : Stack Parameter Convention                          *
     5125                   ;*   Function Uses Regs : r0,r1,r2,ar0,ar1,fp,sp,st,rs,re,rc                  *
     5126                   ;*   Regs Saved         :                                                     *
     5127                   ;*   Stack Frame        : Full (w/ debug)                                     *
     5128                   ;*   Total Frame Size   : 2 Call + 1 Parm + 70 Auto + 0 SOE = 73 words        *
     5129                   ;******************************************************************************
     5130 0000082f          _GP_MANUAL_SCREEN:
TMS320C3x/4x COFF AssemblerVersion 5.11     Fri Sep 17 14:23:56 2010
Copyright (c) 1987-1999 Texas Instruments Incorporatedc:\lang\tms320c3x\511\bin\asm30.exe -l gpproface.asm gpproface.obj -tC:\Users\jds\AppData\Local\Temp\gpproface.tmp 

gpproface.asm                                                        PAGE   96

     5131                           .sym    _nScreenInf,-2,12,9,32
     5132                           .sym    _sManual_Buf,1,60,1,1280,,40
     5133                           .sym    _sManual_ClenBuf,41,60,1,960,,30
     5134                           .line   1
     5135                   ;----------------------------------------------------------------------
     5136                   ; 804 | void GP_MANUAL_SCREEN(UCHAR nScreenInf)                                
     5137                   ;----------------------------------------------------------------------
     5138 0000082f 0f2b0000         push      fp
     5139 00000830 500b0014         ldiu      sp,fp
     5140 00000831 02740046         addi      70,sp
     5141                           .line   2
     5142                   ;----------------------------------------------------------------------
     5143                   ; 806 | UCHAR sManual_Buf[40];                                                 
     5144                   ; 807 | UCHAR sManual_ClenBuf[30];                                             
     5145                   ;----------------------------------------------------------------------
     5146                           .line   5
     5147                   ;----------------------------------------------------------------------
     5148                   ; 808 | memset(sManual_Buf,0x20,40);                                           
     5149                   ;----------------------------------------------------------------------
     5150 00000832 50620028         ldiu      40,r2
     5151 00000833 50610020         ldiu      32,r1
     5152 00000834 5000000b         ldiu      fp,r0
     5153 00000835 0f220000         push      r2
     5154 00000836 02600001         addi      1,r0
     5155 00000837 0f210000         push      r1
     5156 00000838 0f200000         push      r0
     5157 00000839 62000000!        call      _memset
     5158                                                           ; Call Occurs
     5159 0000083a 18740003         subi      3,sp
     5160                           .line   6
     5161                   ;----------------------------------------------------------------------
     5162                   ; 809 | memset(sManual_ClenBuf,0x20,30);                                       
     5163                   ;----------------------------------------------------------------------
     5164 0000083b 5062001e         ldiu      30,r2
     5165 0000083c 50610020         ldiu      32,r1
     5166 0000083d 5000000b         ldiu      fp,r0
     5167 0000083e 0f220000         push      r2
     5168 0000083f 02600029         addi      41,r0
     5169 00000840 0f210000         push      r1
     5170 00000841 0f200000         push      r0
     5171 00000842 62000000!        call      _memset
     5172                                                           ; Call Occurs
     5173 00000843 18740003         subi      3,sp
     5174                           .line   8
     5175                   ;----------------------------------------------------------------------
     5176                   ; 811 | memcpy(sManual_Buf,(UCHAR *)"The Next Station ",17);                   
     5177                   ;----------------------------------------------------------------------
     5178 00000844 50290223-        ldiu      @CL26,ar1
     5179 00000845 5008000b         ldiu      fp,ar0
     5180 00000846 02680001         addi      1,ar0
     5181 00000847 50402101         ldiu      *ar1++(1),r0
     5182 00000848 13fb000f         rpts      15                    ; Fast MEMCPY(#12)
     5183 00000849 da002021         sti       r0,*ar0++(1)
     5184                   ||      ldi       *ar1++(1),r0
TMS320C3x/4x COFF AssemblerVersion 5.11     Fri Sep 17 14:23:56 2010
Copyright (c) 1987-1999 Texas Instruments Incorporatedc:\lang\tms320c3x\511\bin\asm30.exe -l gpproface.asm gpproface.obj -tC:\Users\jds\AppData\Local\Temp\gpproface.tmp 

gpproface.asm                                                        PAGE   97

     5185 0000084a 15402001         sti       r0,*ar0++(1)
     5186                           .line   10
     5187                   ;----------------------------------------------------------------------
     5188                   ; 813 | memcpy(&sManual_Buf[17],nTr_St_Info.nGpStName.nNext,15);               
     5189                   ; 815 | switch(nScreenInf)                                                     
     5190                   ; 817 | case 0x3C:      //  .                                          
     5191                   ;----------------------------------------------------------------------
     5192 0000084b 5028020c-        ldiu      @CL3,ar0
     5193 0000084c 5009000b         ldiu      fp,ar1
     5194 0000084d 02690012         addi      18,ar1
     5195 0000084e 50402001         ldiu      *ar0++(1),r0
     5196 0000084f 13fb000d         rpts      13                    ; Fast MEMCPY(#15)
     5197 00000850 da002120         sti       r0,*ar1++(1)
     5198                   ||      ldi       *ar0++(1),r0
     5199 00000851 6a20006f         bud       L215
     5200 00000852 15402101         sti       r0,*ar1++(1)
     5201 00000853 50400b02         ldiu      *-fp(2),r0
     5202 00000854 04e0003c         cmpi      60,r0
     5203                   ;*      Branch Occurs to L215 
     5204                           .line   16
     5205                   ;----------------------------------------------------------------------
     5206                   ; 819 | gp_WritingStr(300,15,sManual_ClenBuf);                                 
     5207                   ;----------------------------------------------------------------------
     5208 00000855          L209:        
     5209 00000855 02610029         addi      41,r1
     5210 00000856 0f210000         push      r1
     5211 00000857 0f220000         push      r2
     5212 00000858 0f200000         push      r0
     5213 00000859 620000ba'        call      _gp_WritingStr
     5214                                                           ; Call Occurs
     5215 0000085a 18740003         subi      3,sp
     5216                           .line   17
     5217                   ;----------------------------------------------------------------------
     5218                   ; 820 | gp_WritingStr(330,15,sManual_ClenBuf);                                 
     5219                   ;----------------------------------------------------------------------
     5220 0000085b 5000000b         ldiu      fp,r0
     5221 0000085c 5061000f         ldiu      15,r1
     5222 0000085d 5062014a         ldiu      330,r2
     5223 0000085e 02600029         addi      41,r0
     5224 0000085f 0f200000         push      r0
     5225 00000860 0f210000         push      r1
     5226 00000861 0f220000         push      r2
     5227 00000862 620000ba'        call      _gp_WritingStr
     5228                                                           ; Call Occurs
     5229 00000863 18740003         subi      3,sp
     5230                           .line   19
     5231                   ;----------------------------------------------------------------------
     5232                   ; 822 | nSelect_Button.nScreenSetNum = 2;                                      
     5233                   ;----------------------------------------------------------------------
     5234 00000864 50600002         ldiu      2,r0
     5235 00000865 15200206-        sti       r0,@_nSelect_Button+5
     5236                           .line   21
     5237                   ;----------------------------------------------------------------------
     5238                   ; 824 | nTr_St_Info.nSinmuScrCnt = 0;                                          
TMS320C3x/4x COFF AssemblerVersion 5.11     Fri Sep 17 14:23:56 2010
Copyright (c) 1987-1999 Texas Instruments Incorporatedc:\lang\tms320c3x\511\bin\asm30.exe -l gpproface.asm gpproface.obj -tC:\Users\jds\AppData\Local\Temp\gpproface.tmp 

gpproface.asm                                                        PAGE   98

     5239                   ;----------------------------------------------------------------------
     5240 00000866 50600000         ldiu      0,r0
     5241 00000867 1520004b!        sti       r0,@_nTr_St_Info+75
     5242                           .line   22
     5243                   ;----------------------------------------------------------------------
     5244                   ; 825 | nTr_St_Info.nAutoManuFlagCnt = 0;                                      
     5245                   ;----------------------------------------------------------------------
     5246 00000868 15200177!        sti       r0,@_nTr_St_Info+375
     5247                           .line   23
     5248                   ;----------------------------------------------------------------------
     5249                   ; 826 | gpMANU;                                                                
     5250                   ;----------------------------------------------------------------------
     5251 00000869 50610078         ldiu      120,r1
     5252 0000086a 0f210000         push      r1
     5253 0000086b 5060000f         ldiu      15,r0
     5254 0000086c 0f200000         push      r0
     5255 0000086d 6200004d'        call      _gp_WritingWord
     5256                                                           ; Call Occurs
     5257 0000086e 18740002         subi      2,sp
     5258                           .line   24
     5259                   ;----------------------------------------------------------------------
     5260                   ; 827 | gpMANUINIT;                                                            
     5261                   ;----------------------------------------------------------------------
     5262 0000086f 50610000         ldiu      0,r1
     5263 00000870 0f210000         push      r1
     5264 00000871 50600055         ldiu      85,r0
     5265 00000872 0f200000         push      r0
     5266 00000873 6200004d'        call      _gp_WritingWord
     5267                                                           ; Call Occurs
     5268 00000874 18740002         subi      2,sp
     5269 00000875 50610000         ldiu      0,r1
     5270 00000876 0f210000         push      r1
     5271 00000877 50600056         ldiu      86,r0
     5272 00000878 0f200000         push      r0
     5273 00000879 6200004d'        call      _gp_WritingWord
     5274                                                           ; Call Occurs
     5275 0000087a 18740002         subi      2,sp
     5276                           .line   25
     5277                   ;----------------------------------------------------------------------
     5278                   ; 828 | gpMANUNOBLK;                                                           
     5279                   ;----------------------------------------------------------------------
     5280 0000087b 50610000         ldiu      0,r1
     5281 0000087c 50600053         ldiu      83,r0
     5282 0000087d 0f210000         push      r1
     5283 0000087e 0f200000         push      r0
     5284 0000087f 6200004d'        call      _gp_WritingWord
     5285                                                           ; Call Occurs
     5286 00000880 18740002         subi      2,sp
     5287                           .line   27
     5288                   ;----------------------------------------------------------------------
     5289                   ; 830 | break;                                                                 
     5290                   ; 831 | case 0x4E:  //                                             
     5291                   ;----------------------------------------------------------------------
     5292 00000881 6a00004f         bu        L218
TMS320C3x/4x COFF AssemblerVersion 5.11     Fri Sep 17 14:23:56 2010
Copyright (c) 1987-1999 Texas Instruments Incorporatedc:\lang\tms320c3x\511\bin\asm30.exe -l gpproface.asm gpproface.obj -tC:\Users\jds\AppData\Local\Temp\gpproface.tmp 

gpproface.asm                                                        PAGE   99

     5293                   ;*      Branch Occurs to L218 
     5294                           .line   30
     5295                   ;----------------------------------------------------------------------
     5296                   ; 833 | gp_WritingStr(330,15,sManual_ClenBuf);                                 
     5297                   ;----------------------------------------------------------------------
     5298 00000882          L211:        
     5299 00000882 02600029         addi      41,r0
     5300 00000883 0f200000         push      r0
     5301 00000884 0f210000         push      r1
     5302 00000885 0f220000         push      r2
     5303 00000886 620000ba'        call      _gp_WritingStr
     5304                                                           ; Call Occurs
     5305 00000887 18740003         subi      3,sp
     5306                           .line   31
     5307                   ;----------------------------------------------------------------------
     5308                   ; 834 | gp_WritingStr(300,15,sManual_Buf);                                     
     5309                   ;----------------------------------------------------------------------
     5310 00000888 5000000b         ldiu      fp,r0
     5311 00000889 5061000f         ldiu      15,r1
     5312 0000088a 5062012c         ldiu      300,r2
     5313 0000088b 02600001         addi      1,r0
     5314 0000088c 0f200000         push      r0
     5315 0000088d 0f210000         push      r1
     5316 0000088e 0f220000         push      r2
     5317 0000088f 620000ba'        call      _gp_WritingStr
     5318                                                           ; Call Occurs
     5319 00000890 18740003         subi      3,sp
     5320                           .line   33
     5321                   ;----------------------------------------------------------------------
     5322                   ; 836 | gpNOWBLK;                                                              
     5323                   ;----------------------------------------------------------------------
     5324 00000891 50600001         ldiu      1,r0
     5325 00000892 0f200000         push      r0
     5326 00000893 50610053         ldiu      83,r1
     5327 00000894 0f210000         push      r1
     5328 00000895 6200004d'        call      _gp_WritingWord
     5329                                                           ; Call Occurs
     5330 00000896 18740002         subi      2,sp
     5331                           .line   34
     5332                   ;----------------------------------------------------------------------
     5333                   ; 837 | gpMANUOKBLK;                                                           
     5334                   ;----------------------------------------------------------------------
     5335 00000897 50610055         ldiu      85,r1
     5336 00000898 50600001         ldiu      1,r0
     5337 00000899 0f200000         push      r0
     5338 0000089a 0f210000         push      r1
     5339 0000089b 6200004d'        call      _gp_WritingWord
     5340                                                           ; Call Occurs
     5341 0000089c 18740002         subi      2,sp
     5342                           .line   35
     5343                   ;----------------------------------------------------------------------
     5344                   ; 838 | break;                                                                 
     5345                   ; 839 | case 0x56:                                                             
     5346                   ;----------------------------------------------------------------------
TMS320C3x/4x COFF AssemblerVersion 5.11     Fri Sep 17 14:23:56 2010
Copyright (c) 1987-1999 Texas Instruments Incorporatedc:\lang\tms320c3x\511\bin\asm30.exe -l gpproface.asm gpproface.obj -tC:\Users\jds\AppData\Local\Temp\gpproface.tmp 

gpproface.asm                                                        PAGE  100

     5347 0000089d 6a000033         bu        L218
     5348                   ;*      Branch Occurs to L218 
     5349                           .line   37
     5350                   ;----------------------------------------------------------------------
     5351                   ; 840 | gp_WritingStr(300,15,sManual_ClenBuf);                                 
     5352                   ;----------------------------------------------------------------------
     5353 0000089e          L213:        
     5354 0000089e 02600029         addi      41,r0
     5355 0000089f 0f200000         push      r0
     5356 000008a0 0f210000         push      r1
     5357 000008a1 0f220000         push      r2
     5358 000008a2 620000ba'        call      _gp_WritingStr
     5359                                                           ; Call Occurs
     5360 000008a3 18740003         subi      3,sp
     5361                           .line   38
     5362                   ;----------------------------------------------------------------------
     5363                   ; 841 | gp_WritingStr(330,15,sManual_Buf);                                     
     5364                   ;----------------------------------------------------------------------
     5365 000008a4 5000000b         ldiu      fp,r0
     5366 000008a5 5061000f         ldiu      15,r1
     5367 000008a6 5062014a         ldiu      330,r2
     5368 000008a7 02600001         addi      1,r0
     5369 000008a8 0f200000         push      r0
     5370 000008a9 0f210000         push      r1
     5371 000008aa 0f220000         push      r2
     5372 000008ab 620000ba'        call      _gp_WritingStr
     5373                                                           ; Call Occurs
     5374 000008ac 18740003         subi      3,sp
     5375                           .line   40
     5376                   ;----------------------------------------------------------------------
     5377                   ; 843 | gpMANUNOBLK;                                                           
     5378                   ;----------------------------------------------------------------------
     5379 000008ad 50600000         ldiu      0,r0
     5380 000008ae 0f200000         push      r0
     5381 000008af 50610053         ldiu      83,r1
     5382 000008b0 0f210000         push      r1
     5383 000008b1 6200004d'        call      _gp_WritingWord
     5384                                                           ; Call Occurs
     5385 000008b2 18740002         subi      2,sp
     5386                           .line   41
     5387                   ;----------------------------------------------------------------------
     5388                   ; 844 | gpMANUINIT;                                                            
     5389                   ;----------------------------------------------------------------------
     5390 000008b3 50610055         ldiu      85,r1
     5391 000008b4 50600000         ldiu      0,r0
     5392 000008b5 0f200000         push      r0
     5393 000008b6 0f210000         push      r1
     5394 000008b7 6200004d'        call      _gp_WritingWord
     5395                                                           ; Call Occurs
     5396 000008b8 18740002         subi      2,sp
     5397 000008b9 50600000         ldiu      0,r0
     5398 000008ba 50610056         ldiu      86,r1
     5399 000008bb 0f200000         push      r0
     5400 000008bc 0f210000         push      r1
TMS320C3x/4x COFF AssemblerVersion 5.11     Fri Sep 17 14:23:56 2010
Copyright (c) 1987-1999 Texas Instruments Incorporatedc:\lang\tms320c3x\511\bin\asm30.exe -l gpproface.asm gpproface.obj -tC:\Users\jds\AppData\Local\Temp\gpproface.tmp 

gpproface.asm                                                        PAGE  101

     5401 000008bd 6200004d'        call      _gp_WritingWord
     5402                                                           ; Call Occurs
     5403 000008be 18740002         subi      2,sp
     5404                           .line   43
     5405                   ;----------------------------------------------------------------------
     5406                   ; 846 | nSelect_Button.nScreenSetNum = 2;                                      
     5407                   ;----------------------------------------------------------------------
     5408 000008bf 50600002         ldiu      2,r0
     5409 000008c0 15200206-        sti       r0,@_nSelect_Button+5
     5410                           .line   45
     5411                   ;----------------------------------------------------------------------
     5412                   ; 848 | nSccSendFlag.nManualSet = 2;                                           
     5413                   ;----------------------------------------------------------------------
     5414 000008c1 1520000b!        sti       r0,@_nSccSendFlag+11
     5415                           .line   47
     5416                   ;----------------------------------------------------------------------
     5417                   ; 850 | break;                                                                 
     5418                   ;----------------------------------------------------------------------
     5419 000008c2 6a00000e         bu        L218
     5420                   ;*      Branch Occurs to L218 
     5421                           .line   12
     5422 000008c3          L215:        
     5423 000008c3 6a25ff8f         beqd      L209
     5424 000008c4 5281000b         ldieq     fp,r1
     5425 000008c5 52e2000f         ldieq     15,r2
     5426 000008c6 52e0012c         ldieq     300,r0
     5427                   ;*      Branch Occurs to L209 
     5428 000008c7 04e0004e         cmpi      78,r0
     5429 000008c8 6a25ffb7         beqd      L211
     5430 000008c9 5280000b         ldieq     fp,r0
     5431 000008ca 52e1000f         ldieq     15,r1
     5432 000008cb 52e2014a         ldieq     330,r2
     5433                   ;*      Branch Occurs to L211 
     5434 000008cc 04e00056         cmpi      86,r0
     5435 000008cd 6a25ffce         beqd      L213
     5436 000008ce 5280000b         ldieq     fp,r0
     5437 000008cf 52e1000f         ldieq     15,r1
     5438 000008d0 52e2012c         ldieq     300,r2
     5439                   ;*      Branch Occurs to L213 
     5440 000008d1          L218:        
     5441                           .line   49
     5442 000008d1 50530b01         ldiu      *-fp(1),bk
     5443 000008d2 504bc300         ldiu      *fp,fp
     5444 000008d3 18740048         subi      72,sp
     5445 000008d4 68000013         bu        bk
     5446                   ;*      Branch Occurs to bk 
     5447                           .endfunc        852,000000000h,70
     5448                   
     5449                   
     5450 000008d5                  .sect    ".text"
     5451                   
     5452                           .global _GP_MENU_SCREEN
     5453                           .sym    _GP_MENU_SCREEN,_GP_MENU_SCREEN,32,2,0
     5454                           .func   856
TMS320C3x/4x COFF AssemblerVersion 5.11     Fri Sep 17 14:23:56 2010
Copyright (c) 1987-1999 Texas Instruments Incorporatedc:\lang\tms320c3x\511\bin\asm30.exe -l gpproface.asm gpproface.obj -tC:\Users\jds\AppData\Local\Temp\gpproface.tmp 

gpproface.asm                                                        PAGE  102

     5455                   ;******************************************************************************
     5456                   ;* FUNCTION NAME: _GP_MENU_SCREEN                                             *
     5457                   ;*                                                                            *
     5458                   ;*   Architecture       : TMS320C30                                           *
     5459                   ;*   Calling Convention : Stack Parameter Convention                          *
     5460                   ;*   Function Uses Regs : r0,r1,fp,sp,st                                      *
     5461                   ;*   Regs Saved         :                                                     *
     5462                   ;*   Stack Frame        : Full (w/ debug)                                     *
     5463                   ;*   Total Frame Size   : 2 Call + 1 Parm + 1 Auto + 0 SOE = 4 words          *
     5464                   ;******************************************************************************
     5465 000008d5          _GP_MENU_SCREEN:
     5466                           .sym    _nScreenInf,-2,12,9,32
     5467                           .sym    _sSimuFlag_Cnt,1,12,1,32
     5468                           .line   1
     5469                   ;----------------------------------------------------------------------
     5470                   ; 856 | void GP_MENU_SCREEN(UCHAR nScreenInf)                                  
     5471                   ;----------------------------------------------------------------------
     5472 000008d5 0f2b0000         push      fp
     5473 000008d6 500b0014         ldiu      sp,fp
     5474                           .line   2
     5475                           .line   3
     5476                   ;----------------------------------------------------------------------
     5477                   ; 858 | UCHAR sSimuFlag_Cnt = 0;                                               
     5478                   ; 860 | switch(nScreenInf)                                                     
     5479                   ; 862 | case 0x32://                                                   
     5480                   ;----------------------------------------------------------------------
     5481 000008d7 6a200028         bud       L229
     5482 000008d8 02740001         addi      1,sp
     5483 000008d9 50600000         ldiu      0,r0
     5484 000008da 15400301         sti       r0,*+fp(1)
     5485                   ;*      Branch Occurs to L229 
     5486 000008db          L221:        
     5487                           .line   8
     5488                   ;----------------------------------------------------------------------
     5489                   ; 863 | nSelect_Button.nScreenSetNum = 0;                                      
     5490                   ;----------------------------------------------------------------------
     5491 000008db 50600000         ldiu      0,r0
     5492 000008dc 15200206-        sti       r0,@_nSelect_Button+5
     5493                           .line   9
     5494                   ;----------------------------------------------------------------------
     5495                   ; 864 | gpMENU;                                                                
     5496                   ;----------------------------------------------------------------------
     5497 000008dd 5061000f         ldiu      15,r1
     5498 000008de 50600041         ldiu      65,r0
     5499 000008df 0f200000         push      r0
     5500 000008e0 0f210000         push      r1
     5501 000008e1 6200004d'        call      _gp_WritingWord
     5502                                                           ; Call Occurs
     5503 000008e2 18740002         subi      2,sp
     5504                           .line   11
     5505                   ;----------------------------------------------------------------------
     5506                   ; 866 | sSimuFlag_Cnt = nTr_St_Info.nClean_Flag ? 0x01 : 0x00;                 
     5507                   ;----------------------------------------------------------------------
     5508 000008e3 08200170!        ldi       @_nTr_St_Info+368,r0
TMS320C3x/4x COFF AssemblerVersion 5.11     Fri Sep 17 14:23:56 2010
Copyright (c) 1987-1999 Texas Instruments Incorporatedc:\lang\tms320c3x\511\bin\asm30.exe -l gpproface.asm gpproface.obj -tC:\Users\jds\AppData\Local\Temp\gpproface.tmp 

gpproface.asm                                                        PAGE  103

     5509 000008e4 6a050004         beq       L223
     5510                   ;*      Branch Occurs to L223 
     5511 000008e5 6a200002         bud       L224
     5512 000008e6 0c800000         nop
     5513 000008e7 0c800000         nop
     5514 000008e8 50600001         ldiu      1,r0
     5515                   ;*      Branch Occurs to L224 
     5516 000008e9          L223:        
     5517 000008e9 50600000         ldiu      0,r0
     5518 000008ea          L224:        
     5519 000008ea 15400301         sti       r0,*+fp(1)
     5520                           .line   13
     5521                   ;----------------------------------------------------------------------
     5522                   ; 868 | gp_WritingWord(100,sSimuFlag_Cnt);                                     
     5523                   ;----------------------------------------------------------------------
     5524 000008eb 50610064         ldiu      100,r1
     5525 000008ec 0f200000         push      r0
     5526 000008ed 0f210000         push      r1
     5527 000008ee 6200004d'        call      _gp_WritingWord
     5528                                                           ; Call Occurs
     5529 000008ef 18740002         subi      2,sp
     5530                           .line   15
     5531                   ;----------------------------------------------------------------------
     5532                   ; 870 | if(WORD_L(nTr_St_Info.nAutoManuFlag))                                  
     5533                   ;----------------------------------------------------------------------
     5534 000008f0 506000ff         ldiu      255,r0
     5535 000008f1 1a200176!        tstb      @_nTr_St_Info+374,r0
     5536 000008f2 6a250008         beqd      L227
     5537 000008f3 0c800000         nop
     5538 000008f4 52e00000         ldieq     0,r0
     5539 000008f5 52e10096         ldieq     150,r1
     5540                   ;*      Branch Occurs to L227 
     5541                           .line   17
     5542                   ;----------------------------------------------------------------------
     5543                   ; 872 | gp_WritingWord(150,1);                                                 
     5544                   ;----------------------------------------------------------------------
     5545 000008f6 50600001         ldiu      1,r0
     5546 000008f7 50610096         ldiu      150,r1
     5547 000008f8 0f200000         push      r0
     5548 000008f9 0f210000         push      r1
     5549 000008fa 6200004d'        call      _gp_WritingWord
     5550                                                           ; Call Occurs
     5551 000008fb 18740002         subi      2,sp
     5552 000008fc 6a000008         bu        L230
     5553                   ;*      Branch Occurs to L230 
     5554                           .line   19
     5555                   ;----------------------------------------------------------------------
     5556                   ; 874 | else{gp_WritingWord(150,0); }                                          
     5557                   ;----------------------------------------------------------------------
     5558 000008fd          L227:        
     5559 000008fd 0f200000         push      r0
     5560 000008fe 0f210000         push      r1
     5561 000008ff 6200004d'        call      _gp_WritingWord
     5562                                                           ; Call Occurs
TMS320C3x/4x COFF AssemblerVersion 5.11     Fri Sep 17 14:23:56 2010
Copyright (c) 1987-1999 Texas Instruments Incorporatedc:\lang\tms320c3x\511\bin\asm30.exe -l gpproface.asm gpproface.obj -tC:\Users\jds\AppData\Local\Temp\gpproface.tmp 

gpproface.asm                                                        PAGE  104

     5563 00000900 18740002         subi      2,sp
     5564                           .line   22
     5565                   ;----------------------------------------------------------------------
     5566                   ; 877 | break;                                                                 
     5567                   ;----------------------------------------------------------------------
     5568 00000901 6a000003         bu        L230
     5569                   ;*      Branch Occurs to L230 
     5570 00000902          L229:        
     5571                           .line   5
     5572 00000902 50400b02         ldiu      *-fp(2),r0
     5573 00000903 04e00032         cmpi      50,r0
     5574 00000904 6a05ffd6         beq       L221
     5575                   ;*      Branch Occurs to L221 
     5576 00000905          L230:        
     5577                           .line   24
     5578 00000905 50530b01         ldiu      *-fp(1),bk
     5579 00000906 504bc300         ldiu      *fp,fp
     5580 00000907 18740003         subi      3,sp
     5581 00000908 68000013         bu        bk
     5582                   ;*      Branch Occurs to bk 
     5583                           .endfunc        879,000000000h,1
     5584                   
     5585                   
     5586 00000909                  .sect    ".text"
     5587                   
     5588                           .global _GP_SDR_SCREEN
     5589                           .sym    _GP_SDR_SCREEN,_GP_SDR_SCREEN,32,2,0
     5590                           .func   883
     5591                   ;******************************************************************************
     5592                   ;* FUNCTION NAME: _GP_SDR_SCREEN                                              *
     5593                   ;*                                                                            *
     5594                   ;*   Architecture       : TMS320C30                                           *
     5595                   ;*   Calling Convention : Stack Parameter Convention                          *
     5596                   ;*   Function Uses Regs : r0,r1,r2,fp,sp,st                                   *
     5597                   ;*   Regs Saved         :                                                     *
     5598                   ;*   Stack Frame        : Full (w/ debug)                                     *
     5599                   ;*   Total Frame Size   : 2 Call + 1 Parm + 100 Auto + 0 SOE = 103 words      *
     5600                   ;******************************************************************************
     5601 00000909          _GP_SDR_SCREEN:
     5602                           .sym    _nScreenInf,-2,12,9,32
     5603                           .sym    _sClBuf,1,60,1,3200,,100
     5604                           .line   1
     5605                   ;----------------------------------------------------------------------
     5606                   ; 883 | void GP_SDR_SCREEN(UCHAR nScreenInf)                                   
     5607                   ;----------------------------------------------------------------------
     5608                           .line   2
     5609                   ;----------------------------------------------------------------------
     5610                   ; 885 | UCHAR sClBuf[100];                                                     
     5611                   ; 887 | switch(nScreenInf)                                                     
     5612                   ; 889 | case 114://                                              
     5613                   ;----------------------------------------------------------------------
     5614 00000909 6a200030         bud       L235
     5615 0000090a 0f2b0000         push      fp
     5616 0000090b 500b0014         ldiu      sp,fp
TMS320C3x/4x COFF AssemblerVersion 5.11     Fri Sep 17 14:23:56 2010
Copyright (c) 1987-1999 Texas Instruments Incorporatedc:\lang\tms320c3x\511\bin\asm30.exe -l gpproface.asm gpproface.obj -tC:\Users\jds\AppData\Local\Temp\gpproface.tmp 

gpproface.asm                                                        PAGE  105

     5617 0000090c 02740064         addi      100,sp
     5618                   ;*      Branch Occurs to L235 
     5619 0000090d          L233:        
     5620                           .line   8
     5621                   ;----------------------------------------------------------------------
     5622                   ; 890 | nSelect_Button.nScreenSetNum = 8;                                      
     5623                   ;----------------------------------------------------------------------
     5624 0000090d 50600008         ldiu      8,r0
     5625 0000090e 15200206-        sti       r0,@_nSelect_Button+5
     5626                           .line   9
     5627                   ;----------------------------------------------------------------------
     5628                   ; 891 | nSelect_Button.nScreenRxTime = 1000;                                   
     5629                   ;----------------------------------------------------------------------
     5630 0000090f 506003e8         ldiu      1000,r0
     5631 00000910 15200207-        sti       r0,@_nSelect_Button+6
     5632                           .line   11
     5633                   ;----------------------------------------------------------------------
     5634                   ; 893 | gpSDR_SCREEN;                                                          
     5635                   ;----------------------------------------------------------------------
     5636 00000911 50610085         ldiu      133,r1
     5637 00000912 0f210000         push      r1
     5638 00000913 5060000f         ldiu      15,r0
     5639 00000914 0f200000         push      r0
     5640 00000915 6200004d'        call      _gp_WritingWord
     5641                                                           ; Call Occurs
     5642 00000916 18740002         subi      2,sp
     5643                           .line   13
     5644                   ;----------------------------------------------------------------------
     5645                   ; 895 | memset(sClBuf,0x00,100);                                               
     5646                   ;----------------------------------------------------------------------
     5647 00000917 50620064         ldiu      100,r2
     5648 00000918 50610000         ldiu      0,r1
     5649 00000919 5000000b         ldiu      fp,r0
     5650 0000091a 0f220000         push      r2
     5651 0000091b 02600001         addi      1,r0
     5652 0000091c 0f210000         push      r1
     5653 0000091d 0f200000         push      r0
     5654 0000091e 62000000!        call      _memset
     5655                                                           ; Call Occurs
     5656 0000091f 18740003         subi      3,sp
     5657                           .line   15
     5658                   ;----------------------------------------------------------------------
     5659                   ; 897 | gp_WritingStr(400,40,sClBuf);                                          
     5660                   ;----------------------------------------------------------------------
     5661 00000920 5000000b         ldiu      fp,r0
     5662 00000921 02600001         addi      1,r0
     5663 00000922 50620190         ldiu      400,r2
     5664 00000923 50610028         ldiu      40,r1
     5665 00000924 0f200000         push      r0
     5666 00000925 0f210000         push      r1
     5667 00000926 0f220000         push      r2
     5668 00000927 620000ba'        call      _gp_WritingStr
     5669                                                           ; Call Occurs
     5670 00000928 18740003         subi      3,sp
TMS320C3x/4x COFF AssemblerVersion 5.11     Fri Sep 17 14:23:56 2010
Copyright (c) 1987-1999 Texas Instruments Incorporatedc:\lang\tms320c3x\511\bin\asm30.exe -l gpproface.asm gpproface.obj -tC:\Users\jds\AppData\Local\Temp\gpproface.tmp 

gpproface.asm                                                        PAGE  106

     5671                           .line   16
     5672                   ;----------------------------------------------------------------------
     5673                   ; 898 | gp_WritingStr(500,40,sClBuf);                                          
     5674                   ;----------------------------------------------------------------------
     5675 00000929 50610028         ldiu      40,r1
     5676 0000092a 5000000b         ldiu      fp,r0
     5677 0000092b 02600001         addi      1,r0
     5678 0000092c 0f200000         push      r0
     5679 0000092d 0f210000         push      r1
     5680 0000092e 506201f4         ldiu      500,r2
     5681 0000092f 0f220000         push      r2
     5682 00000930 620000ba'        call      _gp_WritingStr
     5683                                                           ; Call Occurs
     5684 00000931 18740003         subi      3,sp
     5685                           .line   17
     5686                   ;----------------------------------------------------------------------
     5687                   ; 899 | gp_WritingStr(600,10,sClBuf);                                          
     5688                   ;----------------------------------------------------------------------
     5689 00000932 5000000b         ldiu      fp,r0
     5690 00000933 50620258         ldiu      600,r2
     5691 00000934 5061000a         ldiu      10,r1
     5692 00000935 02600001         addi      1,r0
     5693 00000936 0f200000         push      r0
     5694 00000937 0f210000         push      r1
     5695 00000938 0f220000         push      r2
     5696 00000939 620000ba'        call      _gp_WritingStr
     5697                                                           ; Call Occurs
     5698 0000093a 18740003         subi      3,sp
     5699                           .line   19
     5700                   ;----------------------------------------------------------------------
     5701                   ; 901 | break;                                                                 
     5702                   ;----------------------------------------------------------------------
     5703 0000093b 6a000003         bu        L236
     5704                   ;*      Branch Occurs to L236 
     5705 0000093c          L235:        
     5706                           .line   5
     5707 0000093c 50400b02         ldiu      *-fp(2),r0
     5708 0000093d 04e00072         cmpi      114,r0
     5709 0000093e 6a05ffce         beq       L233
     5710                   ;*      Branch Occurs to L233 
     5711 0000093f          L236:        
     5712                           .line   21
     5713 0000093f 50530b01         ldiu      *-fp(1),bk
     5714 00000940 504bc300         ldiu      *fp,fp
     5715 00000941 18740066         subi      102,sp
     5716 00000942 68000013         bu        bk
     5717                   ;*      Branch Occurs to bk 
     5718                           .endfunc        903,000000000h,100
     5719                   
     5720                   
     5721 00000943                  .sect    ".text"
     5722                   
     5723                           .global _GP_SDR_PRINT
     5724                           .sym    _GP_SDR_PRINT,_GP_SDR_PRINT,32,2,0
TMS320C3x/4x COFF AssemblerVersion 5.11     Fri Sep 17 14:23:56 2010
Copyright (c) 1987-1999 Texas Instruments Incorporatedc:\lang\tms320c3x\511\bin\asm30.exe -l gpproface.asm gpproface.obj -tC:\Users\jds\AppData\Local\Temp\gpproface.tmp 

gpproface.asm                                                        PAGE  107

     5725                           .func   905
     5726                   ;******************************************************************************
     5727                   ;* FUNCTION NAME: _GP_SDR_PRINT                                               *
     5728                   ;*                                                                            *
     5729                   ;*   Architecture       : TMS320C30                                           *
     5730                   ;*   Calling Convention : Stack Parameter Convention                          *
     5731                   ;*   Function Uses Regs : r0,r1,r2,r3,ar0,fp,ir0,sp,st                        *
     5732                   ;*   Regs Saved         :                                                     *
     5733                   ;*   Stack Frame        : Full (w/ debug)                                     *
     5734                   ;*   Total Frame Size   : 2 Call + 3 Parm + 101 Auto + 0 SOE = 106 words      *
     5735                   ;******************************************************************************
     5736 00000943          _GP_SDR_PRINT:
     5737                           .sym    _pDataTcms,-2,28,9,32
     5738                           .sym    _pDataIcd,-3,28,9,32
     5739                           .sym    _nSend_ID,-4,12,9,32
     5740                           .sym    _i,1,4,1,32
     5741                           .sym    _sGpSdrBuf,2,60,1,3200,,100
     5742                           .line   1
     5743                   ;----------------------------------------------------------------------
     5744                   ; 905 | void GP_SDR_PRINT(UCHAR *pDataTcms,UCHAR *pDataIcd,UCHAR nSend_ID)     
     5745                   ;----------------------------------------------------------------------
     5746 00000943 0f2b0000         push      fp
     5747 00000944 500b0014         ldiu      sp,fp
     5748 00000945 02740065         addi      101,sp
     5749                           .line   2
     5750                   ;----------------------------------------------------------------------
     5751                   ; 907 | int i;                                                                 
     5752                   ; 908 | UCHAR sGpSdrBuf[100];                                                  
     5753                   ;----------------------------------------------------------------------
     5754                           .line   6
     5755                   ;----------------------------------------------------------------------
     5756                   ; 910 | if(WORD_L(nTr_St_Info.nTcmsRxNGCnt)<=5)                                
     5757                   ;----------------------------------------------------------------------
     5758 00000946 506000ff         ldiu      255,r0
     5759 00000947 02a0004c!        and       @_nTr_St_Info+76,r0
     5760 00000948 04e00005         cmpi      5,r0
     5761 00000949 6a2300b5         bhid      L259
     5762 0000094a 51a20225-        ldihi     @CL28,r2
     5763 0000094b 51e00009         ldihi     9,r0
     5764 0000094c 51e10258         ldihi     600,r1
     5765                   ;*      Branch Occurs to L259 
     5766                           .line   8
     5767                   ;----------------------------------------------------------------------
     5768                   ; 912 | if(nSend_ID&0x01)//                                          
     5769                   ;----------------------------------------------------------------------
     5770 0000094d 50600001         ldiu      1,r0
     5771 0000094e 1a400b04         tstb      *-fp(4),r0
     5772 0000094f 6a05005a         beq       L249
     5773                   ;*      Branch Occurs to L249 
     5774                           .line   11
     5775                   ;----------------------------------------------------------------------
     5776                   ; 915 | for(i=0;i< WORD_L(SCC1_INIT_A.RxLen-2);i++)                            
     5777                   ;----------------------------------------------------------------------
     5778 00000950 50600000         ldiu      0,r0
TMS320C3x/4x COFF AssemblerVersion 5.11     Fri Sep 17 14:23:56 2010
Copyright (c) 1987-1999 Texas Instruments Incorporatedc:\lang\tms320c3x\511\bin\asm30.exe -l gpproface.asm gpproface.obj -tC:\Users\jds\AppData\Local\Temp\gpproface.tmp 

gpproface.asm                                                        PAGE  108

     5779 00000951 15400301         sti       r0,*+fp(1)
     5780 00000952 50600002         ldiu      2,r0
     5781 00000953 50410301         ldiu      *+fp(1),r1
     5782 00000954 19a00009!        subri     @_SCC1_INIT_A+9,r0    ; Unsigned
     5783 00000955 02e000ff         and       255,r0
     5784 00000956 23800100         cmpi3     r0,r1
     5785 00000957 6a04003c         bhs       L248
     5786                   ;*      Branch Occurs to L248 
     5787 00000958          L241:        
     5788                           .line   13
     5789                   ;----------------------------------------------------------------------
     5790                   ; 917 | sGpSdrBuf[i*3] =   BYTE_H(pDataTcms[i]) >= 0x0A ? (BYTE_H(pDataTcms[i])
     5791                   ;     | -10) + 0x41 :   BYTE_H(pDataTcms[i])+0x30;                             
     5792                   ;----------------------------------------------------------------------
     5793 00000958 50510b02         ldiu      *-fp(2),ir0
     5794 00000959 50480301         ldiu      *+fp(1),ar0
     5795 0000095a 5060fffc         ldiu      -4,r0
     5796 0000095b 24204000         lsh3      r0,*+ar0(ir0),r0
     5797 0000095c 02e0000f         and       15,r0
     5798 0000095d 04e0000a         cmpi      10,r0
     5799 0000095e 6a010005         blo       L243
     5800                   ;*      Branch Occurs to L243 
     5801 0000095f 5060fffc         ldiu      -4,r0
     5802 00000960 6a200007         bud       L244
     5803 00000961 24204000         lsh3      r0,*+ar0(ir0),r0
     5804 00000962 02e0000f         and       15,r0
     5805 00000963 02600037         addi      55,r0                 ; Unsigned
     5806                   ;*      Branch Occurs to L244 
     5807 00000964          L243:        
     5808 00000964 50510b02         ldiu      *-fp(2),ir0
     5809 00000965 50480301         ldiu      *+fp(1),ar0
     5810 00000966 5060fffc         ldiu      -4,r0
     5811 00000967 24204000         lsh3      r0,*+ar0(ir0),r0
     5812 00000968 02e0000f         and       15,r0
     5813 00000969 02600030         addi      48,r0                 ; Unsigned
     5814 0000096a          L244:        
     5815 0000096a 50510301         ldiu      *+fp(1),ir0
     5816 0000096b 5008000b         ldiu      fp,ar0
     5817 0000096c 0af10003         mpyi      3,ir0
     5818 0000096d 02680002         addi      2,ar0
     5819 0000096e 15404000         sti       r0,*+ar0(ir0)
     5820                           .line   14
     5821                   ;----------------------------------------------------------------------
     5822                   ; 918 | sGpSdrBuf[i*3+1] = BYTE_L(pDataTcms[i]) >= 0x0A ? (BYTE_L(pDataTcms[i])
     5823                   ;     | -10) + 0x41 :   BYTE_L(pDataTcms[i])+0x30;                             
     5824                   ;----------------------------------------------------------------------
     5825 0000096f 50510b02         ldiu      *-fp(2),ir0
     5826 00000970 50480301         ldiu      *+fp(1),ar0
     5827 00000971 5060000f         ldiu      15,r0
     5828 00000972 21a04000         and3      r0,*+ar0(ir0),r0
     5829 00000973 04e0000a         cmpi      10,r0
     5830 00000974 6a010004         blo       L246
     5831                   ;*      Branch Occurs to L246 
     5832 00000975 6a200006         bud       L247
TMS320C3x/4x COFF AssemblerVersion 5.11     Fri Sep 17 14:23:56 2010
Copyright (c) 1987-1999 Texas Instruments Incorporatedc:\lang\tms320c3x\511\bin\asm30.exe -l gpproface.asm gpproface.obj -tC:\Users\jds\AppData\Local\Temp\gpproface.tmp 

gpproface.asm                                                        PAGE  109

     5833 00000976 5060000f         ldiu      15,r0
     5834 00000977 21a04000         and3      r0,*+ar0(ir0),r0
     5835 00000978 02600037         addi      55,r0                 ; Unsigned
     5836                   ;*      Branch Occurs to L247 
     5837 00000979          L246:        
     5838 00000979 50510b02         ldiu      *-fp(2),ir0
     5839 0000097a 50480301         ldiu      *+fp(1),ar0
     5840 0000097b 5060000f         ldiu      15,r0
     5841 0000097c 21a04000         and3      r0,*+ar0(ir0),r0
     5842 0000097d 02600030         addi      48,r0                 ; Unsigned
     5843 0000097e          L247:        
     5844 0000097e 50510301         ldiu      *+fp(1),ir0
     5845 0000097f 5008000b         ldiu      fp,ar0
     5846 00000980 0af10003         mpyi      3,ir0
     5847 00000981 02680002         addi      2,ar0
     5848 00000982 02710001         addi      1,ir0
     5849 00000983 15404000         sti       r0,*+ar0(ir0)
     5850                           .line   16
     5851                   ;----------------------------------------------------------------------
     5852                   ; 920 | sGpSdrBuf[i*3+2] = 0x2D;                                               
     5853                   ;----------------------------------------------------------------------
     5854 00000984 50510301         ldiu      *+fp(1),ir0
     5855 00000985 5008000b         ldiu      fp,ar0
     5856 00000986 0af10003         mpyi      3,ir0
     5857 00000987 02680002         addi      2,ar0
     5858 00000988 02710002         addi      2,ir0
     5859 00000989 5060002d         ldiu      45,r0
     5860 0000098a 15404000         sti       r0,*+ar0(ir0)
     5861                           .line   11
     5862 0000098b 50600001         ldiu      1,r0
     5863 0000098c 02400301         addi      *+fp(1),r0
     5864 0000098d 15400301         sti       r0,*+fp(1)
     5865 0000098e 50600002         ldiu      2,r0
     5866 0000098f 50410301         ldiu      *+fp(1),r1
     5867 00000990 19a00009!        subri     @_SCC1_INIT_A+9,r0    ; Unsigned
     5868 00000991 02e000ff         and       255,r0
     5869 00000992 23800100         cmpi3     r0,r1
     5870 00000993 6a01ffc4         blo       L241
     5871                   ;*      Branch Occurs to L241 
     5872 00000994          L248:        
     5873                           .line   18
     5874                   ;----------------------------------------------------------------------
     5875                   ; 922 | sGpSdrBuf[i*3+2] = 0x20;                                               
     5876                   ;----------------------------------------------------------------------
     5877 00000994 50510301         ldiu      *+fp(1),ir0
     5878 00000995 5008000b         ldiu      fp,ar0
     5879 00000996 0af10003         mpyi      3,ir0
     5880 00000997 02680002         addi      2,ar0
     5881 00000998 02710002         addi      2,ir0
     5882 00000999 50600020         ldiu      32,r0
     5883 0000099a 15404000         sti       r0,*+ar0(ir0)
     5884                           .line   20
     5885                   ;----------------------------------------------------------------------
     5886                   ; 924 | gp_WritingStr(400,((SCC1_INIT_A.RxLen-2)*3)/2,sGpSdrBuf);              
TMS320C3x/4x COFF AssemblerVersion 5.11     Fri Sep 17 14:23:56 2010
Copyright (c) 1987-1999 Texas Instruments Incorporatedc:\lang\tms320c3x\511\bin\asm30.exe -l gpproface.asm gpproface.obj -tC:\Users\jds\AppData\Local\Temp\gpproface.tmp 

gpproface.asm                                                        PAGE  110

     5887                   ; 926 | else                                                                   
     5888                   ;----------------------------------------------------------------------
     5889 0000099b 50600002         ldiu      2,r0
     5890 0000099c 19a00009!        subri     @_SCC1_INIT_A+9,r0    ; Unsigned
     5891 0000099d 50610003         ldiu      3,r1
     5892 0000099e 62000000!        call      MPY_K30
     5893                                                           ; Call Occurs
     5894 0000099f 50620190         ldiu      400,r2
     5895 000009a0 50230224-        ldiu      @CL27,r3
     5896 000009a1 5001000b         ldiu      fp,r1
     5897 000009a2 24000003         lsh3      r3,r0,r0
     5898 000009a3 02610002         addi      2,r1
     5899 000009a4 0f210000         push      r1
     5900 000009a5 0f200000         push      r0
     5901 000009a6 0f220000         push      r2
     5902 000009a7 620000ba'        call      _gp_WritingStr
     5903                                                           ; Call Occurs
     5904 000009a8 18740003         subi      3,sp
     5905 000009a9 6a00005c         bu        L260
     5906                   ;*      Branch Occurs to L260 
     5907 000009aa          L249:        
     5908                           .line   25
     5909                   ;----------------------------------------------------------------------
     5910                   ; 929 | for(i=0;i<= WORD_L(SCC1_INIT_A.TxLen);i++)                             
     5911                   ;----------------------------------------------------------------------
     5912 000009aa 50600000         ldiu      0,r0
     5913 000009ab 15400301         sti       r0,*+fp(1)
     5914 000009ac 506000ff         ldiu      255,r0
     5915 000009ad 50410301         ldiu      *+fp(1),r1
     5916 000009ae 02a00001!        and       @_SCC1_INIT_A+1,r0
     5917 000009af 23800100         cmpi3     r0,r1
     5918 000009b0 6a03003b         bhi       L257
     5919                   ;*      Branch Occurs to L257 
     5920 000009b1          L250:        
     5921                           .line   27
     5922                   ;----------------------------------------------------------------------
     5923                   ; 931 | sGpSdrBuf[i*3] =   BYTE_H(pDataIcd[i]) >= 0x0A ? (BYTE_H(pDataIcd[i])-1
     5924                   ;     | 0) + 0x41 :   BYTE_H(pDataIcd[i])+0x30;                                
     5925                   ;----------------------------------------------------------------------
     5926 000009b1 50510b03         ldiu      *-fp(3),ir0
     5927 000009b2 50480301         ldiu      *+fp(1),ar0
     5928 000009b3 5060fffc         ldiu      -4,r0
     5929 000009b4 24204000         lsh3      r0,*+ar0(ir0),r0
     5930 000009b5 02e0000f         and       15,r0
     5931 000009b6 04e0000a         cmpi      10,r0
     5932 000009b7 6a010005         blo       L252
     5933                   ;*      Branch Occurs to L252 
     5934 000009b8 5060fffc         ldiu      -4,r0
     5935 000009b9 6a200007         bud       L253
     5936 000009ba 24204000         lsh3      r0,*+ar0(ir0),r0
     5937 000009bb 02e0000f         and       15,r0
     5938 000009bc 02600037         addi      55,r0                 ; Unsigned
     5939                   ;*      Branch Occurs to L253 
     5940 000009bd          L252:        
TMS320C3x/4x COFF AssemblerVersion 5.11     Fri Sep 17 14:23:56 2010
Copyright (c) 1987-1999 Texas Instruments Incorporatedc:\lang\tms320c3x\511\bin\asm30.exe -l gpproface.asm gpproface.obj -tC:\Users\jds\AppData\Local\Temp\gpproface.tmp 

gpproface.asm                                                        PAGE  111

     5941 000009bd 50510b03         ldiu      *-fp(3),ir0
     5942 000009be 50480301         ldiu      *+fp(1),ar0
     5943 000009bf 5060fffc         ldiu      -4,r0
     5944 000009c0 24204000         lsh3      r0,*+ar0(ir0),r0
     5945 000009c1 02e0000f         and       15,r0
     5946 000009c2 02600030         addi      48,r0                 ; Unsigned
     5947 000009c3          L253:        
     5948 000009c3 50510301         ldiu      *+fp(1),ir0
     5949 000009c4 5008000b         ldiu      fp,ar0
     5950 000009c5 0af10003         mpyi      3,ir0
     5951 000009c6 02680002         addi      2,ar0
     5952 000009c7 15404000         sti       r0,*+ar0(ir0)
     5953                           .line   28
     5954                   ;----------------------------------------------------------------------
     5955                   ; 932 | sGpSdrBuf[i*3+1] = BYTE_L(pDataIcd[i]) >= 0x0A ? (BYTE_L(pDataIcd[i])-1
     5956                   ;     | 0) + 0x41 :   BYTE_L(pDataIcd[i])+0x30;                                
     5957                   ;----------------------------------------------------------------------
     5958 000009c8 50510b03         ldiu      *-fp(3),ir0
     5959 000009c9 50480301         ldiu      *+fp(1),ar0
     5960 000009ca 5060000f         ldiu      15,r0
     5961 000009cb 21a04000         and3      r0,*+ar0(ir0),r0
     5962 000009cc 04e0000a         cmpi      10,r0
     5963 000009cd 6a010004         blo       L255
     5964                   ;*      Branch Occurs to L255 
     5965 000009ce 6a200006         bud       L256
     5966 000009cf 5060000f         ldiu      15,r0
     5967 000009d0 21a04000         and3      r0,*+ar0(ir0),r0
     5968 000009d1 02600037         addi      55,r0                 ; Unsigned
     5969                   ;*      Branch Occurs to L256 
     5970 000009d2          L255:        
     5971 000009d2 50510b03         ldiu      *-fp(3),ir0
     5972 000009d3 50480301         ldiu      *+fp(1),ar0
     5973 000009d4 5060000f         ldiu      15,r0
     5974 000009d5 21a04000         and3      r0,*+ar0(ir0),r0
     5975 000009d6 02600030         addi      48,r0                 ; Unsigned
     5976 000009d7          L256:        
     5977 000009d7 50510301         ldiu      *+fp(1),ir0
     5978 000009d8 5008000b         ldiu      fp,ar0
     5979 000009d9 0af10003         mpyi      3,ir0
     5980 000009da 02680002         addi      2,ar0
     5981 000009db 02710001         addi      1,ir0
     5982 000009dc 15404000         sti       r0,*+ar0(ir0)
     5983                           .line   30
     5984                   ;----------------------------------------------------------------------
     5985                   ; 934 | sGpSdrBuf[i*3+2] = 0x2D;                                               
     5986                   ;----------------------------------------------------------------------
     5987 000009dd 50510301         ldiu      *+fp(1),ir0
     5988 000009de 5008000b         ldiu      fp,ar0
     5989 000009df 0af10003         mpyi      3,ir0
     5990 000009e0 02680002         addi      2,ar0
     5991 000009e1 02710002         addi      2,ir0
     5992 000009e2 5060002d         ldiu      45,r0
     5993 000009e3 15404000         sti       r0,*+ar0(ir0)
     5994                           .line   25
TMS320C3x/4x COFF AssemblerVersion 5.11     Fri Sep 17 14:23:56 2010
Copyright (c) 1987-1999 Texas Instruments Incorporatedc:\lang\tms320c3x\511\bin\asm30.exe -l gpproface.asm gpproface.obj -tC:\Users\jds\AppData\Local\Temp\gpproface.tmp 

gpproface.asm                                                        PAGE  112

     5995 000009e4 50600001         ldiu      1,r0
     5996 000009e5 02400301         addi      *+fp(1),r0
     5997 000009e6 15400301         sti       r0,*+fp(1)
     5998 000009e7 506000ff         ldiu      255,r0
     5999 000009e8 50410301         ldiu      *+fp(1),r1
     6000 000009e9 02a00001!        and       @_SCC1_INIT_A+1,r0
     6001 000009ea 23800100         cmpi3     r0,r1
     6002 000009eb 6a02ffc5         bls       L250
     6003                   ;*      Branch Occurs to L250 
     6004 000009ec          L257:        
     6005                           .line   32
     6006                   ;----------------------------------------------------------------------
     6007                   ; 936 | sGpSdrBuf[i*3+2] = 0x20;                                               
     6008                   ;----------------------------------------------------------------------
     6009 000009ec 50510301         ldiu      *+fp(1),ir0
     6010 000009ed 5008000b         ldiu      fp,ar0
     6011 000009ee 0af10003         mpyi      3,ir0
     6012 000009ef 02680002         addi      2,ar0
     6013 000009f0 02710002         addi      2,ir0
     6014 000009f1 50600020         ldiu      32,r0
     6015 000009f2 15404000         sti       r0,*+ar0(ir0)
     6016                           .line   34
     6017                   ;----------------------------------------------------------------------
     6018                   ; 938 | gp_WritingStr(500,(SCC1_INIT_A.TxLen*3)/2,sGpSdrBuf);                  
     6019                   ; 941 | else                                                                   
     6020                   ;----------------------------------------------------------------------
     6021 000009f3 50610003         ldiu      3,r1
     6022 000009f4 50200001!        ldiu      @_SCC1_INIT_A+1,r0
     6023 000009f5 62000000!        call      MPY_K30
     6024                                                           ; Call Occurs
     6025 000009f6 506201f4         ldiu      500,r2
     6026 000009f7 50230224-        ldiu      @CL27,r3
     6027 000009f8 5001000b         ldiu      fp,r1
     6028 000009f9 24000003         lsh3      r3,r0,r0
     6029 000009fa 02610002         addi      2,r1
     6030 000009fb 0f210000         push      r1
     6031 000009fc 0f200000         push      r0
     6032 000009fd 0f220000         push      r2
     6033 000009fe 620000ba'        call      _gp_WritingStr
     6034                                                           ; Call Occurs
     6035 000009ff 18740003         subi      3,sp
     6036 00000a00 6a000005         bu        L260
     6037                   ;*      Branch Occurs to L260 
     6038                           .line   39
     6039                   ;----------------------------------------------------------------------
     6040                   ; 943 | gp_WritingStr(600,9,(UCHAR *)"* TMS InterFace NG");                    
     6041                   ;----------------------------------------------------------------------
     6042 00000a01          L259:        
     6043 00000a01 0f220000         push      r2
     6044 00000a02 0f200000         push      r0
     6045 00000a03 0f210000         push      r1
     6046 00000a04 620000ba'        call      _gp_WritingStr
     6047                                                           ; Call Occurs
     6048 00000a05 18740003         subi      3,sp
TMS320C3x/4x COFF AssemblerVersion 5.11     Fri Sep 17 14:23:56 2010
Copyright (c) 1987-1999 Texas Instruments Incorporatedc:\lang\tms320c3x\511\bin\asm30.exe -l gpproface.asm gpproface.obj -tC:\Users\jds\AppData\Local\Temp\gpproface.tmp 

gpproface.asm                                                        PAGE  113

     6049 00000a06          L260:        
     6050                           .line   42
     6051 00000a06 50530b01         ldiu      *-fp(1),bk
     6052 00000a07 504bc300         ldiu      *fp,fp
     6053 00000a08 18740067         subi      103,sp
     6054 00000a09 68000013         bu        bk
     6055                   ;*      Branch Occurs to bk 
     6056                           .endfunc        946,000000000h,101
     6057                   
     6058                   
     6059 00000a0a                  .sect    ".text"
     6060                   
     6061                           .global _GP_DEST_SCREEN
     6062                           .sym    _GP_DEST_SCREEN,_GP_DEST_SCREEN,32,2,0
     6063                           .func   950
     6064                   ;******************************************************************************
     6065                   ;* FUNCTION NAME: _GP_DEST_SCREEN                                             *
     6066                   ;*                                                                            *
     6067                   ;*   Architecture       : TMS320C30                                           *
     6068                   ;*   Calling Convention : Stack Parameter Convention                          *
     6069                   ;*   Function Uses Regs : r0,r1,r2,r4,ar0,fp,ir0,sp,st                        *
     6070                   ;*   Regs Saved         : r4                                                  *
     6071                   ;*   Stack Frame        : Full (w/ debug)                                     *
     6072                   ;*   Total Frame Size   : 2 Call + 1 Parm + 30 Auto + 1 SOE = 34 words        *
     6073                   ;******************************************************************************
     6074 00000a0a          _GP_DEST_SCREEN:
     6075                           .sym    _nScreenInf,-2,12,9,32
     6076                           .sym    _i,1,12,1,32
     6077                           .sym    _sScreenNumBuf,2,60,1,160,,5
     6078                           .sym    _sDestNum,7,12,1,32
     6079                           .sym    _sDestNum1,8,12,1,32
     6080                           .sym    _sTreanNumSet,9,12,1,32
     6081                           .sym    _sTreanSetDest,10,12,1,32
     6082                           .sym    _sDestTxBuf,11,60,1,640,,20
     6083                           .line   1
     6084                   ;----------------------------------------------------------------------
     6085                   ; 950 | void GP_DEST_SCREEN(UCHAR nScreenInf)                                  
     6086                   ;----------------------------------------------------------------------
     6087 00000a0a 0f2b0000         push      fp
     6088 00000a0b 500b0014         ldiu      sp,fp
     6089 00000a0c 0274001e         addi      30,sp
     6090 00000a0d 0f240000         push      r4
     6091                           .line   2
     6092                   ;----------------------------------------------------------------------
     6093                   ; 952 | UCHAR i;                                                               
     6094                   ; 953 | UCHAR sScreenNumBuf[5];                                                
     6095                   ;----------------------------------------------------------------------
     6096                           .line   5
     6097                   ;----------------------------------------------------------------------
     6098                   ; 954 | UCHAR sDestNum = 0,sDestNum1 = 0;                                      
     6099                   ;----------------------------------------------------------------------
     6100 00000a0e 50600000         ldiu      0,r0
     6101 00000a0f 15400307         sti       r0,*+fp(7)
     6102 00000a10 15400308         sti       r0,*+fp(8)
TMS320C3x/4x COFF AssemblerVersion 5.11     Fri Sep 17 14:23:56 2010
Copyright (c) 1987-1999 Texas Instruments Incorporatedc:\lang\tms320c3x\511\bin\asm30.exe -l gpproface.asm gpproface.obj -tC:\Users\jds\AppData\Local\Temp\gpproface.tmp 

gpproface.asm                                                        PAGE  114

     6103                           .line   6
     6104                   ;----------------------------------------------------------------------
     6105                   ; 955 | UCHAR sTreanNumSet = 0;                                                
     6106                   ;----------------------------------------------------------------------
     6107 00000a11 15400309         sti       r0,*+fp(9)
     6108                           .line   7
     6109                   ;----------------------------------------------------------------------
     6110                   ; 956 | UCHAR sTreanSetDest = 0;                                               
     6111                   ; 957 | UCHAR sDestTxBuf[20];                                                  
     6112                   ; 959 | switch(WORD_L(nScreenInf))                                             
     6113                   ; 961 | case 0x38://                                               
     6114                   ;----------------------------------------------------------------------
     6115 00000a12 6a200246         bud       L294
     6116 00000a13 1540030a         sti       r0,*+fp(10)
     6117 00000a14 506000ff         ldiu      255,r0
     6118 00000a15 02c00b02         and       *-fp(2),r0
     6119                   ;*      Branch Occurs to L294 
     6120 00000a16          L263:        
     6121                           .line   13
     6122                   ;----------------------------------------------------------------------
     6123                   ; 962 | nSelect_Button.nScreenSetNum = 6;                                      
     6124                   ;----------------------------------------------------------------------
     6125 00000a16 50600006         ldiu      6,r0
     6126 00000a17 15200206-        sti       r0,@_nSelect_Button+5
     6127                           .line   14
     6128                   ;----------------------------------------------------------------------
     6129                   ; 963 | nTr_St_Info.nSinmuScrCnt = 0;                                          
     6130                   ;----------------------------------------------------------------------
     6131 00000a18 50600000         ldiu      0,r0
     6132 00000a19 1520004b!        sti       r0,@_nTr_St_Info+75
     6133                           .line   15
     6134                   ;----------------------------------------------------------------------
     6135                   ; 964 | nTr_St_Info.nAutoManuFlagCnt = 0;                                      
     6136                   ;----------------------------------------------------------------------
     6137 00000a1a 15200177!        sti       r0,@_nTr_St_Info+375
     6138                           .line   16
     6139                   ;----------------------------------------------------------------------
     6140                   ; 965 | gpROOT;                                                                
     6141                   ;----------------------------------------------------------------------
     6142 00000a1b 5061000f         ldiu      15,r1
     6143 00000a1c 5060005a         ldiu      90,r0
     6144 00000a1d 0f200000         push      r0
     6145 00000a1e 0f210000         push      r1
     6146 00000a1f 6200004d'        call      _gp_WritingWord
     6147                                                           ; Call Occurs
     6148 00000a20 18740002         subi      2,sp
     6149                           .line   17
     6150                   ;----------------------------------------------------------------------
     6151                   ; 966 | gpROOTINIT;                                                            
     6152                   ;----------------------------------------------------------------------
     6153 00000a21 50600000         ldiu      0,r0
     6154 00000a22 5061003c         ldiu      60,r1
     6155 00000a23 0f200000         push      r0
     6156 00000a24 0f210000         push      r1
TMS320C3x/4x COFF AssemblerVersion 5.11     Fri Sep 17 14:23:56 2010
Copyright (c) 1987-1999 Texas Instruments Incorporatedc:\lang\tms320c3x\511\bin\asm30.exe -l gpproface.asm gpproface.obj -tC:\Users\jds\AppData\Local\Temp\gpproface.tmp 

gpproface.asm                                                        PAGE  115

     6157 00000a25 6200004d'        call      _gp_WritingWord
     6158                                                           ; Call Occurs
     6159 00000a26 18740002         subi      2,sp
     6160 00000a27 50600000         ldiu      0,r0
     6161 00000a28 0f200000         push      r0
     6162 00000a29 50610037         ldiu      55,r1
     6163 00000a2a 0f210000         push      r1
     6164 00000a2b 6200004d'        call      _gp_WritingWord
     6165                                                           ; Call Occurs
     6166 00000a2c 18740002         subi      2,sp
     6167                           .line   18
     6168                   ;----------------------------------------------------------------------
     6169                   ; 967 | gpROOTEN;                                                              
     6170                   ;----------------------------------------------------------------------
     6171 00000a2d 50600001         ldiu      1,r0
     6172 00000a2e 50610039         ldiu      57,r1
     6173 00000a2f 0f200000         push      r0
     6174 00000a30 0f210000         push      r1
     6175 00000a31 6200004d'        call      _gp_WritingWord
     6176                                                           ; Call Occurs
     6177 00000a32 18740002         subi      2,sp
     6178                           .line   19
     6179                   ;----------------------------------------------------------------------
     6180                   ; 968 | gpROOTNOBLK;                                                           
     6181                   ;----------------------------------------------------------------------
     6182 00000a33 50610000         ldiu      0,r1
     6183 00000a34 0f210000         push      r1
     6184 00000a35 50600038         ldiu      56,r0
     6185 00000a36 0f200000         push      r0
     6186 00000a37 6200004d'        call      _gp_WritingWord
     6187                                                           ; Call Occurs
     6188 00000a38 18740002         subi      2,sp
     6189                           .line   21
     6190                   ;----------------------------------------------------------------------
     6191                   ; 970 | for(i=0;i<100;i++) // 100 =            
     6192                   ;----------------------------------------------------------------------
     6193 00000a39 50600000         ldiu      0,r0
     6194 00000a3a 15400301         sti       r0,*+fp(1)
     6195 00000a3b 04e00064         cmpi      100,r0
     6196 00000a3c 6a040010         bhs       L267
     6197                   ;*      Branch Occurs to L267 
     6198 00000a3d          L264:        
     6199                           .line   23
     6200                   ;----------------------------------------------------------------------
     6201                   ; 972 | if(WORD_L(nNvsram_Variable.nDestCodeList[i]) == WORD_L(nTr_St_Info.nDes
     6202                   ;     | t.nCode))                                                              
     6203                   ;----------------------------------------------------------------------
     6204 00000a3d 506000ff         ldiu      255,r0
     6205 00000a3e 506100ff         ldiu      255,r1
     6206 00000a3f 50510301         ldiu      *+fp(1),ir0
     6207 00000a40 50280226-        ldiu      @CL29,ar0
     6208 00000a41 02a00105!        and       @_nTr_St_Info+261,r0
     6209 00000a42 21a14001         and3      r1,*+ar0(ir0),r1
     6210 00000a43 23800100         cmpi3     r0,r1
TMS320C3x/4x COFF AssemblerVersion 5.11     Fri Sep 17 14:23:56 2010
Copyright (c) 1987-1999 Texas Instruments Incorporatedc:\lang\tms320c3x\511\bin\asm30.exe -l gpproface.asm gpproface.obj -tC:\Users\jds\AppData\Local\Temp\gpproface.tmp 

gpproface.asm                                                        PAGE  116

     6211 00000a44 6a060003         bne       L266
     6212                   ;*      Branch Occurs to L266 
     6213                           .line   25
     6214                   ;----------------------------------------------------------------------
     6215                   ; 974 | sTreanNumSet = i;                                                      
     6216                   ;----------------------------------------------------------------------
     6217 00000a45 50400301         ldiu      *+fp(1),r0
     6218 00000a46 15400309         sti       r0,*+fp(9)
     6219                           .line   26
     6220                   ;----------------------------------------------------------------------
     6221                   ; 975 | break;                                                                 
     6222                   ;----------------------------------------------------------------------
     6223 00000a47 6a000005         bu        L267
     6224                   ;*      Branch Occurs to L267 
     6225 00000a48          L266:        
     6226                           .line   21
     6227 00000a48 50600001         ldiu      1,r0
     6228 00000a49 02400301         addi      *+fp(1),r0            ; Unsigned
     6229 00000a4a 15400301         sti       r0,*+fp(1)
     6230 00000a4b 04e00064         cmpi      100,r0
     6231 00000a4c 6a01fff0         blo       L264
     6232                   ;*      Branch Occurs to L264 
     6233 00000a4d          L267:        
     6234                           .line   30
     6235                   ;----------------------------------------------------------------------
     6236                   ; 979 | nNvsram_Variable.nScreenNum = ((sTreanNumSet)/10);                     
     6237                   ;----------------------------------------------------------------------
     6238 00000a4d 50400309         ldiu      *+fp(9),r0
     6239 00000a4e 5061000a         ldiu      10,r1
     6240 00000a4f 62000000!        call      DIV_U30
     6241                                                           ; Call Occurs
     6242 00000a50 15200000!        sti       r0,@_nNvsram_Variable+0
     6243                           .line   31
     6244                   ;----------------------------------------------------------------------
     6245                   ; 980 | sTreanSetDest = (sTreanNumSet%10);                                     
     6246                   ;----------------------------------------------------------------------
     6247 00000a51 5061000a         ldiu      10,r1
     6248 00000a52 50400309         ldiu      *+fp(9),r0
     6249 00000a53 62000000!        call      MOD_U30
     6250                                                           ; Call Occurs
     6251 00000a54 1540030a         sti       r0,*+fp(10)
     6252                           .line   33
     6253                   ;----------------------------------------------------------------------
     6254                   ; 982 | NVSRAM_Find_StationRoot(nNvsram_Variable.nScreenNum,10);        //
     6255                   ;     |    .                                                      
     6256                   ;----------------------------------------------------------------------
     6257 00000a55 5060000a         ldiu      10,r0
     6258 00000a56 0f200000         push      r0
     6259 00000a57 50200000!        ldiu      @_nNvsram_Variable+0,r0
     6260 00000a58 0f200000         push      r0
     6261 00000a59 62000000!        call      _NVSRAM_Find_StationRoot
     6262                                                           ; Call Occurs
     6263 00000a5a 18740002         subi      2,sp
     6264                           .line   34
TMS320C3x/4x COFF AssemblerVersion 5.11     Fri Sep 17 14:23:56 2010
Copyright (c) 1987-1999 Texas Instruments Incorporatedc:\lang\tms320c3x\511\bin\asm30.exe -l gpproface.asm gpproface.obj -tC:\Users\jds\AppData\Local\Temp\gpproface.tmp 

gpproface.asm                                                        PAGE  117

     6265                   ;----------------------------------------------------------------------
     6266                   ; 983 | for(i=0;i<10;i++) gp_WritingStr(340+i*10,5, nNvsram_Variable.nDestScree
     6267                   ;     | n[i].nStationName);                                                    
     6268                   ;----------------------------------------------------------------------
     6269 00000a5b 50600000         ldiu      0,r0
     6270 00000a5c 15400301         sti       r0,*+fp(1)
     6271 00000a5d 50640005         ldiu      5,r4
     6272 00000a5e 04e0000a         cmpi      10,r0
     6273 00000a5f 6a04000f         bhs       L269
     6274                   ;*      Branch Occurs to L269 
     6275 00000a60          L268:        
     6276                   
     6277 00000a60 c6400303         ldiu      *+fp(1),r1
     6278                   ||      ldiu      *+fp(1),r0
     6279                   
     6280 00000a61 0ae0000a         mpyi      10,r0
     6281 00000a62 03e10004         ash       4,r1
     6282 00000a63 02600154         addi      340,r0                ; Unsigned
     6283 00000a64 02210227-        addi      @CL30,r1              ; Unsigned
     6284 00000a65 0f210000         push      r1
     6285 00000a66 0f240000         push      r4
     6286 00000a67 0f200000         push      r0
     6287 00000a68 620000ba'        call      _gp_WritingStr
     6288                                                           ; Call Occurs
     6289 00000a69 18740003         subi      3,sp
     6290 00000a6a 50600001         ldiu      1,r0
     6291 00000a6b 02400301         addi      *+fp(1),r0            ; Unsigned
     6292 00000a6c 15400301         sti       r0,*+fp(1)
     6293 00000a6d 04e0000a         cmpi      10,r0
     6294 00000a6e 6a01fff1         blo       L268
     6295                   ;*      Branch Occurs to L268 
     6296 00000a6f          L269:        
     6297                           .line   36
     6298                   ;----------------------------------------------------------------------
     6299                   ; 985 | gp_WritingWord(0x3D,(0x01<<((sTreanSetDest)%10))); //   
     6300                   ;     |                                                             
     6301                   ;----------------------------------------------------------------------
     6302 00000a6f 5040030a         ldiu      *+fp(10),r0
     6303 00000a70 5061000a         ldiu      10,r1
     6304 00000a71 62000000!        call      MOD_U30
     6305                                                           ; Call Occurs
     6306 00000a72 50620001         ldiu      1,r2
     6307 00000a73 5061003d         ldiu      61,r1
     6308 00000a74 22800200         ash3      r0,r2,r0
     6309 00000a75 0f200000         push      r0
     6310 00000a76 0f210000         push      r1
     6311 00000a77 6200004d'        call      _gp_WritingWord
     6312                                                           ; Call Occurs
     6313 00000a78 18740002         subi      2,sp
     6314                           .line   38
     6315                   ;----------------------------------------------------------------------
     6316                   ; 987 | sScreenNumBuf[0] = (((nNvsram_Variable.nScreenNum+1)/10)+0x30);        
     6317                   ;----------------------------------------------------------------------
     6318 00000a79 50600001         ldiu      1,r0
TMS320C3x/4x COFF AssemblerVersion 5.11     Fri Sep 17 14:23:56 2010
Copyright (c) 1987-1999 Texas Instruments Incorporatedc:\lang\tms320c3x\511\bin\asm30.exe -l gpproface.asm gpproface.obj -tC:\Users\jds\AppData\Local\Temp\gpproface.tmp 

gpproface.asm                                                        PAGE  118

     6319 00000a7a 02200000!        addi      @_nNvsram_Variable+0,r0 ; Unsigned
     6320 00000a7b 5061000a         ldiu      10,r1
     6321 00000a7c 62000000!        call      DIV_U30
     6322                                                           ; Call Occurs
     6323 00000a7d 5008000b         ldiu      fp,ar0
     6324 00000a7e 02680002         addi      2,ar0
     6325 00000a7f 02600030         addi      48,r0                 ; Unsigned
     6326 00000a80 1540c000         sti       r0,*ar0
     6327                           .line   39
     6328                   ;----------------------------------------------------------------------
     6329                   ; 988 | sScreenNumBuf[1] = (((nNvsram_Variable.nScreenNum+1)%10)+0x30);        
     6330                   ;----------------------------------------------------------------------
     6331 00000a81 50600001         ldiu      1,r0
     6332 00000a82 02200000!        addi      @_nNvsram_Variable+0,r0 ; Unsigned
     6333 00000a83 5061000a         ldiu      10,r1
     6334 00000a84 62000000!        call      MOD_U30
     6335                                                           ; Call Occurs
     6336 00000a85 5008000b         ldiu      fp,ar0
     6337 00000a86 02680003         addi      3,ar0
     6338 00000a87 02600030         addi      48,r0                 ; Unsigned
     6339 00000a88 1540c000         sti       r0,*ar0
     6340                           .line   40
     6341                   ;----------------------------------------------------------------------
     6342                   ; 989 | gp_WritingStr(440,1,sScreenNumBuf);                                    
     6343                   ; 991 | //gpROOTWHITE;                                                         
     6344                   ;----------------------------------------------------------------------
     6345 00000a89 5000000b         ldiu      fp,r0
     6346 00000a8a 02600002         addi      2,r0
     6347 00000a8b 50620001         ldiu      1,r2
     6348 00000a8c 0f200000         push      r0
     6349 00000a8d 506101b8         ldiu      440,r1
     6350 00000a8e 0f220000         push      r2
     6351 00000a8f 0f210000         push      r1
     6352 00000a90 620000ba'        call      _gp_WritingStr
     6353                                                           ; Call Occurs
     6354 00000a91 18740003         subi      3,sp
     6355                           .line   44
     6356                   ;----------------------------------------------------------------------
     6357                   ; 993 | break;                                                                 
     6358                   ; 994 | case 0x6E:      //  .                                      
     6359                   ;----------------------------------------------------------------------
     6360 00000a92 6a0001e5         bu        L298
     6361                   ;*      Branch Occurs to L298 
     6362 00000a93          L270:        
     6363                           .line   47
     6364                   ;----------------------------------------------------------------------
     6365                   ; 996 | if(nNvsram_Variable.nScreenNum)                                        
     6366                   ;----------------------------------------------------------------------
     6367 00000a93 08200000!        ldi       @_nNvsram_Variable+0,r0
     6368 00000a94 6a0501e3         beq       L298
     6369                   ;*      Branch Occurs to L298 
     6370                           .line   49
     6371                   ;----------------------------------------------------------------------
     6372                   ; 998 | nNvsram_Variable.nScreenNum--;                                         
TMS320C3x/4x COFF AssemblerVersion 5.11     Fri Sep 17 14:23:56 2010
Copyright (c) 1987-1999 Texas Instruments Incorporatedc:\lang\tms320c3x\511\bin\asm30.exe -l gpproface.asm gpproface.obj -tC:\Users\jds\AppData\Local\Temp\gpproface.tmp 

gpproface.asm                                                        PAGE  119

     6373                   ;----------------------------------------------------------------------
     6374 00000a95 50600001         ldiu      1,r0
     6375 00000a96 19a00000!        subri     @_nNvsram_Variable+0,r0 ; Unsigned
     6376 00000a97 15200000!        sti       r0,@_nNvsram_Variable+0
     6377                           .line   51
     6378                   ;----------------------------------------------------------------------
     6379                   ; 1000 | NVSRAM_Find_StationRoot(nNvsram_Variable.nScreenNum,10);        //
     6380                   ;     |    .                                                      
     6381                   ;----------------------------------------------------------------------
     6382 00000a98 5060000a         ldiu      10,r0
     6383 00000a99 0f200000         push      r0
     6384 00000a9a 50200000!        ldiu      @_nNvsram_Variable+0,r0
     6385 00000a9b 0f200000         push      r0
     6386 00000a9c 62000000!        call      _NVSRAM_Find_StationRoot
     6387                                                           ; Call Occurs
     6388 00000a9d 18740002         subi      2,sp
     6389                           .line   52
     6390                   ;----------------------------------------------------------------------
     6391                   ; 1001 | for(i=0;i<10;i++) gp_WritingStr(340+i*10,5, nNvsram_Variable.nDestScree
     6392                   ;     | n[i].nStationName);                                                    
     6393                   ;----------------------------------------------------------------------
     6394 00000a9e 50600000         ldiu      0,r0
     6395 00000a9f 15400301         sti       r0,*+fp(1)
     6396 00000aa0 50640005         ldiu      5,r4
     6397 00000aa1 04e0000a         cmpi      10,r0
     6398 00000aa2 6a04000f         bhs       L273
     6399                   ;*      Branch Occurs to L273 
     6400 00000aa3          L272:        
     6401                   
     6402 00000aa3 c6400303         ldiu      *+fp(1),r1
     6403                   ||      ldiu      *+fp(1),r0
     6404                   
     6405 00000aa4 0ae0000a         mpyi      10,r0
     6406 00000aa5 03e10004         ash       4,r1
     6407 00000aa6 02600154         addi      340,r0                ; Unsigned
     6408 00000aa7 02210227-        addi      @CL30,r1              ; Unsigned
     6409 00000aa8 0f210000         push      r1
     6410 00000aa9 0f240000         push      r4
     6411 00000aaa 0f200000         push      r0
     6412 00000aab 620000ba'        call      _gp_WritingStr
     6413                                                           ; Call Occurs
     6414 00000aac 18740003         subi      3,sp
     6415 00000aad 50600001         ldiu      1,r0
     6416 00000aae 02400301         addi      *+fp(1),r0            ; Unsigned
     6417 00000aaf 15400301         sti       r0,*+fp(1)
     6418 00000ab0 04e0000a         cmpi      10,r0
     6419 00000ab1 6a01fff1         blo       L272
     6420                   ;*      Branch Occurs to L272 
     6421 00000ab2          L273:        
     6422                           .line   54
     6423                   ;----------------------------------------------------------------------
     6424                   ; 1003 | sScreenNumBuf[0] = (((nNvsram_Variable.nScreenNum+1)/10)+0x30);        
     6425                   ;----------------------------------------------------------------------
     6426 00000ab2 50600001         ldiu      1,r0
TMS320C3x/4x COFF AssemblerVersion 5.11     Fri Sep 17 14:23:56 2010
Copyright (c) 1987-1999 Texas Instruments Incorporatedc:\lang\tms320c3x\511\bin\asm30.exe -l gpproface.asm gpproface.obj -tC:\Users\jds\AppData\Local\Temp\gpproface.tmp 

gpproface.asm                                                        PAGE  120

     6427 00000ab3 02200000!        addi      @_nNvsram_Variable+0,r0 ; Unsigned
     6428 00000ab4 5061000a         ldiu      10,r1
     6429 00000ab5 62000000!        call      DIV_U30
     6430                                                           ; Call Occurs
     6431 00000ab6 5008000b         ldiu      fp,ar0
     6432 00000ab7 02680002         addi      2,ar0
     6433 00000ab8 02600030         addi      48,r0                 ; Unsigned
     6434 00000ab9 1540c000         sti       r0,*ar0
     6435                           .line   55
     6436                   ;----------------------------------------------------------------------
     6437                   ; 1004 | sScreenNumBuf[1] = (((nNvsram_Variable.nScreenNum+1)%10)+0x30);        
     6438                   ;----------------------------------------------------------------------
     6439 00000aba 50600001         ldiu      1,r0
     6440 00000abb 02200000!        addi      @_nNvsram_Variable+0,r0 ; Unsigned
     6441 00000abc 5061000a         ldiu      10,r1
     6442 00000abd 62000000!        call      MOD_U30
     6443                                                           ; Call Occurs
     6444 00000abe 5008000b         ldiu      fp,ar0
     6445 00000abf 02680003         addi      3,ar0
     6446 00000ac0 02600030         addi      48,r0                 ; Unsigned
     6447 00000ac1 1540c000         sti       r0,*ar0
     6448                           .line   56
     6449                   ;----------------------------------------------------------------------
     6450                   ; 1005 | gp_WritingStr(440,1,sScreenNumBuf);                                    
     6451                   ;----------------------------------------------------------------------
     6452 00000ac2 50620001         ldiu      1,r2
     6453 00000ac3 5000000b         ldiu      fp,r0
     6454 00000ac4 506101b8         ldiu      440,r1
     6455 00000ac5 02600002         addi      2,r0
     6456 00000ac6 0f200000         push      r0
     6457 00000ac7 0f220000         push      r2
     6458 00000ac8 0f210000         push      r1
     6459 00000ac9 620000ba'        call      _gp_WritingStr
     6460                                                           ; Call Occurs
     6461 00000aca 18740003         subi      3,sp
     6462                           .line   58
     6463                   ;----------------------------------------------------------------------
     6464                   ; 1007 | gpROOTWHITE;                                                           
     6465                   ;----------------------------------------------------------------------
     6466 00000acb 50610000         ldiu      0,r1
     6467 00000acc 0f210000         push      r1
     6468 00000acd 5060003d         ldiu      61,r0
     6469 00000ace 0f200000         push      r0
     6470 00000acf 6200004d'        call      _gp_WritingWord
     6471                                                           ; Call Occurs
     6472 00000ad0 18740002         subi      2,sp
     6473                           .line   59
     6474                   ;----------------------------------------------------------------------
     6475                   ; 1008 | gpROOTINIT;                                                            
     6476                   ;----------------------------------------------------------------------
     6477 00000ad1 50600000         ldiu      0,r0
     6478 00000ad2 0f200000         push      r0
     6479 00000ad3 5061003c         ldiu      60,r1
     6480 00000ad4 0f210000         push      r1
TMS320C3x/4x COFF AssemblerVersion 5.11     Fri Sep 17 14:23:56 2010
Copyright (c) 1987-1999 Texas Instruments Incorporatedc:\lang\tms320c3x\511\bin\asm30.exe -l gpproface.asm gpproface.obj -tC:\Users\jds\AppData\Local\Temp\gpproface.tmp 

gpproface.asm                                                        PAGE  121

     6481 00000ad5 6200004d'        call      _gp_WritingWord
     6482                                                           ; Call Occurs
     6483 00000ad6 18740002         subi      2,sp
     6484 00000ad7 50610037         ldiu      55,r1
     6485 00000ad8 50600000         ldiu      0,r0
     6486 00000ad9 0f200000         push      r0
     6487 00000ada 0f210000         push      r1
     6488 00000adb 6200004d'        call      _gp_WritingWord
     6489                                                           ; Call Occurs
     6490 00000adc 18740002         subi      2,sp
     6491                           .line   60
     6492                   ;----------------------------------------------------------------------
     6493                   ; 1009 | gpROOTDIS;                                                             
     6494                   ;----------------------------------------------------------------------
     6495 00000add 50600000         ldiu      0,r0
     6496 00000ade 0f200000         push      r0
     6497 00000adf 50610039         ldiu      57,r1
     6498 00000ae0 0f210000         push      r1
     6499 00000ae1 6200004d'        call      _gp_WritingWord
     6500                                                           ; Call Occurs
     6501 00000ae2 18740002         subi      2,sp
     6502                           .line   64
     6503                   ;----------------------------------------------------------------------
     6504                   ; 1013 | break;                                                                 
     6505                   ; 1014 | case 0x6F:      //  .                                      
     6506                   ;----------------------------------------------------------------------
     6507 00000ae3 6a000194         bu        L298
     6508                   ;*      Branch Occurs to L298 
     6509 00000ae4          L274:        
     6510                           .line   67
     6511                   ;----------------------------------------------------------------------
     6512                   ; 1016 | if(WORD_L(nNvsram_Variable.nScreenNum)<9)                              
     6513                   ;----------------------------------------------------------------------
     6514 00000ae4 506000ff         ldiu      255,r0
     6515 00000ae5 02a00000!        and       @_nNvsram_Variable+0,r0
     6516 00000ae6 04e00009         cmpi      9,r0
     6517 00000ae7 6a040190         bhs       L298
     6518                   ;*      Branch Occurs to L298 
     6519                           .line   69
     6520                   ;----------------------------------------------------------------------
     6521                   ; 1018 | if((WORD_L(SanDisk_Vari.nTotalDestCnt)/10)+1 > WORD_L(nNvsram_Variable.
     6522                   ;     | nScreenNum+1 ))                                                        
     6523                   ;----------------------------------------------------------------------
     6524 00000ae8 506000ff         ldiu      255,r0
     6525 00000ae9 02a00000!        and       @_SanDisk_Vari+0,r0
     6526 00000aea 5061000a         ldiu      10,r1
     6527 00000aeb 62000000!        call      DIV_U30
     6528                                                           ; Call Occurs
     6529 00000aec 50610001         ldiu      1,r1
     6530 00000aed 02210000!        addi      @_nNvsram_Variable+0,r1 ; Unsigned
     6531 00000aee 02600001         addi      1,r0                  ; Unsigned
     6532 00000aef 02e100ff         and       255,r1
     6533 00000af0 23800001         cmpi3     r1,r0
     6534 00000af1 6a020186         bls       L298
TMS320C3x/4x COFF AssemblerVersion 5.11     Fri Sep 17 14:23:56 2010
Copyright (c) 1987-1999 Texas Instruments Incorporatedc:\lang\tms320c3x\511\bin\asm30.exe -l gpproface.asm gpproface.obj -tC:\Users\jds\AppData\Local\Temp\gpproface.tmp 

gpproface.asm                                                        PAGE  122

     6535                   ;*      Branch Occurs to L298 
     6536                           .line   71
     6537                   ;----------------------------------------------------------------------
     6538                   ; 1020 | nNvsram_Variable.nScreenNum++;                                         
     6539                   ;----------------------------------------------------------------------
     6540 00000af2 50600001         ldiu      1,r0
     6541 00000af3 02200000!        addi      @_nNvsram_Variable+0,r0 ; Unsigned
     6542 00000af4 15200000!        sti       r0,@_nNvsram_Variable+0
     6543                           .line   72
     6544                   ;----------------------------------------------------------------------
     6545                   ; 1021 | NVSRAM_Find_StationRoot(nNvsram_Variable.nScreenNum,10);        //
     6546                   ;     |    .                                                      
     6547                   ;----------------------------------------------------------------------
     6548 00000af5 5060000a         ldiu      10,r0
     6549 00000af6 0f200000         push      r0
     6550 00000af7 50200000!        ldiu      @_nNvsram_Variable+0,r0
     6551 00000af8 0f200000         push      r0
     6552 00000af9 62000000!        call      _NVSRAM_Find_StationRoot
     6553                                                           ; Call Occurs
     6554 00000afa 18740002         subi      2,sp
     6555                           .line   73
     6556                   ;----------------------------------------------------------------------
     6557                   ; 1022 | for(i=0;i<10;i++) gp_WritingStr(340+i*10,5, nNvsram_Variable.nDestScree
     6558                   ;     | n[i].nStationName);                                                    
     6559                   ;----------------------------------------------------------------------
     6560 00000afb 50600000         ldiu      0,r0
     6561 00000afc 15400301         sti       r0,*+fp(1)
     6562 00000afd 50640005         ldiu      5,r4
     6563 00000afe 04e0000a         cmpi      10,r0
     6564 00000aff 6a04000f         bhs       L278
     6565                   ;*      Branch Occurs to L278 
     6566 00000b00          L277:        
     6567                   
     6568 00000b00 c6080303         ldiu      *+fp(1),r0
     6569                   ||      ldiu      *+fp(1),r1
     6570                   
     6571 00000b01 0ae1000a         mpyi      10,r1
     6572 00000b02 03e00004         ash       4,r0
     6573 00000b03 02610154         addi      340,r1                ; Unsigned
     6574 00000b04 02200227-        addi      @CL30,r0              ; Unsigned
     6575 00000b05 0f200000         push      r0
     6576 00000b06 0f240000         push      r4
     6577 00000b07 0f210000         push      r1
     6578 00000b08 620000ba'        call      _gp_WritingStr
     6579                                                           ; Call Occurs
     6580 00000b09 18740003         subi      3,sp
     6581 00000b0a 50600001         ldiu      1,r0
     6582 00000b0b 02400301         addi      *+fp(1),r0            ; Unsigned
     6583 00000b0c 15400301         sti       r0,*+fp(1)
     6584 00000b0d 04e0000a         cmpi      10,r0
     6585 00000b0e 6a01fff1         blo       L277
     6586                   ;*      Branch Occurs to L277 
     6587 00000b0f          L278:        
     6588                           .line   75
TMS320C3x/4x COFF AssemblerVersion 5.11     Fri Sep 17 14:23:56 2010
Copyright (c) 1987-1999 Texas Instruments Incorporatedc:\lang\tms320c3x\511\bin\asm30.exe -l gpproface.asm gpproface.obj -tC:\Users\jds\AppData\Local\Temp\gpproface.tmp 

gpproface.asm                                                        PAGE  123

     6589                   ;----------------------------------------------------------------------
     6590                   ; 1024 | sScreenNumBuf[0] = (((nNvsram_Variable.nScreenNum+1)/10)+0x30);        
     6591                   ;----------------------------------------------------------------------
     6592 00000b0f 50600001         ldiu      1,r0
     6593 00000b10 02200000!        addi      @_nNvsram_Variable+0,r0 ; Unsigned
     6594 00000b11 5061000a         ldiu      10,r1
     6595 00000b12 62000000!        call      DIV_U30
     6596                                                           ; Call Occurs
     6597 00000b13 5008000b         ldiu      fp,ar0
     6598 00000b14 02680002         addi      2,ar0
     6599 00000b15 02600030         addi      48,r0                 ; Unsigned
     6600 00000b16 1540c000         sti       r0,*ar0
     6601                           .line   76
     6602                   ;----------------------------------------------------------------------
     6603                   ; 1025 | sScreenNumBuf[1] = (((nNvsram_Variable.nScreenNum+1)%10)+0x30);        
     6604                   ;----------------------------------------------------------------------
     6605 00000b17 50600001         ldiu      1,r0
     6606 00000b18 02200000!        addi      @_nNvsram_Variable+0,r0 ; Unsigned
     6607 00000b19 5061000a         ldiu      10,r1
     6608 00000b1a 62000000!        call      MOD_U30
     6609                                                           ; Call Occurs
     6610 00000b1b 5008000b         ldiu      fp,ar0
     6611 00000b1c 02680003         addi      3,ar0
     6612 00000b1d 02600030         addi      48,r0                 ; Unsigned
     6613 00000b1e 1540c000         sti       r0,*ar0
     6614                           .line   77
     6615                   ;----------------------------------------------------------------------
     6616                   ; 1026 | gp_WritingStr(440,1,sScreenNumBuf);                                    
     6617                   ;----------------------------------------------------------------------
     6618 00000b1f 50620001         ldiu      1,r2
     6619 00000b20 5000000b         ldiu      fp,r0
     6620 00000b21 506101b8         ldiu      440,r1
     6621 00000b22 02600002         addi      2,r0
     6622 00000b23 0f200000         push      r0
     6623 00000b24 0f220000         push      r2
     6624 00000b25 0f210000         push      r1
     6625 00000b26 620000ba'        call      _gp_WritingStr
     6626                                                           ; Call Occurs
     6627 00000b27 18740003         subi      3,sp
     6628                           .line   79
     6629                   ;----------------------------------------------------------------------
     6630                   ; 1028 | gpROOTWHITE;                                                           
     6631                   ;----------------------------------------------------------------------
     6632 00000b28 50610000         ldiu      0,r1
     6633 00000b29 0f210000         push      r1
     6634 00000b2a 5060003d         ldiu      61,r0
     6635 00000b2b 0f200000         push      r0
     6636 00000b2c 6200004d'        call      _gp_WritingWord
     6637                                                           ; Call Occurs
     6638 00000b2d 18740002         subi      2,sp
     6639                           .line   80
     6640                   ;----------------------------------------------------------------------
     6641                   ; 1029 | gpROOTINIT;                                                            
     6642                   ;----------------------------------------------------------------------
TMS320C3x/4x COFF AssemblerVersion 5.11     Fri Sep 17 14:23:56 2010
Copyright (c) 1987-1999 Texas Instruments Incorporatedc:\lang\tms320c3x\511\bin\asm30.exe -l gpproface.asm gpproface.obj -tC:\Users\jds\AppData\Local\Temp\gpproface.tmp 

gpproface.asm                                                        PAGE  124

     6643 00000b2e 50600000         ldiu      0,r0
     6644 00000b2f 0f200000         push      r0
     6645 00000b30 5061003c         ldiu      60,r1
     6646 00000b31 0f210000         push      r1
     6647 00000b32 6200004d'        call      _gp_WritingWord
     6648                                                           ; Call Occurs
     6649 00000b33 18740002         subi      2,sp
     6650 00000b34 50610037         ldiu      55,r1
     6651 00000b35 50600000         ldiu      0,r0
     6652 00000b36 0f200000         push      r0
     6653 00000b37 0f210000         push      r1
     6654 00000b38 6200004d'        call      _gp_WritingWord
     6655                                                           ; Call Occurs
     6656 00000b39 18740002         subi      2,sp
     6657                           .line   81
     6658                   ;----------------------------------------------------------------------
     6659                   ; 1030 | gpROOTDIS;                                                             
     6660                   ;----------------------------------------------------------------------
     6661 00000b3a 50600000         ldiu      0,r0
     6662 00000b3b 0f200000         push      r0
     6663 00000b3c 50610039         ldiu      57,r1
     6664 00000b3d 0f210000         push      r1
     6665 00000b3e 6200004d'        call      _gp_WritingWord
     6666                                                           ; Call Occurs
     6667 00000b3f 18740002         subi      2,sp
     6668                           .line   85
     6669                   ;----------------------------------------------------------------------
     6670                   ; 1034 | break;                                                                 
     6671                   ;----------------------------------------------------------------------
     6672 00000b40 6a000137         bu        L298
     6673                   ;*      Branch Occurs to L298 
     6674 00000b41          L279:        
     6675                           .line   86
     6676                   ;----------------------------------------------------------------------
     6677                   ; 1035 | case 0x64: gpROOT1BLK;  gpROOTACTIVE;  gpROOTDIS; nNvsram_Variable.nDes
     6678                   ;     | tSetNum=1; break;        // 1 (T Tag )                     
     6679                   ;----------------------------------------------------------------------
     6680 00000b41 50600001         ldiu      1,r0
     6681 00000b42 50610038         ldiu      56,r1
     6682 00000b43 0f200000         push      r0
     6683 00000b44 0f210000         push      r1
     6684 00000b45 6200004d'        call      _gp_WritingWord
     6685                                                           ; Call Occurs
     6686 00000b46 18740002         subi      2,sp
     6687 00000b47 50600001         ldiu      1,r0
     6688 00000b48 5061003c         ldiu      60,r1
     6689 00000b49 0f200000         push      r0
     6690 00000b4a 0f210000         push      r1
     6691 00000b4b 6200004d'        call      _gp_WritingWord
     6692                                                           ; Call Occurs
     6693 00000b4c 18740002         subi      2,sp
     6694 00000b4d 50600000         ldiu      0,r0
     6695 00000b4e 50610039         ldiu      57,r1
     6696 00000b4f 0f200000         push      r0
TMS320C3x/4x COFF AssemblerVersion 5.11     Fri Sep 17 14:23:56 2010
Copyright (c) 1987-1999 Texas Instruments Incorporatedc:\lang\tms320c3x\511\bin\asm30.exe -l gpproface.asm gpproface.obj -tC:\Users\jds\AppData\Local\Temp\gpproface.tmp 

gpproface.asm                                                        PAGE  125

     6697 00000b50 0f210000         push      r1
     6698 00000b51 6200004d'        call      _gp_WritingWord
     6699                                                           ; Call Occurs
     6700 00000b52 18740002         subi      2,sp
     6701 00000b53 50600001         ldiu      1,r0
     6702 00000b54 15200001!        sti       r0,@_nNvsram_Variable+1
     6703 00000b55 6a000122         bu        L298
     6704                   ;*      Branch Occurs to L298 
     6705 00000b56          L280:        
     6706                           .line   87
     6707                   ;----------------------------------------------------------------------
     6708                   ; 1036 | case 0x65: gpROOT2BLK;  gpROOTACTIVE;  gpROOTDIS; nNvsram_Variable.nDes
     6709                   ;     | tSetNum=2; break;        // 2 (T Tag )                     
     6710                   ;----------------------------------------------------------------------
     6711 00000b56 50610002         ldiu      2,r1
     6712 00000b57 50600038         ldiu      56,r0
     6713 00000b58 0f210000         push      r1
     6714 00000b59 0f200000         push      r0
     6715 00000b5a 6200004d'        call      _gp_WritingWord
     6716                                                           ; Call Occurs
     6717 00000b5b 18740002         subi      2,sp
     6718 00000b5c 50610001         ldiu      1,r1
     6719 00000b5d 5060003c         ldiu      60,r0
     6720 00000b5e 0f210000         push      r1
     6721 00000b5f 0f200000         push      r0
     6722 00000b60 6200004d'        call      _gp_WritingWord
     6723                                                           ; Call Occurs
     6724 00000b61 18740002         subi      2,sp
     6725 00000b62 50610000         ldiu      0,r1
     6726 00000b63 50600039         ldiu      57,r0
     6727 00000b64 0f210000         push      r1
     6728 00000b65 0f200000         push      r0
     6729 00000b66 6200004d'        call      _gp_WritingWord
     6730                                                           ; Call Occurs
     6731 00000b67 18740002         subi      2,sp
     6732 00000b68 50600002         ldiu      2,r0
     6733 00000b69 15200001!        sti       r0,@_nNvsram_Variable+1
     6734 00000b6a 6a00010d         bu        L298
     6735                   ;*      Branch Occurs to L298 
     6736 00000b6b          L281:        
     6737                           .line   88
     6738                   ;----------------------------------------------------------------------
     6739                   ; 1037 | case 0x66: gpROOT3BLK;  gpROOTACTIVE;  gpROOTDIS; nNvsram_Variable.nDes
     6740                   ;     | tSetNum=3; break;        // 3 (T Tag )                     
     6741                   ;----------------------------------------------------------------------
     6742 00000b6b 50600004         ldiu      4,r0
     6743 00000b6c 50610038         ldiu      56,r1
     6744 00000b6d 0f200000         push      r0
     6745 00000b6e 0f210000         push      r1
     6746 00000b6f 6200004d'        call      _gp_WritingWord
     6747                                                           ; Call Occurs
     6748 00000b70 18740002         subi      2,sp
     6749 00000b71 50600001         ldiu      1,r0
     6750 00000b72 5061003c         ldiu      60,r1
TMS320C3x/4x COFF AssemblerVersion 5.11     Fri Sep 17 14:23:56 2010
Copyright (c) 1987-1999 Texas Instruments Incorporatedc:\lang\tms320c3x\511\bin\asm30.exe -l gpproface.asm gpproface.obj -tC:\Users\jds\AppData\Local\Temp\gpproface.tmp 

gpproface.asm                                                        PAGE  126

     6751 00000b73 0f200000         push      r0
     6752 00000b74 0f210000         push      r1
     6753 00000b75 6200004d'        call      _gp_WritingWord
     6754                                                           ; Call Occurs
     6755 00000b76 18740002         subi      2,sp
     6756 00000b77 50600000         ldiu      0,r0
     6757 00000b78 50610039         ldiu      57,r1
     6758 00000b79 0f200000         push      r0
     6759 00000b7a 0f210000         push      r1
     6760 00000b7b 6200004d'        call      _gp_WritingWord
     6761                                                           ; Call Occurs
     6762 00000b7c 18740002         subi      2,sp
     6763 00000b7d 50600003         ldiu      3,r0
     6764 00000b7e 15200001!        sti       r0,@_nNvsram_Variable+1
     6765 00000b7f 6a0000f8         bu        L298
     6766                   ;*      Branch Occurs to L298 
     6767 00000b80          L282:        
     6768                           .line   89
     6769                   ;----------------------------------------------------------------------
     6770                   ; 1038 | case 0x67: gpROOT4BLK;  gpROOTACTIVE;  gpROOTDIS; nNvsram_Variable.nDes
     6771                   ;     | tSetNum=4; break;        // 4 (T Tag )                     
     6772                   ;----------------------------------------------------------------------
     6773 00000b80 50610008         ldiu      8,r1
     6774 00000b81 50600038         ldiu      56,r0
     6775 00000b82 0f210000         push      r1
     6776 00000b83 0f200000         push      r0
     6777 00000b84 6200004d'        call      _gp_WritingWord
     6778                                                           ; Call Occurs
     6779 00000b85 18740002         subi      2,sp
     6780 00000b86 50610001         ldiu      1,r1
     6781 00000b87 5060003c         ldiu      60,r0
     6782 00000b88 0f210000         push      r1
     6783 00000b89 0f200000         push      r0
     6784 00000b8a 6200004d'        call      _gp_WritingWord
     6785                                                           ; Call Occurs
     6786 00000b8b 18740002         subi      2,sp
     6787 00000b8c 50610000         ldiu      0,r1
     6788 00000b8d 50600039         ldiu      57,r0
     6789 00000b8e 0f210000         push      r1
     6790 00000b8f 0f200000         push      r0
     6791 00000b90 6200004d'        call      _gp_WritingWord
     6792                                                           ; Call Occurs
     6793 00000b91 18740002         subi      2,sp
     6794 00000b92 50600004         ldiu      4,r0
     6795 00000b93 15200001!        sti       r0,@_nNvsram_Variable+1
     6796 00000b94 6a0000e3         bu        L298
     6797                   ;*      Branch Occurs to L298 
     6798 00000b95          L283:        
     6799                           .line   90
     6800                   ;----------------------------------------------------------------------
     6801                   ; 1039 | case 0x68: gpROOT5BLK;  gpROOTACTIVE;  gpROOTDIS; nNvsram_Variable.nDes
     6802                   ;     | tSetNum=5; break;        // 5 (T Tag )                     
     6803                   ;----------------------------------------------------------------------
     6804 00000b95 50600010         ldiu      16,r0
TMS320C3x/4x COFF AssemblerVersion 5.11     Fri Sep 17 14:23:56 2010
Copyright (c) 1987-1999 Texas Instruments Incorporatedc:\lang\tms320c3x\511\bin\asm30.exe -l gpproface.asm gpproface.obj -tC:\Users\jds\AppData\Local\Temp\gpproface.tmp 

gpproface.asm                                                        PAGE  127

     6805 00000b96 50610038         ldiu      56,r1
     6806 00000b97 0f200000         push      r0
     6807 00000b98 0f210000         push      r1
     6808 00000b99 6200004d'        call      _gp_WritingWord
     6809                                                           ; Call Occurs
     6810 00000b9a 18740002         subi      2,sp
     6811 00000b9b 50600001         ldiu      1,r0
     6812 00000b9c 5061003c         ldiu      60,r1
     6813 00000b9d 0f200000         push      r0
     6814 00000b9e 0f210000         push      r1
     6815 00000b9f 6200004d'        call      _gp_WritingWord
     6816                                                           ; Call Occurs
     6817 00000ba0 18740002         subi      2,sp
     6818 00000ba1 50600000         ldiu      0,r0
     6819 00000ba2 50610039         ldiu      57,r1
     6820 00000ba3 0f200000         push      r0
     6821 00000ba4 0f210000         push      r1
     6822 00000ba5 6200004d'        call      _gp_WritingWord
     6823                                                           ; Call Occurs
     6824 00000ba6 18740002         subi      2,sp
     6825 00000ba7 50600005         ldiu      5,r0
     6826 00000ba8 15200001!        sti       r0,@_nNvsram_Variable+1
     6827 00000ba9 6a0000ce         bu        L298
     6828                   ;*      Branch Occurs to L298 
     6829 00000baa          L284:        
     6830                           .line   91
     6831                   ;----------------------------------------------------------------------
     6832                   ; 1040 | case 0x69: gpROOT6BLK;  gpROOTACTIVE;  gpROOTDIS; nNvsram_Variable.nDes
     6833                   ;     | tSetNum=6; break;        // 6 (T Tag )                     
     6834                   ;----------------------------------------------------------------------
     6835 00000baa 50610020         ldiu      32,r1
     6836 00000bab 50600038         ldiu      56,r0
     6837 00000bac 0f210000         push      r1
     6838 00000bad 0f200000         push      r0
     6839 00000bae 6200004d'        call      _gp_WritingWord
     6840                                                           ; Call Occurs
     6841 00000baf 18740002         subi      2,sp
     6842 00000bb0 50610001         ldiu      1,r1
     6843 00000bb1 5060003c         ldiu      60,r0
     6844 00000bb2 0f210000         push      r1
     6845 00000bb3 0f200000         push      r0
     6846 00000bb4 6200004d'        call      _gp_WritingWord
     6847                                                           ; Call Occurs
     6848 00000bb5 18740002         subi      2,sp
     6849 00000bb6 50610000         ldiu      0,r1
     6850 00000bb7 50600039         ldiu      57,r0
     6851 00000bb8 0f210000         push      r1
     6852 00000bb9 0f200000         push      r0
     6853 00000bba 6200004d'        call      _gp_WritingWord
     6854                                                           ; Call Occurs
     6855 00000bbb 18740002         subi      2,sp
     6856 00000bbc 50600006         ldiu      6,r0
     6857 00000bbd 15200001!        sti       r0,@_nNvsram_Variable+1
     6858 00000bbe 6a0000b9         bu        L298
TMS320C3x/4x COFF AssemblerVersion 5.11     Fri Sep 17 14:23:56 2010
Copyright (c) 1987-1999 Texas Instruments Incorporatedc:\lang\tms320c3x\511\bin\asm30.exe -l gpproface.asm gpproface.obj -tC:\Users\jds\AppData\Local\Temp\gpproface.tmp 

gpproface.asm                                                        PAGE  128

     6859                   ;*      Branch Occurs to L298 
     6860 00000bbf          L285:        
     6861                           .line   92
     6862                   ;----------------------------------------------------------------------
     6863                   ; 1041 | case 0x6a: gpROOT7BLK;  gpROOTACTIVE;  gpROOTDIS; nNvsram_Variable.nDes
     6864                   ;     | tSetNum=7; break;        // 7 (T Tag )                     
     6865                   ;----------------------------------------------------------------------
     6866 00000bbf 50600040         ldiu      64,r0
     6867 00000bc0 50610038         ldiu      56,r1
     6868 00000bc1 0f200000         push      r0
     6869 00000bc2 0f210000         push      r1
     6870 00000bc3 6200004d'        call      _gp_WritingWord
     6871                                                           ; Call Occurs
     6872 00000bc4 18740002         subi      2,sp
     6873 00000bc5 50600001         ldiu      1,r0
     6874 00000bc6 5061003c         ldiu      60,r1
     6875 00000bc7 0f200000         push      r0
     6876 00000bc8 0f210000         push      r1
     6877 00000bc9 6200004d'        call      _gp_WritingWord
     6878                                                           ; Call Occurs
     6879 00000bca 18740002         subi      2,sp
     6880 00000bcb 50600000         ldiu      0,r0
     6881 00000bcc 50610039         ldiu      57,r1
     6882 00000bcd 0f200000         push      r0
     6883 00000bce 0f210000         push      r1
     6884 00000bcf 6200004d'        call      _gp_WritingWord
     6885                                                           ; Call Occurs
     6886 00000bd0 18740002         subi      2,sp
     6887 00000bd1 50600007         ldiu      7,r0
     6888 00000bd2 15200001!        sti       r0,@_nNvsram_Variable+1
     6889 00000bd3 6a0000a4         bu        L298
     6890                   ;*      Branch Occurs to L298 
     6891 00000bd4          L286:        
     6892                           .line   93
     6893                   ;----------------------------------------------------------------------
     6894                   ; 1042 | case 0x6b: gpROOT8BLK;  gpROOTACTIVE;  gpROOTDIS; nNvsram_Variable.nDes
     6895                   ;     | tSetNum=8; break;        // 8 (T Tag )                     
     6896                   ;----------------------------------------------------------------------
     6897 00000bd4 50610080         ldiu      128,r1
     6898 00000bd5 50600038         ldiu      56,r0
     6899 00000bd6 0f210000         push      r1
     6900 00000bd7 0f200000         push      r0
     6901 00000bd8 6200004d'        call      _gp_WritingWord
     6902                                                           ; Call Occurs
     6903 00000bd9 18740002         subi      2,sp
     6904 00000bda 50610001         ldiu      1,r1
     6905 00000bdb 5060003c         ldiu      60,r0
     6906 00000bdc 0f210000         push      r1
     6907 00000bdd 0f200000         push      r0
     6908 00000bde 6200004d'        call      _gp_WritingWord
     6909                                                           ; Call Occurs
     6910 00000bdf 18740002         subi      2,sp
     6911 00000be0 50610000         ldiu      0,r1
     6912 00000be1 50600039         ldiu      57,r0
TMS320C3x/4x COFF AssemblerVersion 5.11     Fri Sep 17 14:23:56 2010
Copyright (c) 1987-1999 Texas Instruments Incorporatedc:\lang\tms320c3x\511\bin\asm30.exe -l gpproface.asm gpproface.obj -tC:\Users\jds\AppData\Local\Temp\gpproface.tmp 

gpproface.asm                                                        PAGE  129

     6913 00000be2 0f210000         push      r1
     6914 00000be3 0f200000         push      r0
     6915 00000be4 6200004d'        call      _gp_WritingWord
     6916                                                           ; Call Occurs
     6917 00000be5 18740002         subi      2,sp
     6918 00000be6 50600008         ldiu      8,r0
     6919 00000be7 15200001!        sti       r0,@_nNvsram_Variable+1
     6920 00000be8 6a00008f         bu        L298
     6921                   ;*      Branch Occurs to L298 
     6922 00000be9          L287:        
     6923                           .line   94
     6924                   ;----------------------------------------------------------------------
     6925                   ; 1043 | case 0x6c: gpROOT9BLK;  gpROOTACTIVE;  gpROOTDIS; nNvsram_Variable.nDes
     6926                   ;     | tSetNum=9; break;        // 9 (T Tag )                     
     6927                   ;----------------------------------------------------------------------
     6928 00000be9 50600100         ldiu      256,r0
     6929 00000bea 50610038         ldiu      56,r1
     6930 00000beb 0f200000         push      r0
     6931 00000bec 0f210000         push      r1
     6932 00000bed 6200004d'        call      _gp_WritingWord
     6933                                                           ; Call Occurs
     6934 00000bee 18740002         subi      2,sp
     6935 00000bef 50600001         ldiu      1,r0
     6936 00000bf0 5061003c         ldiu      60,r1
     6937 00000bf1 0f200000         push      r0
     6938 00000bf2 0f210000         push      r1
     6939 00000bf3 6200004d'        call      _gp_WritingWord
     6940                                                           ; Call Occurs
     6941 00000bf4 18740002         subi      2,sp
     6942 00000bf5 50600000         ldiu      0,r0
     6943 00000bf6 50610039         ldiu      57,r1
     6944 00000bf7 0f200000         push      r0
     6945 00000bf8 0f210000         push      r1
     6946 00000bf9 6200004d'        call      _gp_WritingWord
     6947                                                           ; Call Occurs
     6948 00000bfa 18740002         subi      2,sp
     6949 00000bfb 50600009         ldiu      9,r0
     6950 00000bfc 15200001!        sti       r0,@_nNvsram_Variable+1
     6951 00000bfd 6a00007a         bu        L298
     6952                   ;*      Branch Occurs to L298 
     6953 00000bfe          L288:        
     6954                           .line   95
     6955                   ;----------------------------------------------------------------------
     6956                   ; 1044 | case 0x6d: gpROOT10BLK; gpROOTACTIVE;  gpROOTDIS; nNvsram_Variable.nDes
     6957                   ;     | tSetNum=10; break;       // 10(T Tag )                     
     6958                   ; 1046 | case 0x51:                                                             
     6959                   ;----------------------------------------------------------------------
     6960 00000bfe 50610200         ldiu      512,r1
     6961 00000bff 50600038         ldiu      56,r0
     6962 00000c00 0f210000         push      r1
     6963 00000c01 0f200000         push      r0
     6964 00000c02 6200004d'        call      _gp_WritingWord
     6965                                                           ; Call Occurs
     6966 00000c03 18740002         subi      2,sp
TMS320C3x/4x COFF AssemblerVersion 5.11     Fri Sep 17 14:23:56 2010
Copyright (c) 1987-1999 Texas Instruments Incorporatedc:\lang\tms320c3x\511\bin\asm30.exe -l gpproface.asm gpproface.obj -tC:\Users\jds\AppData\Local\Temp\gpproface.tmp 

gpproface.asm                                                        PAGE  130

     6967 00000c04 50610001         ldiu      1,r1
     6968 00000c05 5060003c         ldiu      60,r0
     6969 00000c06 0f210000         push      r1
     6970 00000c07 0f200000         push      r0
     6971 00000c08 6200004d'        call      _gp_WritingWord
     6972                                                           ; Call Occurs
     6973 00000c09 18740002         subi      2,sp
     6974 00000c0a 50610000         ldiu      0,r1
     6975 00000c0b 50600039         ldiu      57,r0
     6976 00000c0c 0f210000         push      r1
     6977 00000c0d 0f200000         push      r0
     6978 00000c0e 6200004d'        call      _gp_WritingWord
     6979                                                           ; Call Occurs
     6980 00000c0f 18740002         subi      2,sp
     6981 00000c10 5060000a         ldiu      10,r0
     6982 00000c11 15200001!        sti       r0,@_nNvsram_Variable+1
     6983 00000c12 6a000065         bu        L298
     6984                   ;*      Branch Occurs to L298 
     6985                           .line   98
     6986                   ;----------------------------------------------------------------------
     6987                   ; 1047 | gpROOTNOBLK;                                                           
     6988                   ;----------------------------------------------------------------------
     6989 00000c13          L290:        
     6990 00000c13 0f210000         push      r1
     6991 00000c14 0f200000         push      r0
     6992 00000c15 6200004d'        call      _gp_WritingWord
     6993                                                           ; Call Occurs
     6994 00000c16 18740002         subi      2,sp
     6995                           .line   99
     6996                   ;----------------------------------------------------------------------
     6997                   ; 1048 | gpROOTINIT; //    .                                
     6998                   ;----------------------------------------------------------------------
     6999 00000c17 50600000         ldiu      0,r0
     7000 00000c18 5061003c         ldiu      60,r1
     7001 00000c19 0f200000         push      r0
     7002 00000c1a 0f210000         push      r1
     7003 00000c1b 6200004d'        call      _gp_WritingWord
     7004                                                           ; Call Occurs
     7005 00000c1c 18740002         subi      2,sp
     7006 00000c1d 50610000         ldiu      0,r1
     7007 00000c1e 0f210000         push      r1
     7008 00000c1f 50600037         ldiu      55,r0
     7009 00000c20 0f200000         push      r0
     7010 00000c21 6200004d'        call      _gp_WritingWord
     7011                                                           ; Call Occurs
     7012 00000c22 18740002         subi      2,sp
     7013                           .line   101
     7014                   ;----------------------------------------------------------------------
     7015                   ; 1050 | sDestNum = WORD_L(SanDisk_Vari.nTotalDestCnt);                         
     7016                   ;----------------------------------------------------------------------
     7017 00000c23 506000ff         ldiu      255,r0
     7018 00000c24 02a00000!        and       @_SanDisk_Vari+0,r0
     7019 00000c25 15400307         sti       r0,*+fp(7)
     7020                           .line   102
TMS320C3x/4x COFF AssemblerVersion 5.11     Fri Sep 17 14:23:56 2010
Copyright (c) 1987-1999 Texas Instruments Incorporatedc:\lang\tms320c3x\511\bin\asm30.exe -l gpproface.asm gpproface.obj -tC:\Users\jds\AppData\Local\Temp\gpproface.tmp 

gpproface.asm                                                        PAGE  131

     7021                   ;----------------------------------------------------------------------
     7022                   ; 1051 | sDestNum1 = WORD_L(nNvsram_Variable.nScreenNum)*10+WORD_L(nNvsram_Varia
     7023                   ;     | ble.nDestSetNum);                                                      
     7024                   ;----------------------------------------------------------------------
     7025 00000c26 506000ff         ldiu      255,r0
     7026 00000c27 02a00000!        and       @_nNvsram_Variable+0,r0
     7027 00000c28 0ae0000a         mpyi      10,r0
     7028 00000c29 506100ff         ldiu      255,r1
     7029 00000c2a 02a10001!        and       @_nNvsram_Variable+1,r1
     7030 00000c2b 21000001         addi3     r1,r0,r0              ; Unsigned
     7031 00000c2c 15400308         sti       r0,*+fp(8)
     7032                           .line   104
     7033                   ;----------------------------------------------------------------------
     7034                   ; 1053 | if(sDestNum >= sDestNum1)                                              
     7035                   ;----------------------------------------------------------------------
     7036 00000c2d 50400307         ldiu      *+fp(7),r0
     7037 00000c2e 04c00308         cmpi      *+fp(8),r0
     7038 00000c2f 6a010024         blo       L292
     7039                   ;*      Branch Occurs to L292 
     7040                           .line   106
     7041                   ;----------------------------------------------------------------------
     7042                   ; 1055 | nNvsram_Variable.nDestSetNumRe = nNvsram_Variable.nDestSetNum;         
     7043                   ;----------------------------------------------------------------------
     7044 00000c30 50200001!        ldiu      @_nNvsram_Variable+1,r0
     7045 00000c31 15200002!        sti       r0,@_nNvsram_Variable+2
     7046                           .line   107
     7047                   ;----------------------------------------------------------------------
     7048                   ; 1056 | gp_WritingWord(0x3D,(0x01<<((nNvsram_Variable.nDestSetNumRe-1)%10)));
     7049                   ;     |   //                                         
     7050                   ;----------------------------------------------------------------------
     7051 00000c32 50600001         ldiu      1,r0
     7052 00000c33 19a00002!        subri     @_nNvsram_Variable+2,r0 ; Unsigned
     7053 00000c34 5061000a         ldiu      10,r1
     7054 00000c35 62000000!        call      MOD_U30
     7055                                                           ; Call Occurs
     7056 00000c36 50620001         ldiu      1,r2
     7057 00000c37 5061003d         ldiu      61,r1
     7058 00000c38 22800200         ash3      r0,r2,r0
     7059 00000c39 0f200000         push      r0
     7060 00000c3a 0f210000         push      r1
     7061 00000c3b 6200004d'        call      _gp_WritingWord
     7062                                                           ; Call Occurs
     7063 00000c3c 18740002         subi      2,sp
     7064                           .line   108
     7065                   ;----------------------------------------------------------------------
     7066                   ; 1057 | nTr_St_Info.nDest.nCode = nNvsram_Variable.nDestCodeList[sDestNum1-1]; 
     7067                   ;----------------------------------------------------------------------
     7068 00000c3d 50710001         ldiu      1,ir0
     7069 00000c3e 19d10308         subri     *+fp(8),ir0           ; Unsigned
     7070 00000c3f 50280226-        ldiu      @CL29,ar0
     7071 00000c40 50404000         ldiu      *+ar0(ir0),r0
     7072 00000c41 15200105!        sti       r0,@_nTr_St_Info+261
     7073                           .line   110
     7074                   ;----------------------------------------------------------------------
TMS320C3x/4x COFF AssemblerVersion 5.11     Fri Sep 17 14:23:56 2010
Copyright (c) 1987-1999 Texas Instruments Incorporatedc:\lang\tms320c3x\511\bin\asm30.exe -l gpproface.asm gpproface.obj -tC:\Users\jds\AppData\Local\Temp\gpproface.tmp 

gpproface.asm                                                        PAGE  132

     7075                   ; 1059 | NVSRAM_Rd_StationName_Code(nTr_St_Info.nDest.nCode,nTr_St_Info.nDest.nE
     7076                   ;     | nNameBuf,nTr_St_Info.nGpStName.nDest);                                 
     7077                   ;----------------------------------------------------------------------
     7078 00000c42 5021020d-        ldiu      @CL4,r1
     7079 00000c43 50200228-        ldiu      @CL31,r0
     7080 00000c44 0f210000         push      r1
     7081 00000c45 0f200000         push      r0
     7082 00000c46 50200105!        ldiu      @_nTr_St_Info+261,r0
     7083 00000c47 0f200000         push      r0
     7084 00000c48 62000000!        call      _NVSRAM_Rd_StationName_Code
     7085                                                           ; Call Occurs
     7086 00000c49 18740003         subi      3,sp
     7087                           .line   112
     7088                   ;----------------------------------------------------------------------
     7089                   ; 1061 | gp_WritingStr(0x96,5,nTr_St_Info.nGpStName.nDest);      //     
     7090                   ;----------------------------------------------------------------------
     7091 00000c4a 50610096         ldiu      150,r1
     7092 00000c4b 5022020d-        ldiu      @CL4,r2
     7093 00000c4c 0f220000         push      r2
     7094 00000c4d 50600005         ldiu      5,r0
     7095 00000c4e 0f200000         push      r0
     7096 00000c4f 0f210000         push      r1
     7097 00000c50 620000ba'        call      _gp_WritingStr
     7098                                                           ; Call Occurs
     7099 00000c51 18740003         subi      3,sp
     7100                           .line   114
     7101                   ;----------------------------------------------------------------------
     7102                   ; 1063 | nSccSendFlag.nDeSTCodeSet = 2;                                         
     7103                   ; 1065 | //SCC_TX_PROTOCOL(sDestTxBuf,0xF8,0x31,0x1C,WORD_L(nTr_St_Info.nDest.nC
     7104                   ;     | ode),10);                                                              
     7105                   ; 1066 | //Delay_SCC2_SendTo(sDestTxBuf,20,SCC_A_CHANNEL,5);                    
     7106                   ;----------------------------------------------------------------------
     7107 00000c52 50600002         ldiu      2,r0
     7108 00000c53 15200000!        sti       r0,@_nSccSendFlag+0
     7109 00000c54          L292:        
     7110                           .line   120
     7111                   ;----------------------------------------------------------------------
     7112                   ; 1069 | gpROOTEN;                                                              
     7113                   ;----------------------------------------------------------------------
     7114 00000c54 50600001         ldiu      1,r0
     7115 00000c55 50610039         ldiu      57,r1
     7116 00000c56 0f200000         push      r0
     7117 00000c57 0f210000         push      r1
     7118 00000c58 6200004d'        call      _gp_WritingWord
     7119                                                           ; Call Occurs
     7120 00000c59 18740002         subi      2,sp
     7121                           .line   121
     7122                   ;----------------------------------------------------------------------
     7123                   ; 1070 | break;                                                                 
     7124                   ;----------------------------------------------------------------------
     7125 00000c5a 6a00001d         bu        L298
     7126                   ;*      Branch Occurs to L298 
     7127                           .line   10
     7128 00000c5b          L294:        
TMS320C3x/4x COFF AssemblerVersion 5.11     Fri Sep 17 14:23:56 2010
Copyright (c) 1987-1999 Texas Instruments Incorporatedc:\lang\tms320c3x\511\bin\asm30.exe -l gpproface.asm gpproface.obj -tC:\Users\jds\AppData\Local\Temp\gpproface.tmp 

gpproface.asm                                                        PAGE  133

     7129 00000c5b 04e00038         cmpi      56,r0
     7130 00000c5c 6a05fdb9         beq       L263
     7131                   ;*      Branch Occurs to L263 
     7132 00000c5d 04e00051         cmpi      81,r0
     7133 00000c5e 6a25ffb2         beqd      L290
     7134 00000c5f 0c800000         nop
     7135 00000c60 52e10000         ldieq     0,r1
     7136 00000c61 52e00038         ldieq     56,r0
     7137                   ;*      Branch Occurs to L290 
     7138 00000c62 50610064         ldiu      100,r1
     7139 00000c63 19810000         subri     r0,r1
     7140 00000c64 04e1000b         cmpi      11,r1
     7141 00000c65 6a230010         bhid      L298
     7142 00000c66 0c800000         nop
     7143 00000c67 51710064         ldils     100,ir0
     7144 00000c68 51280229-        ldils     @CL32,ar0
     7145                   ;*      Branch Occurs to L298 
     7146 00000c69 19910000         subri     r0,ir0
     7147 00000c6a 50404000         ldiu      *+ar0(ir0),r0
     7148 00000c6b 68000000         bu        r0
     7149                   
     7150 00000c6c                  .sect   ".text"
     7151 00000c6c 00000b41'SW1:    .word   L279    ; 100
     7152 00000c6d 00000b56'        .word   L280    ; 101
     7153 00000c6e 00000b6b'        .word   L281    ; 102
     7154 00000c6f 00000b80'        .word   L282    ; 103
     7155 00000c70 00000b95'        .word   L283    ; 104
     7156 00000c71 00000baa'        .word   L284    ; 105
     7157 00000c72 00000bbf'        .word   L285    ; 106
     7158 00000c73 00000bd4'        .word   L286    ; 107
     7159 00000c74 00000be9'        .word   L287    ; 108
     7160 00000c75 00000bfe'        .word   L288    ; 109
     7161 00000c76 00000a93'        .word   L270    ; 110
     7162 00000c77 00000ae4'        .word   L274    ; 111
     7163 00000c78                  .sect   ".text"
     7164                   ;*      Branch Occurs to r0 
     7165 00000c78          L298:        
     7166                           .line   124
     7167 00000c78 50530b01         ldiu      *-fp(1),bk
     7168 00000c79 0e240000         pop       r4
     7169 00000c7a 504bc300         ldiu      *fp,fp
     7170 00000c7b 18740020         subi      32,sp
     7171 00000c7c 68000013         bu        bk
     7172                   ;*      Branch Occurs to bk 
     7173                           .endfunc        1073,000000010h,30
     7174                   
     7175                   
     7176 00000c7d                  .sect    ".text"
     7177                   
     7178                           .global _GP_SIMU_SCREEN
     7179                           .sym    _GP_SIMU_SCREEN,_GP_SIMU_SCREEN,32,2,0
     7180                           .func   1077
     7181                   ;******************************************************************************
     7182                   ;* FUNCTION NAME: _GP_SIMU_SCREEN                                             *
TMS320C3x/4x COFF AssemblerVersion 5.11     Fri Sep 17 14:23:56 2010
Copyright (c) 1987-1999 Texas Instruments Incorporatedc:\lang\tms320c3x\511\bin\asm30.exe -l gpproface.asm gpproface.obj -tC:\Users\jds\AppData\Local\Temp\gpproface.tmp 

gpproface.asm                                                        PAGE  134

     7183                   ;*                                                                            *
     7184                   ;*   Architecture       : TMS320C30                                           *
     7185                   ;*   Calling Convention : Stack Parameter Convention                          *
     7186                   ;*   Function Uses Regs : r0,r1,r2,ar0,fp,ir0,sp,st                           *
     7187                   ;*   Regs Saved         :                                                     *
     7188                   ;*   Stack Frame        : Full (w/ debug)                                     *
     7189                   ;*   Total Frame Size   : 2 Call + 1 Parm + 1 Auto + 0 SOE = 4 words          *
     7190                   ;******************************************************************************
     7191 00000c7d          _GP_SIMU_SCREEN:
     7192                           .sym    _nScreenInf,-2,12,9,32
     7193                           .sym    _sSimuFlag_Cnt,1,12,1,32
     7194                           .line   1
     7195                   ;----------------------------------------------------------------------
     7196                   ; 1077 | void GP_SIMU_SCREEN(UCHAR nScreenInf)                                  
     7197                   ;----------------------------------------------------------------------
     7198 00000c7d 0f2b0000         push      fp
     7199 00000c7e 500b0014         ldiu      sp,fp
     7200                           .line   2
     7201                           .line   4
     7202                   ;----------------------------------------------------------------------
     7203                   ; 1080 | UCHAR sSimuFlag_Cnt = 0;                                               
     7204                   ; 1081 | switch(nScreenInf)                                                     
     7205                   ; 1083 | case 0x37:      // .                                           
     7206                   ;----------------------------------------------------------------------
     7207 00000c7f 6a20012e         bud       L352
     7208 00000c80 02740001         addi      1,sp
     7209 00000c81 50600000         ldiu      0,r0
     7210 00000c82 15400301         sti       r0,*+fp(1)
     7211                   ;*      Branch Occurs to L352 
     7212 00000c83          L301:        
     7213                           .line   8
     7214                   ;----------------------------------------------------------------------
     7215                   ; 1084 | nTr_St_Info.nAutoManuFlagCnt = 0;                                      
     7216                   ;----------------------------------------------------------------------
     7217 00000c83 50600000         ldiu      0,r0
     7218 00000c84 15200177!        sti       r0,@_nTr_St_Info+375
     7219                           .line   9
     7220                   ;----------------------------------------------------------------------
     7221                   ; 1085 | nTr_St_Info.nSinmuScrCnt++;                                            
     7222                   ;----------------------------------------------------------------------
     7223 00000c85 50600001         ldiu      1,r0
     7224 00000c86 0220004b!        addi      @_nTr_St_Info+75,r0   ; Unsigned
     7225 00000c87 1520004b!        sti       r0,@_nTr_St_Info+75
     7226                           .line   10
     7227                   ;----------------------------------------------------------------------
     7228                   ; 1086 | if(!(nTr_St_Info.nSinmuScrCnt%5)) // 5    .      
     7229                   ;----------------------------------------------------------------------
     7230 00000c88 50610005         ldiu      5,r1
     7231 00000c89 62000000!        call      MOD_U30
     7232                                                           ; Call Occurs
     7233 00000c8a 04e00000         cmpi      0,r0
     7234 00000c8b 6a06013a         bne       L357
     7235                   ;*      Branch Occurs to L357 
     7236                           .line   12
TMS320C3x/4x COFF AssemblerVersion 5.11     Fri Sep 17 14:23:56 2010
Copyright (c) 1987-1999 Texas Instruments Incorporatedc:\lang\tms320c3x\511\bin\asm30.exe -l gpproface.asm gpproface.obj -tC:\Users\jds\AppData\Local\Temp\gpproface.tmp 

gpproface.asm                                                        PAGE  135

     7237                   ;----------------------------------------------------------------------
     7238                   ; 1088 | nSelect_Button.nScreenSetNum = 4;                                      
     7239                   ;----------------------------------------------------------------------
     7240 00000c8c 50600004         ldiu      4,r0
     7241 00000c8d 15200206-        sti       r0,@_nSelect_Button+5
     7242                           .line   13
     7243                   ;----------------------------------------------------------------------
     7244                   ; 1089 | nTr_St_Info.nSinmuScrCnt= 0;                                           
     7245                   ;----------------------------------------------------------------------
     7246 00000c8e 50600000         ldiu      0,r0
     7247 00000c8f 1520004b!        sti       r0,@_nTr_St_Info+75
     7248                           .line   15
     7249                   ;----------------------------------------------------------------------
     7250                   ; 1091 | sSimuFlag_Cnt  |= nTr_St_Info.nPIBPatFlag ? 0x01 : 0x00;               
     7251                   ;----------------------------------------------------------------------
     7252 00000c90 08200041!        ldi       @_nTr_St_Info+65,r0
     7253 00000c91 6a050004         beq       L304
     7254                   ;*      Branch Occurs to L304 
     7255 00000c92 6a200002         bud       L305
     7256 00000c93 0c800000         nop
     7257 00000c94 0c800000         nop
     7258 00000c95 50600001         ldiu      1,r0
     7259                   ;*      Branch Occurs to L305 
     7260 00000c96          L304:        
     7261 00000c96 50600000         ldiu      0,r0
     7262 00000c97          L305:        
     7263 00000c97 10400301         or        *+fp(1),r0
     7264 00000c98 15400301         sti       r0,*+fp(1)
     7265                           .line   16
     7266                   ;----------------------------------------------------------------------
     7267                   ; 1092 | sSimuFlag_Cnt  |= nTr_St_Info.nDISFPatFlag ? 0x04 : 0x00;              
     7268                   ;----------------------------------------------------------------------
     7269 00000c99 08200042!        ldi       @_nTr_St_Info+66,r0
     7270 00000c9a 6a050004         beq       L307
     7271                   ;*      Branch Occurs to L307 
     7272 00000c9b 6a200002         bud       L308
     7273 00000c9c 0c800000         nop
     7274 00000c9d 0c800000         nop
     7275 00000c9e 50600004         ldiu      4,r0
     7276                   ;*      Branch Occurs to L308 
     7277 00000c9f          L307:        
     7278 00000c9f 50600000         ldiu      0,r0
     7279 00000ca0          L308:        
     7280 00000ca0 10400301         or        *+fp(1),r0
     7281 00000ca1 15400301         sti       r0,*+fp(1)
     7282                           .line   17
     7283                   ;----------------------------------------------------------------------
     7284                   ; 1093 | sSimuFlag_Cnt  |= nTr_St_Info.nSimulationFlag ? 0x02 : 0x00;           
     7285                   ;----------------------------------------------------------------------
     7286 00000ca2 08200043!        ldi       @_nTr_St_Info+67,r0
     7287 00000ca3 6a050004         beq       L310
     7288                   ;*      Branch Occurs to L310 
     7289 00000ca4 6a200002         bud       L311
     7290 00000ca5 0c800000         nop
TMS320C3x/4x COFF AssemblerVersion 5.11     Fri Sep 17 14:23:56 2010
Copyright (c) 1987-1999 Texas Instruments Incorporatedc:\lang\tms320c3x\511\bin\asm30.exe -l gpproface.asm gpproface.obj -tC:\Users\jds\AppData\Local\Temp\gpproface.tmp 

gpproface.asm                                                        PAGE  136

     7291 00000ca6 0c800000         nop
     7292 00000ca7 50600002         ldiu      2,r0
     7293                   ;*      Branch Occurs to L311 
     7294 00000ca8          L310:        
     7295 00000ca8 50600000         ldiu      0,r0
     7296 00000ca9          L311:        
     7297 00000ca9 10400301         or        *+fp(1),r0
     7298 00000caa 15400301         sti       r0,*+fp(1)
     7299                           .line   18
     7300                   ;----------------------------------------------------------------------
     7301                   ; 1094 | sSimuFlag_Cnt  |= nTr_St_Info.nAutoDoorFlag ? 0x08 : 0x00;             
     7302                   ;----------------------------------------------------------------------
     7303 00000cab 08200046!        ldi       @_nTr_St_Info+70,r0
     7304 00000cac 6a050004         beq       L313
     7305                   ;*      Branch Occurs to L313 
     7306 00000cad 6a200002         bud       L314
     7307 00000cae 0c800000         nop
     7308 00000caf 0c800000         nop
     7309 00000cb0 50600008         ldiu      8,r0
     7310                   ;*      Branch Occurs to L314 
     7311 00000cb1          L313:        
     7312 00000cb1 50600000         ldiu      0,r0
     7313 00000cb2          L314:        
     7314 00000cb2 10400301         or        *+fp(1),r0
     7315 00000cb3 15400301         sti       r0,*+fp(1)
     7316                           .line   20
     7317                   ;----------------------------------------------------------------------
     7318                   ; 1096 | gp_WritingWord(0x41,sSimuFlag_Cnt);                                    
     7319                   ;----------------------------------------------------------------------
     7320 00000cb4 50010000         ldiu      r0,r1
     7321 00000cb5 50600041         ldiu      65,r0
     7322 00000cb6 0f210000         push      r1
     7323 00000cb7 0f200000         push      r0
     7324 00000cb8 6200004d'        call      _gp_WritingWord
     7325                                                           ; Call Occurs
     7326 00000cb9 18740002         subi      2,sp
     7327                           .line   22
     7328                   ;----------------------------------------------------------------------
     7329                   ; 1098 | gpTEST;                                                                
     7330                   ;----------------------------------------------------------------------
     7331 00000cba 5061006b         ldiu      107,r1
     7332 00000cbb 5060000f         ldiu      15,r0
     7333 00000cbc 0f210000         push      r1
     7334 00000cbd 0f200000         push      r0
     7335 00000cbe 6200004d'        call      _gp_WritingWord
     7336                                                           ; Call Occurs
     7337 00000cbf 18740002         subi      2,sp
     7338                           .line   24
     7339                   ;----------------------------------------------------------------------
     7340                   ; 1100 | gpTrNumCheckMs_Off; //                               
     7341                   ;----------------------------------------------------------------------
     7342 00000cc0 50610000         ldiu      0,r1
     7343 00000cc1 0f210000         push      r1
     7344 00000cc2 50600bb8         ldiu      3000,r0
TMS320C3x/4x COFF AssemblerVersion 5.11     Fri Sep 17 14:23:56 2010
Copyright (c) 1987-1999 Texas Instruments Incorporatedc:\lang\tms320c3x\511\bin\asm30.exe -l gpproface.asm gpproface.obj -tC:\Users\jds\AppData\Local\Temp\gpproface.tmp 

gpproface.asm                                                        PAGE  137

     7345 00000cc3 0f200000         push      r0
     7346 00000cc4 6200004d'        call      _gp_WritingWord
     7347                                                           ; Call Occurs
     7348 00000cc5 18740002         subi      2,sp
     7349                           .line   25
     7350                   ;----------------------------------------------------------------------
     7351                   ; 1101 | gpPattern_Off;                                                         
     7352                   ;----------------------------------------------------------------------
     7353 00000cc6 50610000         ldiu      0,r1
     7354 00000cc7 0f210000         push      r1
     7355 00000cc8 50600bba         ldiu      3002,r0
     7356 00000cc9 0f200000         push      r0
     7357 00000cca 6200004d'        call      _gp_WritingWord
     7358                                                           ; Call Occurs
     7359 00000ccb 18740002         subi      2,sp
     7360                           .line   28
     7361                   ;----------------------------------------------------------------------
     7362                   ; 1104 | break;                                                                 
     7363                   ; 1105 | case 0x5A:                                                             
     7364                   ;----------------------------------------------------------------------
     7365 00000ccc 6a0000f9         bu        L357
     7366                   ;*      Branch Occurs to L357 
     7367 00000ccd          L315:        
     7368                           .line   31
     7369                   ;----------------------------------------------------------------------
     7370                   ; 1107 | if(nTr_St_Info.nSimulationFlag) {gpPattern_ON; }                       
     7371                   ; 1108 | else                                                                   
     7372                   ;----------------------------------------------------------------------
     7373 00000ccd 08200043!        ldi       @_nTr_St_Info+67,r0
     7374 00000cce 6a250008         beqd      L318
     7375 00000ccf 0c800000         nop
     7376 00000cd0 52e00000         ldieq     0,r0
     7377 00000cd1 52e10bba         ldieq     3002,r1
     7378                   ;*      Branch Occurs to L318 
     7379 00000cd2 50600001         ldiu      1,r0
     7380 00000cd3 50610bba         ldiu      3002,r1
     7381 00000cd4 0f200000         push      r0
     7382 00000cd5 0f210000         push      r1
     7383 00000cd6 6200004d'        call      _gp_WritingWord
     7384                                                           ; Call Occurs
     7385 00000cd7 18740002         subi      2,sp
     7386 00000cd8 6a0000ed         bu        L357
     7387                   ;*      Branch Occurs to L357 
     7388                           .line   34
     7389                   ;----------------------------------------------------------------------
     7390                   ; 1110 | gpPattern_Off;                                                         
     7391                   ;----------------------------------------------------------------------
     7392 00000cd9          L318:        
     7393 00000cd9 0f200000         push      r0
     7394 00000cda 0f210000         push      r1
     7395 00000cdb 6200004d'        call      _gp_WritingWord
     7396                                                           ; Call Occurs
     7397 00000cdc 18740002         subi      2,sp
     7398                           .line   35
TMS320C3x/4x COFF AssemblerVersion 5.11     Fri Sep 17 14:23:56 2010
Copyright (c) 1987-1999 Texas Instruments Incorporatedc:\lang\tms320c3x\511\bin\asm30.exe -l gpproface.asm gpproface.obj -tC:\Users\jds\AppData\Local\Temp\gpproface.tmp 

gpproface.asm                                                        PAGE  138

     7399                   ;----------------------------------------------------------------------
     7400                   ; 1111 | nTr_St_Info.nPIBPatFlag = NOT(nTr_St_Info.nPIBPatFlag); // 
     7401                   ;     |                                                                        
     7402                   ;----------------------------------------------------------------------
     7403 00000cdd 50600001         ldiu      1,r0
     7404 00000cde 03200041!        andn      @_nTr_St_Info+65,r0
     7405 00000cdf 15200041!        sti       r0,@_nTr_St_Info+65
     7406                           .line   36
     7407                   ;----------------------------------------------------------------------
     7408                   ; 1112 | nSccSendFlag.nPIBPaten = 1;                                            
     7409                   ;----------------------------------------------------------------------
     7410 00000ce0 50600001         ldiu      1,r0
     7411 00000ce1 15200003!        sti       r0,@_nSccSendFlag+3
     7412                           .line   38
     7413                   ;----------------------------------------------------------------------
     7414                   ; 1114 | break;                                                                 
     7415                   ; 1115 | case 0x5D:                                                             
     7416                   ;----------------------------------------------------------------------
     7417 00000ce2 6a0000e3         bu        L357
     7418                   ;*      Branch Occurs to L357 
     7419 00000ce3          L319:        
     7420                           .line   41
     7421                   ;----------------------------------------------------------------------
     7422                   ; 1117 | if(nTr_St_Info.nSimulationFlag) {gpPattern_ON; }                       
     7423                   ; 1118 | else                                                                   
     7424                   ;----------------------------------------------------------------------
     7425 00000ce3 08200043!        ldi       @_nTr_St_Info+67,r0
     7426 00000ce4 6a250008         beqd      L322
     7427 00000ce5 0c800000         nop
     7428 00000ce6 52e00000         ldieq     0,r0
     7429 00000ce7 52e10bba         ldieq     3002,r1
     7430                   ;*      Branch Occurs to L322 
     7431 00000ce8 50600001         ldiu      1,r0
     7432 00000ce9 50610bba         ldiu      3002,r1
     7433 00000cea 0f200000         push      r0
     7434 00000ceb 0f210000         push      r1
     7435 00000cec 6200004d'        call      _gp_WritingWord
     7436                                                           ; Call Occurs
     7437 00000ced 18740002         subi      2,sp
     7438 00000cee 6a0000d7         bu        L357
     7439                   ;*      Branch Occurs to L357 
     7440                           .line   44
     7441                   ;----------------------------------------------------------------------
     7442                   ; 1120 | gpPattern_Off;                                                         
     7443                   ;----------------------------------------------------------------------
     7444 00000cef          L322:        
     7445 00000cef 0f200000         push      r0
     7446 00000cf0 0f210000         push      r1
     7447 00000cf1 6200004d'        call      _gp_WritingWord
     7448                                                           ; Call Occurs
     7449 00000cf2 18740002         subi      2,sp
     7450                           .line   45
     7451                   ;----------------------------------------------------------------------
     7452                   ; 1121 | nTr_St_Info.nDISFPatFlag = NOT(nTr_St_Info.nDISFPatFlag); //  
TMS320C3x/4x COFF AssemblerVersion 5.11     Fri Sep 17 14:23:56 2010
Copyright (c) 1987-1999 Texas Instruments Incorporatedc:\lang\tms320c3x\511\bin\asm30.exe -l gpproface.asm gpproface.obj -tC:\Users\jds\AppData\Local\Temp\gpproface.tmp 

gpproface.asm                                                        PAGE  139

     7453                   ;     |                                                                     
     7454                   ;----------------------------------------------------------------------
     7455 00000cf3 50600001         ldiu      1,r0
     7456 00000cf4 03200042!        andn      @_nTr_St_Info+66,r0
     7457 00000cf5 15200042!        sti       r0,@_nTr_St_Info+66
     7458                           .line   46
     7459                   ;----------------------------------------------------------------------
     7460                   ; 1122 | nSccSendFlag.nS_FDIPaten = 2;                                          
     7461                   ;----------------------------------------------------------------------
     7462 00000cf6 50600002         ldiu      2,r0
     7463 00000cf7 15200004!        sti       r0,@_nSccSendFlag+4
     7464                           .line   48
     7465                   ;----------------------------------------------------------------------
     7466                   ; 1124 | break;                                                                 
     7467                   ; 1125 | case 0x5B:                                                             
     7468                   ;----------------------------------------------------------------------
     7469 00000cf8 6a0000cd         bu        L357
     7470                   ;*      Branch Occurs to L357 
     7471 00000cf9          L323:        
     7472                           .line   51
     7473                   ;----------------------------------------------------------------------
     7474                   ; 1127 | if(nTr_St_Info.nStopPatNum) //      .
     7475                   ;----------------------------------------------------------------------
     7476 00000cf9 08200000!        ldi       @_nTr_St_Info+0,r0
     7477 00000cfa 6a25003f         beqd      L328
     7478 00000cfb 0c800000         nop
     7479 00000cfc 52e10001         ldieq     1,r1
     7480 00000cfd 52e00bb8         ldieq     3000,r0
     7481                   ;*      Branch Occurs to L328 
     7482                           .line   53
     7483                   ;----------------------------------------------------------------------
     7484                   ; 1129 | nTr_St_Info.nSimulationFlag = NOT(nTr_St_Info.nSimulationFlag); // 
     7485                   ;     |                                                                
     7486                   ;----------------------------------------------------------------------
     7487 00000cfe 50600001         ldiu      1,r0
     7488 00000cff 03200043!        andn      @_nTr_St_Info+67,r0
     7489 00000d00 15200043!        sti       r0,@_nTr_St_Info+67
     7490                           .line   54
     7491                   ;----------------------------------------------------------------------
     7492                   ; 1130 | nTr_St_Info.nAutoDoorFlag = NOT(nTr_St_Info.nAutoDoorFlag);
     7493                   ;     |  //                                                      
     7494                   ;----------------------------------------------------------------------
     7495 00000d01 50600001         ldiu      1,r0
     7496 00000d02 03200046!        andn      @_nTr_St_Info+70,r0
     7497 00000d03 15200046!        sti       r0,@_nTr_St_Info+70
     7498                           .line   56
     7499                   ;----------------------------------------------------------------------
     7500                   ; 1132 | if(!nTr_St_Info.nSimulationFlag)//                 
     7501                   ;----------------------------------------------------------------------
     7502 00000d04 08200043!        ldi       @_nTr_St_Info+67,r0
     7503 00000d05 6a060029         bne       L326
     7504                   ;*      Branch Occurs to L326 
     7505                           .line   59
     7506                   ;----------------------------------------------------------------------
TMS320C3x/4x COFF AssemblerVersion 5.11     Fri Sep 17 14:23:56 2010
Copyright (c) 1987-1999 Texas Instruments Incorporatedc:\lang\tms320c3x\511\bin\asm30.exe -l gpproface.asm gpproface.obj -tC:\Users\jds\AppData\Local\Temp\gpproface.tmp 

gpproface.asm                                                        PAGE  140

     7507                   ; 1135 | nTr_St_Info.nSimulationRun = FALSE;                                    
     7508                   ;----------------------------------------------------------------------
     7509 00000d06 50600000         ldiu      0,r0
     7510 00000d07 15200045!        sti       r0,@_nTr_St_Info+69
     7511                           .line   61
     7512                   ;----------------------------------------------------------------------
     7513                   ; 1137 | nTr_St_Info.nSpeed = 0;                                                
     7514                   ;----------------------------------------------------------------------
     7515 00000d08 15200047!        sti       r0,@_nTr_St_Info+71
     7516                           .line   62
     7517                   ;----------------------------------------------------------------------
     7518                   ; 1138 | nTr_St_Info.nDistance = 0;                                             
     7519                   ;----------------------------------------------------------------------
     7520 00000d09 1520004a!        sti       r0,@_nTr_St_Info+74
     7521                           .line   64
     7522                   ;----------------------------------------------------------------------
     7523                   ; 1140 | nTr_St_Info.nDoor = 1;                                                 
     7524                   ;----------------------------------------------------------------------
     7525 00000d0a 50600001         ldiu      1,r0
     7526 00000d0b 15200048!        sti       r0,@_nTr_St_Info+72
     7527                           .line   66
     7528                   ;----------------------------------------------------------------------
     7529                   ; 1142 | nTr_St_Info.nDoorOPenCnt = 0;                                          
     7530                   ;----------------------------------------------------------------------
     7531 00000d0c 50600000         ldiu      0,r0
     7532 00000d0d 15200049!        sti       r0,@_nTr_St_Info+73
     7533                           .line   68
     7534                   ;----------------------------------------------------------------------
     7535                   ; 1144 | nTr_St_Info.nStation_PointCnt = 0;                                     
     7536                   ;----------------------------------------------------------------------
     7537 00000d0e 15200003!        sti       r0,@_nTr_St_Info+3
     7538                           .line   69
     7539                   ;----------------------------------------------------------------------
     7540                   ; 1145 | nTr_St_Info.nStation_StartPointCnt = 0;                                
     7541                   ;----------------------------------------------------------------------
     7542 00000d0f 15200002!        sti       r0,@_nTr_St_Info+2
     7543                           .line   71
     7544                   ;----------------------------------------------------------------------
     7545                   ; 1147 | nSccSendFlag.nClean = 1; //              
     7546                   ;----------------------------------------------------------------------
     7547 00000d10 50600001         ldiu      1,r0
     7548 00000d11 15200002!        sti       r0,@_nSccSendFlag+2
     7549                           .line   72
     7550                   ;----------------------------------------------------------------------
     7551                   ; 1148 | nTr_St_Info.nClean_Flag = FALSE; //    flage
     7552                   ;     |  FALSE .                                                        
     7553                   ;----------------------------------------------------------------------
     7554 00000d12 50600000         ldiu      0,r0
     7555 00000d13 15200170!        sti       r0,@_nTr_St_Info+368
     7556                           .line   74
     7557                   ;----------------------------------------------------------------------
     7558                   ; 1150 | gp_WritingStr(300,15,(UCHAR *)"                              ");
     7559                   ;     |  //.                                                         
     7560                   ;----------------------------------------------------------------------
TMS320C3x/4x COFF AssemblerVersion 5.11     Fri Sep 17 14:23:56 2010
Copyright (c) 1987-1999 Texas Instruments Incorporatedc:\lang\tms320c3x\511\bin\asm30.exe -l gpproface.asm gpproface.obj -tC:\Users\jds\AppData\Local\Temp\gpproface.tmp 

gpproface.asm                                                        PAGE  141

     7561 00000d14 5021022a-        ldiu      @CL33,r1
     7562 00000d15 5062012c         ldiu      300,r2
     7563 00000d16 0f210000         push      r1
     7564 00000d17 5060000f         ldiu      15,r0
     7565 00000d18 0f200000         push      r0
     7566 00000d19 0f220000         push      r2
     7567 00000d1a 620000ba'        call      _gp_WritingStr
     7568                                                           ; Call Occurs
     7569 00000d1b 18740003         subi      3,sp
     7570                           .line   76
     7571                   ;----------------------------------------------------------------------
     7572                   ; 1152 | gpDISTANCE(nTr_St_Info.nDistance);                                     
     7573                   ;----------------------------------------------------------------------
     7574 00000d1c 5020004a!        ldiu      @_nTr_St_Info+74,r0
     7575 00000d1d 0f200000         push      r0
     7576 00000d1e 50610067         ldiu      103,r1
     7577 00000d1f 0f210000         push      r1
     7578 00000d20 62000000'        call      _gp_WritingDWord
     7579                                                           ; Call Occurs
     7580 00000d21 18740002         subi      2,sp
     7581                           .line   77
     7582                   ;----------------------------------------------------------------------
     7583                   ; 1153 | gpSPEED(nTr_St_Info.nSpeed);                                           
     7584                   ;----------------------------------------------------------------------
     7585 00000d22 50200047!        ldiu      @_nTr_St_Info+71,r0
     7586 00000d23 0f200000         push      r0
     7587 00000d24 50610066         ldiu      102,r1
     7588 00000d25 0f210000         push      r1
     7589 00000d26 6200004d'        call      _gp_WritingWord
     7590                                                           ; Call Occurs
     7591 00000d27 18740002         subi      2,sp
     7592                           .line   78
     7593                   ;----------------------------------------------------------------------
     7594                   ; 1154 | gpDOOROPEN;                                                            
     7595                   ; 1156 | else    //    .                      
     7596                   ;----------------------------------------------------------------------
     7597 00000d28 50600001         ldiu      1,r0
     7598 00000d29 0f200000         push      r0
     7599 00000d2a 50610042         ldiu      66,r1
     7600 00000d2b 0f210000         push      r1
     7601 00000d2c 6200004d'        call      _gp_WritingWord
     7602                                                           ; Call Occurs
     7603 00000d2d 18740002         subi      2,sp
     7604 00000d2e 6a000097         bu        L357
     7605                   ;*      Branch Occurs to L357 
     7606 00000d2f          L326:        
     7607                           .line   82
     7608                   ;----------------------------------------------------------------------
     7609                   ; 1158 | nTr_St_Info.nDoor = 1;                                                 
     7610                   ;----------------------------------------------------------------------
     7611 00000d2f 50600001         ldiu      1,r0
     7612 00000d30 15200048!        sti       r0,@_nTr_St_Info+72
     7613                           .line   84
     7614                   ;----------------------------------------------------------------------
TMS320C3x/4x COFF AssemblerVersion 5.11     Fri Sep 17 14:23:56 2010
Copyright (c) 1987-1999 Texas Instruments Incorporatedc:\lang\tms320c3x\511\bin\asm30.exe -l gpproface.asm gpproface.obj -tC:\Users\jds\AppData\Local\Temp\gpproface.tmp 

gpproface.asm                                                        PAGE  142

     7615                   ; 1160 | nTr_St_Info.nSpeed = 0;                                                
     7616                   ;----------------------------------------------------------------------
     7617 00000d31 50600000         ldiu      0,r0
     7618 00000d32 15200047!        sti       r0,@_nTr_St_Info+71
     7619                           .line   85
     7620                   ;----------------------------------------------------------------------
     7621                   ; 1161 | nTr_St_Info.nDistance = 0;                                             
     7622                   ;----------------------------------------------------------------------
     7623 00000d33 1520004a!        sti       r0,@_nTr_St_Info+74
     7624                           .line   87
     7625                   ;----------------------------------------------------------------------
     7626                   ; 1163 | nTr_St_Info.nDoor = 1;                                                 
     7627                   ;----------------------------------------------------------------------
     7628 00000d34 50600001         ldiu      1,r0
     7629 00000d35 15200048!        sti       r0,@_nTr_St_Info+72
     7630                           .line   89
     7631                   ;----------------------------------------------------------------------
     7632                   ; 1165 | nTr_St_Info.nDoorOPenCnt = 0;                                          
     7633                   ;----------------------------------------------------------------------
     7634 00000d36 50600000         ldiu      0,r0
     7635 00000d37 15200049!        sti       r0,@_nTr_St_Info+73
     7636                           .line   91
     7637                   ;----------------------------------------------------------------------
     7638                   ; 1167 | nTr_St_Info.nStation_PointCnt = 0;                                     
     7639                   ;----------------------------------------------------------------------
     7640 00000d38 15200003!        sti       r0,@_nTr_St_Info+3
     7641                           .line   92
     7642                   ;----------------------------------------------------------------------
     7643                   ; 1168 | nTr_St_Info.nStation_StartPointCnt = 0;                                
     7644                   ;----------------------------------------------------------------------
     7645 00000d39 15200002!        sti       r0,@_nTr_St_Info+2
     7646                           .line   94
     7647                   ;----------------------------------------------------------------------
     7648                   ; 1170 | DP_STNAME_INFO_UP();                                                   
     7649                   ;----------------------------------------------------------------------
     7650 00000d3a 62000000!        call      _DP_STNAME_INFO_UP
     7651                                                           ; Call Occurs
     7652 00000d3b 6a00008a         bu        L357
     7653                   ;*      Branch Occurs to L357 
     7654                           .line   98
     7655                   ;----------------------------------------------------------------------
     7656                   ; 1174 | else{gpTrNumCheckMs_ON; } //                     
     7657                   ;----------------------------------------------------------------------
     7658 00000d3c          L328:        
     7659 00000d3c 0f210000         push      r1
     7660 00000d3d 0f200000         push      r0
     7661 00000d3e 6200004d'        call      _gp_WritingWord
     7662                                                           ; Call Occurs
     7663 00000d3f 18740002         subi      2,sp
     7664                           .line   100
     7665                   ;----------------------------------------------------------------------
     7666                   ; 1176 | break;                                                                 
     7667                   ; 1177 | case 0x5C:                                                             
     7668                   ;----------------------------------------------------------------------
TMS320C3x/4x COFF AssemblerVersion 5.11     Fri Sep 17 14:23:56 2010
Copyright (c) 1987-1999 Texas Instruments Incorporatedc:\lang\tms320c3x\511\bin\asm30.exe -l gpproface.asm gpproface.obj -tC:\Users\jds\AppData\Local\Temp\gpproface.tmp 

gpproface.asm                                                        PAGE  143

     7669 00000d40 6a000085         bu        L357
     7670                   ;*      Branch Occurs to L357 
     7671 00000d41          L329:        
     7672                           .line   102
     7673                   ;----------------------------------------------------------------------
     7674                   ; 1178 | nTr_St_Info.nAutoDoorFlag = NOT(nTr_St_Info.nAutoDoorFlag);
     7675                   ;     |  //                                                      
     7676                   ;----------------------------------------------------------------------
     7677 00000d41 50600001         ldiu      1,r0
     7678 00000d42 03200046!        andn      @_nTr_St_Info+70,r0
     7679 00000d43 15200046!        sti       r0,@_nTr_St_Info+70
     7680                           .line   103
     7681                   ;----------------------------------------------------------------------
     7682                   ; 1179 | break;                                                                 
     7683                   ; 1181 | case 0x5E:                                                             
     7684                   ;----------------------------------------------------------------------
     7685 00000d44 6a000081         bu        L357
     7686                   ;*      Branch Occurs to L357 
     7687 00000d45          L330:        
     7688                           .line   106
     7689                   ;----------------------------------------------------------------------
     7690                   ; 1182 | nTr_St_Info.nSpeed+= 10;                                        // 
     7691                   ;     |  +                                                                     
     7692                   ;----------------------------------------------------------------------
     7693 00000d45 5060000a         ldiu      10,r0
     7694 00000d46 02200047!        addi      @_nTr_St_Info+71,r0   ; Unsigned
     7695 00000d47 15200047!        sti       r0,@_nTr_St_Info+71
     7696                           .line   107
     7697                   ;----------------------------------------------------------------------
     7698                   ; 1183 | if(nTr_St_Info.nSpeed >= 200) nTr_St_Info.nSpeed = 200;                
     7699                   ;----------------------------------------------------------------------
     7700 00000d48 04e000c8         cmpi      200,r0
     7701 00000d49 6a010002         blo       L332
     7702                   ;*      Branch Occurs to L332 
     7703 00000d4a 506000c8         ldiu      200,r0
     7704 00000d4b 15200047!        sti       r0,@_nTr_St_Info+71
     7705 00000d4c          L332:        
     7706                           .line   108
     7707                   ;----------------------------------------------------------------------
     7708                   ; 1184 | gpSPEED(nTr_St_Info.nSpeed);                                           
     7709                   ;----------------------------------------------------------------------
     7710 00000d4c 50200047!        ldiu      @_nTr_St_Info+71,r0
     7711 00000d4d 50610066         ldiu      102,r1
     7712 00000d4e 0f200000         push      r0
     7713 00000d4f 0f210000         push      r1
     7714 00000d50 6200004d'        call      _gp_WritingWord
     7715                                                           ; Call Occurs
     7716 00000d51 18740002         subi      2,sp
     7717                           .line   110
     7718                   ;----------------------------------------------------------------------
     7719                   ; 1186 | break;                                                                 
     7720                   ; 1187 | case 0x5F: //  -                                                   
     7721                   ;----------------------------------------------------------------------
     7722 00000d52 6a000073         bu        L357
TMS320C3x/4x COFF AssemblerVersion 5.11     Fri Sep 17 14:23:56 2010
Copyright (c) 1987-1999 Texas Instruments Incorporatedc:\lang\tms320c3x\511\bin\asm30.exe -l gpproface.asm gpproface.obj -tC:\Users\jds\AppData\Local\Temp\gpproface.tmp 

gpproface.asm                                                        PAGE  144

     7723                   ;*      Branch Occurs to L357 
     7724 00000d53          L333:        
     7725                           .line   112
     7726                   ;----------------------------------------------------------------------
     7727                   ; 1188 | if(nTr_St_Info.nSpeed) { nTr_St_Info.nSpeed-= 10;}                     
     7728                   ;----------------------------------------------------------------------
     7729 00000d53 08200047!        ldi       @_nTr_St_Info+71,r0
     7730 00000d54 6a050003         beq       L335
     7731                   ;*      Branch Occurs to L335 
     7732 00000d55 5060000a         ldiu      10,r0
     7733 00000d56 19a00047!        subri     @_nTr_St_Info+71,r0   ; Unsigned
     7734 00000d57 15200047!        sti       r0,@_nTr_St_Info+71
     7735 00000d58          L335:        
     7736                           .line   113
     7737                   ;----------------------------------------------------------------------
     7738                   ; 1189 | gpSPEED(nTr_St_Info.nSpeed);                                           
     7739                   ;----------------------------------------------------------------------
     7740 00000d58 50210047!        ldiu      @_nTr_St_Info+71,r1
     7741 00000d59 50600066         ldiu      102,r0
     7742 00000d5a 0f210000         push      r1
     7743 00000d5b 0f200000         push      r0
     7744 00000d5c 6200004d'        call      _gp_WritingWord
     7745                                                           ; Call Occurs
     7746 00000d5d 18740002         subi      2,sp
     7747                           .line   115
     7748                   ;----------------------------------------------------------------------
     7749                   ; 1191 | break;                                                                 
     7750                   ; 1192 | case 0x60: //  ON                                                
     7751                   ;----------------------------------------------------------------------
     7752 00000d5e 6a000067         bu        L357
     7753                   ;*      Branch Occurs to L357 
     7754 00000d5f          L336:        
     7755                           .line   117
     7756                   ;----------------------------------------------------------------------
     7757                   ; 1193 | nTr_St_Info.nDoor =1;                                                  
     7758                   ;----------------------------------------------------------------------
     7759 00000d5f 50600001         ldiu      1,r0
     7760 00000d60 15200048!        sti       r0,@_nTr_St_Info+72
     7761                           .line   118
     7762                   ;----------------------------------------------------------------------
     7763                   ; 1194 | gpDOOROPEN;                                                            
     7764                   ;----------------------------------------------------------------------
     7765 00000d61 50610042         ldiu      66,r1
     7766 00000d62 0f200000         push      r0
     7767 00000d63 0f210000         push      r1
     7768 00000d64 6200004d'        call      _gp_WritingWord
     7769                                                           ; Call Occurs
     7770 00000d65 18740002         subi      2,sp
     7771                           .line   119
     7772                   ;----------------------------------------------------------------------
     7773                   ; 1195 | break;
     7774                   ;     |                  // DoorOpen                                           
     7775                   ; 1196 | case 0x61: // OFF                                                
     7776                   ;----------------------------------------------------------------------
TMS320C3x/4x COFF AssemblerVersion 5.11     Fri Sep 17 14:23:56 2010
Copyright (c) 1987-1999 Texas Instruments Incorporatedc:\lang\tms320c3x\511\bin\asm30.exe -l gpproface.asm gpproface.obj -tC:\Users\jds\AppData\Local\Temp\gpproface.tmp 

gpproface.asm                                                        PAGE  145

     7777 00000d66 6a00005f         bu        L357
     7778                   ;*      Branch Occurs to L357 
     7779 00000d67          L337:        
     7780                           .line   121
     7781                   ;----------------------------------------------------------------------
     7782                   ; 1197 | nTr_St_Info.nDoor =0;                                                  
     7783                   ;----------------------------------------------------------------------
     7784 00000d67 50600000         ldiu      0,r0
     7785 00000d68 15200048!        sti       r0,@_nTr_St_Info+72
     7786                           .line   122
     7787                   ;----------------------------------------------------------------------
     7788                   ; 1198 | gpDOORCLOSE;                                                           
     7789                   ;----------------------------------------------------------------------
     7790 00000d69 50610042         ldiu      66,r1
     7791 00000d6a 0f200000         push      r0
     7792 00000d6b 0f210000         push      r1
     7793 00000d6c 6200004d'        call      _gp_WritingWord
     7794                                                           ; Call Occurs
     7795 00000d6d 18740002         subi      2,sp
     7796                           .line   123
     7797                   ;----------------------------------------------------------------------
     7798                   ; 1199 | break;          // DoorClose                                           
     7799                   ; 1201 | case 132: //                                   
     7800                   ;----------------------------------------------------------------------
     7801 00000d6e 6a000057         bu        L357
     7802                   ;*      Branch Occurs to L357 
     7803 00000d6f          L338:        
     7804                           .line   127
     7805                   ;----------------------------------------------------------------------
     7806                   ; 1203 | nSelect_Button.nScreenSetNum = 4;                                      
     7807                   ;----------------------------------------------------------------------
     7808 00000d6f 50600004         ldiu      4,r0
     7809 00000d70 15200206-        sti       r0,@_nSelect_Button+5
     7810                           .line   128
     7811                   ;----------------------------------------------------------------------
     7812                   ; 1204 | nTr_St_Info.nSinmuScrCnt= 0;                                           
     7813                   ;----------------------------------------------------------------------
     7814 00000d71 50600000         ldiu      0,r0
     7815 00000d72 1520004b!        sti       r0,@_nTr_St_Info+75
     7816                           .line   129
     7817                   ;----------------------------------------------------------------------
     7818                   ; 1205 | nTr_St_Info.nAutoManuFlagCnt = 0;                                      
     7819                   ;----------------------------------------------------------------------
     7820 00000d73 15200177!        sti       r0,@_nTr_St_Info+375
     7821                           .line   131
     7822                   ;----------------------------------------------------------------------
     7823                   ; 1207 | sSimuFlag_Cnt  |= nTr_St_Info.nPIBPatFlag ? 0x01 : 0x00;               
     7824                   ;----------------------------------------------------------------------
     7825 00000d74 08200041!        ldi       @_nTr_St_Info+65,r0
     7826 00000d75 6a050004         beq       L340
     7827                   ;*      Branch Occurs to L340 
     7828 00000d76 6a200002         bud       L341
     7829 00000d77 0c800000         nop
     7830 00000d78 0c800000         nop
TMS320C3x/4x COFF AssemblerVersion 5.11     Fri Sep 17 14:23:56 2010
Copyright (c) 1987-1999 Texas Instruments Incorporatedc:\lang\tms320c3x\511\bin\asm30.exe -l gpproface.asm gpproface.obj -tC:\Users\jds\AppData\Local\Temp\gpproface.tmp 

gpproface.asm                                                        PAGE  146

     7831 00000d79 50600001         ldiu      1,r0
     7832                   ;*      Branch Occurs to L341 
     7833 00000d7a          L340:        
     7834 00000d7a 50600000         ldiu      0,r0
     7835 00000d7b          L341:        
     7836 00000d7b 10400301         or        *+fp(1),r0
     7837 00000d7c 15400301         sti       r0,*+fp(1)
     7838                           .line   132
     7839                   ;----------------------------------------------------------------------
     7840                   ; 1208 | sSimuFlag_Cnt  |= nTr_St_Info.nDISFPatFlag ? 0x04 : 0x00;              
     7841                   ;----------------------------------------------------------------------
     7842 00000d7d 08200042!        ldi       @_nTr_St_Info+66,r0
     7843 00000d7e 6a050004         beq       L343
     7844                   ;*      Branch Occurs to L343 
     7845 00000d7f 6a200002         bud       L344
     7846 00000d80 0c800000         nop
     7847 00000d81 0c800000         nop
     7848 00000d82 50600004         ldiu      4,r0
     7849                   ;*      Branch Occurs to L344 
     7850 00000d83          L343:        
     7851 00000d83 50600000         ldiu      0,r0
     7852 00000d84          L344:        
     7853 00000d84 10400301         or        *+fp(1),r0
     7854 00000d85 15400301         sti       r0,*+fp(1)
     7855                           .line   133
     7856                   ;----------------------------------------------------------------------
     7857                   ; 1209 | sSimuFlag_Cnt  |= nTr_St_Info.nSimulationFlag ? 0x02 : 0x00;           
     7858                   ;----------------------------------------------------------------------
     7859 00000d86 08200043!        ldi       @_nTr_St_Info+67,r0
     7860 00000d87 6a050004         beq       L346
     7861                   ;*      Branch Occurs to L346 
     7862 00000d88 6a200002         bud       L347
     7863 00000d89 0c800000         nop
     7864 00000d8a 0c800000         nop
     7865 00000d8b 50600002         ldiu      2,r0
     7866                   ;*      Branch Occurs to L347 
     7867 00000d8c          L346:        
     7868 00000d8c 50600000         ldiu      0,r0
     7869 00000d8d          L347:        
     7870 00000d8d 10400301         or        *+fp(1),r0
     7871 00000d8e 15400301         sti       r0,*+fp(1)
     7872                           .line   134
     7873                   ;----------------------------------------------------------------------
     7874                   ; 1210 | sSimuFlag_Cnt  |= nTr_St_Info.nAutoDoorFlag ? 0x08 : 0x00;             
     7875                   ;----------------------------------------------------------------------
     7876 00000d8f 08200046!        ldi       @_nTr_St_Info+70,r0
     7877 00000d90 6a050004         beq       L349
     7878                   ;*      Branch Occurs to L349 
     7879 00000d91 6a200002         bud       L350
     7880 00000d92 0c800000         nop
     7881 00000d93 0c800000         nop
     7882 00000d94 50600008         ldiu      8,r0
     7883                   ;*      Branch Occurs to L350 
     7884 00000d95          L349:        
TMS320C3x/4x COFF AssemblerVersion 5.11     Fri Sep 17 14:23:56 2010
Copyright (c) 1987-1999 Texas Instruments Incorporatedc:\lang\tms320c3x\511\bin\asm30.exe -l gpproface.asm gpproface.obj -tC:\Users\jds\AppData\Local\Temp\gpproface.tmp 

gpproface.asm                                                        PAGE  147

     7885 00000d95 50600000         ldiu      0,r0
     7886 00000d96          L350:        
     7887 00000d96 10400301         or        *+fp(1),r0
     7888 00000d97 15400301         sti       r0,*+fp(1)
     7889                           .line   136
     7890                   ;----------------------------------------------------------------------
     7891                   ; 1212 | gp_WritingWord(0x41,sSimuFlag_Cnt);                                    
     7892                   ;----------------------------------------------------------------------
     7893 00000d98 50610041         ldiu      65,r1
     7894 00000d99 0f200000         push      r0
     7895 00000d9a 0f210000         push      r1
     7896 00000d9b 6200004d'        call      _gp_WritingWord
     7897                                                           ; Call Occurs
     7898 00000d9c 18740002         subi      2,sp
     7899                           .line   138
     7900                   ;----------------------------------------------------------------------
     7901                   ; 1214 | gpTEST;                                                                
     7902                   ;----------------------------------------------------------------------
     7903 00000d9d 5061006b         ldiu      107,r1
     7904 00000d9e 5060000f         ldiu      15,r0
     7905 00000d9f 0f210000         push      r1
     7906 00000da0 0f200000         push      r0
     7907 00000da1 6200004d'        call      _gp_WritingWord
     7908                                                           ; Call Occurs
     7909 00000da2 18740002         subi      2,sp
     7910                           .line   140
     7911                   ;----------------------------------------------------------------------
     7912                   ; 1216 | gpTrNumCheckMs_Off;                                                    
     7913                   ;----------------------------------------------------------------------
     7914 00000da3 50610000         ldiu      0,r1
     7915 00000da4 0f210000         push      r1
     7916 00000da5 50600bb8         ldiu      3000,r0
     7917 00000da6 0f200000         push      r0
     7918 00000da7 6200004d'        call      _gp_WritingWord
     7919                                                           ; Call Occurs
     7920 00000da8 18740002         subi      2,sp
     7921                           .line   141
     7922                   ;----------------------------------------------------------------------
     7923                   ; 1217 | gpPattern_Off;                                                         
     7924                   ;----------------------------------------------------------------------
     7925 00000da9 50600bba         ldiu      3002,r0
     7926 00000daa 50610000         ldiu      0,r1
     7927 00000dab 0f210000         push      r1
     7928 00000dac 0f200000         push      r0
     7929 00000dad 6200004d'        call      _gp_WritingWord
     7930                                                           ; Call Occurs
     7931 00000dae 18740002         subi      2,sp
     7932                           .line   143
     7933                   ;----------------------------------------------------------------------
     7934                   ; 1219 | break;                                                                 
     7935                   ;----------------------------------------------------------------------
     7936 00000daf 6a000016         bu        L357
     7937                   ;*      Branch Occurs to L357 
     7938 00000db0          L352:        
TMS320C3x/4x COFF AssemblerVersion 5.11     Fri Sep 17 14:23:56 2010
Copyright (c) 1987-1999 Texas Instruments Incorporatedc:\lang\tms320c3x\511\bin\asm30.exe -l gpproface.asm gpproface.obj -tC:\Users\jds\AppData\Local\Temp\gpproface.tmp 

gpproface.asm                                                        PAGE  148

     7939                           .line   5
     7940 00000db0 50510b02         ldiu      *-fp(2),ir0
     7941 00000db1 04f10037         cmpi      55,ir0
     7942 00000db2 6a05fed0         beq       L301
     7943                   ;*      Branch Occurs to L301 
     7944 00000db3 5060005a         ldiu      90,r0
     7945 00000db4 19800011         subri     ir0,r0
     7946 00000db5 04e00007         cmpi      7,r0
     7947 00000db6 6a020003         bls       L356
     7948                   ;*      Branch Occurs to L356 
     7949 00000db7 04f10084         cmpi      132,ir0
     7950 00000db8 6a05ffb6         beq       L338
     7951                   ;*      Branch Occurs to L338 
     7952 00000db9 6a00000c         bu        L357
     7953                   ;*      Branch Occurs to L357 
     7954 00000dba          L356:        
     7955 00000dba 1871005a         subi      90,ir0                ; Unsigned
     7956 00000dbb 5028022b-        ldiu      @CL34,ar0
     7957 00000dbc 50404000         ldiu      *+ar0(ir0),r0
     7958 00000dbd 68000000         bu        r0
     7959                   
     7960 00000dbe                  .sect   ".text"
     7961 00000dbe 00000ccd'SW2:    .word   L315    ; 90
     7962 00000dbf 00000cf9'        .word   L323    ; 91
     7963 00000dc0 00000d41'        .word   L329    ; 92
     7964 00000dc1 00000ce3'        .word   L319    ; 93
     7965 00000dc2 00000d45'        .word   L330    ; 94
     7966 00000dc3 00000d53'        .word   L333    ; 95
     7967 00000dc4 00000d5f'        .word   L336    ; 96
     7968 00000dc5 00000d67'        .word   L337    ; 97
     7969 00000dc6                  .sect   ".text"
     7970                   ;*      Branch Occurs to r0 
     7971 00000dc6          L357:        
     7972                           .line   146
     7973 00000dc6 50530b01         ldiu      *-fp(1),bk
     7974 00000dc7 504bc300         ldiu      *fp,fp
     7975 00000dc8 18740003         subi      3,sp
     7976 00000dc9 68000013         bu        bk
     7977                   ;*      Branch Occurs to bk 
     7978                           .endfunc        1222,000000000h,1
     7979                   
     7980                   
     7981                   
     7982 0000001b                  .sect   ".cinit"
     7983 0000001b 00000001         .field          1,32
     7984 0000001c 00000009-        .field          _d_gpNowPoint+0,32
     7985 0000001d 00000000         .field          0,32            ; _d_gpNowPoint @ 0
     7986                   
     7987 00000dca                  .sect   ".text"
     7988                   
     7989                           .global _d_gpNowPoint
     7990 00000009                  .bss    _d_gpNowPoint,1
     7991                           .sym    _d_gpNowPoint,_d_gpNowPoint,12,2,32
     7992 00000dca                  .sect    ".text"
TMS320C3x/4x COFF AssemblerVersion 5.11     Fri Sep 17 14:23:56 2010
Copyright (c) 1987-1999 Texas Instruments Incorporatedc:\lang\tms320c3x\511\bin\asm30.exe -l gpproface.asm gpproface.obj -tC:\Users\jds\AppData\Local\Temp\gpproface.tmp 

gpproface.asm                                                        PAGE  149

     7993                   
     7994                           .global _GP_POINT_SCREEN
     7995                           .sym    _GP_POINT_SCREEN,_GP_POINT_SCREEN,32,2,0
     7996                           .func   1227
     7997                   ;******************************************************************************
     7998                   ;* FUNCTION NAME: _GP_POINT_SCREEN                                            *
     7999                   ;*                                                                            *
     8000                   ;*   Architecture       : TMS320C30                                           *
     8001                   ;*   Calling Convention : Stack Parameter Convention                          *
     8002                   ;*   Function Uses Regs : r0,r1,fp,sp,st                                      *
     8003                   ;*   Regs Saved         :                                                     *
     8004                   ;*   Stack Frame        : Full (w/ debug)                                     *
     8005                   ;*   Total Frame Size   : 2 Call + 1 Parm + 0 Auto + 0 SOE = 3 words          *
     8006                   ;******************************************************************************
     8007 00000dca          _GP_POINT_SCREEN:
     8008                           .sym    _nScreenInf,-2,12,9,32
     8009                           .line   1
     8010                   ;----------------------------------------------------------------------
     8011                   ; 1227 | void GP_POINT_SCREEN(UCHAR nScreenInf)                                 
     8012                   ;----------------------------------------------------------------------
     8013                           .line   2
     8014                   ;----------------------------------------------------------------------
     8015                   ; 1229 | switch(nScreenInf)                                                     
     8016                   ; 1231 | case 0x36: //                                              
     8017                   ;----------------------------------------------------------------------
     8018 00000dca 6a200096         bud       L387
     8019 00000dcb 0f2b0000         push      fp
     8020 00000dcc 500b0014         ldiu      sp,fp
     8021 00000dcd 50400b02         ldiu      *-fp(2),r0
     8022                   ;*      Branch Occurs to L387 
     8023 00000dce          L360:        
     8024                           .line   9
     8025                   ;----------------------------------------------------------------------
     8026                   ; 1235 | if(nDi_Check.nDoor.nFlag) {gpSPOT; }    //     
     8027                   ;     |     .                                        
     8028                   ;----------------------------------------------------------------------
     8029 00000dce 0820000f!        ldi       @_nDi_Check+15,r0
     8030 00000dcf 6a250008         beqd      L363
     8031 00000dd0 0c800000         nop
     8032 00000dd1 52e10073         ldieq     115,r1
     8033 00000dd2 52e0000f         ldieq     15,r0
     8034                   ;*      Branch Occurs to L363 
     8035 00000dd3 5061006e         ldiu      110,r1
     8036 00000dd4 5060000f         ldiu      15,r0
     8037 00000dd5 0f210000         push      r1
     8038 00000dd6 0f200000         push      r0
     8039 00000dd7 6200004d'        call      _gp_WritingWord
     8040                                                           ; Call Occurs
     8041 00000dd8 18740002         subi      2,sp
     8042 00000dd9 6a000004         bu        L364
     8043                   ;*      Branch Occurs to L364 
     8044                           .line   10
     8045                   ;----------------------------------------------------------------------
     8046                   ; 1236 | else {gpSPOT2; }                                                       
TMS320C3x/4x COFF AssemblerVersion 5.11     Fri Sep 17 14:23:56 2010
Copyright (c) 1987-1999 Texas Instruments Incorporatedc:\lang\tms320c3x\511\bin\asm30.exe -l gpproface.asm gpproface.obj -tC:\Users\jds\AppData\Local\Temp\gpproface.tmp 

gpproface.asm                                                        PAGE  150

     8047                   ;----------------------------------------------------------------------
     8048 00000dda          L363:        
     8049 00000dda 0f210000         push      r1
     8050 00000ddb 0f200000         push      r0
     8051 00000ddc 6200004d'        call      _gp_WritingWord
     8052                                                           ; Call Occurs
     8053 00000ddd 18740002         subi      2,sp
     8054 00000dde          L364:        
     8055                           .line   12
     8056                   ;----------------------------------------------------------------------
     8057                   ; 1238 | gpSPOTINIT; gpSPOTEN;                                                  
     8058                   ;----------------------------------------------------------------------
     8059 00000dde 50600000         ldiu      0,r0
     8060 00000ddf 50610046         ldiu      70,r1
     8061 00000de0 0f200000         push      r0
     8062 00000de1 0f210000         push      r1
     8063 00000de2 6200004d'        call      _gp_WritingWord
     8064                                                           ; Call Occurs
     8065 00000de3 18740002         subi      2,sp
     8066 00000de4 50600000         ldiu      0,r0
     8067 00000de5 50610049         ldiu      73,r1
     8068 00000de6 0f200000         push      r0
     8069 00000de7 0f210000         push      r1
     8070 00000de8 6200004d'        call      _gp_WritingWord
     8071                                                           ; Call Occurs
     8072 00000de9 18740002         subi      2,sp
     8073 00000dea 50600001         ldiu      1,r0
     8074 00000deb 50610047         ldiu      71,r1
     8075 00000dec 0f200000         push      r0
     8076 00000ded 0f210000         push      r1
     8077 00000dee 6200004d'        call      _gp_WritingWord
     8078                                                           ; Call Occurs
     8079 00000def 18740002         subi      2,sp
     8080                           .line   14
     8081                   ;----------------------------------------------------------------------
     8082                   ; 1240 | nTr_St_Info.nStation_PointCntRe = nTr_St_Info.nStation_PointCnt;       
     8083                   ;----------------------------------------------------------------------
     8084 00000df0 50200003!        ldiu      @_nTr_St_Info+3,r0
     8085 00000df1 15200004!        sti       r0,@_nTr_St_Info+4
     8086                           .line   16
     8087                   ;----------------------------------------------------------------------
     8088                   ; 1242 | d_gpNowPoint = nTr_St_Info.nStation_PointCntRe;                        
     8089                   ;----------------------------------------------------------------------
     8090 00000df2 15200009-        sti       r0,@_d_gpNowPoint+0
     8091                           .line   19
     8092                   ;----------------------------------------------------------------------
     8093                   ; 1245 | GP_POINT_ST_PRO(nTr_St_Info.nStation_PointCnt);                        
     8094                   ;----------------------------------------------------------------------
     8095 00000df3 0f200000         push      r0
     8096 00000df4 62001061'        call      _GP_POINT_ST_PRO
     8097                                                           ; Call Occurs
     8098 00000df5 18740001         subi      1,sp
     8099                           .line   21
     8100                   ;----------------------------------------------------------------------
TMS320C3x/4x COFF AssemblerVersion 5.11     Fri Sep 17 14:23:56 2010
Copyright (c) 1987-1999 Texas Instruments Incorporatedc:\lang\tms320c3x\511\bin\asm30.exe -l gpproface.asm gpproface.obj -tC:\Users\jds\AppData\Local\Temp\gpproface.tmp 

gpproface.asm                                                        PAGE  151

     8101                   ; 1247 | nSelect_Button.nScreenSetNum = 5;                                      
     8102                   ; 1248 |  //                                              
     8103                   ;----------------------------------------------------------------------
     8104 00000df6 50600005         ldiu      5,r0
     8105 00000df7 15200206-        sti       r0,@_nSelect_Button+5
     8106                           .line   23
     8107                   ;----------------------------------------------------------------------
     8108                   ; 1249 | if(WORD_L(nTr_St_Info.nStopPatNum) && (WORD_L(nTr_St_Info.nSimulationFl
     8109                   ;     | ag)|| nTr_St_Info.nAutoManuFlag)){                                     
     8110                   ;----------------------------------------------------------------------
     8111 00000df8 506000ff         ldiu      255,r0
     8112 00000df9 1a200000!        tstb      @_nTr_St_Info+0,r0
     8113 00000dfa 6a05000b         beq       L368
     8114                   ;*      Branch Occurs to L368 
     8115 00000dfb 1a200043!        tstb      @_nTr_St_Info+67,r0
     8116 00000dfc 6a060002         bne       L367
     8117                   ;*      Branch Occurs to L367 
     8118 00000dfd 08200176!        ldi       @_nTr_St_Info+374,r0
     8119 00000dfe 6a050007         beq       L368
     8120                   ;*      Branch Occurs to L368 
     8121 00000dff          L367:        
     8122                           .line   24
     8123                   ;----------------------------------------------------------------------
     8124                   ; 1250 | gpStPointSet_Off;                                                      
     8125                   ; 1252 | else{                                                                  
     8126                   ;----------------------------------------------------------------------
     8127 00000dff 50610000         ldiu      0,r1
     8128 00000e00 50600bb9         ldiu      3001,r0
     8129 00000e01 0f210000         push      r1
     8130 00000e02 0f200000         push      r0
     8131 00000e03 6200004d'        call      _gp_WritingWord
     8132                                                           ; Call Occurs
     8133 00000e04 18740002         subi      2,sp
     8134 00000e05 6a00006e         bu        L391
     8135                   ;*      Branch Occurs to L391 
     8136 00000e06          L368:        
     8137                           .line   27
     8138                   ;----------------------------------------------------------------------
     8139                   ; 1253 | gpStPointSet_ON;;                                                      
     8140                   ;----------------------------------------------------------------------
     8141 00000e06 50610001         ldiu      1,r1
     8142 00000e07 50600bb9         ldiu      3001,r0
     8143 00000e08 0f210000         push      r1
     8144 00000e09 0f200000         push      r0
     8145 00000e0a 6200004d'        call      _gp_WritingWord
     8146                                                           ; Call Occurs
     8147 00000e0b 18740002         subi      2,sp
     8148                           .line   30
     8149                   ;----------------------------------------------------------------------
     8150                   ; 1256 | break;                                                                 
     8151                   ; 1257 |         ///////////////////////////////////////////////////////////////
     8152                   ;     | ///                                                            
     8153                   ; 1258 | case 0x46:                                                             
     8154                   ;----------------------------------------------------------------------
TMS320C3x/4x COFF AssemblerVersion 5.11     Fri Sep 17 14:23:56 2010
Copyright (c) 1987-1999 Texas Instruments Incorporatedc:\lang\tms320c3x\511\bin\asm30.exe -l gpproface.asm gpproface.obj -tC:\Users\jds\AppData\Local\Temp\gpproface.tmp 

gpproface.asm                                                        PAGE  152

     8155 00000e0c 6a000067         bu        L391
     8156                   ;*      Branch Occurs to L391 
     8157                           .line   33
     8158                   ;----------------------------------------------------------------------
     8159                   ; 1259 | gpSPOTDIS;                                                             
     8160                   ;----------------------------------------------------------------------
     8161 00000e0d          L370:        
     8162 00000e0d 0f200000         push      r0
     8163 00000e0e 0f210000         push      r1
     8164 00000e0f 6200004d'        call      _gp_WritingWord
     8165                                                           ; Call Occurs
     8166 00000e10 18740002         subi      2,sp
     8167                           .line   34
     8168                   ;----------------------------------------------------------------------
     8169                   ; 1260 | if(WORD_L(nTr_St_Info.nStopPatNum))                                    
     8170                   ;----------------------------------------------------------------------
     8171 00000e11 506000ff         ldiu      255,r0
     8172 00000e12 1a200000!        tstb      @_nTr_St_Info+0,r0
     8173 00000e13 6a050015         beq       L375
     8174                   ;*      Branch Occurs to L375 
     8175                           .line   36
     8176                   ;----------------------------------------------------------------------
     8177                   ; 1262 | nSelect_Button.nScreenRxTime = 2000;                                   
     8178                   ;----------------------------------------------------------------------
     8179 00000e14 506007d0         ldiu      2000,r0
     8180 00000e15 15200207-        sti       r0,@_nSelect_Button+6
     8181                           .line   37
     8182                   ;----------------------------------------------------------------------
     8183                   ; 1263 | if(WORD_L(nTr_St_Info.nStation_PointCntRe) < WORD_L(nTr_St_Info.nStatio
     8184                   ;     | n_MaxCnt)-1)                                                           
     8185                   ;----------------------------------------------------------------------
     8186 00000e16 506100ff         ldiu      255,r1
     8187 00000e17 506000ff         ldiu      255,r0
     8188 00000e18 02a10004!        and       @_nTr_St_Info+4,r1
     8189 00000e19 02a00001!        and       @_nTr_St_Info+1,r0
     8190 00000e1a 18600001         subi      1,r0                  ; Unsigned
     8191 00000e1b 23800100         cmpi3     r0,r1
     8192 00000e1c 6a040004         bhs       L373
     8193                   ;*      Branch Occurs to L373 
     8194                           .line   39
     8195                   ;----------------------------------------------------------------------
     8196                   ; 1265 | nTr_St_Info.nStation_PointCntRe++;                                     
     8197                   ; 1267 | else                                                                   
     8198                   ;----------------------------------------------------------------------
     8199 00000e1d 50600001         ldiu      1,r0
     8200 00000e1e 02200004!        addi      @_nTr_St_Info+4,r0    ; Unsigned
     8201 00000e1f 15200004!        sti       r0,@_nTr_St_Info+4
     8202 00000e20 6a000004         bu        L374
     8203                   ;*      Branch Occurs to L374 
     8204 00000e21          L373:        
     8205                           .line   43
     8206                   ;----------------------------------------------------------------------
     8207                   ; 1269 | nTr_St_Info.nStation_PointCntRe = WORD_L(nTr_St_Info.nStation_MaxCnt)-1
     8208                   ;     | ;                                                                      
TMS320C3x/4x COFF AssemblerVersion 5.11     Fri Sep 17 14:23:56 2010
Copyright (c) 1987-1999 Texas Instruments Incorporatedc:\lang\tms320c3x\511\bin\asm30.exe -l gpproface.asm gpproface.obj -tC:\Users\jds\AppData\Local\Temp\gpproface.tmp 

gpproface.asm                                                        PAGE  153

     8209                   ;----------------------------------------------------------------------
     8210 00000e21 506000ff         ldiu      255,r0
     8211 00000e22 02a00001!        and       @_nTr_St_Info+1,r0
     8212 00000e23 18600001         subi      1,r0                  ; Unsigned
     8213 00000e24 15200004!        sti       r0,@_nTr_St_Info+4
     8214 00000e25          L374:        
     8215                           .line   46
     8216                   ;----------------------------------------------------------------------
     8217                   ; 1272 | GP_POINT_ST_PRO(nTr_St_Info.nStation_PointCntRe);                      
     8218                   ;----------------------------------------------------------------------
     8219 00000e25 50200004!        ldiu      @_nTr_St_Info+4,r0
     8220 00000e26 0f200000         push      r0
     8221 00000e27 62001061'        call      _GP_POINT_ST_PRO
     8222                                                           ; Call Occurs
     8223 00000e28 18740001         subi      1,sp
     8224 00000e29          L375:        
     8225                           .line   48
     8226                   ;----------------------------------------------------------------------
     8227                   ; 1274 | gpSPOTEN;                                                              
     8228                   ;----------------------------------------------------------------------
     8229 00000e29 50600001         ldiu      1,r0
     8230 00000e2a 50610047         ldiu      71,r1
     8231 00000e2b 0f200000         push      r0
     8232 00000e2c 0f210000         push      r1
     8233 00000e2d 6200004d'        call      _gp_WritingWord
     8234                                                           ; Call Occurs
     8235 00000e2e 18740002         subi      2,sp
     8236                           .line   49
     8237                   ;----------------------------------------------------------------------
     8238                   ; 1275 | break;                                                                 
     8239                   ; 1277 | //////////////////////////////////////////////////////////////////
     8240                   ;     |                                                                     
     8241                   ; 1279 | case 0x47:                                                             
     8242                   ;----------------------------------------------------------------------
     8243 00000e2f 6a000044         bu        L391
     8244                   ;*      Branch Occurs to L391 
     8245                           .line   54
     8246                   ;----------------------------------------------------------------------
     8247                   ; 1280 | gpSPOTDIS;                                                             
     8248                   ;----------------------------------------------------------------------
     8249 00000e30          L377:        
     8250 00000e30 0f210000         push      r1
     8251 00000e31 0f200000         push      r0
     8252 00000e32 6200004d'        call      _gp_WritingWord
     8253                                                           ; Call Occurs
     8254 00000e33 18740002         subi      2,sp
     8255                           .line   55
     8256                   ;----------------------------------------------------------------------
     8257                   ; 1281 | if(WORD_L(nTr_St_Info.nStopPatNum))                                    
     8258                   ;----------------------------------------------------------------------
     8259 00000e34 506000ff         ldiu      255,r0
     8260 00000e35 1a200000!        tstb      @_nTr_St_Info+0,r0
     8261 00000e36 6a05000f         beq       L382
     8262                   ;*      Branch Occurs to L382 
TMS320C3x/4x COFF AssemblerVersion 5.11     Fri Sep 17 14:23:56 2010
Copyright (c) 1987-1999 Texas Instruments Incorporatedc:\lang\tms320c3x\511\bin\asm30.exe -l gpproface.asm gpproface.obj -tC:\Users\jds\AppData\Local\Temp\gpproface.tmp 

gpproface.asm                                                        PAGE  154

     8263                           .line   57
     8264                   ;----------------------------------------------------------------------
     8265                   ; 1283 | nSelect_Button.nScreenRxTime = 2000;                                   
     8266                   ;----------------------------------------------------------------------
     8267 00000e37 506007d0         ldiu      2000,r0
     8268 00000e38 15200207-        sti       r0,@_nSelect_Button+6
     8269                           .line   58
     8270                   ;----------------------------------------------------------------------
     8271                   ; 1284 | if(WORD_L(nTr_St_Info.nStation_PointCntRe)> 0)                         
     8272                   ;----------------------------------------------------------------------
     8273 00000e39 506000ff         ldiu      255,r0
     8274 00000e3a 1a200004!        tstb      @_nTr_St_Info+4,r0
     8275 00000e3b 6a050004         beq       L380
     8276                   ;*      Branch Occurs to L380 
     8277                           .line   60
     8278                   ;----------------------------------------------------------------------
     8279                   ; 1286 | nTr_St_Info.nStation_PointCntRe--;                                     
     8280                   ; 1288 | else                                                                   
     8281                   ;----------------------------------------------------------------------
     8282 00000e3c 50600001         ldiu      1,r0
     8283 00000e3d 19a00004!        subri     @_nTr_St_Info+4,r0    ; Unsigned
     8284 00000e3e 15200004!        sti       r0,@_nTr_St_Info+4
     8285 00000e3f 6a000002         bu        L381
     8286                   ;*      Branch Occurs to L381 
     8287 00000e40          L380:        
     8288                           .line   64
     8289                   ;----------------------------------------------------------------------
     8290                   ; 1290 | nTr_St_Info.nStation_PointCntRe = 0;                                   
     8291                   ;----------------------------------------------------------------------
     8292 00000e40 50600000         ldiu      0,r0
     8293 00000e41 15200004!        sti       r0,@_nTr_St_Info+4
     8294 00000e42          L381:        
     8295                           .line   66
     8296                   ;----------------------------------------------------------------------
     8297                   ; 1292 | GP_POINT_ST_PRO(nTr_St_Info.nStation_PointCntRe);                      
     8298                   ;----------------------------------------------------------------------
     8299 00000e42 50200004!        ldiu      @_nTr_St_Info+4,r0
     8300 00000e43 0f200000         push      r0
     8301 00000e44 62001061'        call      _GP_POINT_ST_PRO
     8302                                                           ; Call Occurs
     8303 00000e45 18740001         subi      1,sp
     8304 00000e46          L382:        
     8305                           .line   69
     8306                   ;----------------------------------------------------------------------
     8307                   ; 1295 | gpSPOTEN;                                                              
     8308                   ;----------------------------------------------------------------------
     8309 00000e46 50610001         ldiu      1,r1
     8310 00000e47 50600047         ldiu      71,r0
     8311 00000e48 0f210000         push      r1
     8312 00000e49 0f200000         push      r0
     8313 00000e4a 6200004d'        call      _gp_WritingWord
     8314                                                           ; Call Occurs
     8315 00000e4b 18740002         subi      2,sp
     8316                           .line   70
TMS320C3x/4x COFF AssemblerVersion 5.11     Fri Sep 17 14:23:56 2010
Copyright (c) 1987-1999 Texas Instruments Incorporatedc:\lang\tms320c3x\511\bin\asm30.exe -l gpproface.asm gpproface.obj -tC:\Users\jds\AppData\Local\Temp\gpproface.tmp 

gpproface.asm                                                        PAGE  155

     8317                   ;----------------------------------------------------------------------
     8318                   ; 1296 | break;                                                                 
     8319                   ; 1297 | /////////////////////////////////////////////////////////////////// 
     8320                   ;     |                                                                       
     8321                   ; 1299 | case 0x53:                                                             
     8322                   ;----------------------------------------------------------------------
     8323 00000e4c 6a000027         bu        L391
     8324                   ;*      Branch Occurs to L391 
     8325                           .line   74
     8326                   ;----------------------------------------------------------------------
     8327                   ; 1300 | gpSPOTINIT;     //                           
     8328                   ;----------------------------------------------------------------------
     8329 00000e4d          L384:        
     8330 00000e4d 0f210000         push      r1
     8331 00000e4e 0f200000         push      r0
     8332 00000e4f 6200004d'        call      _gp_WritingWord
     8333                                                           ; Call Occurs
     8334 00000e50 18740002         subi      2,sp
     8335 00000e51 50610000         ldiu      0,r1
     8336 00000e52 50600049         ldiu      73,r0
     8337 00000e53 0f210000         push      r1
     8338 00000e54 0f200000         push      r0
     8339 00000e55 6200004d'        call      _gp_WritingWord
     8340                                                           ; Call Occurs
     8341 00000e56 18740002         subi      2,sp
     8342                           .line   75
     8343                   ;----------------------------------------------------------------------
     8344                   ; 1301 | if(WORD_L(nTr_St_Info.nStopPatNum))                                    
     8345                   ;----------------------------------------------------------------------
     8346 00000e57 506000ff         ldiu      255,r0
     8347 00000e58 1a200000!        tstb      @_nTr_St_Info+0,r0
     8348 00000e59 6a05001a         beq       L391
     8349                   ;*      Branch Occurs to L391 
     8350                           .line   77
     8351                   ;----------------------------------------------------------------------
     8352                   ; 1303 | nTr_St_Info.nStation_PointCnt = nTr_St_Info.nStation_PointCntRe;       
     8353                   ;----------------------------------------------------------------------
     8354 00000e5a 50200004!        ldiu      @_nTr_St_Info+4,r0
     8355 00000e5b 15200003!        sti       r0,@_nTr_St_Info+3
     8356                           .line   79
     8357                   ;----------------------------------------------------------------------
     8358                   ; 1305 | d_gpNowPoint = nTr_St_Info.nStation_PointCnt;                          
     8359                   ; 1307 | //        Index  .
     8360                   ;     |                                                    
     8361                   ;----------------------------------------------------------------------
     8362 00000e5c 15200009-        sti       r0,@_d_gpNowPoint+0
     8363                           .line   82
     8364                   ;----------------------------------------------------------------------
     8365                   ; 1308 | nIndex_Flag.nIndexDI_DICnt = 0;                                        
     8366                   ;----------------------------------------------------------------------
     8367 00000e5d 50600000         ldiu      0,r0
     8368 00000e5e 1520023c!        sti       r0,@_nIndex_Flag+572
     8369                           .line   83
     8370                   ;----------------------------------------------------------------------
TMS320C3x/4x COFF AssemblerVersion 5.11     Fri Sep 17 14:23:56 2010
Copyright (c) 1987-1999 Texas Instruments Incorporatedc:\lang\tms320c3x\511\bin\asm30.exe -l gpproface.asm gpproface.obj -tC:\Users\jds\AppData\Local\Temp\gpproface.tmp 

gpproface.asm                                                        PAGE  156

     8371                   ; 1309 | nIndex_Flag.nIndexCnt = 0;                                             
     8372                   ;----------------------------------------------------------------------
     8373 00000e5f 1520023d!        sti       r0,@_nIndex_Flag+573
     8374                           .line   85
     8375                   ;----------------------------------------------------------------------
     8376                   ; 1311 | DP_STNAME_INFO_UP();                                                   
     8377                   ;----------------------------------------------------------------------
     8378 00000e60 62000000!        call      _DP_STNAME_INFO_UP
     8379                                                           ; Call Occurs
     8380                           .line   86
     8381                   ;----------------------------------------------------------------------
     8382                   ; 1312 | DP_ALL_TEXT_CHECK();                                                   
     8383                   ;----------------------------------------------------------------------
     8384 00000e61 62000000!        call      _DP_ALL_TEXT_CHECK
     8385                                                           ; Call Occurs
     8386                           .line   89
     8387                   ;----------------------------------------------------------------------
     8388                   ; 1315 | break;                                                                 
     8389                   ;----------------------------------------------------------------------
     8390 00000e62 6a000011         bu        L391
     8391                   ;*      Branch Occurs to L391 
     8392                           .line   3
     8393 00000e63          L387:        
     8394 00000e63 04e00036         cmpi      54,r0
     8395 00000e64 6a05ff69         beq       L360
     8396                   ;*      Branch Occurs to L360 
     8397 00000e65 04e00046         cmpi      70,r0
     8398 00000e66 6a25ffa4         beqd      L370
     8399 00000e67 0c800000         nop
     8400 00000e68 52e00000         ldieq     0,r0
     8401 00000e69 52e10047         ldieq     71,r1
     8402                   ;*      Branch Occurs to L370 
     8403 00000e6a 04e00047         cmpi      71,r0
     8404 00000e6b 6a25ffc2         beqd      L377
     8405 00000e6c 0c800000         nop
     8406 00000e6d 52e10000         ldieq     0,r1
     8407 00000e6e 52e00047         ldieq     71,r0
     8408                   ;*      Branch Occurs to L377 
     8409 00000e6f 04e00053         cmpi      83,r0
     8410 00000e70 6a25ffda         beqd      L384
     8411 00000e71 0c800000         nop
     8412 00000e72 52e10000         ldieq     0,r1
     8413 00000e73 52e00046         ldieq     70,r0
     8414                   ;*      Branch Occurs to L384 
     8415 00000e74          L391:        
     8416                           .line   92
     8417 00000e74 50530b01         ldiu      *-fp(1),bk
     8418 00000e75 504bc300         ldiu      *fp,fp
     8419 00000e76 18740002         subi      2,sp
     8420 00000e77 68000013         bu        bk
     8421                   ;*      Branch Occurs to bk 
     8422                           .endfunc        1318,000000000h,0
     8423                   
     8424                   
TMS320C3x/4x COFF AssemblerVersion 5.11     Fri Sep 17 14:23:56 2010
Copyright (c) 1987-1999 Texas Instruments Incorporatedc:\lang\tms320c3x\511\bin\asm30.exe -l gpproface.asm gpproface.obj -tC:\Users\jds\AppData\Local\Temp\gpproface.tmp 

gpproface.asm                                                        PAGE  157

     8425                   
     8426 0000001e                  .sect   ".cinit"
     8427 0000001e 00000001         .field          1,32
     8428 0000001f 0000000a-        .field          _d_GpSelfCnt+0,32
     8429 00000020 00000000         .field          0,32            ; _d_GpSelfCnt @ 0
     8430                   
     8431 00000e78                  .sect   ".text"
     8432                   
     8433                           .global _d_GpSelfCnt
     8434 0000000a                  .bss    _d_GpSelfCnt,1
     8435                           .sym    _d_GpSelfCnt,_d_GpSelfCnt,12,2,32
     8436 00000e78                  .sect    ".text"
     8437                   
     8438                           .global _GP_SELFTEST_SCREEN
     8439                           .sym    _GP_SELFTEST_SCREEN,_GP_SELFTEST_SCREEN,32,2,0
     8440                           .func   1323
     8441                   ;******************************************************************************
     8442                   ;* FUNCTION NAME: _GP_SELFTEST_SCREEN                                         *
     8443                   ;*                                                                            *
     8444                   ;*   Architecture       : TMS320C30                                           *
     8445                   ;*   Calling Convention : Stack Parameter Convention                          *
     8446                   ;*   Function Uses Regs : r0,r1,r2,fp,sp,st                                   *
     8447                   ;*   Regs Saved         :                                                     *
     8448                   ;*   Stack Frame        : Full (w/ debug)                                     *
     8449                   ;*   Total Frame Size   : 2 Call + 1 Parm + 60 Auto + 0 SOE = 63 words        *
     8450                   ;******************************************************************************
     8451 00000e78          _GP_SELFTEST_SCREEN:
     8452                           .sym    _nScreenInf,-2,12,9,32
     8453                           .sym    _sSelf_Buf,1,60,1,1920,,60
     8454                           .line   1
     8455                   ;----------------------------------------------------------------------
     8456                   ; 1323 | void GP_SELFTEST_SCREEN(UCHAR nScreenInf)                              
     8457                   ;----------------------------------------------------------------------
     8458                           .line   2
     8459                   ;----------------------------------------------------------------------
     8460                   ; 1325 | UCHAR sSelf_Buf[60];                                                   
     8461                   ; 1327 | switch(nScreenInf)                                                     
     8462                   ; 1329 | case 0x3D:      //                                         
     8463                   ;----------------------------------------------------------------------
     8464 00000e78 6a2000fe         bud       L428
     8465 00000e79 0f2b0000         push      fp
     8466 00000e7a 500b0014         ldiu      sp,fp
     8467 00000e7b 0274003c         addi      60,sp
     8468                   ;*      Branch Occurs to L428 
     8469 00000e7c          L394:        
     8470                           .line   8
     8471                   ;----------------------------------------------------------------------
     8472                   ; 1330 | nTr_St_Info.nSinmuScrCnt = 0;                                          
     8473                   ;----------------------------------------------------------------------
     8474 00000e7c 50600000         ldiu      0,r0
     8475 00000e7d 1520004b!        sti       r0,@_nTr_St_Info+75
     8476                           .line   9
     8477                   ;----------------------------------------------------------------------
     8478                   ; 1331 | nTr_St_Info.nAutoManuFlagCnt = 0;                                      
TMS320C3x/4x COFF AssemblerVersion 5.11     Fri Sep 17 14:23:56 2010
Copyright (c) 1987-1999 Texas Instruments Incorporatedc:\lang\tms320c3x\511\bin\asm30.exe -l gpproface.asm gpproface.obj -tC:\Users\jds\AppData\Local\Temp\gpproface.tmp 

gpproface.asm                                                        PAGE  158

     8479                   ; 1333 | //nSelf_Test.nSELF_ICR_SELECT = 0;                                     
     8480                   ; 1335 | //gpSELFT_4;                                                           
     8481                   ;----------------------------------------------------------------------
     8482 00000e7e 15200177!        sti       r0,@_nTr_St_Info+375
     8483                           .line   15
     8484                   ;----------------------------------------------------------------------
     8485                   ; 1337 | if(WORD_L(nSelf_Test.nSELF_ICR_SELECT) == 1) { gpNorSelfScreen;}//gpSEL
     8486                   ;     | FT_8;}                                                                 
     8487                   ;----------------------------------------------------------------------
     8488 00000e7f 506000ff         ldiu      255,r0
     8489 00000e80 02a000b9!        and       @_nSelf_Test+185,r0
     8490 00000e81 04e00001         cmpi      1,r0
     8491 00000e82 6a060007         bne       L396
     8492                   ;*      Branch Occurs to L396 
     8493 00000e83 50610084         ldiu      132,r1
     8494 00000e84 5060000f         ldiu      15,r0
     8495 00000e85 0f210000         push      r1
     8496 00000e86 0f200000         push      r0
     8497 00000e87 6200004d'        call      _gp_WritingWord
     8498                                                           ; Call Occurs
     8499 00000e88 18740002         subi      2,sp
     8500 00000e89 6a000009         bu        L398
     8501                   ;*      Branch Occurs to L398 
     8502 00000e8a          L396:        
     8503                           .line   16
     8504                   ;----------------------------------------------------------------------
     8505                   ; 1338 | else if(!WORD_L(nSelf_Test.nSELF_ICR_SELECT)) { gpExpSelfScreen;}//gpSE
     8506                   ;     | LFT_4;}                                                                
     8507                   ;----------------------------------------------------------------------
     8508 00000e8a 506000ff         ldiu      255,r0
     8509 00000e8b 1a2000b9!        tstb      @_nSelf_Test+185,r0
     8510 00000e8c 6a060006         bne       L398
     8511                   ;*      Branch Occurs to L398 
     8512 00000e8d 50600081         ldiu      129,r0
     8513 00000e8e 5061000f         ldiu      15,r1
     8514 00000e8f 0f200000         push      r0
     8515 00000e90 0f210000         push      r1
     8516 00000e91 6200004d'        call      _gp_WritingWord
     8517                                                           ; Call Occurs
     8518 00000e92 18740002         subi      2,sp
     8519 00000e93          L398:        
     8520                           .line   20
     8521                   ;----------------------------------------------------------------------
     8522                   ; 1342 | gpSELFTESTINIT;                                                        
     8523                   ;----------------------------------------------------------------------
     8524 00000e93 50600000         ldiu      0,r0
     8525 00000e94 50610059         ldiu      89,r1
     8526 00000e95 0f200000         push      r0
     8527 00000e96 0f210000         push      r1
     8528 00000e97 6200004d'        call      _gp_WritingWord
     8529                                                           ; Call Occurs
     8530 00000e98 18740002         subi      2,sp
     8531 00000e99 50600000         ldiu      0,r0
     8532 00000e9a 5061005a         ldiu      90,r1
TMS320C3x/4x COFF AssemblerVersion 5.11     Fri Sep 17 14:23:56 2010
Copyright (c) 1987-1999 Texas Instruments Incorporatedc:\lang\tms320c3x\511\bin\asm30.exe -l gpproface.asm gpproface.obj -tC:\Users\jds\AppData\Local\Temp\gpproface.tmp 

gpproface.asm                                                        PAGE  159

     8533 00000e9b 0f200000         push      r0
     8534 00000e9c 0f210000         push      r1
     8535 00000e9d 6200004d'        call      _gp_WritingWord
     8536                                                           ; Call Occurs
     8537 00000e9e 18740002         subi      2,sp
     8538 00000e9f 50600000         ldiu      0,r0
     8539 00000ea0 50610057         ldiu      87,r1
     8540 00000ea1 0f200000         push      r0
     8541 00000ea2 0f210000         push      r1
     8542 00000ea3 6200004d'        call      _gp_WritingWord
     8543                                                           ; Call Occurs
     8544 00000ea4 18740002         subi      2,sp
     8545                           .line   21
     8546                   ;----------------------------------------------------------------------
     8547                   ; 1343 | gp4RBLACK_S;gp6RWITE;gp8RWITE;                                         
     8548                   ;----------------------------------------------------------------------
     8549 00000ea5 50600004         ldiu      4,r0
     8550 00000ea6 50610061         ldiu      97,r1
     8551 00000ea7 0f200000         push      r0
     8552 00000ea8 0f210000         push      r1
     8553 00000ea9 6200004d'        call      _gp_WritingWord
     8554                                                           ; Call Occurs
     8555 00000eaa 18740002         subi      2,sp
     8556 00000eab 50610062         ldiu      98,r1
     8557 00000eac 50600000         ldiu      0,r0
     8558 00000ead 0f200000         push      r0
     8559 00000eae 0f210000         push      r1
     8560 00000eaf 6200004d'        call      _gp_WritingWord
     8561                                                           ; Call Occurs
     8562 00000eb0 18740002         subi      2,sp
     8563 00000eb1 50600000         ldiu      0,r0
     8564 00000eb2 0f200000         push      r0
     8565 00000eb3 50610060         ldiu      96,r1
     8566 00000eb4 0f210000         push      r1
     8567 00000eb5 6200004d'        call      _gp_WritingWord
     8568                                                           ; Call Occurs
     8569 00000eb6 18740002         subi      2,sp
     8570                           .line   22
     8571                   ;----------------------------------------------------------------------
     8572                   ; 1344 | gp8SELFITEM;                                                           
     8573                   ;----------------------------------------------------------------------
     8574 00000eb7 5061005c         ldiu      92,r1
     8575 00000eb8 50600002         ldiu      2,r0
     8576 00000eb9 0f200000         push      r0
     8577 00000eba 0f210000         push      r1
     8578 00000ebb 6200004d'        call      _gp_WritingWord
     8579                                                           ; Call Occurs
     8580 00000ebc 18740002         subi      2,sp
     8581                           .line   24
     8582                   ;----------------------------------------------------------------------
     8583                   ; 1346 | gpROOTEN;                                                              
     8584                   ;----------------------------------------------------------------------
     8585 00000ebd 50610039         ldiu      57,r1
     8586 00000ebe 50600001         ldiu      1,r0
TMS320C3x/4x COFF AssemblerVersion 5.11     Fri Sep 17 14:23:56 2010
Copyright (c) 1987-1999 Texas Instruments Incorporatedc:\lang\tms320c3x\511\bin\asm30.exe -l gpproface.asm gpproface.obj -tC:\Users\jds\AppData\Local\Temp\gpproface.tmp 

gpproface.asm                                                        PAGE  160

     8587 00000ebf 0f200000         push      r0
     8588 00000ec0 0f210000         push      r1
     8589 00000ec1 6200004d'        call      _gp_WritingWord
     8590                                                           ; Call Occurs
     8591 00000ec2 18740002         subi      2,sp
     8592                           .line   25
     8593                   ;----------------------------------------------------------------------
     8594                   ; 1347 | gpSelftest_Off;                                                        
     8595                   ;----------------------------------------------------------------------
     8596 00000ec3 50600000         ldiu      0,r0
     8597 00000ec4 50610bbb         ldiu      3003,r1
     8598 00000ec5 0f200000         push      r0
     8599 00000ec6 0f210000         push      r1
     8600 00000ec7 6200004d'        call      _gp_WritingWord
     8601                                                           ; Call Occurs
     8602 00000ec8 18740002         subi      2,sp
     8603                           .line   27
     8604                   ;----------------------------------------------------------------------
     8605                   ; 1349 | break;                                                                 
     8606                   ; 1350 | case 0x74:      //   4                                   
     8607                   ;----------------------------------------------------------------------
     8608 00000ec9 6a0000bd         bu        L433
     8609                   ;*      Branch Occurs to L433 
     8610 00000eca          L399:        
     8611                           .line   29
     8612                   ;----------------------------------------------------------------------
     8613                   ; 1351 | if(!WORD_L(nTr_St_Info.nMasterFlag)) {gpSelftest_ON;}                  
     8614                   ; 1352 | else{                                                                  
     8615                   ;----------------------------------------------------------------------
     8616 00000eca 506000ff         ldiu      255,r0
     8617 00000ecb 1a200173!        tstb      @_nTr_St_Info+371,r0
     8618 00000ecc 6a260008         bned      L402
     8619 00000ecd 0c800000         nop
     8620 00000ece 53610002         ldine     2,r1
     8621 00000ecf 53600061         ldine     97,r0
     8622                   ;*      Branch Occurs to L402 
     8623 00000ed0 50610001         ldiu      1,r1
     8624 00000ed1 50600bbb         ldiu      3003,r0
     8625 00000ed2 0f210000         push      r1
     8626 00000ed3 0f200000         push      r0
     8627 00000ed4 6200004d'        call      _gp_WritingWord
     8628                                                           ; Call Occurs
     8629 00000ed5 18740002         subi      2,sp
     8630 00000ed6 6a0000b0         bu        L433
     8631                   ;*      Branch Occurs to L433 
     8632                           .line   31
     8633                   ;----------------------------------------------------------------------
     8634                   ; 1353 | gp4RBLK_S;                                                             
     8635                   ;----------------------------------------------------------------------
     8636 00000ed7          L402:        
     8637 00000ed7 0f210000         push      r1
     8638 00000ed8 0f200000         push      r0
     8639 00000ed9 6200004d'        call      _gp_WritingWord
     8640                                                           ; Call Occurs
TMS320C3x/4x COFF AssemblerVersion 5.11     Fri Sep 17 14:23:56 2010
Copyright (c) 1987-1999 Texas Instruments Incorporatedc:\lang\tms320c3x\511\bin\asm30.exe -l gpproface.asm gpproface.obj -tC:\Users\jds\AppData\Local\Temp\gpproface.tmp 

gpproface.asm                                                        PAGE  161

     8641 00000eda 18740002         subi      2,sp
     8642                           .line   32
     8643                   ;----------------------------------------------------------------------
     8644                   ; 1354 | gpSELKTOKBLK;                                                          
     8645                   ;----------------------------------------------------------------------
     8646 00000edb 50610001         ldiu      1,r1
     8647 00000edc 50600059         ldiu      89,r0
     8648 00000edd 0f210000         push      r1
     8649 00000ede 0f200000         push      r0
     8650 00000edf 6200004d'        call      _gp_WritingWord
     8651                                                           ; Call Occurs
     8652 00000ee0 18740002         subi      2,sp
     8653                           .line   33
     8654                   ;----------------------------------------------------------------------
     8655                   ; 1355 | gpROOTDIS;                                                             
     8656                   ;----------------------------------------------------------------------
     8657 00000ee1 50600000         ldiu      0,r0
     8658 00000ee2 0f200000         push      r0
     8659 00000ee3 50610039         ldiu      57,r1
     8660 00000ee4 0f210000         push      r1
     8661 00000ee5 6200004d'        call      _gp_WritingWord
     8662                                                           ; Call Occurs
     8663 00000ee6 18740002         subi      2,sp
     8664                           .line   34
     8665                   ;----------------------------------------------------------------------
     8666                   ; 1356 | gpSelftest_Off;                                                        
     8667                   ;----------------------------------------------------------------------
     8668 00000ee7 50600000         ldiu      0,r0
     8669 00000ee8 0f200000         push      r0
     8670 00000ee9 50610bbb         ldiu      3003,r1
     8671 00000eea 0f210000         push      r1
     8672 00000eeb 6200004d'        call      _gp_WritingWord
     8673                                                           ; Call Occurs
     8674 00000eec 18740002         subi      2,sp
     8675                           .line   36
     8676                   ;----------------------------------------------------------------------
     8677                   ; 1358 | break;                                                                 
     8678                   ; 1359 | case 0x57: //                                      
     8679                   ;----------------------------------------------------------------------
     8680 00000eed 6a000099         bu        L433
     8681                   ;*      Branch Occurs to L433 
     8682                           .line   39
     8683                   ;----------------------------------------------------------------------
     8684                   ; 1361 | gpSELFTESTINIT;                                                        
     8685                   ;----------------------------------------------------------------------
     8686 00000eee          L404:        
     8687 00000eee 0f200000         push      r0
     8688 00000eef 0f210000         push      r1
     8689 00000ef0 6200004d'        call      _gp_WritingWord
     8690                                                           ; Call Occurs
     8691 00000ef1 18740002         subi      2,sp
     8692 00000ef2 50600000         ldiu      0,r0
     8693 00000ef3 5061005a         ldiu      90,r1
     8694 00000ef4 0f200000         push      r0
TMS320C3x/4x COFF AssemblerVersion 5.11     Fri Sep 17 14:23:56 2010
Copyright (c) 1987-1999 Texas Instruments Incorporatedc:\lang\tms320c3x\511\bin\asm30.exe -l gpproface.asm gpproface.obj -tC:\Users\jds\AppData\Local\Temp\gpproface.tmp 

gpproface.asm                                                        PAGE  162

     8695 00000ef5 0f210000         push      r1
     8696 00000ef6 6200004d'        call      _gp_WritingWord
     8697                                                           ; Call Occurs
     8698 00000ef7 18740002         subi      2,sp
     8699 00000ef8 50600000         ldiu      0,r0
     8700 00000ef9 50610057         ldiu      87,r1
     8701 00000efa 0f200000         push      r0
     8702 00000efb 0f210000         push      r1
     8703 00000efc 6200004d'        call      _gp_WritingWord
     8704                                                           ; Call Occurs
     8705 00000efd 18740002         subi      2,sp
     8706                           .line   40
     8707                   ;----------------------------------------------------------------------
     8708                   ; 1362 | gp4RBLACK_S;                                                           
     8709                   ;----------------------------------------------------------------------
     8710 00000efe 50600004         ldiu      4,r0
     8711 00000eff 50610061         ldiu      97,r1
     8712 00000f00 0f200000         push      r0
     8713 00000f01 0f210000         push      r1
     8714 00000f02 6200004d'        call      _gp_WritingWord
     8715                                                           ; Call Occurs
     8716 00000f03 18740002         subi      2,sp
     8717                           .line   42
     8718                   ;----------------------------------------------------------------------
     8719                   ; 1364 | nSelf_Test.nSELF_All_Cnt = 0;                                          
     8720                   ;----------------------------------------------------------------------
     8721 00000f04 50600000         ldiu      0,r0
     8722 00000f05 152000b7!        sti       r0,@_nSelf_Test+183
     8723                           .line   45
     8724                   ;----------------------------------------------------------------------
     8725                   ; 1367 | nTr_St_Info.nSelf_Test_Flag = TRUE;                                    
     8726                   ;----------------------------------------------------------------------
     8727 00000f06 50600001         ldiu      1,r0
     8728 00000f07 1520016f!        sti       r0,@_nTr_St_Info+367
     8729                           .line   47
     8730                   ;----------------------------------------------------------------------
     8731                   ; 1369 | memset(nSelf_Test.nSELF_RXDATA_Buf,0x01,60);                           
     8732                   ;----------------------------------------------------------------------
     8733 00000f08 5062003c         ldiu      60,r2
     8734 00000f09 50210213-        ldiu      @CL10,r1
     8735 00000f0a 0f220000         push      r2
     8736 00000f0b 0f200000         push      r0
     8737 00000f0c 0f210000         push      r1
     8738 00000f0d 62000000!        call      _memset
     8739                                                           ; Call Occurs
     8740 00000f0e 18740003         subi      3,sp
     8741                           .line   50
     8742                   ;----------------------------------------------------------------------
     8743                   ; 1372 | memset(sSelf_Buf,0x01,60);                                             
     8744                   ;----------------------------------------------------------------------
     8745 00000f0f 5060003c         ldiu      60,r0
     8746 00000f10 0f200000         push      r0
     8747 00000f11 50610001         ldiu      1,r1
     8748 00000f12 5000000b         ldiu      fp,r0
TMS320C3x/4x COFF AssemblerVersion 5.11     Fri Sep 17 14:23:56 2010
Copyright (c) 1987-1999 Texas Instruments Incorporatedc:\lang\tms320c3x\511\bin\asm30.exe -l gpproface.asm gpproface.obj -tC:\Users\jds\AppData\Local\Temp\gpproface.tmp 

gpproface.asm                                                        PAGE  163

     8749 00000f13 0f210000         push      r1
     8750 00000f14 02600001         addi      1,r0
     8751 00000f15 0f200000         push      r0
     8752 00000f16 62000000!        call      _memset
     8753                                                           ; Call Occurs
     8754 00000f17 18740003         subi      3,sp
     8755                           .line   52
     8756                   ;----------------------------------------------------------------------
     8757                   ; 1374 | if(!nSelf_Test.nSELF_ICR_SELECT)                                       
     8758                   ;----------------------------------------------------------------------
     8759 00000f18 082000b9!        ldi       @_nSelf_Test+185,r0
     8760 00000f19 6a260008         bned      L406
     8761 00000f1a 52e20000         ldieq     0,r2
     8762 00000f1b 5280000b         ldieq     fp,r0
     8763 00000f1c 52e1001c         ldieq     28,r1
     8764                   ;*      Branch Occurs to L406 
     8765                           .line   54
     8766                   ;----------------------------------------------------------------------
     8767                   ; 1376 | SDR_Routine_Complete(sSelf_Buf,DISPLAY_UNIT,FALSE);// .    
     8768                   ;----------------------------------------------------------------------
     8769 00000f1d 0f220000         push      r2
     8770 00000f1e 02600001         addi      1,r0
     8771 00000f1f 0f210000         push      r1
     8772 00000f20 0f200000         push      r0
     8773 00000f21 62000f8b'        call      _SDR_Routine_Complete
     8774                                                           ; Call Occurs
     8775 00000f22 18740003         subi      3,sp
     8776 00000f23 6a00000b         bu        L408
     8777                   ;*      Branch Occurs to L408 
     8778 00000f24          L406:        
     8779                           .line   56
     8780                   ;----------------------------------------------------------------------
     8781                   ; 1378 | else if(nSelf_Test.nSELF_ICR_SELECT)                                   
     8782                   ;----------------------------------------------------------------------
     8783 00000f24 082000b9!        ldi       @_nSelf_Test+185,r0
     8784 00000f25 6a050009         beq       L408
     8785                   ;*      Branch Occurs to L408 
     8786                           .line   58
     8787                   ;----------------------------------------------------------------------
     8788                   ; 1380 | SDR_Routine_Complete(sSelf_Buf,DISPLAY_STANDARD_UNIT,FALSE);// 
     8789                   ;     | .                                                                  
     8790                   ;----------------------------------------------------------------------
     8791 00000f26 50620000         ldiu      0,r2
     8792 00000f27 5000000b         ldiu      fp,r0
     8793 00000f28 50610034         ldiu      52,r1
     8794 00000f29 0f220000         push      r2
     8795 00000f2a 02600001         addi      1,r0
     8796 00000f2b 0f210000         push      r1
     8797 00000f2c 0f200000         push      r0
     8798 00000f2d 62000f8b'        call      _SDR_Routine_Complete
     8799                                                           ; Call Occurs
     8800 00000f2e 18740003         subi      3,sp
     8801 00000f2f          L408:        
     8802                           .line   61
TMS320C3x/4x COFF AssemblerVersion 5.11     Fri Sep 17 14:23:56 2010
Copyright (c) 1987-1999 Texas Instruments Incorporatedc:\lang\tms320c3x\511\bin\asm30.exe -l gpproface.asm gpproface.obj -tC:\Users\jds\AppData\Local\Temp\gpproface.tmp 

gpproface.asm                                                        PAGE  164

     8803                   ;----------------------------------------------------------------------
     8804                   ; 1383 | nSelect_Button.nScreenSetNum = 3;                                      
     8805                   ;----------------------------------------------------------------------
     8806 00000f2f 50600003         ldiu      3,r0
     8807 00000f30 15200206-        sti       r0,@_nSelect_Button+5
     8808                           .line   63
     8809                   ;----------------------------------------------------------------------
     8810                   ; 1385 | break;                                                                 
     8811                   ; 1386 | case 112:       // 3 -> 2 -> 1 .               
     8812                   ;----------------------------------------------------------------------
     8813 00000f31 6a000055         bu        L433
     8814                   ;*      Branch Occurs to L433 
     8815 00000f32          L409:        
     8816                           .line   65
     8817                   ;----------------------------------------------------------------------
     8818                   ; 1387 | if(nSelf_Test.nSELF_ICR_SELECT)                                        
     8819                   ;----------------------------------------------------------------------
     8820 00000f32 082000b9!        ldi       @_nSelf_Test+185,r0
     8821 00000f33 6a050003         beq       L411
     8822                   ;*      Branch Occurs to L411 
     8823                           .line   67
     8824                   ;----------------------------------------------------------------------
     8825                   ; 1389 | nSelf_Test.nSELF_ICR_SELECT--;                                         
     8826                   ;----------------------------------------------------------------------
     8827 00000f34 50600001         ldiu      1,r0
     8828 00000f35 19a000b9!        subri     @_nSelf_Test+185,r0   ; Unsigned
     8829 00000f36 152000b9!        sti       r0,@_nSelf_Test+185
     8830 00000f37          L411:        
     8831                           .line   70
     8832                   ;----------------------------------------------------------------------
     8833                   ; 1392 | nSelf_Test.nSELF_ICR_SELECT = nSelf_Test.nSELF_ICR_SELECT <=0 ? 0 : nSe
     8834                   ;     | lf_Test.nSELF_ICR_SELECT;                                              
     8835                   ;----------------------------------------------------------------------
     8836 00000f37 082000b9!        ldi       @_nSelf_Test+185,r0
     8837 00000f38 6a060004         bne       L413
     8838                   ;*      Branch Occurs to L413 
     8839 00000f39 6a200002         bud       L414
     8840 00000f3a 0c800000         nop
     8841 00000f3b 0c800000         nop
     8842 00000f3c 50600000         ldiu      0,r0
     8843                   ;*      Branch Occurs to L414 
     8844 00000f3d          L413:        
     8845 00000f3d 502000b9!        ldiu      @_nSelf_Test+185,r0
     8846 00000f3e          L414:        
     8847 00000f3e 152000b9!        sti       r0,@_nSelf_Test+185
     8848                           .line   72
     8849                   ;----------------------------------------------------------------------
     8850                   ; 1394 | if(WORD_L(nSelf_Test.nSELF_ICR_SELECT) == 1) { gpSELFT_8;}             
     8851                   ;----------------------------------------------------------------------
     8852 00000f3f 506000ff         ldiu      255,r0
     8853 00000f40 02a000b9!        and       @_nSelf_Test+185,r0
     8854 00000f41 04e00001         cmpi      1,r0
     8855 00000f42 6a060007         bne       L416
     8856                   ;*      Branch Occurs to L416 
TMS320C3x/4x COFF AssemblerVersion 5.11     Fri Sep 17 14:23:56 2010
Copyright (c) 1987-1999 Texas Instruments Incorporatedc:\lang\tms320c3x\511\bin\asm30.exe -l gpproface.asm gpproface.obj -tC:\Users\jds\AppData\Local\Temp\gpproface.tmp 

gpproface.asm                                                        PAGE  165

     8857 00000f43 50610083         ldiu      131,r1
     8858 00000f44 5060000f         ldiu      15,r0
     8859 00000f45 0f210000         push      r1
     8860 00000f46 0f200000         push      r0
     8861 00000f47 6200004d'        call      _gp_WritingWord
     8862                                                           ; Call Occurs
     8863 00000f48 18740002         subi      2,sp
     8864 00000f49 6a000009         bu        L418
     8865                   ;*      Branch Occurs to L418 
     8866 00000f4a          L416:        
     8867                           .line   73
     8868                   ;----------------------------------------------------------------------
     8869                   ; 1395 | else if(!WORD_L(nSelf_Test.nSELF_ICR_SELECT)) { gpSELFT_4;}            
     8870                   ;----------------------------------------------------------------------
     8871 00000f4a 506000ff         ldiu      255,r0
     8872 00000f4b 1a2000b9!        tstb      @_nSelf_Test+185,r0
     8873 00000f4c 6a060006         bne       L418
     8874                   ;*      Branch Occurs to L418 
     8875 00000f4d 50610082         ldiu      130,r1
     8876 00000f4e 5060000f         ldiu      15,r0
     8877 00000f4f 0f210000         push      r1
     8878 00000f50 0f200000         push      r0
     8879 00000f51 6200004d'        call      _gp_WritingWord
     8880                                                           ; Call Occurs
     8881 00000f52 18740002         subi      2,sp
     8882 00000f53          L418:        
     8883                           .line   75
     8884                   ;----------------------------------------------------------------------
     8885                   ; 1397 | nSelect_Button.nScreenSetNum = 3;                                      
     8886                   ;----------------------------------------------------------------------
     8887 00000f53 50600003         ldiu      3,r0
     8888 00000f54 15200206-        sti       r0,@_nSelect_Button+5
     8889                           .line   77
     8890                   ;----------------------------------------------------------------------
     8891                   ; 1399 | break;                                                                 
     8892                   ; 1400 | case 113:       // 1 -> 2 -> 3 .               
     8893                   ;----------------------------------------------------------------------
     8894 00000f55 6a000031         bu        L433
     8895                   ;*      Branch Occurs to L433 
     8896 00000f56          L419:        
     8897                           .line   79
     8898                   ;----------------------------------------------------------------------
     8899                   ; 1401 | nSelf_Test.nSELF_ICR_SELECT++;                                         
     8900                   ;----------------------------------------------------------------------
     8901 00000f56 50600001         ldiu      1,r0
     8902 00000f57 022000b9!        addi      @_nSelf_Test+185,r0   ; Unsigned
     8903 00000f58 152000b9!        sti       r0,@_nSelf_Test+185
     8904                           .line   80
     8905                   ;----------------------------------------------------------------------
     8906                   ; 1402 | nSelf_Test.nSELF_ICR_SELECT = nSelf_Test.nSELF_ICR_SELECT >=2 ? 2 : nSe
     8907                   ;     | lf_Test.nSELF_ICR_SELECT;                                              
     8908                   ;----------------------------------------------------------------------
     8909 00000f59 04e00002         cmpi      2,r0
     8910 00000f5a 6a010004         blo       L421
TMS320C3x/4x COFF AssemblerVersion 5.11     Fri Sep 17 14:23:56 2010
Copyright (c) 1987-1999 Texas Instruments Incorporatedc:\lang\tms320c3x\511\bin\asm30.exe -l gpproface.asm gpproface.obj -tC:\Users\jds\AppData\Local\Temp\gpproface.tmp 

gpproface.asm                                                        PAGE  166

     8911                   ;*      Branch Occurs to L421 
     8912 00000f5b 6a200002         bud       L422
     8913 00000f5c 0c800000         nop
     8914 00000f5d 0c800000         nop
     8915 00000f5e 50600002         ldiu      2,r0
     8916                   ;*      Branch Occurs to L422 
     8917 00000f5f          L421:        
     8918 00000f5f 502000b9!        ldiu      @_nSelf_Test+185,r0
     8919 00000f60          L422:        
     8920 00000f60 152000b9!        sti       r0,@_nSelf_Test+185
     8921                           .line   82
     8922                   ;----------------------------------------------------------------------
     8923                   ; 1404 | if(WORD_L(nSelf_Test.nSELF_ICR_SELECT) == 1) { gpSELFT_8;}             
     8924                   ;----------------------------------------------------------------------
     8925 00000f61 506000ff         ldiu      255,r0
     8926 00000f62 02a000b9!        and       @_nSelf_Test+185,r0
     8927 00000f63 04e00001         cmpi      1,r0
     8928 00000f64 6a060007         bne       L424
     8929                   ;*      Branch Occurs to L424 
     8930 00000f65 50610083         ldiu      131,r1
     8931 00000f66 5060000f         ldiu      15,r0
     8932 00000f67 0f210000         push      r1
     8933 00000f68 0f200000         push      r0
     8934 00000f69 6200004d'        call      _gp_WritingWord
     8935                                                           ; Call Occurs
     8936 00000f6a 18740002         subi      2,sp
     8937 00000f6b 6a00000a         bu        L426
     8938                   ;*      Branch Occurs to L426 
     8939 00000f6c          L424:        
     8940                           .line   83
     8941                   ;----------------------------------------------------------------------
     8942                   ; 1405 | else if(WORD_L(nSelf_Test.nSELF_ICR_SELECT) == 2) {gpSELFT_12;}        
     8943                   ;----------------------------------------------------------------------
     8944 00000f6c 506000ff         ldiu      255,r0
     8945 00000f6d 02a000b9!        and       @_nSelf_Test+185,r0
     8946 00000f6e 04e00002         cmpi      2,r0
     8947 00000f6f 6a060006         bne       L426
     8948                   ;*      Branch Occurs to L426 
     8949 00000f70 50610084         ldiu      132,r1
     8950 00000f71 5060000f         ldiu      15,r0
     8951 00000f72 0f210000         push      r1
     8952 00000f73 0f200000         push      r0
     8953 00000f74 6200004d'        call      _gp_WritingWord
     8954                                                           ; Call Occurs
     8955 00000f75 18740002         subi      2,sp
     8956 00000f76          L426:        
     8957                           .line   85
     8958                   ;----------------------------------------------------------------------
     8959                   ; 1407 | nSelect_Button.nScreenSetNum = 3;                                      
     8960                   ;----------------------------------------------------------------------
     8961 00000f76 50600003         ldiu      3,r0
     8962 00000f77 15200206-        sti       r0,@_nSelect_Button+5
     8963                           .line   87
     8964                   ;----------------------------------------------------------------------
TMS320C3x/4x COFF AssemblerVersion 5.11     Fri Sep 17 14:23:56 2010
Copyright (c) 1987-1999 Texas Instruments Incorporatedc:\lang\tms320c3x\511\bin\asm30.exe -l gpproface.asm gpproface.obj -tC:\Users\jds\AppData\Local\Temp\gpproface.tmp 

gpproface.asm                                                        PAGE  167

     8965                   ; 1409 | break;                                                                 
     8966                   ;----------------------------------------------------------------------
     8967 00000f78 6a00000e         bu        L433
     8968                   ;*      Branch Occurs to L433 
     8969 00000f79          L428:        
     8970                           .line   5
     8971 00000f79 50400b02         ldiu      *-fp(2),r0
     8972 00000f7a 04e0003d         cmpi      61,r0
     8973 00000f7b 6a05ff00         beq       L394
     8974                   ;*      Branch Occurs to L394 
     8975 00000f7c 04e00057         cmpi      87,r0
     8976 00000f7d 6a25ff6e         beqd      L404
     8977 00000f7e 0c800000         nop
     8978 00000f7f 52e00000         ldieq     0,r0
     8979 00000f80 52e10059         ldieq     89,r1
     8980                   ;*      Branch Occurs to L404 
     8981 00000f81 04e00070         cmpi      112,r0
     8982 00000f82 6a05ffaf         beq       L409
     8983                   ;*      Branch Occurs to L409 
     8984 00000f83 04e00071         cmpi      113,r0
     8985 00000f84 6a05ffd1         beq       L419
     8986                   ;*      Branch Occurs to L419 
     8987 00000f85 04e00074         cmpi      116,r0
     8988 00000f86 6a05ff43         beq       L399
     8989                   ;*      Branch Occurs to L399 
     8990 00000f87          L433:        
     8991                           .line   90
     8992 00000f87 50530b01         ldiu      *-fp(1),bk
     8993 00000f88 504bc300         ldiu      *fp,fp
     8994 00000f89 1874003e         subi      62,sp
     8995 00000f8a 68000013         bu        bk
     8996                   ;*      Branch Occurs to bk 
     8997                           .endfunc        1412,000000000h,60
     8998                   
     8999                   
     9000 00000f8b                  .sect    ".text"
     9001                   
     9002                           .global _SDR_Routine_Complete
     9003                           .sym    _SDR_Routine_Complete,_SDR_Routine_Complete,32,2,0
     9004                           .func   1417
     9005                   ;******************************************************************************
     9006                   ;* FUNCTION NAME: _SDR_Routine_Complete                                       *
     9007                   ;*                                                                            *
     9008                   ;*   Architecture       : TMS320C30                                           *
     9009                   ;*   Calling Convention : Stack Parameter Convention                          *
     9010                   ;*   Function Uses Regs : r0,r1,ar0,fp,ir0,sp,st                              *
     9011                   ;*   Regs Saved         :                                                     *
     9012                   ;*   Stack Frame        : Full (w/ debug)                                     *
     9013                   ;*   Total Frame Size   : 2 Call + 3 Parm + 121 Auto + 0 SOE = 126 words      *
     9014                   ;******************************************************************************
     9015 00000f8b          _SDR_Routine_Complete:
     9016                           .sym    _pSData,-2,28,9,32
     9017                           .sym    _nUnitCnt,-3,12,9,32
     9018                           .sym    _nSt_End,-4,12,9,32
TMS320C3x/4x COFF AssemblerVersion 5.11     Fri Sep 17 14:23:56 2010
Copyright (c) 1987-1999 Texas Instruments Incorporatedc:\lang\tms320c3x\511\bin\asm30.exe -l gpproface.asm gpproface.obj -tC:\Users\jds\AppData\Local\Temp\gpproface.tmp 

gpproface.asm                                                        PAGE  168

     9019                           .sym    _i,1,12,1,32
     9020                           .sym    _pDData,2,60,1,3840,,120
     9021                           .line   1
     9022                   ;----------------------------------------------------------------------
     9023                   ; 1417 | void SDR_Routine_Complete(UCHAR *pSData,UCHAR nUnitCnt,UCHAR nSt_End)
     9024                   ;     |                                  // GP                     
     9025                   ;----------------------------------------------------------------------
     9026 00000f8b 0f2b0000         push      fp
     9027 00000f8c 500b0014         ldiu      sp,fp
     9028 00000f8d 02740079         addi      121,sp
     9029                           .line   2
     9030                   ;----------------------------------------------------------------------
     9031                   ; 1419 | UCHAR i;                                                               
     9032                   ; 1420 | UCHAR pDData[120];                                                     
     9033                   ;----------------------------------------------------------------------
     9034                           .line   6
     9035                   ;----------------------------------------------------------------------
     9036                   ; 1422 | for(i=0;i<nUnitCnt;i++)
     9037                   ;     |                          //    .           
     9038                   ;----------------------------------------------------------------------
     9039 00000f8e 50600000         ldiu      0,r0
     9040 00000f8f 15400301         sti       r0,*+fp(1)
     9041 00000f90 04c00b03         cmpi      *-fp(3),r0
     9042 00000f91 6a040039         bhs       L444
     9043                   ;*      Branch Occurs to L444 
     9044 00000f92          L436:        
     9045                           .line   8
     9046                   ;----------------------------------------------------------------------
     9047                   ; 1424 | if(WORD_L(nSt_End))                                                    
     9048                   ;----------------------------------------------------------------------
     9049 00000f92 506000ff         ldiu      255,r0
     9050 00000f93 1a400b04         tstb      *-fp(4),r0
     9051 00000f94 6a050021         beq       L441
     9052                   ;*      Branch Occurs to L441 
     9053                           .line   10
     9054                   ;----------------------------------------------------------------------
     9055                   ; 1426 | if(pSData[i]) {pDData[i*2]= 0x08; pDData[i*2+1]= 0x06;} // X  (2054
     9056                   ;     | )                                                                      
     9057                   ;----------------------------------------------------------------------
     9058 00000f95 50510b02         ldiu      *-fp(2),ir0
     9059 00000f96 50480301         ldiu      *+fp(1),ar0
     9060 00000f97 08404000         ldi       *+ar0(ir0),r0
     9061 00000f98 6a25000f         beqd      L440
     9062 00000f99 0c800000         nop
     9063 00000f9a 52d10301         ldieq     *+fp(1),ir0
     9064 00000f9b 5288000b         ldieq     fp,ar0
     9065                   ;*      Branch Occurs to L440 
     9066 00000f9c 50510301         ldiu      *+fp(1),ir0
     9067 00000f9d 5008000b         ldiu      fp,ar0
     9068 00000f9e 0af10002         mpyi      2,ir0
     9069 00000f9f 02680002         addi      2,ar0
     9070 00000fa0 50600008         ldiu      8,r0
     9071 00000fa1 15404000         sti       r0,*+ar0(ir0)
     9072 00000fa2 50510301         ldiu      *+fp(1),ir0
TMS320C3x/4x COFF AssemblerVersion 5.11     Fri Sep 17 14:23:56 2010
Copyright (c) 1987-1999 Texas Instruments Incorporatedc:\lang\tms320c3x\511\bin\asm30.exe -l gpproface.asm gpproface.obj -tC:\Users\jds\AppData\Local\Temp\gpproface.tmp 

gpproface.asm                                                        PAGE  169

     9073 00000fa3 5008000b         ldiu      fp,ar0
     9074 00000fa4 0af10002         mpyi      2,ir0
     9075 00000fa5 02680002         addi      2,ar0
     9076 00000fa6 02710001         addi      1,ir0                 ; Unsigned
     9077 00000fa7 50600006         ldiu      6,r0
     9078 00000fa8 15404000         sti       r0,*+ar0(ir0)
     9079 00000fa9 6a00001c         bu        L443
     9080                   ;*      Branch Occurs to L443 
     9081                           .line   11
     9082                   ;----------------------------------------------------------------------
     9083                   ; 1427 | else {pDData[i*2]= 0x08; pDData[i*2+1]= 0x05;}          // O  (2053
     9084                   ;     | )                                                                      
     9085                   ;----------------------------------------------------------------------
     9086 00000faa          L440:        
     9087 00000faa 0af10002         mpyi      2,ir0
     9088 00000fab 02680002         addi      2,ar0
     9089 00000fac 50600008         ldiu      8,r0
     9090 00000fad 15404000         sti       r0,*+ar0(ir0)
     9091 00000fae 50510301         ldiu      *+fp(1),ir0
     9092 00000faf 5008000b         ldiu      fp,ar0
     9093 00000fb0 0af10002         mpyi      2,ir0
     9094 00000fb1 02680002         addi      2,ar0
     9095 00000fb2 02710001         addi      1,ir0                 ; Unsigned
     9096 00000fb3 50600005         ldiu      5,r0
     9097 00000fb4 15404000         sti       r0,*+ar0(ir0)
     9098 00000fb5 6a000010         bu        L443
     9099                   ;*      Branch Occurs to L443 
     9100 00000fb6          L441:        
     9101                           .line   13
     9102                   ;----------------------------------------------------------------------
     9103                   ; 1429 | else if(!WORD_L(nSt_End))                                              
     9104                   ;----------------------------------------------------------------------
     9105 00000fb6 506000ff         ldiu      255,r0
     9106 00000fb7 1a400b04         tstb      *-fp(4),r0
     9107 00000fb8 6a06000d         bne       L443
     9108                   ;*      Branch Occurs to L443 
     9109                           .line   15
     9110                   ;----------------------------------------------------------------------
     9111                   ; 1431 | pDData[i*2]= 0x08; pDData[i*2+1]= 0x07; //                     
     9112                   ;----------------------------------------------------------------------
     9113 00000fb9 50510301         ldiu      *+fp(1),ir0
     9114 00000fba 5008000b         ldiu      fp,ar0
     9115 00000fbb 0af10002         mpyi      2,ir0
     9116 00000fbc 02680002         addi      2,ar0
     9117 00000fbd 50600008         ldiu      8,r0
     9118 00000fbe 15404000         sti       r0,*+ar0(ir0)
     9119 00000fbf 50510301         ldiu      *+fp(1),ir0
     9120 00000fc0 5008000b         ldiu      fp,ar0
     9121 00000fc1 0af10002         mpyi      2,ir0
     9122 00000fc2 02680002         addi      2,ar0
     9123 00000fc3 02710001         addi      1,ir0                 ; Unsigned
     9124 00000fc4 50600007         ldiu      7,r0
     9125 00000fc5 15404000         sti       r0,*+ar0(ir0)
     9126 00000fc6          L443:        
TMS320C3x/4x COFF AssemblerVersion 5.11     Fri Sep 17 14:23:56 2010
Copyright (c) 1987-1999 Texas Instruments Incorporatedc:\lang\tms320c3x\511\bin\asm30.exe -l gpproface.asm gpproface.obj -tC:\Users\jds\AppData\Local\Temp\gpproface.tmp 

gpproface.asm                                                        PAGE  170

     9127                           .line   6
     9128 00000fc6 50600001         ldiu      1,r0
     9129 00000fc7 02400301         addi      *+fp(1),r0            ; Unsigned
     9130 00000fc8 15400301         sti       r0,*+fp(1)
     9131 00000fc9 04c00b03         cmpi      *-fp(3),r0
     9132 00000fca 6a01ffc7         blo       L436
     9133                   ;*      Branch Occurs to L436 
     9134 00000fcb          L444:        
     9135                           .line   19
     9136                   ;----------------------------------------------------------------------
     9137                   ; 1435 | if(nLedDataLoad.nFDDSelt || nLedDataLoad.nTNDSelt)                     
     9138                   ;----------------------------------------------------------------------
     9139 00000fcb 08200001!        ldi       @_nLedDataLoad+1,r0
     9140 00000fcc 6a060005         bne       L446
     9141                   ;*      Branch Occurs to L446 
     9142 00000fcd 08200003!        ldi       @_nLedDataLoad+3,r0
     9143 00000fce 6a25000b         beqd      L448
     9144 00000fcf 0c800000         nop
     9145 00000fd0 5280000b         ldieq     fp,r0
     9146 00000fd1 52e100dc         ldieq     220,r1
     9147                   ;*      Branch Occurs to L448 
     9148 00000fd2          L446:        
     9149                           .line   21
     9150                   ;----------------------------------------------------------------------
     9151                   ; 1437 | gp_WritingStr(244,nUnitCnt,pDData);
     9152                   ;     |  // Address                                  
     9153                   ; 1439 | else                                                                   
     9154                   ;----------------------------------------------------------------------
     9155 00000fd2 5000000b         ldiu      fp,r0
     9156 00000fd3 506100f4         ldiu      244,r1
     9157 00000fd4 02600002         addi      2,r0
     9158 00000fd5 0f200000         push      r0
     9159 00000fd6 50400b03         ldiu      *-fp(3),r0
     9160 00000fd7 0f200000         push      r0
     9161 00000fd8 0f210000         push      r1
     9162 00000fd9 620000ba'        call      _gp_WritingStr
     9163                                                           ; Call Occurs
     9164 00000fda 18740003         subi      3,sp
     9165 00000fdb 6a000007         bu        L449
     9166                   ;*      Branch Occurs to L449 
     9167                           .line   25
     9168                   ;----------------------------------------------------------------------
     9169                   ; 1441 | gp_WritingStr(220,nUnitCnt,pDData);
     9170                   ;     |  // Address                                  
     9171                   ;----------------------------------------------------------------------
     9172 00000fdc          L448:        
     9173 00000fdc 02600002         addi      2,r0
     9174 00000fdd 0f200000         push      r0
     9175 00000fde 50400b03         ldiu      *-fp(3),r0
     9176 00000fdf 0f200000         push      r0
     9177 00000fe0 0f210000         push      r1
     9178 00000fe1 620000ba'        call      _gp_WritingStr
     9179                                                           ; Call Occurs
     9180 00000fe2 18740003         subi      3,sp
TMS320C3x/4x COFF AssemblerVersion 5.11     Fri Sep 17 14:23:56 2010
Copyright (c) 1987-1999 Texas Instruments Incorporatedc:\lang\tms320c3x\511\bin\asm30.exe -l gpproface.asm gpproface.obj -tC:\Users\jds\AppData\Local\Temp\gpproface.tmp 

gpproface.asm                                                        PAGE  171

     9181 00000fe3          L449:        
     9182                           .line   27
     9183 00000fe3 50530b01         ldiu      *-fp(1),bk
     9184 00000fe4 504bc300         ldiu      *fp,fp
     9185 00000fe5 1874007b         subi      123,sp
     9186 00000fe6 68000013         bu        bk
     9187                   ;*      Branch Occurs to bk 
     9188                           .endfunc        1443,000000000h,121
     9189                   
     9190                   
     9191 00000fe7                  .sect    ".text"
     9192                   
     9193                           .global _GP_TRAIN_SCREEN
     9194                           .sym    _GP_TRAIN_SCREEN,_GP_TRAIN_SCREEN,32,2,0
     9195                           .func   1447
     9196                   ;******************************************************************************
     9197                   ;* FUNCTION NAME: _GP_TRAIN_SCREEN                                            *
     9198                   ;*                                                                            *
     9199                   ;*   Architecture       : TMS320C30                                           *
     9200                   ;*   Calling Convention : Stack Parameter Convention                          *
     9201                   ;*   Function Uses Regs : r0,r1,fp,sp,st                                      *
     9202                   ;*   Regs Saved         :                                                     *
     9203                   ;*   Stack Frame        : Full (w/ debug)                                     *
     9204                   ;*   Total Frame Size   : 2 Call + 1 Parm + 0 Auto + 0 SOE = 3 words          *
     9205                   ;******************************************************************************
     9206 00000fe7          _GP_TRAIN_SCREEN:
     9207                           .sym    _nScreenInf,-2,12,9,32
     9208                           .line   1
     9209                   ;----------------------------------------------------------------------
     9210                   ; 1447 | void GP_TRAIN_SCREEN(UCHAR nScreenInf)                                 
     9211                   ;----------------------------------------------------------------------
     9212                           .line   2
     9213                   ;----------------------------------------------------------------------
     9214                   ; 1450 | switch(nScreenInf)                                                     
     9215                   ; 1452 | case 0x34:      //  .                                      
     9216                   ;----------------------------------------------------------------------
     9217 00000fe7 6a200065         bud       L459
     9218 00000fe8 0f2b0000         push      fp
     9219 00000fe9 500b0014         ldiu      sp,fp
     9220 00000fea 50400b02         ldiu      *-fp(2),r0
     9221                   ;*      Branch Occurs to L459 
     9222 00000feb          L452:        
     9223                           .line   7
     9224                   ;----------------------------------------------------------------------
     9225                   ; 1453 | nSelect_Button.nScreenSetNum = 7;                                      
     9226                   ;----------------------------------------------------------------------
     9227 00000feb 50600007         ldiu      7,r0
     9228 00000fec 15200206-        sti       r0,@_nSelect_Button+5
     9229                           .line   8
     9230                   ;----------------------------------------------------------------------
     9231                   ; 1454 | gpTRAINNUMBER;                                                         
     9232                   ;----------------------------------------------------------------------
     9233 00000fed 50610033         ldiu      51,r1
     9234 00000fee 0f210000         push      r1
TMS320C3x/4x COFF AssemblerVersion 5.11     Fri Sep 17 14:23:56 2010
Copyright (c) 1987-1999 Texas Instruments Incorporatedc:\lang\tms320c3x\511\bin\asm30.exe -l gpproface.asm gpproface.obj -tC:\Users\jds\AppData\Local\Temp\gpproface.tmp 

gpproface.asm                                                        PAGE  172

     9235 00000fef 5060000f         ldiu      15,r0
     9236 00000ff0 0f200000         push      r0
     9237 00000ff1 6200004d'        call      _gp_WritingWord
     9238                                                           ; Call Occurs
     9239 00000ff2 18740002         subi      2,sp
     9240                           .line   9
     9241                   ;----------------------------------------------------------------------
     9242                   ; 1455 | gpKEYACTIVE;                                                           
     9243                   ;----------------------------------------------------------------------
     9244 00000ff3 50600001         ldiu      1,r0
     9245 00000ff4 50610032         ldiu      50,r1
     9246 00000ff5 0f200000         push      r0
     9247 00000ff6 0f210000         push      r1
     9248 00000ff7 6200004d'        call      _gp_WritingWord
     9249                                                           ; Call Occurs
     9250 00000ff8 18740002         subi      2,sp
     9251                           .line   10
     9252                   ;----------------------------------------------------------------------
     9253                   ; 1456 | gpKEYCLR;                                                              
     9254                   ;----------------------------------------------------------------------
     9255 00000ff9 50600000         ldiu      0,r0
     9256 00000ffa 0f200000         push      r0
     9257 00000ffb 5061004a         ldiu      74,r1
     9258 00000ffc 0f210000         push      r1
     9259 00000ffd 6200004d'        call      _gp_WritingWord
     9260                                                           ; Call Occurs
     9261 00000ffe 18740002         subi      2,sp
     9262                           .line   11
     9263                   ;----------------------------------------------------------------------
     9264                   ; 1457 | gpSETCLR;                                                              
     9265                   ;----------------------------------------------------------------------
     9266 00000fff 50610052         ldiu      82,r1
     9267 00001000 50600000         ldiu      0,r0
     9268 00001001 0f200000         push      r0
     9269 00001002 0f210000         push      r1
     9270 00001003 6200004d'        call      _gp_WritingWord
     9271                                                           ; Call Occurs
     9272 00001004 18740002         subi      2,sp
     9273                           .line   12
     9274                   ;----------------------------------------------------------------------
     9275                   ; 1458 | gpKEYEN;                                                               
     9276                   ;----------------------------------------------------------------------
     9277 00001005 50600001         ldiu      1,r0
     9278 00001006 0f200000         push      r0
     9279 00001007 5061000e         ldiu      14,r1
     9280 00001008 0f210000         push      r1
     9281 00001009 6200004d'        call      _gp_WritingWord
     9282                                                           ; Call Occurs
     9283 0000100a 18740002         subi      2,sp
     9284                           .line   13
     9285                   ;----------------------------------------------------------------------
     9286                   ; 1459 | break;                                                                 
     9287                   ; 1460 | case 0x4D:      // KEY  .                            
     9288                   ;----------------------------------------------------------------------
TMS320C3x/4x COFF AssemblerVersion 5.11     Fri Sep 17 14:23:56 2010
Copyright (c) 1987-1999 Texas Instruments Incorporatedc:\lang\tms320c3x\511\bin\asm30.exe -l gpproface.asm gpproface.obj -tC:\Users\jds\AppData\Local\Temp\gpproface.tmp 

gpproface.asm                                                        PAGE  173

     9289 0000100b 6a000051         bu        L463
     9290                   ;*      Branch Occurs to L463 
     9291                           .line   15
     9292                   ;----------------------------------------------------------------------
     9293                   ; 1461 | gpKEYINIT;                                                             
     9294                   ;----------------------------------------------------------------------
     9295 0000100c          L454:        
     9296 0000100c 0f200000         push      r0
     9297 0000100d 0f210000         push      r1
     9298 0000100e 6200004d'        call      _gp_WritingWord
     9299                                                           ; Call Occurs
     9300 0000100f 18740002         subi      2,sp
     9301                           .line   16
     9302                   ;----------------------------------------------------------------------
     9303                   ; 1462 | break;                                                                 
     9304                   ; 1463 | case 0x50: //   .                                
     9305                   ;----------------------------------------------------------------------
     9306 00001010 6a00004c         bu        L463
     9307                   ;*      Branch Occurs to L463 
     9308                           .line   19
     9309                   ;----------------------------------------------------------------------
     9310                   ; 1465 | gpKEYCLR;                                                              
     9311                   ;----------------------------------------------------------------------
     9312 00001011          L456:        
     9313 00001011 0f200000         push      r0
     9314 00001012 0f210000         push      r1
     9315 00001013 6200004d'        call      _gp_WritingWord
     9316                                                           ; Call Occurs
     9317 00001014 18740002         subi      2,sp
     9318                           .line   20
     9319                   ;----------------------------------------------------------------------
     9320                   ; 1466 | gpRDNUMBER;                                                            
     9321                   ;----------------------------------------------------------------------
     9322 00001015 50600001         ldiu      1,r0
     9323 00001016 50610064         ldiu      100,r1
     9324 00001017 0f200000         push      r0
     9325 00001018 0f210000         push      r1
     9326 00001019 62000089'        call      _gp_ReadingWord
     9327                                                           ; Call Occurs
     9328 0000101a 18740002         subi      2,sp
     9329                           .line   21
     9330                   ;----------------------------------------------------------------------
     9331                   ; 1467 | gpKEYDIS;                                                              
     9332                   ;----------------------------------------------------------------------
     9333 0000101b 50600000         ldiu      0,r0
     9334 0000101c 5061000e         ldiu      14,r1
     9335 0000101d 0f200000         push      r0
     9336 0000101e 0f210000         push      r1
     9337 0000101f 6200004d'        call      _gp_WritingWord
     9338                                                           ; Call Occurs
     9339 00001020 18740002         subi      2,sp
     9340                           .line   22
     9341                   ;----------------------------------------------------------------------
     9342                   ; 1468 | gpTRNOSEEK;                                                            
TMS320C3x/4x COFF AssemblerVersion 5.11     Fri Sep 17 14:23:56 2010
Copyright (c) 1987-1999 Texas Instruments Incorporatedc:\lang\tms320c3x\511\bin\asm30.exe -l gpproface.asm gpproface.obj -tC:\Users\jds\AppData\Local\Temp\gpproface.tmp 

gpproface.asm                                                        PAGE  174

     9343                   ;----------------------------------------------------------------------
     9344 00001021 50600004         ldiu      4,r0
     9345 00001022 50610052         ldiu      82,r1
     9346 00001023 0f200000         push      r0
     9347 00001024 0f210000         push      r1
     9348 00001025 6200004d'        call      _gp_WritingWord
     9349                                                           ; Call Occurs
     9350 00001026 18740002         subi      2,sp
     9351                           .line   23
     9352                   ;----------------------------------------------------------------------
     9353                   ; 1469 | gpKEYEN;                                                               
     9354                   ;----------------------------------------------------------------------
     9355 00001027 5061000e         ldiu      14,r1
     9356 00001028 50600001         ldiu      1,r0
     9357 00001029 0f200000         push      r0
     9358 0000102a 0f210000         push      r1
     9359 0000102b 6200004d'        call      _gp_WritingWord
     9360                                                           ; Call Occurs
     9361 0000102c 18740002         subi      2,sp
     9362                           .line   24
     9363                   ;----------------------------------------------------------------------
     9364                   ; 1470 | break;                                                                 
     9365                   ; 1471 | case 133: //        .  
     9366                   ;----------------------------------------------------------------------
     9367 0000102d 6a00002f         bu        L463
     9368                   ;*      Branch Occurs to L463 
     9369 0000102e          L457:        
     9370                           .line   26
     9371                   ;----------------------------------------------------------------------
     9372                   ; 1472 | nSelect_Button.nScreenSetNum = 7;                                      
     9373                   ;----------------------------------------------------------------------
     9374 0000102e 50600007         ldiu      7,r0
     9375 0000102f 15200206-        sti       r0,@_nSelect_Button+5
     9376                           .line   27
     9377                   ;----------------------------------------------------------------------
     9378                   ; 1473 | gpSIM_TRAINNUMBER;                                                     
     9379                   ;----------------------------------------------------------------------
     9380 00001030 5061006c         ldiu      108,r1
     9381 00001031 0f210000         push      r1
     9382 00001032 5060000f         ldiu      15,r0
     9383 00001033 0f200000         push      r0
     9384 00001034 6200004d'        call      _gp_WritingWord
     9385                                                           ; Call Occurs
     9386 00001035 18740002         subi      2,sp
     9387                           .line   28
     9388                   ;----------------------------------------------------------------------
     9389                   ; 1474 | gpKEYACTIVE;                                                           
     9390                   ;----------------------------------------------------------------------
     9391 00001036 50610001         ldiu      1,r1
     9392 00001037 50600032         ldiu      50,r0
     9393 00001038 0f210000         push      r1
     9394 00001039 0f200000         push      r0
     9395 0000103a 6200004d'        call      _gp_WritingWord
     9396                                                           ; Call Occurs
TMS320C3x/4x COFF AssemblerVersion 5.11     Fri Sep 17 14:23:56 2010
Copyright (c) 1987-1999 Texas Instruments Incorporatedc:\lang\tms320c3x\511\bin\asm30.exe -l gpproface.asm gpproface.obj -tC:\Users\jds\AppData\Local\Temp\gpproface.tmp 

gpproface.asm                                                        PAGE  175

     9397 0000103b 18740002         subi      2,sp
     9398                           .line   29
     9399                   ;----------------------------------------------------------------------
     9400                   ; 1475 | gpKEYCLR;                                                              
     9401                   ;----------------------------------------------------------------------
     9402 0000103c 5060004a         ldiu      74,r0
     9403 0000103d 50610000         ldiu      0,r1
     9404 0000103e 0f210000         push      r1
     9405 0000103f 0f200000         push      r0
     9406 00001040 6200004d'        call      _gp_WritingWord
     9407                                                           ; Call Occurs
     9408 00001041 18740002         subi      2,sp
     9409                           .line   30
     9410                   ;----------------------------------------------------------------------
     9411                   ; 1476 | gpSETCLR;                                                              
     9412                   ;----------------------------------------------------------------------
     9413 00001042 50610000         ldiu      0,r1
     9414 00001043 0f210000         push      r1
     9415 00001044 50600052         ldiu      82,r0
     9416 00001045 0f200000         push      r0
     9417 00001046 6200004d'        call      _gp_WritingWord
     9418                                                           ; Call Occurs
     9419 00001047 18740002         subi      2,sp
     9420                           .line   31
     9421                   ;----------------------------------------------------------------------
     9422                   ; 1477 | gpKEYEN;                                                               
     9423                   ;----------------------------------------------------------------------
     9424 00001048 50610001         ldiu      1,r1
     9425 00001049 0f210000         push      r1
     9426 0000104a 5060000e         ldiu      14,r0
     9427 0000104b 0f200000         push      r0
     9428 0000104c 6200004d'        call      _gp_WritingWord
     9429                                                           ; Call Occurs
     9430 0000104d 18740002         subi      2,sp
     9431                           .line   32
     9432                   ;----------------------------------------------------------------------
     9433                   ; 1478 | break;                                                                 
     9434                   ;----------------------------------------------------------------------
     9435 0000104e 6a00000e         bu        L463
     9436                   ;*      Branch Occurs to L463 
     9437                           .line   4
     9438 0000104f          L459:        
     9439 0000104f 04e00034         cmpi      52,r0
     9440 00001050 6a05ff9a         beq       L452
     9441                   ;*      Branch Occurs to L452 
     9442 00001051 04e0004d         cmpi      77,r0
     9443 00001052 6a25ffb7         beqd      L454
     9444 00001053 0c800000         nop
     9445 00001054 52e00000         ldieq     0,r0
     9446 00001055 52e1004b         ldieq     75,r1
     9447                   ;*      Branch Occurs to L454 
     9448 00001056 04e00050         cmpi      80,r0
     9449 00001057 6a25ffb7         beqd      L456
     9450 00001058 0c800000         nop
TMS320C3x/4x COFF AssemblerVersion 5.11     Fri Sep 17 14:23:56 2010
Copyright (c) 1987-1999 Texas Instruments Incorporatedc:\lang\tms320c3x\511\bin\asm30.exe -l gpproface.asm gpproface.obj -tC:\Users\jds\AppData\Local\Temp\gpproface.tmp 

gpproface.asm                                                        PAGE  176

     9451 00001059 52e00000         ldieq     0,r0
     9452 0000105a 52e1004a         ldieq     74,r1
     9453                   ;*      Branch Occurs to L456 
     9454 0000105b 04e00085         cmpi      133,r0
     9455 0000105c 6a05ffd1         beq       L457
     9456                   ;*      Branch Occurs to L457 
     9457 0000105d          L463:        
     9458                           .line   35
     9459 0000105d 50530b01         ldiu      *-fp(1),bk
     9460 0000105e 504bc300         ldiu      *fp,fp
     9461 0000105f 18740002         subi      2,sp
     9462 00001060 68000013         bu        bk
     9463                   ;*      Branch Occurs to bk 
     9464                           .endfunc        1481,000000000h,0
     9465                   
     9466                   
     9467 00001061                  .sect    ".text"
     9468                   
     9469                           .global _GP_POINT_ST_PRO
     9470                           .sym    _GP_POINT_ST_PRO,_GP_POINT_ST_PRO,32,2,0
     9471                           .func   1486
     9472                   ;******************************************************************************
     9473                   ;* FUNCTION NAME: _GP_POINT_ST_PRO                                            *
     9474                   ;*                                                                            *
     9475                   ;*   Architecture       : TMS320C30                                           *
     9476                   ;*   Calling Convention : Stack Parameter Convention                          *
     9477                   ;*   Function Uses Regs : r0,r1,r2,ar0,ar1,fp,sp,st,rs,re,rc                  *
     9478                   ;*   Regs Saved         :                                                     *
     9479                   ;*   Stack Frame        : Full (w/ debug)                                     *
     9480                   ;*   Total Frame Size   : 2 Call + 1 Parm + 60 Auto + 0 SOE = 63 words        *
     9481                   ;******************************************************************************
     9482 00001061          _GP_POINT_ST_PRO:
     9483                           .sym    _nPointSt,-2,12,9,32
     9484                           .sym    _sPointBuf,1,60,1,480,,15
     9485                           .sym    _sPreBuf,16,60,1,480,,15
     9486                           .sym    _sNowBuf,31,60,1,480,,15
     9487                           .sym    _sNextBuf,46,60,1,480,,15
     9488                           .line   1
     9489                   ;----------------------------------------------------------------------
     9490                   ; 1486 | void GP_POINT_ST_PRO(UCHAR nPointSt)                                   
     9491                   ;----------------------------------------------------------------------
     9492 00001061 0f2b0000         push      fp
     9493 00001062 500b0014         ldiu      sp,fp
     9494 00001063 0274003c         addi      60,sp
     9495                           .line   2
     9496                   ;----------------------------------------------------------------------
     9497                   ; 1488 | UCHAR sPointBuf[15];                                                   
     9498                   ; 1489 | UCHAR sPreBuf[15];                                                     
     9499                   ; 1490 | UCHAR sNowBuf[15];                                                     
     9500                   ; 1491 | UCHAR sNextBuf[15];                                                    
     9501                   ;----------------------------------------------------------------------
     9502                           .line   7
     9503                   ;----------------------------------------------------------------------
     9504                   ; 1492 | memset(sPointBuf,0x20,15);                                             
TMS320C3x/4x COFF AssemblerVersion 5.11     Fri Sep 17 14:23:56 2010
Copyright (c) 1987-1999 Texas Instruments Incorporatedc:\lang\tms320c3x\511\bin\asm30.exe -l gpproface.asm gpproface.obj -tC:\Users\jds\AppData\Local\Temp\gpproface.tmp 

gpproface.asm                                                        PAGE  177

     9505                   ;----------------------------------------------------------------------
     9506 00001064 5062000f         ldiu      15,r2
     9507 00001065 50610020         ldiu      32,r1
     9508 00001066 5000000b         ldiu      fp,r0
     9509 00001067 0f220000         push      r2
     9510 00001068 02600001         addi      1,r0
     9511 00001069 0f210000         push      r1
     9512 0000106a 0f200000         push      r0
     9513 0000106b 62000000!        call      _memset
     9514                                                           ; Call Occurs
     9515 0000106c 18740003         subi      3,sp
     9516                           .line   8
     9517                   ;----------------------------------------------------------------------
     9518                   ; 1493 | if(!WORD_L(nTr_St_Info.nStopPatNum))                                   
     9519                   ; 1497 | else                                                                   
     9520                   ;----------------------------------------------------------------------
     9521 0000106d 506000ff         ldiu      255,r0
     9522 0000106e 1a200000!        tstb      @_nTr_St_Info+0,r0
     9523 0000106f 6a0500a0         beq       L474
     9524                   ;*      Branch Occurs to L474 
     9525                           .line   14
     9526                   ;----------------------------------------------------------------------
     9527                   ; 1499 | if(WORD_L(nPointSt))                                                   
     9528                   ;----------------------------------------------------------------------
     9529 00001070 1a400b02         tstb      *-fp(2),r0
     9530 00001071 6a050064         beq       L473
     9531                   ;*      Branch Occurs to L473 
     9532                           .line   17
     9533                   ;----------------------------------------------------------------------
     9534                   ; 1502 | if((WORD_L(nPointSt)+1)<= WORD_L(nTr_St_Info.nStation_MaxCnt)-1)       
     9535                   ;----------------------------------------------------------------------
     9536 00001072 506100ff         ldiu      255,r1
     9537 00001073 02c00b02         and       *-fp(2),r0
     9538 00001074 02a10001!        and       @_nTr_St_Info+1,r1
     9539 00001075 02600001         addi      1,r0                  ; Unsigned
     9540 00001076 18610001         subi      1,r1                  ; Unsigned
     9541 00001077 23800001         cmpi3     r1,r0
     9542 00001078 6a23001b         bhid      L470
     9543 00001079 0c800000         nop
     9544 0000107a 51e000ff         ldihi     255,r0
     9545 0000107b 51e100ff         ldihi     255,r1
     9546                   ;*      Branch Occurs to L470 
     9547                           .line   19
     9548                   ;----------------------------------------------------------------------
     9549                   ; 1504 | memcpy(sNextBuf,StationName[nPointSt+1].EngName,15);                   
     9550                   ;----------------------------------------------------------------------
     9551 0000107c 50680001         ldiu      1,ar0
     9552 0000107d 5009000b         ldiu      fp,ar1
     9553 0000107e 02480b02         addi      *-fp(2),ar0           ; Unsigned
     9554 0000107f 0ae8002e         mpyi      46,ar0
     9555 00001080 0269002e         addi      46,ar1
     9556 00001081 0228022c-        addi      @CL35,ar0             ; Unsigned
     9557 00001082 50402001         ldiu      *ar0++(1),r0
     9558 00001083 13fb000d         rpts      13                    ; Fast MEMCPY(#18)
TMS320C3x/4x COFF AssemblerVersion 5.11     Fri Sep 17 14:23:56 2010
Copyright (c) 1987-1999 Texas Instruments Incorporatedc:\lang\tms320c3x\511\bin\asm30.exe -l gpproface.asm gpproface.obj -tC:\Users\jds\AppData\Local\Temp\gpproface.tmp 

gpproface.asm                                                        PAGE  178

     9559 00001084 da002120         sti       r0,*ar1++(1)
     9560                   ||      ldi       *ar0++(1),r0
     9561 00001085 15402101         sti       r0,*ar1++(1)
     9562                           .line   20
     9563                   ;----------------------------------------------------------------------
     9564                   ; 1505 | DP_GpDataChange(nTr_St_Info.nGpStName.nNext,sNextBuf);                 
     9565                   ;----------------------------------------------------------------------
     9566 00001086 5021020c-        ldiu      @CL3,r1
     9567 00001087 5000000b         ldiu      fp,r0
     9568 00001088 0260002e         addi      46,r0
     9569 00001089 0f200000         push      r0
     9570 0000108a 0f210000         push      r1
     9571 0000108b 62000000!        call      _DP_GpDataChange
     9572                                                           ; Call Occurs
     9573 0000108c 18740002         subi      2,sp
     9574                           .line   21
     9575                   ;----------------------------------------------------------------------
     9576                   ; 1506 | gp_WritingStr(170,6,nTr_St_Info.nGpStName.nNext);                      
     9577                   ;----------------------------------------------------------------------
     9578 0000108d 5020020c-        ldiu      @CL3,r0
     9579 0000108e 0f200000         push      r0
     9580 0000108f 50610006         ldiu      6,r1
     9581 00001090 0f210000         push      r1
     9582 00001091 506200aa         ldiu      170,r2
     9583 00001092 0f220000         push      r2
     9584 00001093 620000ba'        call      _gp_WritingStr
     9585                                                           ; Call Occurs
     9586 00001094 18740003         subi      3,sp
     9587 00001095 6a00000e         bu        L472
     9588                   ;*      Branch Occurs to L472 
     9589                           .line   24
     9590                   ;----------------------------------------------------------------------
     9591                   ; 1509 | else if(WORD_L(nPointSt) == WORD_L(nTr_St_Info.nStation_MaxCnt)-1)     
     9592                   ;----------------------------------------------------------------------
     9593 00001096          L470:        
     9594 00001096 02a00001!        and       @_nTr_St_Info+1,r0
     9595 00001097 02c10b02         and       *-fp(2),r1
     9596 00001098 18600001         subi      1,r0                  ; Unsigned
     9597 00001099 23800100         cmpi3     r0,r1
     9598 0000109a 6a060009         bne       L472
     9599                   ;*      Branch Occurs to L472 
     9600                           .line   26
     9601                   ;----------------------------------------------------------------------
     9602                   ; 1511 | gp_WritingStr(170,6,sPointBuf);                                        
     9603                   ;----------------------------------------------------------------------
     9604 0000109b 5000000b         ldiu      fp,r0
     9605 0000109c 50620006         ldiu      6,r2
     9606 0000109d 506100aa         ldiu      170,r1
     9607 0000109e 02600001         addi      1,r0
     9608 0000109f 0f200000         push      r0
     9609 000010a0 0f220000         push      r2
     9610 000010a1 0f210000         push      r1
     9611 000010a2 620000ba'        call      _gp_WritingStr
     9612                                                           ; Call Occurs
TMS320C3x/4x COFF AssemblerVersion 5.11     Fri Sep 17 14:23:56 2010
Copyright (c) 1987-1999 Texas Instruments Incorporatedc:\lang\tms320c3x\511\bin\asm30.exe -l gpproface.asm gpproface.obj -tC:\Users\jds\AppData\Local\Temp\gpproface.tmp 

gpproface.asm                                                        PAGE  179

     9613 000010a3 18740003         subi      3,sp
     9614 000010a4          L472:        
     9615                           .line   30
     9616                   ;----------------------------------------------------------------------
     9617                   ; 1515 | memcpy(sPreBuf, StationName[nPointSt-1].EngName,15);                   
     9618                   ;----------------------------------------------------------------------
     9619 000010a4 50680001         ldiu      1,ar0
     9620 000010a5 5009000b         ldiu      fp,ar1
     9621 000010a6 19c80b02         subri     *-fp(2),ar0           ; Unsigned
     9622 000010a7 0ae8002e         mpyi      46,ar0
     9623 000010a8 02690010         addi      16,ar1
     9624 000010a9 0228022c-        addi      @CL35,ar0             ; Unsigned
     9625 000010aa 50402001         ldiu      *ar0++(1),r0
     9626 000010ab 13fb000d         rpts      13                    ; Fast MEMCPY(#21)
     9627 000010ac da002120         sti       r0,*ar1++(1)
     9628                   ||      ldi       *ar0++(1),r0
     9629 000010ad 15402101         sti       r0,*ar1++(1)
     9630                           .line   31
     9631                   ;----------------------------------------------------------------------
     9632                   ; 1516 | memcpy(sNowBuf, StationName[nPointSt].EngName,15);                     
     9633                   ;----------------------------------------------------------------------
     9634 000010ae 5008000b         ldiu      fp,ar0
     9635 000010af 0268001f         addi      31,ar0
     9636 000010b0 50490b02         ldiu      *-fp(2),ar1
     9637 000010b1 0ae9002e         mpyi      46,ar1
     9638 000010b2 0229022c-        addi      @CL35,ar1             ; Unsigned
     9639 000010b3 50402101         ldiu      *ar1++(1),r0
     9640 000010b4 13fb000d         rpts      13                    ; Fast MEMCPY(#24)
     9641 000010b5 da002021         sti       r0,*ar0++(1)
     9642                   ||      ldi       *ar1++(1),r0
     9643 000010b6 15402001         sti       r0,*ar0++(1)
     9644                           .line   33
     9645                   ;----------------------------------------------------------------------
     9646                   ; 1518 | DP_GpDataChange(nTr_St_Info.nGpStName.nPre,sPreBuf);                   
     9647                   ;----------------------------------------------------------------------
     9648 000010b7 5021022d-        ldiu      @CL36,r1
     9649 000010b8 5000000b         ldiu      fp,r0
     9650 000010b9 02600010         addi      16,r0
     9651 000010ba 0f200000         push      r0
     9652 000010bb 0f210000         push      r1
     9653 000010bc 62000000!        call      _DP_GpDataChange
     9654                                                           ; Call Occurs
     9655 000010bd 18740002         subi      2,sp
     9656                           .line   34
     9657                   ;----------------------------------------------------------------------
     9658                   ; 1519 | DP_GpDataChange(nTr_St_Info.nGpStName.nNow,sNowBuf);                   
     9659                   ;----------------------------------------------------------------------
     9660 000010be 5021020b-        ldiu      @CL2,r1
     9661 000010bf 5000000b         ldiu      fp,r0
     9662 000010c0 0260001f         addi      31,r0
     9663 000010c1 0f200000         push      r0
     9664 000010c2 0f210000         push      r1
     9665 000010c3 62000000!        call      _DP_GpDataChange
     9666                                                           ; Call Occurs
TMS320C3x/4x COFF AssemblerVersion 5.11     Fri Sep 17 14:23:56 2010
Copyright (c) 1987-1999 Texas Instruments Incorporatedc:\lang\tms320c3x\511\bin\asm30.exe -l gpproface.asm gpproface.obj -tC:\Users\jds\AppData\Local\Temp\gpproface.tmp 

gpproface.asm                                                        PAGE  180

     9667 000010c4 18740002         subi      2,sp
     9668                           .line   36
     9669                   ;----------------------------------------------------------------------
     9670                   ; 1521 | gp_WritingStr(180,6,nTr_St_Info.nGpStName.nPre);                       
     9671                   ;----------------------------------------------------------------------
     9672 000010c5 506000b4         ldiu      180,r0
     9673 000010c6 5022022d-        ldiu      @CL36,r2
     9674 000010c7 0f220000         push      r2
     9675 000010c8 50610006         ldiu      6,r1
     9676 000010c9 0f210000         push      r1
     9677 000010ca 0f200000         push      r0
     9678 000010cb 620000ba'        call      _gp_WritingStr
     9679                                                           ; Call Occurs
     9680 000010cc 18740003         subi      3,sp
     9681                           .line   37
     9682                   ;----------------------------------------------------------------------
     9683                   ; 1522 | gp_WritingStr(160,6,nTr_St_Info.nGpStName.nNow);                       
     9684                   ; 1525 | else                                                                   
     9685                   ;----------------------------------------------------------------------
     9686 000010cd 5021020b-        ldiu      @CL2,r1
     9687 000010ce 50600006         ldiu      6,r0
     9688 000010cf 0f210000         push      r1
     9689 000010d0 0f200000         push      r0
     9690 000010d1 506200a0         ldiu      160,r2
     9691 000010d2 0f220000         push      r2
     9692 000010d3 620000ba'        call      _gp_WritingStr
     9693                                                           ; Call Occurs
     9694 000010d4 18740003         subi      3,sp
     9695 000010d5 6a00003a         bu        L474
     9696                   ;*      Branch Occurs to L474 
     9697 000010d6          L473:        
     9698                           .line   42
     9699                   ;----------------------------------------------------------------------
     9700                   ; 1527 | memcpy(sNowBuf, StationName[nPointSt].EngName,15);                     
     9701                   ;----------------------------------------------------------------------
     9702 000010d6 50490b02         ldiu      *-fp(2),ar1
     9703 000010d7 5008000b         ldiu      fp,ar0
     9704 000010d8 0ae9002e         mpyi      46,ar1
     9705 000010d9 0268001f         addi      31,ar0
     9706 000010da 0229022c-        addi      @CL35,ar1             ; Unsigned
     9707 000010db 50402101         ldiu      *ar1++(1),r0
     9708 000010dc 13fb000d         rpts      13                    ; Fast MEMCPY(#27)
     9709 000010dd da002021         sti       r0,*ar0++(1)
     9710                   ||      ldi       *ar1++(1),r0
     9711 000010de 15402001         sti       r0,*ar0++(1)
     9712                           .line   43
     9713                   ;----------------------------------------------------------------------
     9714                   ; 1528 | memcpy(sNextBuf,StationName[nPointSt+1].EngName,15);                   
     9715                   ;----------------------------------------------------------------------
     9716 000010df 5009000b         ldiu      fp,ar1
     9717 000010e0 0269002e         addi      46,ar1
     9718 000010e1 50680001         ldiu      1,ar0
     9719 000010e2 02480b02         addi      *-fp(2),ar0           ; Unsigned
     9720 000010e3 0ae8002e         mpyi      46,ar0
TMS320C3x/4x COFF AssemblerVersion 5.11     Fri Sep 17 14:23:56 2010
Copyright (c) 1987-1999 Texas Instruments Incorporatedc:\lang\tms320c3x\511\bin\asm30.exe -l gpproface.asm gpproface.obj -tC:\Users\jds\AppData\Local\Temp\gpproface.tmp 

gpproface.asm                                                        PAGE  181

     9721 000010e4 0228022c-        addi      @CL35,ar0             ; Unsigned
     9722 000010e5 50402001         ldiu      *ar0++(1),r0
     9723 000010e6 13fb000d         rpts      13                    ; Fast MEMCPY(#30)
     9724 000010e7 da002120         sti       r0,*ar1++(1)
     9725                   ||      ldi       *ar0++(1),r0
     9726 000010e8 15402101         sti       r0,*ar1++(1)
     9727                           .line   45
     9728                   ;----------------------------------------------------------------------
     9729                   ; 1530 | DP_GpDataChange(nTr_St_Info.nGpStName.nNow,sNowBuf);                   
     9730                   ;----------------------------------------------------------------------
     9731 000010e9 5021020b-        ldiu      @CL2,r1
     9732 000010ea 5000000b         ldiu      fp,r0
     9733 000010eb 0260001f         addi      31,r0
     9734 000010ec 0f200000         push      r0
     9735 000010ed 0f210000         push      r1
     9736 000010ee 62000000!        call      _DP_GpDataChange
     9737                                                           ; Call Occurs
     9738 000010ef 18740002         subi      2,sp
     9739                           .line   46
     9740                   ;----------------------------------------------------------------------
     9741                   ; 1531 | DP_GpDataChange(nTr_St_Info.nGpStName.nNext,sNextBuf);                 
     9742                   ;----------------------------------------------------------------------
     9743 000010f0 5000000b         ldiu      fp,r0
     9744 000010f1 0260002e         addi      46,r0
     9745 000010f2 0f200000         push      r0
     9746 000010f3 5021020c-        ldiu      @CL3,r1
     9747 000010f4 0f210000         push      r1
     9748 000010f5 62000000!        call      _DP_GpDataChange
     9749                                                           ; Call Occurs
     9750 000010f6 18740002         subi      2,sp
     9751                           .line   48
     9752                   ;----------------------------------------------------------------------
     9753                   ; 1533 | gp_WritingStr(180,6,sPointBuf);                                        
     9754                   ;----------------------------------------------------------------------
     9755 000010f7 5000000b         ldiu      fp,r0
     9756 000010f8 02600001         addi      1,r0
     9757 000010f9 50610006         ldiu      6,r1
     9758 000010fa 0f200000         push      r0
     9759 000010fb 506200b4         ldiu      180,r2
     9760 000010fc 0f210000         push      r1
     9761 000010fd 0f220000         push      r2
     9762 000010fe 620000ba'        call      _gp_WritingStr
     9763                                                           ; Call Occurs
     9764 000010ff 18740003         subi      3,sp
     9765                           .line   49
     9766                   ;----------------------------------------------------------------------
     9767                   ; 1534 | gp_WritingStr(170,6,nTr_St_Info.nGpStName.nNext);                      
     9768                   ;----------------------------------------------------------------------
     9769 00001100 50610006         ldiu      6,r1
     9770 00001101 5022020c-        ldiu      @CL3,r2
     9771 00001102 0f220000         push      r2
     9772 00001103 0f210000         push      r1
     9773 00001104 506000aa         ldiu      170,r0
     9774 00001105 0f200000         push      r0
TMS320C3x/4x COFF AssemblerVersion 5.11     Fri Sep 17 14:23:56 2010
Copyright (c) 1987-1999 Texas Instruments Incorporatedc:\lang\tms320c3x\511\bin\asm30.exe -l gpproface.asm gpproface.obj -tC:\Users\jds\AppData\Local\Temp\gpproface.tmp 

gpproface.asm                                                        PAGE  182

     9775 00001106 620000ba'        call      _gp_WritingStr
     9776                                                           ; Call Occurs
     9777 00001107 18740003         subi      3,sp
     9778                           .line   50
     9779                   ;----------------------------------------------------------------------
     9780                   ; 1535 | gp_WritingStr(160,6,nTr_St_Info.nGpStName.nNow);                       
     9781                   ;----------------------------------------------------------------------
     9782 00001108 506100a0         ldiu      160,r1
     9783 00001109 5022020b-        ldiu      @CL2,r2
     9784 0000110a 50600006         ldiu      6,r0
     9785 0000110b 0f220000         push      r2
     9786 0000110c 0f200000         push      r0
     9787 0000110d 0f210000         push      r1
     9788 0000110e 620000ba'        call      _gp_WritingStr
     9789                                                           ; Call Occurs
     9790 0000110f 18740003         subi      3,sp
     9791 00001110          L474:        
     9792                           .line   54
     9793 00001110 50530b01         ldiu      *-fp(1),bk
     9794 00001111 504bc300         ldiu      *fp,fp
     9795 00001112 1874003e         subi      62,sp
     9796 00001113 68000013         bu        bk
     9797                   ;*      Branch Occurs to bk 
     9798                           .endfunc        1539,000000000h,60
     9799                   
     9800                   
     9801 00001114                  .sect    ".text"
     9802                   
     9803                           .global _GP_DOWNLOAD_SDR
     9804                           .sym    _GP_DOWNLOAD_SDR,_GP_DOWNLOAD_SDR,32,2,0
     9805                           .func   1544
     9806                   ;******************************************************************************
     9807                   ;* FUNCTION NAME: _GP_DOWNLOAD_SDR                                            *
     9808                   ;*                                                                            *
     9809                   ;*   Architecture       : TMS320C30                                           *
     9810                   ;*   Calling Convention : Stack Parameter Convention                          *
     9811                   ;*   Function Uses Regs : r0,r1,r2,fp,sp                                      *
     9812                   ;*   Regs Saved         :                                                     *
     9813                   ;*   Stack Frame        : Full (w/ debug)                                     *
     9814                   ;*   Total Frame Size   : 2 Call + 0 Parm + 60 Auto + 0 SOE = 62 words        *
     9815                   ;******************************************************************************
     9816 00001114          _GP_DOWNLOAD_SDR:
     9817                           .sym    _sSelf_Buf,1,60,1,1920,,60
     9818                           .line   1
     9819                   ;----------------------------------------------------------------------
     9820                   ; 1544 | void GP_DOWNLOAD_SDR()                                                 
     9821                   ; 1546 | UCHAR sSelf_Buf[60];                                                   
     9822                   ;----------------------------------------------------------------------
     9823 00001114 0f2b0000         push      fp
     9824 00001115 500b0014         ldiu      sp,fp
     9825 00001116 0274003c         addi      60,sp
     9826                           .line   4
     9827                   ;----------------------------------------------------------------------
     9828                   ; 1547 | nTr_St_Info.nSinmuScrCnt = 0;                                          
TMS320C3x/4x COFF AssemblerVersion 5.11     Fri Sep 17 14:23:56 2010
Copyright (c) 1987-1999 Texas Instruments Incorporatedc:\lang\tms320c3x\511\bin\asm30.exe -l gpproface.asm gpproface.obj -tC:\Users\jds\AppData\Local\Temp\gpproface.tmp 

gpproface.asm                                                        PAGE  183

     9829                   ;----------------------------------------------------------------------
     9830 00001117 50600000         ldiu      0,r0
     9831 00001118 1520004b!        sti       r0,@_nTr_St_Info+75
     9832                           .line   5
     9833                   ;----------------------------------------------------------------------
     9834                   ; 1548 | nTr_St_Info.nAutoManuFlagCnt = 0;                                      
     9835                   ; 1550 | //nSelf_Test.nSELF_ICR_SELECT = 0;                                     
     9836                   ;----------------------------------------------------------------------
     9837 00001119 15200177!        sti       r0,@_nTr_St_Info+375
     9838                           .line   9
     9839                   ;----------------------------------------------------------------------
     9840                   ; 1552 | nSelf_Test.nSELF_All_Cnt = 0;                                          
     9841                   ;----------------------------------------------------------------------
     9842 0000111a 152000b7!        sti       r0,@_nSelf_Test+183
     9843                           .line   11
     9844                   ;----------------------------------------------------------------------
     9845                   ; 1554 | memset(nSelf_Test.nSELF_RXDATA_Buf,0x01,60);                           
     9846                   ;----------------------------------------------------------------------
     9847 0000111b 50610001         ldiu      1,r1
     9848 0000111c 50220213-        ldiu      @CL10,r2
     9849 0000111d 5060003c         ldiu      60,r0
     9850 0000111e 0f200000         push      r0
     9851 0000111f 0f210000         push      r1
     9852 00001120 0f220000         push      r2
     9853 00001121 62000000!        call      _memset
     9854                                                           ; Call Occurs
     9855 00001122 18740003         subi      3,sp
     9856                           .line   12
     9857                   ;----------------------------------------------------------------------
     9858                   ; 1555 | memset(nSelf_Test.nSELF_DownLoad_RxBuf,0x01,30);                       
     9859                   ;----------------------------------------------------------------------
     9860 00001123 5060001e         ldiu      30,r0
     9861 00001124 50610001         ldiu      1,r1
     9862 00001125 50220219-        ldiu      @CL16,r2
     9863 00001126 0f200000         push      r0
     9864 00001127 0f210000         push      r1
     9865 00001128 0f220000         push      r2
     9866 00001129 62000000!        call      _memset
     9867                                                           ; Call Occurs
     9868 0000112a 18740003         subi      3,sp
     9869                           .line   14
     9870                   ;----------------------------------------------------------------------
     9871                   ; 1557 | memset(sSelf_Buf,0x01,60);                                             
     9872                   ;----------------------------------------------------------------------
     9873 0000112b 50620001         ldiu      1,r2
     9874 0000112c 5061003c         ldiu      60,r1
     9875 0000112d 0f210000         push      r1
     9876 0000112e 5000000b         ldiu      fp,r0
     9877 0000112f 0f220000         push      r2
     9878 00001130 02600001         addi      1,r0
     9879 00001131 0f200000         push      r0
     9880 00001132 62000000!        call      _memset
     9881                                                           ; Call Occurs
     9882 00001133 18740003         subi      3,sp
TMS320C3x/4x COFF AssemblerVersion 5.11     Fri Sep 17 14:23:56 2010
Copyright (c) 1987-1999 Texas Instruments Incorporatedc:\lang\tms320c3x\511\bin\asm30.exe -l gpproface.asm gpproface.obj -tC:\Users\jds\AppData\Local\Temp\gpproface.tmp 

gpproface.asm                                                        PAGE  184

     9883                           .line   16
     9884                   ;----------------------------------------------------------------------
     9885                   ; 1559 | SDR_Routine_Complete(sSelf_Buf,DISPLAY_UNIT,FALSE);// .    
     9886                   ;----------------------------------------------------------------------
     9887 00001134 50600000         ldiu      0,r0
     9888 00001135 0f200000         push      r0
     9889 00001136 5061001c         ldiu      28,r1
     9890 00001137 0f210000         push      r1
     9891 00001138 5000000b         ldiu      fp,r0
     9892 00001139 02600001         addi      1,r0
     9893 0000113a 0f200000         push      r0
     9894 0000113b 62000f8b'        call      _SDR_Routine_Complete
     9895                                                           ; Call Occurs
     9896 0000113c 18740003         subi      3,sp
     9897                           .line   17
     9898 0000113d 50530b01         ldiu      *-fp(1),bk
     9899 0000113e 504bc300         ldiu      *fp,fp
     9900 0000113f 1874003e         subi      62,sp
     9901 00001140 68000013         bu        bk
     9902                   ;*      Branch Occurs to bk 
     9903                           .endfunc        1560,000000000h,60
     9904                   
     9905                   
     9906                   
     9907 00000021                  .sect   ".cinit"
     9908 00000021 00000001         .field          1,32
     9909 00000022 0000000b-        .field          _sCardInfo+0,32
     9910 00000023 00000000         .field          0,32            ; _sCardInfo @ 0
     9911                   
     9912 00001141                  .sect   ".text"
     9913                   
     9914                           .global _sCardInfo
     9915 0000000b                  .bss    _sCardInfo,1
     9916                           .sym    _sCardInfo,_sCardInfo,12,2,32
     9917 00001141                  .sect    ".text"
     9918                   
     9919                           .global _GP_IDC_SW_UPLOAD
     9920                           .sym    _GP_IDC_SW_UPLOAD,_GP_IDC_SW_UPLOAD,32,2,0
     9921                           .func   1566
     9922                   ;******************************************************************************
     9923                   ;* FUNCTION NAME: _GP_IDC_SW_UPLOAD                                           *
     9924                   ;*                                                                            *
     9925                   ;*   Architecture       : TMS320C30                                           *
     9926                   ;*   Calling Convention : Stack Parameter Convention                          *
     9927                   ;*   Function Uses Regs : r0,r1,r2,fp,sp,st                                   *
     9928                   ;*   Regs Saved         :                                                     *
     9929                   ;*   Stack Frame        : Full (w/ debug)                                     *
     9930                   ;*   Total Frame Size   : 2 Call + 1 Parm + 30 Auto + 0 SOE = 33 words        *
     9931                   ;******************************************************************************
     9932 00001141          _GP_IDC_SW_UPLOAD:
     9933                           .sym    _nScreenInf,-2,12,9,32
     9934                           .sym    _sDataBuf,1,60,1,320,,10
     9935                           .sym    _sClenBuf,11,60,1,640,,20
     9936                           .line   1
TMS320C3x/4x COFF AssemblerVersion 5.11     Fri Sep 17 14:23:56 2010
Copyright (c) 1987-1999 Texas Instruments Incorporatedc:\lang\tms320c3x\511\bin\asm30.exe -l gpproface.asm gpproface.obj -tC:\Users\jds\AppData\Local\Temp\gpproface.tmp 

gpproface.asm                                                        PAGE  185

     9937                   ;----------------------------------------------------------------------
     9938                   ; 1566 | void GP_IDC_SW_UPLOAD(UCHAR nScreenInf)                                
     9939                   ;----------------------------------------------------------------------
     9940 00001141 0f2b0000         push      fp
     9941 00001142 500b0014         ldiu      sp,fp
     9942 00001143 0274001e         addi      30,sp
     9943                           .line   2
     9944                   ;----------------------------------------------------------------------
     9945                   ; 1568 | UCHAR sDataBuf[10];                                                    
     9946                   ; 1569 | UCHAR sClenBuf[20];                                                    
     9947                   ;----------------------------------------------------------------------
     9948                           .line   7
     9949                   ;----------------------------------------------------------------------
     9950                   ; 1572 | memset(sClenBuf,0x20,20);                                              
     9951                   ; 1574 | switch(nScreenInf)                                                     
     9952                   ; 1576 | case 117:               //SW  . .              
     9953                   ;----------------------------------------------------------------------
     9954 00001144 50620014         ldiu      20,r2
     9955 00001145 50610020         ldiu      32,r1
     9956 00001146 5000000b         ldiu      fp,r0
     9957 00001147 0f220000         push      r2
     9958 00001148 0260000b         addi      11,r0
     9959 00001149 0f210000         push      r1
     9960 0000114a 0f200000         push      r0
     9961 0000114b 62000000!        call      _memset
     9962                                                           ; Call Occurs
     9963 0000114c 6a2000e6         bud       L496
     9964 0000114d 18740003         subi      3,sp
     9965 0000114e 50400b02         ldiu      *-fp(2),r0
     9966 0000114f 04e00075         cmpi      117,r0
     9967                   ;*      Branch Occurs to L496 
     9968 00001150          L480:        
     9969                           .line   13
     9970                   ;----------------------------------------------------------------------
     9971                   ; 1578 | nLedDataLoad.nSWScreenSelt++;                                          
     9972                   ;----------------------------------------------------------------------
     9973 00001150 50600001         ldiu      1,r0
     9974 00001151 02200015!        addi      @_nLedDataLoad+21,r0  ; Unsigned
     9975 00001152 15200015!        sti       r0,@_nLedDataLoad+21
     9976                           .line   14
     9977                   ;----------------------------------------------------------------------
     9978                   ; 1579 | nLedDataLoad.nDATAScreenSelt = 0;                                      
     9979                   ;----------------------------------------------------------------------
     9980 00001153 50600000         ldiu      0,r0
     9981 00001154 15200016!        sti       r0,@_nLedDataLoad+22
     9982                           .line   16
     9983                   ;----------------------------------------------------------------------
     9984                   ; 1581 | nSelect_Button.nScreenSetNum = 0;                                      
     9985                   ;----------------------------------------------------------------------
     9986 00001155 15200206-        sti       r0,@_nSelect_Button+5
     9987                           .line   18
     9988                   ;----------------------------------------------------------------------
     9989                   ; 1583 | if(!(nLedDataLoad.nSWScreenSelt%10))                                   
     9990                   ;----------------------------------------------------------------------
TMS320C3x/4x COFF AssemblerVersion 5.11     Fri Sep 17 14:23:56 2010
Copyright (c) 1987-1999 Texas Instruments Incorporatedc:\lang\tms320c3x\511\bin\asm30.exe -l gpproface.asm gpproface.obj -tC:\Users\jds\AppData\Local\Temp\gpproface.tmp 

gpproface.asm                                                        PAGE  186

     9991 00001156 5061000a         ldiu      10,r1
     9992 00001157 50200015!        ldiu      @_nLedDataLoad+21,r0
     9993 00001158 62000000!        call      MOD_U30
     9994                                                           ; Call Occurs
     9995 00001159 04e00000         cmpi      0,r0
     9996 0000115a 6a0600df         bne       L499
     9997                   ;*      Branch Occurs to L499 
     9998                           .line   20
     9999                   ;----------------------------------------------------------------------
    10000                   ; 1585 | nLedDataLoad.nSWScreenSelt = 0;                                        
    10001                   ;----------------------------------------------------------------------
    10002 0000115b 50600000         ldiu      0,r0
    10003 0000115c 15200015!        sti       r0,@_nLedDataLoad+21
    10004                           .line   21
    10005                   ;----------------------------------------------------------------------
    10006                   ; 1586 | gpUpLoad;                                                              
    10007                   ;----------------------------------------------------------------------
    10008 0000115d 50610086         ldiu      134,r1
    10009 0000115e 0f210000         push      r1
    10010 0000115f 5060000f         ldiu      15,r0
    10011 00001160 0f200000         push      r0
    10012 00001161 6200004d'        call      _gp_WritingWord
    10013                                                           ; Call Occurs
    10014 00001162 18740002         subi      2,sp
    10015                           .line   22
    10016                   ;----------------------------------------------------------------------
    10017                   ; 1587 | gpROOTDIS;                                                             
    10018                   ;----------------------------------------------------------------------
    10019 00001163 50610000         ldiu      0,r1
    10020 00001164 50600039         ldiu      57,r0
    10021 00001165 0f210000         push      r1
    10022 00001166 0f200000         push      r0
    10023 00001167 6200004d'        call      _gp_WritingWord
    10024                                                           ; Call Occurs
    10025 00001168 18740002         subi      2,sp
    10026                           .line   23
    10027                   ;----------------------------------------------------------------------
    10028                   ; 1588 | gp_WritingStr(550,5,sClenBuf);                                         
    10029                   ;----------------------------------------------------------------------
    10030 00001169 5000000b         ldiu      fp,r0
    10031 0000116a 0260000b         addi      11,r0
    10032 0000116b 0f200000         push      r0
    10033 0000116c 50610005         ldiu      5,r1
    10034 0000116d 0f210000         push      r1
    10035 0000116e 50620226         ldiu      550,r2
    10036 0000116f 0f220000         push      r2
    10037 00001170 620000ba'        call      _gp_WritingStr
    10038                                                           ; Call Occurs
    10039 00001171 18740003         subi      3,sp
    10040                           .line   24
    10041                   ;----------------------------------------------------------------------
    10042                   ; 1589 | gp_WritingStr(555,5,sClenBuf);                                         
    10043                   ;----------------------------------------------------------------------
    10044 00001172 5001000b         ldiu      fp,r1
TMS320C3x/4x COFF AssemblerVersion 5.11     Fri Sep 17 14:23:56 2010
Copyright (c) 1987-1999 Texas Instruments Incorporatedc:\lang\tms320c3x\511\bin\asm30.exe -l gpproface.asm gpproface.obj -tC:\Users\jds\AppData\Local\Temp\gpproface.tmp 

gpproface.asm                                                        PAGE  187

    10045 00001173 0261000b         addi      11,r1
    10046 00001174 0f210000         push      r1
    10047 00001175 50600005         ldiu      5,r0
    10048 00001176 0f200000         push      r0
    10049 00001177 5062022b         ldiu      555,r2
    10050 00001178 0f220000         push      r2
    10051 00001179 620000ba'        call      _gp_WritingStr
    10052                                                           ; Call Occurs
    10053 0000117a 18740003         subi      3,sp
    10054                           .line   25
    10055                   ;----------------------------------------------------------------------
    10056                   ; 1590 | gp_WritingWord(300,0);                                                 
    10057                   ;----------------------------------------------------------------------
    10058 0000117b 50600000         ldiu      0,r0
    10059 0000117c 5061012c         ldiu      300,r1
    10060 0000117d 0f200000         push      r0
    10061 0000117e 0f210000         push      r1
    10062 0000117f 6200004d'        call      _gp_WritingWord
    10063                                                           ; Call Occurs
    10064 00001180 18740002         subi      2,sp
    10065                           .line   26
    10066                   ;----------------------------------------------------------------------
    10067                   ; 1591 | gp_WritingWord(301,0);                                                 
    10068                   ;----------------------------------------------------------------------
    10069 00001181 50600000         ldiu      0,r0
    10070 00001182 0f200000         push      r0
    10071 00001183 5061012d         ldiu      301,r1
    10072 00001184 0f210000         push      r1
    10073 00001185 6200004d'        call      _gp_WritingWord
    10074                                                           ; Call Occurs
    10075 00001186 18740002         subi      2,sp
    10076                           .line   29
    10077                   ;----------------------------------------------------------------------
    10078                   ; 1594 | break;                                                                 
    10079                   ; 1595 | case 118:                                                              
    10080                   ;----------------------------------------------------------------------
    10081 00001187 6a0000b2         bu        L499
    10082                   ;*      Branch Occurs to L499 
    10083 00001188          L482:        
    10084                           .line   31
    10085                   ;----------------------------------------------------------------------
    10086                   ; 1596 | if(SanDisk_Vari.nDiskInputCheckFlag)                                   
    10087                   ;----------------------------------------------------------------------
    10088 00001188 08200002!        ldi       @_SanDisk_Vari+2,r0
    10089 00001189 6a25008d         beqd      L493
    10090 0000118a 5280000b         ldieq     fp,r0
    10091 0000118b 52e20005         ldieq     5,r2
    10092 0000118c 52e10226         ldieq     550,r1
    10093                   ;*      Branch Occurs to L493 
    10094                           .line   34
    10095                   ;----------------------------------------------------------------------
    10096                   ; 1599 | sCardInfo = SanDisk_Vari.nDiskUpChekFlag = Nvsram_IDC_UpLoad_CK(sDataBu
    10097                   ;     | f,IDC_FILE);                                                           
    10098                   ;----------------------------------------------------------------------
TMS320C3x/4x COFF AssemblerVersion 5.11     Fri Sep 17 14:23:56 2010
Copyright (c) 1987-1999 Texas Instruments Incorporatedc:\lang\tms320c3x\511\bin\asm30.exe -l gpproface.asm gpproface.obj -tC:\Users\jds\AppData\Local\Temp\gpproface.tmp 

gpproface.asm                                                        PAGE  188

    10099 0000118d 50610001         ldiu      1,r1
    10100 0000118e 5000000b         ldiu      fp,r0
    10101 0000118f 0f210000         push      r1
    10102 00001190 02600001         addi      1,r0
    10103 00001191 0f200000         push      r0
    10104 00001192 62000000!        call      _Nvsram_IDC_UpLoad_CK
    10105                                                           ; Call Occurs
    10106 00001193 15200003!        sti       r0,@_SanDisk_Vari+3
    10107 00001194 1520000b-        sti       r0,@_sCardInfo+0
    10108 00001195 18740002         subi      2,sp
    10109                           .line   36
    10110                   ;----------------------------------------------------------------------
    10111                   ; 1601 | if( WORD_L(SanDisk_Vari.nDiskUpChekFlag) ==1 || WORD_L(SanDisk_Vari.nDi
    10112                   ;     | skUpChekFlag) ==2)                                                     
    10113                   ;----------------------------------------------------------------------
    10114 00001196 506000ff         ldiu      255,r0
    10115 00001197 02a00003!        and       @_SanDisk_Vari+3,r0
    10116 00001198 04e00001         cmpi      1,r0
    10117 00001199 6a050007         beq       L485
    10118                   ;*      Branch Occurs to L485 
    10119 0000119a 506000ff         ldiu      255,r0
    10120 0000119b 02a00003!        and       @_SanDisk_Vari+3,r0
    10121 0000119c 04e00002         cmpi      2,r0
    10122 0000119d 6a260064         bned      L491
    10123 0000119e 5300000b         ldine     fp,r0
    10124 0000119f 53610005         ldine     5,r1
    10125 000011a0 5362022b         ldine     555,r2
    10126                   ;*      Branch Occurs to L491 
    10127 000011a1          L485:        
    10128                           .line   38
    10129                   ;----------------------------------------------------------------------
    10130                   ; 1603 | gpUpLoad_2;     //  .                                
    10131                   ;----------------------------------------------------------------------
    10132 000011a1 50610087         ldiu      135,r1
    10133 000011a2 5060000f         ldiu      15,r0
    10134 000011a3 0f210000         push      r1
    10135 000011a4 0f200000         push      r0
    10136 000011a5 6200004d'        call      _gp_WritingWord
    10137                                                           ; Call Occurs
    10138 000011a6 18740002         subi      2,sp
    10139                           .line   40
    10140                   ;----------------------------------------------------------------------
    10141                   ; 1605 | gp_WritingWord(600,2087);                                              
    10142                   ;----------------------------------------------------------------------
    10143 000011a7 50610827         ldiu      2087,r1
    10144 000011a8 50600258         ldiu      600,r0
    10145 000011a9 0f210000         push      r1
    10146 000011aa 0f200000         push      r0
    10147 000011ab 6200004d'        call      _gp_WritingWord
    10148                                                           ; Call Occurs
    10149 000011ac 18740002         subi      2,sp
    10150                           .line   42
    10151                   ;----------------------------------------------------------------------
    10152                   ; 1607 | gp_WritingStr(560,3,(UCHAR*)ROM_VER_S);                                
TMS320C3x/4x COFF AssemblerVersion 5.11     Fri Sep 17 14:23:56 2010
Copyright (c) 1987-1999 Texas Instruments Incorporatedc:\lang\tms320c3x\511\bin\asm30.exe -l gpproface.asm gpproface.obj -tC:\Users\jds\AppData\Local\Temp\gpproface.tmp 

gpproface.asm                                                        PAGE  189

    10153                   ;----------------------------------------------------------------------
    10154 000011ad 5022022e-        ldiu      @CL37,r2
    10155 000011ae 50610003         ldiu      3,r1
    10156 000011af 50600230         ldiu      560,r0
    10157 000011b0 0f220000         push      r2
    10158 000011b1 0f210000         push      r1
    10159 000011b2 0f200000         push      r0
    10160 000011b3 620000ba'        call      _gp_WritingStr
    10161                                                           ; Call Occurs
    10162 000011b4 18740003         subi      3,sp
    10163                           .line   43
    10164                   ;----------------------------------------------------------------------
    10165                   ; 1608 | gp_WritingStr(565,1,(UCHAR*)"->");                                     
    10166                   ;----------------------------------------------------------------------
    10167 000011b5 5022022f-        ldiu      @CL38,r2
    10168 000011b6 0f220000         push      r2
    10169 000011b7 50600001         ldiu      1,r0
    10170 000011b8 0f200000         push      r0
    10171 000011b9 50610235         ldiu      565,r1
    10172 000011ba 0f210000         push      r1
    10173 000011bb 620000ba'        call      _gp_WritingStr
    10174                                                           ; Call Occurs
    10175 000011bc 18740003         subi      3,sp
    10176                           .line   44
    10177                   ;----------------------------------------------------------------------
    10178                   ; 1609 | gp_WritingStr(570,3,sDataBuf);                                         
    10179                   ;----------------------------------------------------------------------
    10180 000011bd 5000000b         ldiu      fp,r0
    10181 000011be 02600001         addi      1,r0
    10182 000011bf 50610003         ldiu      3,r1
    10183 000011c0 0f200000         push      r0
    10184 000011c1 0f210000         push      r1
    10185 000011c2 5062023a         ldiu      570,r2
    10186 000011c3 0f220000         push      r2
    10187 000011c4 620000ba'        call      _gp_WritingStr
    10188                                                           ; Call Occurs
    10189 000011c5 18740003         subi      3,sp
    10190                           .line   46
    10191                   ;----------------------------------------------------------------------
    10192                   ; 1611 | gp_WritingStr(540,2,(UCHAR*)"000%");                                   
    10193                   ;----------------------------------------------------------------------
    10194 000011c6 5020021c-        ldiu      @CL19,r0
    10195 000011c7 0f200000         push      r0
    10196 000011c8 50610002         ldiu      2,r1
    10197 000011c9 5062021c         ldiu      540,r2
    10198 000011ca 0f210000         push      r1
    10199 000011cb 0f220000         push      r2
    10200 000011cc 620000ba'        call      _gp_WritingStr
    10201                                                           ; Call Occurs
    10202 000011cd 18740003         subi      3,sp
    10203                           .line   47
    10204                   ;----------------------------------------------------------------------
    10205                   ; 1612 | gp_WritingStr(545,2,(UCHAR*)"000%");                                   
    10206                   ;----------------------------------------------------------------------
TMS320C3x/4x COFF AssemblerVersion 5.11     Fri Sep 17 14:23:56 2010
Copyright (c) 1987-1999 Texas Instruments Incorporatedc:\lang\tms320c3x\511\bin\asm30.exe -l gpproface.asm gpproface.obj -tC:\Users\jds\AppData\Local\Temp\gpproface.tmp 

gpproface.asm                                                        PAGE  190

    10207 000011ce 5020021c-        ldiu      @CL19,r0
    10208 000011cf 50610002         ldiu      2,r1
    10209 000011d0 0f200000         push      r0
    10210 000011d1 50620221         ldiu      545,r2
    10211 000011d2 0f210000         push      r1
    10212 000011d3 0f220000         push      r2
    10213 000011d4 620000ba'        call      _gp_WritingStr
    10214                                                           ; Call Occurs
    10215 000011d5 18740003         subi      3,sp
    10216                           .line   49
    10217                   ;----------------------------------------------------------------------
    10218                   ; 1614 | if( WORD_L(SanDisk_Vari.nDiskUpChekFlag) == 1)                         
    10219                   ;----------------------------------------------------------------------
    10220 000011d6 506000ff         ldiu      255,r0
    10221 000011d7 02a00003!        and       @_SanDisk_Vari+3,r0
    10222 000011d8 04e00001         cmpi      1,r0
    10223 000011d9 6a260013         bned      L488
    10224 000011da 5301000b         ldine     fp,r1
    10225 000011db 53620005         ldine     5,r2
    10226 000011dc 53600226         ldine     550,r0
    10227                   ;*      Branch Occurs to L488 
    10228                           .line   51
    10229                   ;----------------------------------------------------------------------
    10230                   ; 1616 | gp_WritingStr(550,5,sClenBuf);                                         
    10231                   ;----------------------------------------------------------------------
    10232 000011dd 5000000b         ldiu      fp,r0
    10233 000011de 50620005         ldiu      5,r2
    10234 000011df 50610226         ldiu      550,r1
    10235 000011e0 0260000b         addi      11,r0
    10236 000011e1 0f200000         push      r0
    10237 000011e2 0f220000         push      r2
    10238 000011e3 0f210000         push      r1
    10239 000011e4 620000ba'        call      _gp_WritingStr
    10240                                                           ; Call Occurs
    10241 000011e5 18740003         subi      3,sp
    10242                           .line   52
    10243                   ;----------------------------------------------------------------------
    10244                   ; 1617 | gp_WritingStr(555,5,(UCHAR*)"New UpLoad");                             
    10245                   ; 1620 | else                                                                   
    10246                   ;----------------------------------------------------------------------
    10247 000011e6 50220230-        ldiu      @CL39,r2
    10248 000011e7 50610005         ldiu      5,r1
    10249 000011e8 5060022b         ldiu      555,r0
    10250 000011e9 0f220000         push      r2
    10251 000011ea 0f210000         push      r1
    10252 000011eb 0f200000         push      r0
    10253 000011ec 620000ba'        call      _gp_WritingStr
    10254                                                           ; Call Occurs
    10255 000011ed 18740003         subi      3,sp
    10256 000011ee 6a00000e         bu        L489
    10257                   ;*      Branch Occurs to L489 
    10258                           .line   57
    10259                   ;----------------------------------------------------------------------
    10260                   ; 1622 | gp_WritingStr(550,5,sClenBuf);                                         
TMS320C3x/4x COFF AssemblerVersion 5.11     Fri Sep 17 14:23:56 2010
Copyright (c) 1987-1999 Texas Instruments Incorporatedc:\lang\tms320c3x\511\bin\asm30.exe -l gpproface.asm gpproface.obj -tC:\Users\jds\AppData\Local\Temp\gpproface.tmp 

gpproface.asm                                                        PAGE  191

    10261                   ;----------------------------------------------------------------------
    10262 000011ef          L488:        
    10263 000011ef 0261000b         addi      11,r1
    10264 000011f0 0f210000         push      r1
    10265 000011f1 0f220000         push      r2
    10266 000011f2 0f200000         push      r0
    10267 000011f3 620000ba'        call      _gp_WritingStr
    10268                                                           ; Call Occurs
    10269 000011f4 18740003         subi      3,sp
    10270                           .line   58
    10271                   ;----------------------------------------------------------------------
    10272                   ; 1623 | gp_WritingStr(555,5,(UCHAR*)"SameUpLoad");                             
    10273                   ;----------------------------------------------------------------------
    10274 000011f5 50210231-        ldiu      @CL40,r1
    10275 000011f6 50620005         ldiu      5,r2
    10276 000011f7 5060022b         ldiu      555,r0
    10277 000011f8 0f210000         push      r1
    10278 000011f9 0f220000         push      r2
    10279 000011fa 0f200000         push      r0
    10280 000011fb 620000ba'        call      _gp_WritingStr
    10281                                                           ; Call Occurs
    10282 000011fc 18740003         subi      3,sp
    10283 000011fd          L489:        
    10284                           .line   62
    10285                   ;----------------------------------------------------------------------
    10286                   ; 1627 | gpROOTEN;                                                              
    10287                   ; 1629 | else                                                                   
    10288                   ;----------------------------------------------------------------------
    10289 000011fd 50610001         ldiu      1,r1
    10290 000011fe 50600039         ldiu      57,r0
    10291 000011ff 0f210000         push      r1
    10292 00001200 0f200000         push      r0
    10293 00001201 6200004d'        call      _gp_WritingWord
    10294                                                           ; Call Occurs
    10295 00001202 18740002         subi      2,sp
    10296 00001203 6a000036         bu        L499
    10297                   ;*      Branch Occurs to L499 
    10298                           .line   66
    10299                   ;----------------------------------------------------------------------
    10300                   ; 1631 | gp_WritingStr(555,5,sClenBuf);                                         
    10301                   ;----------------------------------------------------------------------
    10302 00001204          L491:        
    10303 00001204 0260000b         addi      11,r0
    10304 00001205 0f200000         push      r0
    10305 00001206 0f210000         push      r1
    10306 00001207 0f220000         push      r2
    10307 00001208 620000ba'        call      _gp_WritingStr
    10308                                                           ; Call Occurs
    10309 00001209 18740003         subi      3,sp
    10310                           .line   67
    10311                   ;----------------------------------------------------------------------
    10312                   ; 1632 | gp_WritingStr(550,5,(UCHAR*)"File CHECK");                             
    10313                   ;----------------------------------------------------------------------
    10314 0000120a 50200232-        ldiu      @CL41,r0
TMS320C3x/4x COFF AssemblerVersion 5.11     Fri Sep 17 14:23:56 2010
Copyright (c) 1987-1999 Texas Instruments Incorporatedc:\lang\tms320c3x\511\bin\asm30.exe -l gpproface.asm gpproface.obj -tC:\Users\jds\AppData\Local\Temp\gpproface.tmp 

gpproface.asm                                                        PAGE  192

    10315 0000120b 50610005         ldiu      5,r1
    10316 0000120c 50620226         ldiu      550,r2
    10317 0000120d 0f200000         push      r0
    10318 0000120e 0f210000         push      r1
    10319 0000120f 0f220000         push      r2
    10320 00001210 620000ba'        call      _gp_WritingStr
    10321                                                           ; Call Occurs
    10322 00001211 18740003         subi      3,sp
    10323                           .line   68
    10324                   ;----------------------------------------------------------------------
    10325                   ; 1633 | gpROOTDIS;                                                             
    10326                   ; 1636 | else                                                                   
    10327                   ;----------------------------------------------------------------------
    10328 00001212 50610000         ldiu      0,r1
    10329 00001213 50600039         ldiu      57,r0
    10330 00001214 0f210000         push      r1
    10331 00001215 0f200000         push      r0
    10332 00001216 6200004d'        call      _gp_WritingWord
    10333                                                           ; Call Occurs
    10334 00001217 18740002         subi      2,sp
    10335 00001218 6a000021         bu        L499
    10336                   ;*      Branch Occurs to L499 
    10337                           .line   73
    10338                   ;----------------------------------------------------------------------
    10339                   ; 1638 | gp_WritingStr(550,5,sClenBuf);                                         
    10340                   ;----------------------------------------------------------------------
    10341 00001219          L493:        
    10342 00001219 0260000b         addi      11,r0
    10343 0000121a 0f200000         push      r0
    10344 0000121b 0f220000         push      r2
    10345 0000121c 0f210000         push      r1
    10346 0000121d 620000ba'        call      _gp_WritingStr
    10347                                                           ; Call Occurs
    10348 0000121e 18740003         subi      3,sp
    10349                           .line   74
    10350                   ;----------------------------------------------------------------------
    10351                   ; 1639 | gp_WritingStr(555,5,(UCHAR*)"CARD CHECK");                             
    10352                   ;----------------------------------------------------------------------
    10353 0000121f 50220233-        ldiu      @CL42,r2
    10354 00001220 50610005         ldiu      5,r1
    10355 00001221 5060022b         ldiu      555,r0
    10356 00001222 0f220000         push      r2
    10357 00001223 0f210000         push      r1
    10358 00001224 0f200000         push      r0
    10359 00001225 620000ba'        call      _gp_WritingStr
    10360                                                           ; Call Occurs
    10361 00001226 18740003         subi      3,sp
    10362                           .line   75
    10363                   ;----------------------------------------------------------------------
    10364                   ; 1640 | gpROOTDIS;                                                             
    10365                   ;----------------------------------------------------------------------
    10366 00001227 50610000         ldiu      0,r1
    10367 00001228 0f210000         push      r1
    10368 00001229 50600039         ldiu      57,r0
TMS320C3x/4x COFF AssemblerVersion 5.11     Fri Sep 17 14:23:56 2010
Copyright (c) 1987-1999 Texas Instruments Incorporatedc:\lang\tms320c3x\511\bin\asm30.exe -l gpproface.asm gpproface.obj -tC:\Users\jds\AppData\Local\Temp\gpproface.tmp 

gpproface.asm                                                        PAGE  193

    10369 0000122a 0f200000         push      r0
    10370 0000122b 6200004d'        call      _gp_WritingWord
    10371                                                           ; Call Occurs
    10372 0000122c 18740002         subi      2,sp
    10373                           .line   79
    10374                   ;----------------------------------------------------------------------
    10375                   ; 1644 | break;                                                                 
    10376                   ; 1645 | case 119:                                                              
    10377                   ;----------------------------------------------------------------------
    10378 0000122d 6a00000c         bu        L499
    10379                   ;*      Branch Occurs to L499 
    10380 0000122e          L494:        
    10381                           .line   82
    10382                   ;----------------------------------------------------------------------
    10383                   ; 1647 | Idc_Load.nIDC_ROM_Flag = 1;                                            
    10384                   ;----------------------------------------------------------------------
    10385 0000122e 50600001         ldiu      1,r0
    10386 0000122f 15200000!        sti       r0,@_Idc_Load+0
    10387                           .line   83
    10388                   ;----------------------------------------------------------------------
    10389                   ; 1648 | Idc_Load.nKO_Flag = 0;                                                 
    10390                   ;----------------------------------------------------------------------
    10391 00001230 50600000         ldiu      0,r0
    10392 00001231 15200005!        sti       r0,@_Idc_Load+5
    10393                           .line   84
    10394                   ;----------------------------------------------------------------------
    10395                   ; 1649 | nSelect_Button.nScreenSetNum = 9;                                      
    10396                   ;----------------------------------------------------------------------
    10397 00001232 50600009         ldiu      9,r0
    10398 00001233 15200206-        sti       r0,@_nSelect_Button+5
    10399                           .line   86
    10400                   ;----------------------------------------------------------------------
    10401                   ; 1651 | break;                                                                 
    10402                   ;----------------------------------------------------------------------
    10403 00001234 6a000005         bu        L499
    10404                   ;*      Branch Occurs to L499 
    10405                           .line   9
    10406 00001235          L496:        
    10407 00001235 6a05ff1a         beq       L480
    10408                   ;*      Branch Occurs to L480 
    10409 00001236 04e00076         cmpi      118,r0
    10410 00001237 6a05ff50         beq       L482
    10411                   ;*      Branch Occurs to L482 
    10412 00001238 04e00077         cmpi      119,r0
    10413 00001239 6a05fff4         beq       L494
    10414                   ;*      Branch Occurs to L494 
    10415 0000123a          L499:        
    10416                           .line   90
    10417 0000123a 50530b01         ldiu      *-fp(1),bk
    10418 0000123b 504bc300         ldiu      *fp,fp
    10419 0000123c 18740020         subi      32,sp
    10420 0000123d 68000013         bu        bk
    10421                   ;*      Branch Occurs to bk 
    10422                           .endfunc        1655,000000000h,30
TMS320C3x/4x COFF AssemblerVersion 5.11     Fri Sep 17 14:23:56 2010
Copyright (c) 1987-1999 Texas Instruments Incorporatedc:\lang\tms320c3x\511\bin\asm30.exe -l gpproface.asm gpproface.obj -tC:\Users\jds\AppData\Local\Temp\gpproface.tmp 

gpproface.asm                                                        PAGE  194

    10423                   
    10424                   
    10425 0000123e                  .sect    ".text"
    10426                   
    10427                           .global _GP_SFDD_SW_UPLOAD
    10428                           .sym    _GP_SFDD_SW_UPLOAD,_GP_SFDD_SW_UPLOAD,32,2,0
    10429                           .func   1660
    10430                   ;******************************************************************************
    10431                   ;* FUNCTION NAME: _GP_SFDD_SW_UPLOAD                                          *
    10432                   ;*                                                                            *
    10433                   ;*   Architecture       : TMS320C30                                           *
    10434                   ;*   Calling Convention : Stack Parameter Convention                          *
    10435                   ;*   Function Uses Regs : r0,r1,r2,ar0,fp,sp,st                               *
    10436                   ;*   Regs Saved         :                                                     *
    10437                   ;*   Stack Frame        : Full (w/ debug)                                     *
    10438                   ;*   Total Frame Size   : 2 Call + 1 Parm + 51 Auto + 0 SOE = 54 words        *
    10439                   ;******************************************************************************
    10440 0000123e          _GP_SFDD_SW_UPLOAD:
    10441                           .sym    _nScreenInf,-2,12,9,32
    10442                           .sym    _sClenBuf,1,60,1,640,,20
    10443                           .sym    _sDataBuf,21,60,1,960,,30
    10444                           .sym    _sFileCheck,51,12,1,32
    10445                           .line   1
    10446                   ;----------------------------------------------------------------------
    10447                   ; 1660 | void GP_SFDD_SW_UPLOAD(UCHAR nScreenInf)                               
    10448                   ;----------------------------------------------------------------------
    10449 0000123e 0f2b0000         push      fp
    10450 0000123f 500b0014         ldiu      sp,fp
    10451 00001240 02740033         addi      51,sp
    10452                           .line   2
    10453                   ;----------------------------------------------------------------------
    10454                   ; 1662 | UCHAR sClenBuf[20];                                                    
    10455                   ; 1663 | UCHAR sDataBuf[30];                                                    
    10456                   ;----------------------------------------------------------------------
    10457                           .line   5
    10458                   ;----------------------------------------------------------------------
    10459                   ; 1664 | UCHAR sFileCheck = 0;                                                  
    10460                   ;----------------------------------------------------------------------
    10461 00001241 50600000         ldiu      0,r0
    10462 00001242 15400333         sti       r0,*+fp(51)
    10463                           .line   7
    10464                   ;----------------------------------------------------------------------
    10465                   ; 1666 | memset(sClenBuf,0x20,20);                                              
    10466                   ; 1668 | switch(nScreenInf)                                                     
    10467                   ; 1670 | case 121:       //                                             
    10468                   ;----------------------------------------------------------------------
    10469 00001243 50620014         ldiu      20,r2
    10470 00001244 50610020         ldiu      32,r1
    10471 00001245 5000000b         ldiu      fp,r0
    10472 00001246 0f220000         push      r2
    10473 00001247 02600001         addi      1,r0
    10474 00001248 0f210000         push      r1
    10475 00001249 0f200000         push      r0
    10476 0000124a 62000000!        call      _memset
TMS320C3x/4x COFF AssemblerVersion 5.11     Fri Sep 17 14:23:56 2010
Copyright (c) 1987-1999 Texas Instruments Incorporatedc:\lang\tms320c3x\511\bin\asm30.exe -l gpproface.asm gpproface.obj -tC:\Users\jds\AppData\Local\Temp\gpproface.tmp 

gpproface.asm                                                        PAGE  195

    10477                                                           ; Call Occurs
    10478 0000124b 6a200166         bud       L552
    10479 0000124c 18740003         subi      3,sp
    10480 0000124d 50400b02         ldiu      *-fp(2),r0
    10481 0000124e 04e00079         cmpi      121,r0
    10482                   ;*      Branch Occurs to L552 
    10483 0000124f          L502:        
    10484                           .line   12
    10485                   ;----------------------------------------------------------------------
    10486                   ; 1671 | nLedDataLoad.nWaitSDR = 3;                                             
    10487                   ;----------------------------------------------------------------------
    10488 0000124f 50600003         ldiu      3,r0
    10489 00001250 15200006!        sti       r0,@_nLedDataLoad+6
    10490                           .line   14
    10491                   ;----------------------------------------------------------------------
    10492                   ; 1673 | gpROOTDIS;                                                             
    10493                   ;----------------------------------------------------------------------
    10494 00001251 50610000         ldiu      0,r1
    10495 00001252 0f210000         push      r1
    10496 00001253 50600039         ldiu      57,r0
    10497 00001254 0f200000         push      r0
    10498 00001255 6200004d'        call      _gp_WritingWord
    10499                                                           ; Call Occurs
    10500 00001256 18740002         subi      2,sp
    10501                           .line   15
    10502                   ;----------------------------------------------------------------------
    10503                   ; 1674 | break;                                                                 
    10504                   ; 1675 | case 122:       //Erass                                                
    10505                   ;----------------------------------------------------------------------
    10506 00001257 6a000175         bu        L559
    10507                   ;*      Branch Occurs to L559 
    10508 00001258          L503:        
    10509                           .line   17
    10510                   ;----------------------------------------------------------------------
    10511                   ; 1676 | nLedDataLoad.nErassFlag.nST_1 = TRUE;                                  
    10512                   ;----------------------------------------------------------------------
    10513 00001258 50600001         ldiu      1,r0
    10514 00001259 15200009!        sti       r0,@_nLedDataLoad+9
    10515                           .line   18
    10516                   ;----------------------------------------------------------------------
    10517                   ; 1677 | nLedDataLoad.nErassFlag.nErassOk = FALSE;                              
    10518                   ;----------------------------------------------------------------------
    10519 0000125a 50600000         ldiu      0,r0
    10520 0000125b 1520000d!        sti       r0,@_nLedDataLoad+13
    10521                           .line   19
    10522                   ;----------------------------------------------------------------------
    10523                   ; 1678 | nSelf_Test.nSELF_TX_Cnt = 0;                                           
    10524                   ;----------------------------------------------------------------------
    10525 0000125c 152000b5!        sti       r0,@_nSelf_Test+181
    10526                           .line   20
    10527                   ;----------------------------------------------------------------------
    10528                   ; 1679 | gpLED_UPLOAD_ERBUT_SF_OFF;                                             
    10529                   ;----------------------------------------------------------------------
    10530 0000125d 50610000         ldiu      0,r1
TMS320C3x/4x COFF AssemblerVersion 5.11     Fri Sep 17 14:23:56 2010
Copyright (c) 1987-1999 Texas Instruments Incorporatedc:\lang\tms320c3x\511\bin\asm30.exe -l gpproface.asm gpproface.obj -tC:\Users\jds\AppData\Local\Temp\gpproface.tmp 

gpproface.asm                                                        PAGE  196

    10531 0000125e 0f210000         push      r1
    10532 0000125f 506002c6         ldiu      710,r0
    10533 00001260 0f200000         push      r0
    10534 00001261 6200004d'        call      _gp_WritingWord
    10535                                                           ; Call Occurs
    10536 00001262 18740002         subi      2,sp
    10537                           .line   21
    10538                   ;----------------------------------------------------------------------
    10539                   ; 1680 | gpROOTDIS;                                                             
    10540                   ;----------------------------------------------------------------------
    10541 00001263 50600000         ldiu      0,r0
    10542 00001264 50610039         ldiu      57,r1
    10543 00001265 0f200000         push      r0
    10544 00001266 0f210000         push      r1
    10545 00001267 6200004d'        call      _gp_WritingWord
    10546                                                           ; Call Occurs
    10547 00001268 18740002         subi      2,sp
    10548                           .line   23
    10549                   ;----------------------------------------------------------------------
    10550                   ; 1682 | break;                                                                 
    10551                   ; 1683 | case 123:       //                                       
    10552                   ;----------------------------------------------------------------------
    10553 00001269 6a000163         bu        L559
    10554                   ;*      Branch Occurs to L559 
    10555 0000126a          L504:        
    10556                           .line   25
    10557                   ;----------------------------------------------------------------------
    10558                   ; 1684 | nLedDataLoad.nDataDownFlag = TRUE;                                     
    10559                   ;----------------------------------------------------------------------
    10560 0000126a 50600001         ldiu      1,r0
    10561 0000126b 1520000e!        sti       r0,@_nLedDataLoad+14
    10562                           .line   27
    10563                   ;----------------------------------------------------------------------
    10564                   ; 1686 | gpLED_UPLOAD_DABUT_SF_OFF;                                             
    10565                   ;----------------------------------------------------------------------
    10566 0000126c 506102c7         ldiu      711,r1
    10567 0000126d 50600000         ldiu      0,r0
    10568 0000126e 0f200000         push      r0
    10569 0000126f 0f210000         push      r1
    10570 00001270 6200004d'        call      _gp_WritingWord
    10571                                                           ; Call Occurs
    10572 00001271 18740002         subi      2,sp
    10573                           .line   28
    10574                   ;----------------------------------------------------------------------
    10575                   ; 1687 | gpROOTDIS;                                                             
    10576                   ;----------------------------------------------------------------------
    10577 00001272 50600000         ldiu      0,r0
    10578 00001273 50610039         ldiu      57,r1
    10579 00001274 0f200000         push      r0
    10580 00001275 0f210000         push      r1
    10581 00001276 6200004d'        call      _gp_WritingWord
    10582                                                           ; Call Occurs
    10583 00001277 18740002         subi      2,sp
    10584                           .line   30
TMS320C3x/4x COFF AssemblerVersion 5.11     Fri Sep 17 14:23:56 2010
Copyright (c) 1987-1999 Texas Instruments Incorporatedc:\lang\tms320c3x\511\bin\asm30.exe -l gpproface.asm gpproface.obj -tC:\Users\jds\AppData\Local\Temp\gpproface.tmp 

gpproface.asm                                                        PAGE  197

    10585                   ;----------------------------------------------------------------------
    10586                   ; 1689 | break;                                                                 
    10587                   ; 1690 | case 124:       //RND                                          
    10588                   ;----------------------------------------------------------------------
    10589 00001278 6a000154         bu        L559
    10590                   ;*      Branch Occurs to L559 
    10591                           .line   32
    10592                   ;----------------------------------------------------------------------
    10593                   ; 1691 | gpROOTEN;                                                              
    10594                   ;----------------------------------------------------------------------
    10595 00001279          L506:        
    10596 00001279 0f200000         push      r0
    10597 0000127a 0f210000         push      r1
    10598 0000127b 6200004d'        call      _gp_WritingWord
    10599                                                           ; Call Occurs
    10600 0000127c 18740002         subi      2,sp
    10601                           .line   34
    10602                   ;----------------------------------------------------------------------
    10603                   ; 1693 | nSelect_Button.nScreenSetNum = 0;                                      
    10604                   ; 1695 | //if(!Seek_File_UNIT(SDD_FILE))                                        
    10605                   ;----------------------------------------------------------------------
    10606 0000127d 50600000         ldiu      0,r0
    10607 0000127e 15200206-        sti       r0,@_nSelect_Button+5
    10608                           .line   37
    10609                   ;----------------------------------------------------------------------
    10610                   ; 1696 | if(!Nvsram_IDC_UpLoad_CK(sDataBuf,RND_FILE))                           
    10611                   ;----------------------------------------------------------------------
    10612 0000127f 50610002         ldiu      2,r1
    10613 00001280 5000000b         ldiu      fp,r0
    10614 00001281 0f210000         push      r1
    10615 00001282 02600015         addi      21,r0
    10616 00001283 0f200000         push      r0
    10617 00001284 62000000!        call      _Nvsram_IDC_UpLoad_CK
    10618                                                           ; Call Occurs
    10619 00001285 04e00000         cmpi      0,r0
    10620 00001286 6a260013         bned      L509
    10621 00001287 18740002         subi      2,sp
    10622 00001288 53610089         ldine     137,r1
    10623 00001289 5360000f         ldine     15,r0
    10624                   ;*      Branch Occurs to L509 
    10625                           .line   39
    10626                   ;----------------------------------------------------------------------
    10627                   ; 1698 | gp_WritingStr(550,5,sClenBuf);                                         
    10628                   ;----------------------------------------------------------------------
    10629 0000128a 5000000b         ldiu      fp,r0
    10630 0000128b 50620005         ldiu      5,r2
    10631 0000128c 50610226         ldiu      550,r1
    10632 0000128d 02600001         addi      1,r0
    10633 0000128e 0f200000         push      r0
    10634 0000128f 0f220000         push      r2
    10635 00001290 0f210000         push      r1
    10636 00001291 620000ba'        call      _gp_WritingStr
    10637                                                           ; Call Occurs
    10638 00001292 18740003         subi      3,sp
TMS320C3x/4x COFF AssemblerVersion 5.11     Fri Sep 17 14:23:56 2010
Copyright (c) 1987-1999 Texas Instruments Incorporatedc:\lang\tms320c3x\511\bin\asm30.exe -l gpproface.asm gpproface.obj -tC:\Users\jds\AppData\Local\Temp\gpproface.tmp 

gpproface.asm                                                        PAGE  198

    10639                           .line   40
    10640                   ;----------------------------------------------------------------------
    10641                   ; 1699 | gp_WritingStr(555,5,(UCHAR*)"RND NoFile");                             
    10642                   ; 1701 | else                                                                   
    10643                   ; 1703 | //Nvsram_IDC_UpLoad_CK(sDataBuf,SDD_FILE);                             
    10644                   ;----------------------------------------------------------------------
    10645 00001293 50200234-        ldiu      @CL43,r0
    10646 00001294 50610005         ldiu      5,r1
    10647 00001295 5062022b         ldiu      555,r2
    10648 00001296 0f200000         push      r0
    10649 00001297 0f210000         push      r1
    10650 00001298 0f220000         push      r2
    10651 00001299 620000ba'        call      _gp_WritingStr
    10652                                                           ; Call Occurs
    10653 0000129a 18740003         subi      3,sp
    10654 0000129b 6a00001e         bu        L514
    10655                   ;*      Branch Occurs to L514 
    10656                           .line   45
    10657                   ;----------------------------------------------------------------------
    10658                   ; 1704 | gpSFDD_UPLOAD_SCREEN;                                                  
    10659                   ;----------------------------------------------------------------------
    10660 0000129c          L509:        
    10661 0000129c 0f210000         push      r1
    10662 0000129d 0f200000         push      r0
    10663 0000129e 6200004d'        call      _gp_WritingWord
    10664                                                           ; Call Occurs
    10665 0000129f 18740002         subi      2,sp
    10666                           .line   47
    10667                   ;----------------------------------------------------------------------
    10668                   ; 1706 | nLedDataLoad.nSFKindCode = 0xF9;                                       
    10669                   ;----------------------------------------------------------------------
    10670 000012a0 506000f9         ldiu      249,r0
    10671 000012a1 15200005!        sti       r0,@_nLedDataLoad+5
    10672                           .line   49
    10673                   ;----------------------------------------------------------------------
    10674                   ; 1708 | if(WORD_L(sDataBuf[0]) == 0x32)                                        
    10675                   ;----------------------------------------------------------------------
    10676 000012a2 5008000b         ldiu      fp,ar0
    10677 000012a3 02680015         addi      21,ar0
    10678 000012a4 506000ff         ldiu      255,r0
    10679 000012a5 21a0c000         and3      r0,*ar0,r0
    10680 000012a6 04e00032         cmpi      50,r0
    10681 000012a7 6a26000a         bned      L512
    10682 000012a8 53200236-        ldine     @CL45,r0
    10683 000012a9 53620008         ldine     8,r2
    10684 000012aa 5361023f         ldine     575,r1
    10685                   ;*      Branch Occurs to L512 
    10686                           .line   51
    10687                   ;----------------------------------------------------------------------
    10688                   ; 1710 | gp_WritingStr(575,8,(UCHAR*)"RND CHECK -> OK");                        
    10689                   ; 1712 | else                                                                   
    10690                   ;----------------------------------------------------------------------
    10691 000012ab 50210235-        ldiu      @CL44,r1
    10692 000012ac 50600008         ldiu      8,r0
TMS320C3x/4x COFF AssemblerVersion 5.11     Fri Sep 17 14:23:56 2010
Copyright (c) 1987-1999 Texas Instruments Incorporatedc:\lang\tms320c3x\511\bin\asm30.exe -l gpproface.asm gpproface.obj -tC:\Users\jds\AppData\Local\Temp\gpproface.tmp 

gpproface.asm                                                        PAGE  199

    10693 000012ad 5062023f         ldiu      575,r2
    10694 000012ae 0f210000         push      r1
    10695 000012af 0f200000         push      r0
    10696 000012b0 0f220000         push      r2
    10697 000012b1 620000ba'        call      _gp_WritingStr
    10698                                                           ; Call Occurs
    10699 000012b2 18740003         subi      3,sp
    10700 000012b3 6a000005         bu        L513
    10701                   ;*      Branch Occurs to L513 
    10702                           .line   55
    10703                   ;----------------------------------------------------------------------
    10704                   ; 1714 | gp_WritingStr(575,8,(UCHAR*)"RND CHECK -> NG");                        
    10705                   ;----------------------------------------------------------------------
    10706 000012b4          L512:        
    10707 000012b4 0f200000         push      r0
    10708 000012b5 0f220000         push      r2
    10709 000012b6 0f210000         push      r1
    10710 000012b7 620000ba'        call      _gp_WritingStr
    10711                                                           ; Call Occurs
    10712 000012b8 18740003         subi      3,sp
    10713 000012b9          L513:        
    10714                           .line   58
    10715                   ;----------------------------------------------------------------------
    10716                   ; 1717 | GP_SFDD_SW_UPLOAD_CLEAN();                                             
    10717                   ;----------------------------------------------------------------------
    10718 000012b9 62001411'        call      _GP_SFDD_SW_UPLOAD_CLEAN
    10719                                                           ; Call Occurs
    10720 000012ba          L514:        
    10721                           .line   62
    10722                   ;----------------------------------------------------------------------
    10723                   ; 1721 | nLedDataLoad.nRNDSelt = TRUE;                                          
    10724                   ;----------------------------------------------------------------------
    10725 000012ba 50600001         ldiu      1,r0
    10726 000012bb 15200000!        sti       r0,@_nLedDataLoad+0
    10727                           .line   63
    10728                   ;----------------------------------------------------------------------
    10729                   ; 1722 | nLedDataLoad.nFDDSelt = FALSE;                                         
    10730                   ;----------------------------------------------------------------------
    10731 000012bc 50600000         ldiu      0,r0
    10732 000012bd 15200001!        sti       r0,@_nLedDataLoad+1
    10733                           .line   64
    10734                   ;----------------------------------------------------------------------
    10735                   ; 1723 | nLedDataLoad.nIDDSelt = FALSE;                                         
    10736                   ;----------------------------------------------------------------------
    10737 000012be 15200002!        sti       r0,@_nLedDataLoad+2
    10738                           .line   65
    10739                   ;----------------------------------------------------------------------
    10740                   ; 1724 | nLedDataLoad.nTNDSelt = FALSE;                                         
    10741                   ;----------------------------------------------------------------------
    10742 000012bf 15200003!        sti       r0,@_nLedDataLoad+3
    10743                           .line   67
    10744                   ;----------------------------------------------------------------------
    10745                   ; 1726 | break;                                                                 
    10746                   ; 1728 | case 125:       //FDD                                          
TMS320C3x/4x COFF AssemblerVersion 5.11     Fri Sep 17 14:23:56 2010
Copyright (c) 1987-1999 Texas Instruments Incorporatedc:\lang\tms320c3x\511\bin\asm30.exe -l gpproface.asm gpproface.obj -tC:\Users\jds\AppData\Local\Temp\gpproface.tmp 

gpproface.asm                                                        PAGE  200

    10747                   ;----------------------------------------------------------------------
    10748 000012c0 6a00010c         bu        L559
    10749                   ;*      Branch Occurs to L559 
    10750                           .line   70
    10751                   ;----------------------------------------------------------------------
    10752                   ; 1729 | gpROOTEN;                                                              
    10753                   ;----------------------------------------------------------------------
    10754 000012c1          L516:        
    10755 000012c1 0f210000         push      r1
    10756 000012c2 0f200000         push      r0
    10757 000012c3 6200004d'        call      _gp_WritingWord
    10758                                                           ; Call Occurs
    10759 000012c4 18740002         subi      2,sp
    10760                           .line   72
    10761                   ;----------------------------------------------------------------------
    10762                   ; 1731 | nSelect_Button.nScreenSetNum = 0;                                      
    10763                   ;----------------------------------------------------------------------
    10764 000012c5 50600000         ldiu      0,r0
    10765 000012c6 15200206-        sti       r0,@_nSelect_Button+5
    10766                           .line   75
    10767                   ;----------------------------------------------------------------------
    10768                   ; 1734 | if(nLedDataLoad.nFDD_DATA_Selt)                                        
    10769                   ;----------------------------------------------------------------------
    10770 000012c7 08200004!        ldi       @_nLedDataLoad+4,r0
    10771 000012c8 6a25000a         beqd      L519
    10772 000012c9 0c800000         nop
    10773 000012ca 52e10003         ldieq     3,r1
    10774 000012cb 5280000b         ldieq     fp,r0
    10775                   ;*      Branch Occurs to L519 
    10776                           .line   77
    10777                   ;----------------------------------------------------------------------
    10778                   ; 1736 | sFileCheck = Nvsram_IDC_UpLoad_CK(sDataBuf,FDD_DATA);                  
    10779                   ; 1738 | else                                                                   
    10780                   ;----------------------------------------------------------------------
    10781 000012cc 50610006         ldiu      6,r1
    10782 000012cd 5000000b         ldiu      fp,r0
    10783 000012ce 0f210000         push      r1
    10784 000012cf 02600015         addi      21,r0
    10785 000012d0 0f200000         push      r0
    10786 000012d1 62000000!        call      _Nvsram_IDC_UpLoad_CK
    10787                                                           ; Call Occurs
    10788 000012d2 18740002         subi      2,sp
    10789 000012d3 15400333         sti       r0,*+fp(51)
    10790 000012d4 6a000006         bu        L520
    10791                   ;*      Branch Occurs to L520 
    10792                           .line   81
    10793                   ;----------------------------------------------------------------------
    10794                   ; 1740 | sFileCheck = Nvsram_IDC_UpLoad_CK(sDataBuf,FDD_FILE);                  
    10795                   ;----------------------------------------------------------------------
    10796 000012d5          L519:        
    10797 000012d5 0f210000         push      r1
    10798 000012d6 02600015         addi      21,r0
    10799 000012d7 0f200000         push      r0
    10800 000012d8 62000000!        call      _Nvsram_IDC_UpLoad_CK
TMS320C3x/4x COFF AssemblerVersion 5.11     Fri Sep 17 14:23:56 2010
Copyright (c) 1987-1999 Texas Instruments Incorporatedc:\lang\tms320c3x\511\bin\asm30.exe -l gpproface.asm gpproface.obj -tC:\Users\jds\AppData\Local\Temp\gpproface.tmp 

gpproface.asm                                                        PAGE  201

    10801                                                           ; Call Occurs
    10802 000012d9 18740002         subi      2,sp
    10803 000012da 15400333         sti       r0,*+fp(51)
    10804 000012db          L520:        
    10805                           .line   84
    10806                   ;----------------------------------------------------------------------
    10807                   ; 1743 | if(!sFileCheck)                                                        
    10808                   ;----------------------------------------------------------------------
    10809 000012db 08400333         ldi       *+fp(51),r0
    10810 000012dc 6a260013         bned      L523
    10811 000012dd 0c800000         nop
    10812 000012de 53610089         ldine     137,r1
    10813 000012df 5360000f         ldine     15,r0
    10814                   ;*      Branch Occurs to L523 
    10815                           .line   86
    10816                   ;----------------------------------------------------------------------
    10817                   ; 1745 | gp_WritingStr(550,5,sClenBuf);                                         
    10818                   ;----------------------------------------------------------------------
    10819 000012e0 5000000b         ldiu      fp,r0
    10820 000012e1 50620005         ldiu      5,r2
    10821 000012e2 50610226         ldiu      550,r1
    10822 000012e3 02600001         addi      1,r0
    10823 000012e4 0f200000         push      r0
    10824 000012e5 0f220000         push      r2
    10825 000012e6 0f210000         push      r1
    10826 000012e7 620000ba'        call      _gp_WritingStr
    10827                                                           ; Call Occurs
    10828 000012e8 18740003         subi      3,sp
    10829                           .line   87
    10830                   ;----------------------------------------------------------------------
    10831                   ; 1746 | gp_WritingStr(555,5,(UCHAR*)"FDD NoFile");                             
    10832                   ; 1748 | else                                                                   
    10833                   ; 1750 | //Nvsram_IDC_UpLoad_CK(sDataBuf,FDD_FILE);                             
    10834                   ;----------------------------------------------------------------------
    10835 000012e9 50210237-        ldiu      @CL46,r1
    10836 000012ea 50600005         ldiu      5,r0
    10837 000012eb 5062022b         ldiu      555,r2
    10838 000012ec 0f210000         push      r1
    10839 000012ed 0f200000         push      r0
    10840 000012ee 0f220000         push      r2
    10841 000012ef 620000ba'        call      _gp_WritingStr
    10842                                                           ; Call Occurs
    10843 000012f0 18740003         subi      3,sp
    10844 000012f1 6a000029         bu        L530
    10845                   ;*      Branch Occurs to L530 
    10846                           .line   92
    10847                   ;----------------------------------------------------------------------
    10848                   ; 1751 | gpSFDD_UPLOAD_SCREEN;                                                  
    10849                   ;----------------------------------------------------------------------
    10850 000012f2          L523:        
    10851 000012f2 0f210000         push      r1
    10852 000012f3 0f200000         push      r0
    10853 000012f4 6200004d'        call      _gp_WritingWord
    10854                                                           ; Call Occurs
TMS320C3x/4x COFF AssemblerVersion 5.11     Fri Sep 17 14:23:56 2010
Copyright (c) 1987-1999 Texas Instruments Incorporatedc:\lang\tms320c3x\511\bin\asm30.exe -l gpproface.asm gpproface.obj -tC:\Users\jds\AppData\Local\Temp\gpproface.tmp 

gpproface.asm                                                        PAGE  202

    10855 000012f5 18740002         subi      2,sp
    10856                           .line   93
    10857                   ;----------------------------------------------------------------------
    10858                   ; 1752 | nLedDataLoad.nSFKindCode = 0xF5;                                       
    10859                   ;----------------------------------------------------------------------
    10860 000012f6 506000f5         ldiu      245,r0
    10861 000012f7 15200005!        sti       r0,@_nLedDataLoad+5
    10862                           .line   95
    10863                   ;----------------------------------------------------------------------
    10864                   ; 1754 | if(nLedDataLoad.nFDD_DATA_Selt)//  .                 
    10865                   ;----------------------------------------------------------------------
    10866 000012f8 08200004!        ldi       @_nLedDataLoad+4,r0
    10867 000012f9 6a050009         beq       L525
    10868                   ;*      Branch Occurs to L525 
    10869                           .line   97
    10870                   ;----------------------------------------------------------------------
    10871                   ; 1756 | gp_WritingStr(575,8,(UCHAR*)"FDD DATA -> OK");                         
    10872                   ; 1758 | else    //  .                                      
    10873                   ;----------------------------------------------------------------------
    10874 000012fa 50220238-        ldiu      @CL47,r2
    10875 000012fb 50600008         ldiu      8,r0
    10876 000012fc 5061023f         ldiu      575,r1
    10877 000012fd 0f220000         push      r2
    10878 000012fe 0f200000         push      r0
    10879 000012ff 0f210000         push      r1
    10880 00001300 620000ba'        call      _gp_WritingStr
    10881                                                           ; Call Occurs
    10882 00001301 18740003         subi      3,sp
    10883 00001302 6a000017         bu        L529
    10884                   ;*      Branch Occurs to L529 
    10885 00001303          L525:        
    10886                           .line   101
    10887                   ;----------------------------------------------------------------------
    10888                   ; 1760 | if(WORD_L(sDataBuf[0]) == 0x34)                                        
    10889                   ;----------------------------------------------------------------------
    10890 00001303 5008000b         ldiu      fp,ar0
    10891 00001304 02680015         addi      21,ar0
    10892 00001305 506000ff         ldiu      255,r0
    10893 00001306 21a0c000         and3      r0,*ar0,r0
    10894 00001307 04e00034         cmpi      52,r0
    10895 00001308 6a26000a         bned      L528
    10896 00001309 5321023a-        ldine     @CL49,r1
    10897 0000130a 53600008         ldine     8,r0
    10898 0000130b 5362023f         ldine     575,r2
    10899                   ;*      Branch Occurs to L528 
    10900                           .line   103
    10901                   ;----------------------------------------------------------------------
    10902                   ; 1762 | gp_WritingStr(575,8,(UCHAR*)"FDD CHECK -> OK");                        
    10903                   ; 1764 | else                                                                   
    10904                   ;----------------------------------------------------------------------
    10905 0000130c 50220239-        ldiu      @CL48,r2
    10906 0000130d 50610008         ldiu      8,r1
    10907 0000130e 5060023f         ldiu      575,r0
    10908 0000130f 0f220000         push      r2
TMS320C3x/4x COFF AssemblerVersion 5.11     Fri Sep 17 14:23:56 2010
Copyright (c) 1987-1999 Texas Instruments Incorporatedc:\lang\tms320c3x\511\bin\asm30.exe -l gpproface.asm gpproface.obj -tC:\Users\jds\AppData\Local\Temp\gpproface.tmp 

gpproface.asm                                                        PAGE  203

    10909 00001310 0f210000         push      r1
    10910 00001311 0f200000         push      r0
    10911 00001312 620000ba'        call      _gp_WritingStr
    10912                                                           ; Call Occurs
    10913 00001313 18740003         subi      3,sp
    10914 00001314 6a000005         bu        L529
    10915                   ;*      Branch Occurs to L529 
    10916                           .line   107
    10917                   ;----------------------------------------------------------------------
    10918                   ; 1766 | gp_WritingStr(575,8,(UCHAR*)"FDD CHECK -> NG");                        
    10919                   ;----------------------------------------------------------------------
    10920 00001315          L528:        
    10921 00001315 0f210000         push      r1
    10922 00001316 0f200000         push      r0
    10923 00001317 0f220000         push      r2
    10924 00001318 620000ba'        call      _gp_WritingStr
    10925                                                           ; Call Occurs
    10926 00001319 18740003         subi      3,sp
    10927 0000131a          L529:        
    10928                           .line   111
    10929                   ;----------------------------------------------------------------------
    10930                   ; 1770 | GP_SFDD_SW_UPLOAD_CLEAN();                                             
    10931                   ;----------------------------------------------------------------------
    10932 0000131a 62001411'        call      _GP_SFDD_SW_UPLOAD_CLEAN
    10933                                                           ; Call Occurs
    10934 0000131b          L530:        
    10935                           .line   115
    10936                   ;----------------------------------------------------------------------
    10937                   ; 1774 | nLedDataLoad.nRNDSelt = FALSE;                                         
    10938                   ;----------------------------------------------------------------------
    10939 0000131b 50600000         ldiu      0,r0
    10940 0000131c 15200000!        sti       r0,@_nLedDataLoad+0
    10941                           .line   116
    10942                   ;----------------------------------------------------------------------
    10943                   ; 1775 | nLedDataLoad.nFDDSelt = TRUE;                                          
    10944                   ;----------------------------------------------------------------------
    10945 0000131d 50600001         ldiu      1,r0
    10946 0000131e 15200001!        sti       r0,@_nLedDataLoad+1
    10947                           .line   117
    10948                   ;----------------------------------------------------------------------
    10949                   ; 1776 | nLedDataLoad.nIDDSelt = FALSE;                                         
    10950                   ;----------------------------------------------------------------------
    10951 0000131f 50600000         ldiu      0,r0
    10952 00001320 15200002!        sti       r0,@_nLedDataLoad+2
    10953                           .line   118
    10954                   ;----------------------------------------------------------------------
    10955                   ; 1777 | nLedDataLoad.nTNDSelt = FALSE;                                         
    10956                   ;----------------------------------------------------------------------
    10957 00001321 15200003!        sti       r0,@_nLedDataLoad+3
    10958                           .line   120
    10959                   ;----------------------------------------------------------------------
    10960                   ; 1779 | break;                                                                 
    10961                   ; 1780 | case 126://                                                    
    10962                   ;----------------------------------------------------------------------
TMS320C3x/4x COFF AssemblerVersion 5.11     Fri Sep 17 14:23:56 2010
Copyright (c) 1987-1999 Texas Instruments Incorporatedc:\lang\tms320c3x\511\bin\asm30.exe -l gpproface.asm gpproface.obj -tC:\Users\jds\AppData\Local\Temp\gpproface.tmp 

gpproface.asm                                                        PAGE  204

    10963 00001322 6a0000aa         bu        L559
    10964                   ;*      Branch Occurs to L559 
    10965                           .line   122
    10966                   ;----------------------------------------------------------------------
    10967                   ; 1781 | gpROOTEN;                                                              
    10968                   ;----------------------------------------------------------------------
    10969 00001323          L532:        
    10970 00001323 0f200000         push      r0
    10971 00001324 0f210000         push      r1
    10972 00001325 6200004d'        call      _gp_WritingWord
    10973                                                           ; Call Occurs
    10974 00001326 18740002         subi      2,sp
    10975                           .line   123
    10976                   ;----------------------------------------------------------------------
    10977                   ; 1782 | nSelect_Button.nScreenSetNum = 0;                                      
    10978                   ;----------------------------------------------------------------------
    10979 00001327 50600000         ldiu      0,r0
    10980 00001328 15200206-        sti       r0,@_nSelect_Button+5
    10981                           .line   125
    10982                   ;----------------------------------------------------------------------
    10983                   ; 1784 | if(!Nvsram_IDC_UpLoad_CK(sDataBuf,IDD_FILE))                           
    10984                   ;----------------------------------------------------------------------
    10985 00001329 50610004         ldiu      4,r1
    10986 0000132a 5000000b         ldiu      fp,r0
    10987 0000132b 0f210000         push      r1
    10988 0000132c 02600015         addi      21,r0
    10989 0000132d 0f200000         push      r0
    10990 0000132e 62000000!        call      _Nvsram_IDC_UpLoad_CK
    10991                                                           ; Call Occurs
    10992 0000132f 04e00000         cmpi      0,r0
    10993 00001330 6a260013         bned      L535
    10994 00001331 18740002         subi      2,sp
    10995 00001332 53610089         ldine     137,r1
    10996 00001333 5360000f         ldine     15,r0
    10997                   ;*      Branch Occurs to L535 
    10998                           .line   127
    10999                   ;----------------------------------------------------------------------
    11000                   ; 1786 | gp_WritingStr(550,5,sClenBuf);                                         
    11001                   ;----------------------------------------------------------------------
    11002 00001334 5000000b         ldiu      fp,r0
    11003 00001335 50620005         ldiu      5,r2
    11004 00001336 50610226         ldiu      550,r1
    11005 00001337 02600001         addi      1,r0
    11006 00001338 0f200000         push      r0
    11007 00001339 0f220000         push      r2
    11008 0000133a 0f210000         push      r1
    11009 0000133b 620000ba'        call      _gp_WritingStr
    11010                                                           ; Call Occurs
    11011 0000133c 18740003         subi      3,sp
    11012                           .line   128
    11013                   ;----------------------------------------------------------------------
    11014                   ; 1787 | gp_WritingStr(555,5,(UCHAR*)"IDD NoFile");                             
    11015                   ; 1789 | else                                                                   
    11016                   ; 1791 | //Nvsram_IDC_UpLoad_CK(sDataBuf,FDD_FILE);                             
TMS320C3x/4x COFF AssemblerVersion 5.11     Fri Sep 17 14:23:56 2010
Copyright (c) 1987-1999 Texas Instruments Incorporatedc:\lang\tms320c3x\511\bin\asm30.exe -l gpproface.asm gpproface.obj -tC:\Users\jds\AppData\Local\Temp\gpproface.tmp 

gpproface.asm                                                        PAGE  205

    11017                   ;----------------------------------------------------------------------
    11018 0000133d 5020023b-        ldiu      @CL50,r0
    11019 0000133e 50610005         ldiu      5,r1
    11020 0000133f 5062022b         ldiu      555,r2
    11021 00001340 0f200000         push      r0
    11022 00001341 0f210000         push      r1
    11023 00001342 0f220000         push      r2
    11024 00001343 620000ba'        call      _gp_WritingStr
    11025                                                           ; Call Occurs
    11026 00001344 18740003         subi      3,sp
    11027 00001345 6a00001e         bu        L540
    11028                   ;*      Branch Occurs to L540 
    11029                           .line   133
    11030                   ;----------------------------------------------------------------------
    11031                   ; 1792 | gpSFDD_UPLOAD_SCREEN;                                                  
    11032                   ;----------------------------------------------------------------------
    11033 00001346          L535:        
    11034 00001346 0f210000         push      r1
    11035 00001347 0f200000         push      r0
    11036 00001348 6200004d'        call      _gp_WritingWord
    11037                                                           ; Call Occurs
    11038 00001349 18740002         subi      2,sp
    11039                           .line   134
    11040                   ;----------------------------------------------------------------------
    11041                   ; 1793 | nLedDataLoad.nSFKindCode = 0xF1;                                       
    11042                   ;----------------------------------------------------------------------
    11043 0000134a 506000f1         ldiu      241,r0
    11044 0000134b 15200005!        sti       r0,@_nLedDataLoad+5
    11045                           .line   135
    11046                   ;----------------------------------------------------------------------
    11047                   ; 1794 | if(WORD_L(sDataBuf[0]) == 0x31)                                        
    11048                   ;----------------------------------------------------------------------
    11049 0000134c 5008000b         ldiu      fp,ar0
    11050 0000134d 02680015         addi      21,ar0
    11051 0000134e 506000ff         ldiu      255,r0
    11052 0000134f 21a0c000         and3      r0,*ar0,r0
    11053 00001350 04e00031         cmpi      49,r0
    11054 00001351 6a26000a         bned      L538
    11055 00001352 5320023d-        ldine     @CL52,r0
    11056 00001353 53610008         ldine     8,r1
    11057 00001354 5362023f         ldine     575,r2
    11058                   ;*      Branch Occurs to L538 
    11059                           .line   137
    11060                   ;----------------------------------------------------------------------
    11061                   ; 1796 | gp_WritingStr(575,8,(UCHAR*)"IDD CHECK -> OK");                        
    11062                   ; 1798 | else                                                                   
    11063                   ;----------------------------------------------------------------------
    11064 00001355 5020023c-        ldiu      @CL51,r0
    11065 00001356 50610008         ldiu      8,r1
    11066 00001357 5062023f         ldiu      575,r2
    11067 00001358 0f200000         push      r0
    11068 00001359 0f210000         push      r1
    11069 0000135a 0f220000         push      r2
    11070 0000135b 620000ba'        call      _gp_WritingStr
TMS320C3x/4x COFF AssemblerVersion 5.11     Fri Sep 17 14:23:56 2010
Copyright (c) 1987-1999 Texas Instruments Incorporatedc:\lang\tms320c3x\511\bin\asm30.exe -l gpproface.asm gpproface.obj -tC:\Users\jds\AppData\Local\Temp\gpproface.tmp 

gpproface.asm                                                        PAGE  206

    11071                                                           ; Call Occurs
    11072 0000135c 18740003         subi      3,sp
    11073 0000135d 6a000005         bu        L539
    11074                   ;*      Branch Occurs to L539 
    11075                           .line   141
    11076                   ;----------------------------------------------------------------------
    11077                   ; 1800 | gp_WritingStr(575,8,(UCHAR*)"IDD CHECK -> NG");                        
    11078                   ;----------------------------------------------------------------------
    11079 0000135e          L538:        
    11080 0000135e 0f200000         push      r0
    11081 0000135f 0f210000         push      r1
    11082 00001360 0f220000         push      r2
    11083 00001361 620000ba'        call      _gp_WritingStr
    11084                                                           ; Call Occurs
    11085 00001362 18740003         subi      3,sp
    11086 00001363          L539:        
    11087                           .line   144
    11088                   ;----------------------------------------------------------------------
    11089                   ; 1803 | GP_SFDD_SW_UPLOAD_CLEAN();                                             
    11090                   ;----------------------------------------------------------------------
    11091 00001363 62001411'        call      _GP_SFDD_SW_UPLOAD_CLEAN
    11092                                                           ; Call Occurs
    11093 00001364          L540:        
    11094                           .line   148
    11095                   ;----------------------------------------------------------------------
    11096                   ; 1807 | nLedDataLoad.nRNDSelt = FALSE;                                         
    11097                   ;----------------------------------------------------------------------
    11098 00001364 50600000         ldiu      0,r0
    11099 00001365 15200000!        sti       r0,@_nLedDataLoad+0
    11100                           .line   149
    11101                   ;----------------------------------------------------------------------
    11102                   ; 1808 | nLedDataLoad.nFDDSelt = FALSE;                                         
    11103                   ;----------------------------------------------------------------------
    11104 00001366 15200001!        sti       r0,@_nLedDataLoad+1
    11105                           .line   150
    11106                   ;----------------------------------------------------------------------
    11107                   ; 1809 | nLedDataLoad.nIDDSelt = TRUE;                                          
    11108                   ;----------------------------------------------------------------------
    11109 00001367 50600001         ldiu      1,r0
    11110 00001368 15200002!        sti       r0,@_nLedDataLoad+2
    11111                           .line   151
    11112                   ;----------------------------------------------------------------------
    11113                   ; 1810 | nLedDataLoad.nTNDSelt = FALSE;                                         
    11114                   ;----------------------------------------------------------------------
    11115 00001369 50600000         ldiu      0,r0
    11116 0000136a 15200003!        sti       r0,@_nLedDataLoad+3
    11117                           .line   153
    11118                   ;----------------------------------------------------------------------
    11119                   ; 1812 | break;                                                                 
    11120                   ; 1813 | case 127:       //                                             
    11121                   ;----------------------------------------------------------------------
    11122 0000136b 6a000061         bu        L559
    11123                   ;*      Branch Occurs to L559 
    11124                           .line   155
TMS320C3x/4x COFF AssemblerVersion 5.11     Fri Sep 17 14:23:56 2010
Copyright (c) 1987-1999 Texas Instruments Incorporatedc:\lang\tms320c3x\511\bin\asm30.exe -l gpproface.asm gpproface.obj -tC:\Users\jds\AppData\Local\Temp\gpproface.tmp 

gpproface.asm                                                        PAGE  207

    11125                   ;----------------------------------------------------------------------
    11126                   ; 1814 | gpROOTEN;                                                              
    11127                   ;----------------------------------------------------------------------
    11128 0000136c          L542:        
    11129 0000136c 0f200000         push      r0
    11130 0000136d 0f210000         push      r1
    11131 0000136e 6200004d'        call      _gp_WritingWord
    11132                                                           ; Call Occurs
    11133 0000136f 18740002         subi      2,sp
    11134                           .line   156
    11135                   ;----------------------------------------------------------------------
    11136                   ; 1815 | nSelect_Button.nScreenSetNum = 0;                                      
    11137                   ;----------------------------------------------------------------------
    11138 00001370 50600000         ldiu      0,r0
    11139 00001371 15200206-        sti       r0,@_nSelect_Button+5
    11140                           .line   158
    11141                   ;----------------------------------------------------------------------
    11142                   ; 1817 | if(!Nvsram_IDC_UpLoad_CK(sDataBuf,TND_FILE))                           
    11143                   ;----------------------------------------------------------------------
    11144 00001372 50610005         ldiu      5,r1
    11145 00001373 5000000b         ldiu      fp,r0
    11146 00001374 0f210000         push      r1
    11147 00001375 02600015         addi      21,r0
    11148 00001376 0f200000         push      r0
    11149 00001377 62000000!        call      _Nvsram_IDC_UpLoad_CK
    11150                                                           ; Call Occurs
    11151 00001378 04e00000         cmpi      0,r0
    11152 00001379 6a260013         bned      L545
    11153 0000137a 18740002         subi      2,sp
    11154 0000137b 53610089         ldine     137,r1
    11155 0000137c 5360000f         ldine     15,r0
    11156                   ;*      Branch Occurs to L545 
    11157                           .line   160
    11158                   ;----------------------------------------------------------------------
    11159                   ; 1819 | gp_WritingStr(550,5,sClenBuf);                                         
    11160                   ;----------------------------------------------------------------------
    11161 0000137d 5002000b         ldiu      fp,r2
    11162 0000137e 50600005         ldiu      5,r0
    11163 0000137f 50610226         ldiu      550,r1
    11164 00001380 02620001         addi      1,r2
    11165 00001381 0f220000         push      r2
    11166 00001382 0f200000         push      r0
    11167 00001383 0f210000         push      r1
    11168 00001384 620000ba'        call      _gp_WritingStr
    11169                                                           ; Call Occurs
    11170 00001385 18740003         subi      3,sp
    11171                           .line   161
    11172                   ;----------------------------------------------------------------------
    11173                   ; 1820 | gp_WritingStr(555,5,(UCHAR*)"TND NoFile");                             
    11174                   ; 1822 | else                                                                   
    11175                   ; 1824 | //Nvsram_IDC_UpLoad_CK(sDataBuf,FDD_FILE);                             
    11176                   ;----------------------------------------------------------------------
    11177 00001386 5020023e-        ldiu      @CL53,r0
    11178 00001387 50610005         ldiu      5,r1
TMS320C3x/4x COFF AssemblerVersion 5.11     Fri Sep 17 14:23:56 2010
Copyright (c) 1987-1999 Texas Instruments Incorporatedc:\lang\tms320c3x\511\bin\asm30.exe -l gpproface.asm gpproface.obj -tC:\Users\jds\AppData\Local\Temp\gpproface.tmp 

gpproface.asm                                                        PAGE  208

    11179 00001388 5062022b         ldiu      555,r2
    11180 00001389 0f200000         push      r0
    11181 0000138a 0f210000         push      r1
    11182 0000138b 0f220000         push      r2
    11183 0000138c 620000ba'        call      _gp_WritingStr
    11184                                                           ; Call Occurs
    11185 0000138d 18740003         subi      3,sp
    11186 0000138e 6a00001e         bu        L550
    11187                   ;*      Branch Occurs to L550 
    11188                           .line   166
    11189                   ;----------------------------------------------------------------------
    11190                   ; 1825 | gpSFDD_UPLOAD_SCREEN;                                                  
    11191                   ;----------------------------------------------------------------------
    11192 0000138f          L545:        
    11193 0000138f 0f210000         push      r1
    11194 00001390 0f200000         push      r0
    11195 00001391 6200004d'        call      _gp_WritingWord
    11196                                                           ; Call Occurs
    11197 00001392 18740002         subi      2,sp
    11198                           .line   167
    11199                   ;----------------------------------------------------------------------
    11200                   ; 1826 | nLedDataLoad.nSFKindCode = 0xF7;                                       
    11201                   ;----------------------------------------------------------------------
    11202 00001393 506000f7         ldiu      247,r0
    11203 00001394 15200005!        sti       r0,@_nLedDataLoad+5
    11204                           .line   168
    11205                   ;----------------------------------------------------------------------
    11206                   ; 1827 | if(WORD_L(sDataBuf[0]) == 0x33)                                        
    11207                   ;----------------------------------------------------------------------
    11208 00001395 5008000b         ldiu      fp,ar0
    11209 00001396 02680015         addi      21,ar0
    11210 00001397 506000ff         ldiu      255,r0
    11211 00001398 21a0c000         and3      r0,*ar0,r0
    11212 00001399 04e00033         cmpi      51,r0
    11213 0000139a 6a26000a         bned      L548
    11214 0000139b 53200240-        ldine     @CL55,r0
    11215 0000139c 53610008         ldine     8,r1
    11216 0000139d 5362023f         ldine     575,r2
    11217                   ;*      Branch Occurs to L548 
    11218                           .line   170
    11219                   ;----------------------------------------------------------------------
    11220                   ; 1829 | gp_WritingStr(575,8,(UCHAR*)"TND CHECK -> OK");                        
    11221                   ; 1831 | else                                                                   
    11222                   ;----------------------------------------------------------------------
    11223 0000139e 5020023f-        ldiu      @CL54,r0
    11224 0000139f 50620008         ldiu      8,r2
    11225 000013a0 5061023f         ldiu      575,r1
    11226 000013a1 0f200000         push      r0
    11227 000013a2 0f220000         push      r2
    11228 000013a3 0f210000         push      r1
    11229 000013a4 620000ba'        call      _gp_WritingStr
    11230                                                           ; Call Occurs
    11231 000013a5 18740003         subi      3,sp
    11232 000013a6 6a000005         bu        L549
TMS320C3x/4x COFF AssemblerVersion 5.11     Fri Sep 17 14:23:56 2010
Copyright (c) 1987-1999 Texas Instruments Incorporatedc:\lang\tms320c3x\511\bin\asm30.exe -l gpproface.asm gpproface.obj -tC:\Users\jds\AppData\Local\Temp\gpproface.tmp 

gpproface.asm                                                        PAGE  209

    11233                   ;*      Branch Occurs to L549 
    11234                           .line   174
    11235                   ;----------------------------------------------------------------------
    11236                   ; 1833 | gp_WritingStr(575,8,(UCHAR*)"TND CHECK -> NG");                        
    11237                   ;----------------------------------------------------------------------
    11238 000013a7          L548:        
    11239 000013a7 0f200000         push      r0
    11240 000013a8 0f210000         push      r1
    11241 000013a9 0f220000         push      r2
    11242 000013aa 620000ba'        call      _gp_WritingStr
    11243                                                           ; Call Occurs
    11244 000013ab 18740003         subi      3,sp
    11245 000013ac          L549:        
    11246                           .line   177
    11247                   ;----------------------------------------------------------------------
    11248                   ; 1836 | GP_SFDD_SW_UPLOAD_CLEAN();                                             
    11249                   ;----------------------------------------------------------------------
    11250 000013ac 62001411'        call      _GP_SFDD_SW_UPLOAD_CLEAN
    11251                                                           ; Call Occurs
    11252 000013ad          L550:        
    11253                           .line   181
    11254                   ;----------------------------------------------------------------------
    11255                   ; 1840 | nLedDataLoad.nRNDSelt = FALSE;                                         
    11256                   ;----------------------------------------------------------------------
    11257 000013ad 50600000         ldiu      0,r0
    11258 000013ae 15200000!        sti       r0,@_nLedDataLoad+0
    11259                           .line   182
    11260                   ;----------------------------------------------------------------------
    11261                   ; 1841 | nLedDataLoad.nFDDSelt = FALSE;                                         
    11262                   ;----------------------------------------------------------------------
    11263 000013af 15200001!        sti       r0,@_nLedDataLoad+1
    11264                           .line   183
    11265                   ;----------------------------------------------------------------------
    11266                   ; 1842 | nLedDataLoad.nIDDSelt = FALSE;                                         
    11267                   ;----------------------------------------------------------------------
    11268 000013b0 15200002!        sti       r0,@_nLedDataLoad+2
    11269                           .line   184
    11270                   ;----------------------------------------------------------------------
    11271                   ; 1843 | nLedDataLoad.nTNDSelt = TRUE;                                          
    11272                   ;----------------------------------------------------------------------
    11273 000013b1 50600001         ldiu      1,r0
    11274 000013b2 15200003!        sti       r0,@_nLedDataLoad+3
    11275                           .line   185
    11276                   ;----------------------------------------------------------------------
    11277                   ; 1844 | break;                                                                 
    11278                   ;----------------------------------------------------------------------
    11279 000013b3 6a000019         bu        L559
    11280                   ;*      Branch Occurs to L559 
    11281                           .line   9
    11282 000013b4          L552:        
    11283 000013b4 6a05fe9a         beq       L502
    11284                   ;*      Branch Occurs to L502 
    11285 000013b5 04e0007a         cmpi      122,r0
    11286 000013b6 6a05fea1         beq       L503
TMS320C3x/4x COFF AssemblerVersion 5.11     Fri Sep 17 14:23:56 2010
Copyright (c) 1987-1999 Texas Instruments Incorporatedc:\lang\tms320c3x\511\bin\asm30.exe -l gpproface.asm gpproface.obj -tC:\Users\jds\AppData\Local\Temp\gpproface.tmp 

gpproface.asm                                                        PAGE  210

    11287                   ;*      Branch Occurs to L503 
    11288 000013b7 04e0007b         cmpi      123,r0
    11289 000013b8 6a05feb1         beq       L504
    11290                   ;*      Branch Occurs to L504 
    11291 000013b9 04e0007c         cmpi      124,r0
    11292 000013ba 6a25febc         beqd      L506
    11293 000013bb 0c800000         nop
    11294 000013bc 52e00001         ldieq     1,r0
    11295 000013bd 52e10039         ldieq     57,r1
    11296                   ;*      Branch Occurs to L506 
    11297 000013be 04e0007d         cmpi      125,r0
    11298 000013bf 6a25feff         beqd      L516
    11299 000013c0 0c800000         nop
    11300 000013c1 52e10001         ldieq     1,r1
    11301 000013c2 52e00039         ldieq     57,r0
    11302                   ;*      Branch Occurs to L516 
    11303 000013c3 04e0007e         cmpi      126,r0
    11304 000013c4 6a25ff5c         beqd      L532
    11305 000013c5 0c800000         nop
    11306 000013c6 52e00001         ldieq     1,r0
    11307 000013c7 52e10039         ldieq     57,r1
    11308                   ;*      Branch Occurs to L532 
    11309 000013c8 04e0007f         cmpi      127,r0
    11310 000013c9 6a25ffa0         beqd      L542
    11311 000013ca 0c800000         nop
    11312 000013cb 52e00001         ldieq     1,r0
    11313 000013cc 52e10039         ldieq     57,r1
    11314                   ;*      Branch Occurs to L542 
    11315 000013cd          L559:        
    11316                           .line   189
    11317 000013cd 50530b01         ldiu      *-fp(1),bk
    11318 000013ce 504bc300         ldiu      *fp,fp
    11319 000013cf 18740035         subi      53,sp
    11320 000013d0 68000013         bu        bk
    11321                   ;*      Branch Occurs to bk 
    11322                           .endfunc        1848,000000000h,51
    11323                   
    11324                   
    11325 000013d1                  .sect    ".text"
    11326                   
    11327                           .global _GP_SFDD_DATA_UPLOAD
    11328                           .sym    _GP_SFDD_DATA_UPLOAD,_GP_SFDD_DATA_UPLOAD,32,2,0
    11329                           .func   1852
    11330                   ;******************************************************************************
    11331                   ;* FUNCTION NAME: _GP_SFDD_DATA_UPLOAD                                        *
    11332                   ;*                                                                            *
    11333                   ;*   Architecture       : TMS320C30                                           *
    11334                   ;*   Calling Convention : Stack Parameter Convention                          *
    11335                   ;*   Function Uses Regs : r0,r1,r2,fp,sp,st                                   *
    11336                   ;*   Regs Saved         :                                                     *
    11337                   ;*   Stack Frame        : Full (w/ debug)                                     *
    11338                   ;*   Total Frame Size   : 2 Call + 1 Parm + 50 Auto + 0 SOE = 53 words        *
    11339                   ;******************************************************************************
    11340 000013d1          _GP_SFDD_DATA_UPLOAD:
TMS320C3x/4x COFF AssemblerVersion 5.11     Fri Sep 17 14:23:56 2010
Copyright (c) 1987-1999 Texas Instruments Incorporatedc:\lang\tms320c3x\511\bin\asm30.exe -l gpproface.asm gpproface.obj -tC:\Users\jds\AppData\Local\Temp\gpproface.tmp 

gpproface.asm                                                        PAGE  211

    11341                           .sym    _nScreenInf,-2,12,9,32
    11342                           .sym    _sClenBuf,1,60,1,640,,20
    11343                           .sym    _sDataBuf,21,60,1,960,,30
    11344                           .line   1
    11345                   ;----------------------------------------------------------------------
    11346                   ; 1852 | void GP_SFDD_DATA_UPLOAD(UCHAR nScreenInf)                             
    11347                   ;----------------------------------------------------------------------
    11348 000013d1 0f2b0000         push      fp
    11349 000013d2 500b0014         ldiu      sp,fp
    11350 000013d3 02740032         addi      50,sp
    11351                           .line   2
    11352                   ;----------------------------------------------------------------------
    11353                   ; 1854 | UCHAR sClenBuf[20];                                                    
    11354                   ; 1855 | UCHAR sDataBuf[30];                                                    
    11355                   ;----------------------------------------------------------------------
    11356                           .line   6
    11357                   ;----------------------------------------------------------------------
    11358                   ; 1857 | memset(sClenBuf,0x20,20);                                              
    11359                   ; 1859 | switch(nScreenInf)                                                     
    11360                   ; 1861 | case 128:                                                              
    11361                   ;----------------------------------------------------------------------
    11362 000013d4 50620014         ldiu      20,r2
    11363 000013d5 50610020         ldiu      32,r1
    11364 000013d6 5000000b         ldiu      fp,r0
    11365 000013d7 0f220000         push      r2
    11366 000013d8 02600001         addi      1,r0
    11367 000013d9 0f210000         push      r1
    11368 000013da 0f200000         push      r0
    11369 000013db 62000000!        call      _memset
    11370                                                           ; Call Occurs
    11371 000013dc 6a20002d         bud       L565
    11372 000013dd 18740003         subi      3,sp
    11373 000013de 50400b02         ldiu      *-fp(2),r0
    11374 000013df 04e00080         cmpi      128,r0
    11375                   ;*      Branch Occurs to L565 
    11376 000013e0          L562:        
    11377                           .line   12
    11378                   ;----------------------------------------------------------------------
    11379                   ; 1863 | nLedDataLoad.nSWScreenSelt = 0;                                        
    11380                   ;----------------------------------------------------------------------
    11381 000013e0 50600000         ldiu      0,r0
    11382 000013e1 15200015!        sti       r0,@_nLedDataLoad+21
    11383                           .line   13
    11384                   ;----------------------------------------------------------------------
    11385                   ; 1864 | nLedDataLoad.nDATAScreenSelt++;                                        
    11386                   ;----------------------------------------------------------------------
    11387 000013e2 50600001         ldiu      1,r0
    11388 000013e3 02200016!        addi      @_nLedDataLoad+22,r0  ; Unsigned
    11389 000013e4 15200016!        sti       r0,@_nLedDataLoad+22
    11390                           .line   15
    11391                   ;----------------------------------------------------------------------
    11392                   ; 1866 | if(!(nLedDataLoad.nDATAScreenSelt%10))                                 
    11393                   ;----------------------------------------------------------------------
    11394 000013e5 5061000a         ldiu      10,r1
TMS320C3x/4x COFF AssemblerVersion 5.11     Fri Sep 17 14:23:56 2010
Copyright (c) 1987-1999 Texas Instruments Incorporatedc:\lang\tms320c3x\511\bin\asm30.exe -l gpproface.asm gpproface.obj -tC:\Users\jds\AppData\Local\Temp\gpproface.tmp 

gpproface.asm                                                        PAGE  212

    11395 000013e6 62000000!        call      MOD_U30
    11396                                                           ; Call Occurs
    11397 000013e7 04e00000         cmpi      0,r0
    11398 000013e8 6a060024         bne       L566
    11399                   ;*      Branch Occurs to L566 
    11400                           .line   17
    11401                   ;----------------------------------------------------------------------
    11402                   ; 1868 | nLedDataLoad.nDATAScreenSelt = 0;                                      
    11403                   ;----------------------------------------------------------------------
    11404 000013e9 50600000         ldiu      0,r0
    11405 000013ea 15200016!        sti       r0,@_nLedDataLoad+22
    11406                           .line   18
    11407                   ;----------------------------------------------------------------------
    11408                   ; 1869 | nLedDataLoad.nFDD_DATA_Selt = TRUE;                                    
    11409                   ;----------------------------------------------------------------------
    11410 000013eb 50600001         ldiu      1,r0
    11411 000013ec 15200004!        sti       r0,@_nLedDataLoad+4
    11412                           .line   19
    11413                   ;----------------------------------------------------------------------
    11414                   ; 1870 | gpDATA_UpLoad;                                                         
    11415                   ;----------------------------------------------------------------------
    11416 000013ed 50610088         ldiu      136,r1
    11417 000013ee 0f210000         push      r1
    11418 000013ef 5060000f         ldiu      15,r0
    11419 000013f0 0f200000         push      r0
    11420 000013f1 6200004d'        call      _gp_WritingWord
    11421                                                           ; Call Occurs
    11422 000013f2 18740002         subi      2,sp
    11423                           .line   20
    11424                   ;----------------------------------------------------------------------
    11425                   ; 1871 | gpROOTDIS;                                                             
    11426                   ;----------------------------------------------------------------------
    11427 000013f3 50610000         ldiu      0,r1
    11428 000013f4 50600039         ldiu      57,r0
    11429 000013f5 0f210000         push      r1
    11430 000013f6 0f200000         push      r0
    11431 000013f7 6200004d'        call      _gp_WritingWord
    11432                                                           ; Call Occurs
    11433 000013f8 18740002         subi      2,sp
    11434                           .line   21
    11435                   ;----------------------------------------------------------------------
    11436                   ; 1872 | gp_WritingStr(550,5,sClenBuf);                                         
    11437                   ;----------------------------------------------------------------------
    11438 000013f9 5000000b         ldiu      fp,r0
    11439 000013fa 02600001         addi      1,r0
    11440 000013fb 0f200000         push      r0
    11441 000013fc 50610005         ldiu      5,r1
    11442 000013fd 0f210000         push      r1
    11443 000013fe 50620226         ldiu      550,r2
    11444 000013ff 0f220000         push      r2
    11445 00001400 620000ba'        call      _gp_WritingStr
    11446                                                           ; Call Occurs
    11447 00001401 18740003         subi      3,sp
    11448                           .line   22
TMS320C3x/4x COFF AssemblerVersion 5.11     Fri Sep 17 14:23:56 2010
Copyright (c) 1987-1999 Texas Instruments Incorporatedc:\lang\tms320c3x\511\bin\asm30.exe -l gpproface.asm gpproface.obj -tC:\Users\jds\AppData\Local\Temp\gpproface.tmp 

gpproface.asm                                                        PAGE  213

    11449                   ;----------------------------------------------------------------------
    11450                   ; 1873 | gp_WritingStr(555,5,sClenBuf);                                         
    11451                   ;----------------------------------------------------------------------
    11452 00001402 5001000b         ldiu      fp,r1
    11453 00001403 02610001         addi      1,r1
    11454 00001404 0f210000         push      r1
    11455 00001405 50620005         ldiu      5,r2
    11456 00001406 5060022b         ldiu      555,r0
    11457 00001407 0f220000         push      r2
    11458 00001408 0f200000         push      r0
    11459 00001409 620000ba'        call      _gp_WritingStr
    11460                                                           ; Call Occurs
    11461 0000140a 18740003         subi      3,sp
    11462                           .line   25
    11463                   ;----------------------------------------------------------------------
    11464                   ; 1876 | break;                                                                 
    11465                   ;----------------------------------------------------------------------
    11466 0000140b 6a000001         bu        L566
    11467                   ;*      Branch Occurs to L566 
    11468                           .line   8
    11469 0000140c          L565:        
    11470 0000140c 6a05ffd3         beq       L562
    11471                   ;*      Branch Occurs to L562 
    11472 0000140d          L566:        
    11473                           .line   27
    11474 0000140d 50530b01         ldiu      *-fp(1),bk
    11475 0000140e 504bc300         ldiu      *fp,fp
    11476 0000140f 18740034         subi      52,sp
    11477 00001410 68000013         bu        bk
    11478                   ;*      Branch Occurs to bk 
    11479                           .endfunc        1878,000000000h,50
    11480                   
    11481                   
    11482 00001411                  .sect    ".text"
    11483                   
    11484                           .global _GP_SFDD_SW_UPLOAD_CLEAN
    11485                           .sym    _GP_SFDD_SW_UPLOAD_CLEAN,_GP_SFDD_SW_UPLOAD_CLEAN,32,2,0
    11486                           .func   1883
    11487                   ;******************************************************************************
    11488                   ;* FUNCTION NAME: _GP_SFDD_SW_UPLOAD_CLEAN                                    *
    11489                   ;*                                                                            *
    11490                   ;*   Architecture       : TMS320C30                                           *
    11491                   ;*   Calling Convention : Stack Parameter Convention                          *
    11492                   ;*   Function Uses Regs : r0,r1,r2,fp,sp,st                                   *
    11493                   ;*   Regs Saved         :                                                     *
    11494                   ;*   Stack Frame        : Full (w/ debug)                                     *
    11495                   ;*   Total Frame Size   : 2 Call + 0 Parm + 80 Auto + 0 SOE = 82 words        *
    11496                   ;******************************************************************************
    11497 00001411          _GP_SFDD_SW_UPLOAD_CLEAN:
    11498                           .sym    _sSelf_Buf,1,60,1,1920,,60
    11499                           .sym    _sClenBuf,61,60,1,640,,20
    11500                           .line   1
    11501                   ;----------------------------------------------------------------------
    11502                   ; 1883 | void GP_SFDD_SW_UPLOAD_CLEAN()                                         
TMS320C3x/4x COFF AssemblerVersion 5.11     Fri Sep 17 14:23:56 2010
Copyright (c) 1987-1999 Texas Instruments Incorporatedc:\lang\tms320c3x\511\bin\asm30.exe -l gpproface.asm gpproface.obj -tC:\Users\jds\AppData\Local\Temp\gpproface.tmp 

gpproface.asm                                                        PAGE  214

    11503                   ; 1885 | UCHAR sSelf_Buf[60];                                                   
    11504                   ; 1886 | UCHAR sClenBuf[20];                                                    
    11505                   ;----------------------------------------------------------------------
    11506 00001411 0f2b0000         push      fp
    11507 00001412 500b0014         ldiu      sp,fp
    11508 00001413 02740050         addi      80,sp
    11509                           .line   6
    11510                   ;----------------------------------------------------------------------
    11511                   ; 1888 | memset(sSelf_Buf,0x01,60);                                             
    11512                   ;----------------------------------------------------------------------
    11513 00001414 5062003c         ldiu      60,r2
    11514 00001415 50610001         ldiu      1,r1
    11515 00001416 5000000b         ldiu      fp,r0
    11516 00001417 0f220000         push      r2
    11517 00001418 02600001         addi      1,r0
    11518 00001419 0f210000         push      r1
    11519 0000141a 0f200000         push      r0
    11520 0000141b 62000000!        call      _memset
    11521                                                           ; Call Occurs
    11522 0000141c 18740003         subi      3,sp
    11523                           .line   8
    11524                   ;----------------------------------------------------------------------
    11525                   ; 1890 | memset(sClenBuf,0x20,20);                                              
    11526                   ;----------------------------------------------------------------------
    11527 0000141d 50620014         ldiu      20,r2
    11528 0000141e 50610020         ldiu      32,r1
    11529 0000141f 5000000b         ldiu      fp,r0
    11530 00001420 0f220000         push      r2
    11531 00001421 0260003d         addi      61,r0
    11532 00001422 0f210000         push      r1
    11533 00001423 0f200000         push      r0
    11534 00001424 62000000!        call      _memset
    11535                                                           ; Call Occurs
    11536 00001425 18740003         subi      3,sp
    11537                           .line   10
    11538                   ;----------------------------------------------------------------------
    11539                   ; 1892 | if(!nSelf_Test.nSELF_ICR_SELECT)                                       
    11540                   ;----------------------------------------------------------------------
    11541 00001426 082000b9!        ldi       @_nSelf_Test+185,r0
    11542 00001427 6a26000b         bned      L571
    11543 00001428 53610000         ldine     0,r1
    11544 00001429 5300000b         ldine     fp,r0
    11545 0000142a 53620034         ldine     52,r2
    11546                   ;*      Branch Occurs to L571 
    11547                           .line   12
    11548                   ;----------------------------------------------------------------------
    11549                   ; 1894 | SDR_Routine_Complete(sSelf_Buf,DISPLAY_UNIT,FALSE);// .    
    11550                   ; 1896 | else                                                                   
    11551                   ;----------------------------------------------------------------------
    11552 0000142b 50620000         ldiu      0,r2
    11553 0000142c 5000000b         ldiu      fp,r0
    11554 0000142d 5061001c         ldiu      28,r1
    11555 0000142e 0f220000         push      r2
    11556 0000142f 02600001         addi      1,r0
TMS320C3x/4x COFF AssemblerVersion 5.11     Fri Sep 17 14:23:56 2010
Copyright (c) 1987-1999 Texas Instruments Incorporatedc:\lang\tms320c3x\511\bin\asm30.exe -l gpproface.asm gpproface.obj -tC:\Users\jds\AppData\Local\Temp\gpproface.tmp 

gpproface.asm                                                        PAGE  215

    11557 00001430 0f210000         push      r1
    11558 00001431 0f200000         push      r0
    11559 00001432 62000f8b'        call      _SDR_Routine_Complete
    11560                                                           ; Call Occurs
    11561 00001433 18740003         subi      3,sp
    11562 00001434 6a000006         bu        L572
    11563                   ;*      Branch Occurs to L572 
    11564                           .line   16
    11565                   ;----------------------------------------------------------------------
    11566                   ; 1898 | SDR_Routine_Complete(sSelf_Buf,DISPLAY_STANDARD_UNIT,FALSE);// 
    11567                   ;     | .                                                                  
    11568                   ;----------------------------------------------------------------------
    11569 00001435          L571:        
    11570 00001435 0f210000         push      r1
    11571 00001436 02600001         addi      1,r0
    11572 00001437 0f220000         push      r2
    11573 00001438 0f200000         push      r0
    11574 00001439 62000f8b'        call      _SDR_Routine_Complete
    11575                                                           ; Call Occurs
    11576 0000143a 18740003         subi      3,sp
    11577 0000143b          L572:        
    11578                           .line   19
    11579                   ;----------------------------------------------------------------------
    11580                   ; 1901 | gpLED_UPLOAD_BUTOFF;                                                   
    11581                   ;----------------------------------------------------------------------
    11582 0000143b 50610000         ldiu      0,r1
    11583 0000143c 506002bc         ldiu      700,r0
    11584 0000143d 0f210000         push      r1
    11585 0000143e 0f200000         push      r0
    11586 0000143f 6200004d'        call      _gp_WritingWord
    11587                                                           ; Call Occurs
    11588 00001440 18740002         subi      2,sp
    11589                           .line   20
    11590                   ;----------------------------------------------------------------------
    11591                   ; 1902 | gpLED_UPLOAD_DABUTOFF;                                                 
    11592                   ;----------------------------------------------------------------------
    11593 00001441 50610000         ldiu      0,r1
    11594 00001442 506002bd         ldiu      701,r0
    11595 00001443 0f210000         push      r1
    11596 00001444 0f200000         push      r0
    11597 00001445 6200004d'        call      _gp_WritingWord
    11598                                                           ; Call Occurs
    11599 00001446 18740002         subi      2,sp
    11600                           .line   22
    11601                   ;----------------------------------------------------------------------
    11602                   ; 1904 | gpLED_UPLOAD_ERBUT_SF_OFF;                                             
    11603                   ;----------------------------------------------------------------------
    11604 00001447 50610000         ldiu      0,r1
    11605 00001448 506002c6         ldiu      710,r0
    11606 00001449 0f210000         push      r1
    11607 0000144a 0f200000         push      r0
    11608 0000144b 6200004d'        call      _gp_WritingWord
    11609                                                           ; Call Occurs
    11610 0000144c 18740002         subi      2,sp
TMS320C3x/4x COFF AssemblerVersion 5.11     Fri Sep 17 14:23:56 2010
Copyright (c) 1987-1999 Texas Instruments Incorporatedc:\lang\tms320c3x\511\bin\asm30.exe -l gpproface.asm gpproface.obj -tC:\Users\jds\AppData\Local\Temp\gpproface.tmp 

gpproface.asm                                                        PAGE  216

    11611                           .line   23
    11612                   ;----------------------------------------------------------------------
    11613                   ; 1905 | gpLED_UPLOAD_DABUT_SF_OFF;                                             
    11614                   ;----------------------------------------------------------------------
    11615 0000144d 50610000         ldiu      0,r1
    11616 0000144e 506002c7         ldiu      711,r0
    11617 0000144f 0f210000         push      r1
    11618 00001450 0f200000         push      r0
    11619 00001451 6200004d'        call      _gp_WritingWord
    11620                                                           ; Call Occurs
    11621 00001452 18740002         subi      2,sp
    11622                           .line   25
    11623                   ;----------------------------------------------------------------------
    11624                   ; 1907 | gp_WritingStr(585,10,sClenBuf);                                        
    11625                   ;----------------------------------------------------------------------
    11626 00001453 5000000b         ldiu      fp,r0
    11627 00001454 5061000a         ldiu      10,r1
    11628 00001455 0260003d         addi      61,r0
    11629 00001456 50620249         ldiu      585,r2
    11630 00001457 0f200000         push      r0
    11631 00001458 0f210000         push      r1
    11632 00001459 0f220000         push      r2
    11633 0000145a 620000ba'        call      _gp_WritingStr
    11634                                                           ; Call Occurs
    11635 0000145b 18740003         subi      3,sp
    11636                           .line   26
    11637                   ;----------------------------------------------------------------------
    11638                   ; 1908 | gp_WritingStr(595,10,sClenBuf);                                        
    11639                   ;----------------------------------------------------------------------
    11640 0000145c 5001000b         ldiu      fp,r1
    11641 0000145d 0261003d         addi      61,r1
    11642 0000145e 5062000a         ldiu      10,r2
    11643 0000145f 0f210000         push      r1
    11644 00001460 0f220000         push      r2
    11645 00001461 50600253         ldiu      595,r0
    11646 00001462 0f200000         push      r0
    11647 00001463 620000ba'        call      _gp_WritingStr
    11648                                                           ; Call Occurs
    11649 00001464 18740003         subi      3,sp
    11650                           .line   27
    11651                   ;----------------------------------------------------------------------
    11652                   ; 1909 | gp_WritingStr(605,10,sClenBuf);                                        
    11653                   ;----------------------------------------------------------------------
    11654 00001465 5000000b         ldiu      fp,r0
    11655 00001466 0260003d         addi      61,r0
    11656 00001467 0f200000         push      r0
    11657 00001468 5061000a         ldiu      10,r1
    11658 00001469 0f210000         push      r1
    11659 0000146a 5062025d         ldiu      605,r2
    11660 0000146b 0f220000         push      r2
    11661 0000146c 620000ba'        call      _gp_WritingStr
    11662                                                           ; Call Occurs
    11663 0000146d 18740003         subi      3,sp
    11664                           .line   28
TMS320C3x/4x COFF AssemblerVersion 5.11     Fri Sep 17 14:23:56 2010
Copyright (c) 1987-1999 Texas Instruments Incorporatedc:\lang\tms320c3x\511\bin\asm30.exe -l gpproface.asm gpproface.obj -tC:\Users\jds\AppData\Local\Temp\gpproface.tmp 

gpproface.asm                                                        PAGE  217

    11665                   ;----------------------------------------------------------------------
    11666                   ; 1910 | gp_WritingStr(615,10,sClenBuf);                                        
    11667                   ;----------------------------------------------------------------------
    11668 0000146e 5000000b         ldiu      fp,r0
    11669 0000146f 0260003d         addi      61,r0
    11670 00001470 0f200000         push      r0
    11671 00001471 5062000a         ldiu      10,r2
    11672 00001472 0f220000         push      r2
    11673 00001473 50610267         ldiu      615,r1
    11674 00001474 0f210000         push      r1
    11675 00001475 620000ba'        call      _gp_WritingStr
    11676                                                           ; Call Occurs
    11677 00001476 18740003         subi      3,sp
    11678                           .line   30
    11679                   ;----------------------------------------------------------------------
    11680                   ; 1912 | gp_WritingWord(300,0);                                                 
    11681                   ;----------------------------------------------------------------------
    11682 00001477 50600000         ldiu      0,r0
    11683 00001478 5061012c         ldiu      300,r1
    11684 00001479 0f200000         push      r0
    11685 0000147a 0f210000         push      r1
    11686 0000147b 6200004d'        call      _gp_WritingWord
    11687                                                           ; Call Occurs
    11688 0000147c 18740002         subi      2,sp
    11689                           .line   31
    11690                   ;----------------------------------------------------------------------
    11691                   ; 1913 | gp_WritingStr(540,2,(UCHAR*)"000%");                                   
    11692                   ;----------------------------------------------------------------------
    11693 0000147d 5020021c-        ldiu      @CL19,r0
    11694 0000147e 0f200000         push      r0
    11695 0000147f 50610002         ldiu      2,r1
    11696 00001480 0f210000         push      r1
    11697 00001481 5062021c         ldiu      540,r2
    11698 00001482 0f220000         push      r2
    11699 00001483 620000ba'        call      _gp_WritingStr
    11700                                                           ; Call Occurs
    11701 00001484 18740003         subi      3,sp
    11702                           .line   33
    11703                   ;----------------------------------------------------------------------
    11704                   ; 1915 | gp_WritingWord(301,0);                                                 
    11705                   ;----------------------------------------------------------------------
    11706 00001485 50600000         ldiu      0,r0
    11707 00001486 0f200000         push      r0
    11708 00001487 5061012d         ldiu      301,r1
    11709 00001488 0f210000         push      r1
    11710 00001489 6200004d'        call      _gp_WritingWord
    11711                                                           ; Call Occurs
    11712 0000148a 18740002         subi      2,sp
    11713                           .line   34
    11714                   ;----------------------------------------------------------------------
    11715                   ; 1916 | gp_WritingStr(545,2,(UCHAR*)"000%");                                   
    11716                   ;----------------------------------------------------------------------
    11717 0000148b 5020021c-        ldiu      @CL19,r0
    11718 0000148c 50610002         ldiu      2,r1
TMS320C3x/4x COFF AssemblerVersion 5.11     Fri Sep 17 14:23:56 2010
Copyright (c) 1987-1999 Texas Instruments Incorporatedc:\lang\tms320c3x\511\bin\asm30.exe -l gpproface.asm gpproface.obj -tC:\Users\jds\AppData\Local\Temp\gpproface.tmp 

gpproface.asm                                                        PAGE  218

    11719 0000148d 50620221         ldiu      545,r2
    11720 0000148e 0f200000         push      r0
    11721 0000148f 0f210000         push      r1
    11722 00001490 0f220000         push      r2
    11723 00001491 620000ba'        call      _gp_WritingStr
    11724                                                           ; Call Occurs
    11725 00001492 18740003         subi      3,sp
    11726                           .line   36
    11727 00001493 50530b01         ldiu      *-fp(1),bk
    11728 00001494 504bc300         ldiu      *fp,fp
    11729 00001495 18740052         subi      82,sp
    11730 00001496 68000013         bu        bk
    11731                   ;*      Branch Occurs to bk 
    11732                           .endfunc        1918,000000000h,80
    11733                   
    11734                   
    11735 00001497                  .sect    ".text"
    11736                   
    11737                           .global _GP_START_SET
    11738                           .sym    _GP_START_SET,_GP_START_SET,32,2,0
    11739                           .func   1922
    11740                   ;******************************************************************************
    11741                   ;* FUNCTION NAME: _GP_START_SET                                               *
    11742                   ;*                                                                            *
    11743                   ;*   Architecture       : TMS320C30                                           *
    11744                   ;*   Calling Convention : Stack Parameter Convention                          *
    11745                   ;*   Function Uses Regs : r0,r1,r2,fp,sp,st                                   *
    11746                   ;*   Regs Saved         :                                                     *
    11747                   ;*   Stack Frame        : Full (w/ debug)                                     *
    11748                   ;*   Total Frame Size   : 2 Call + 1 Parm + 50 Auto + 0 SOE = 53 words        *
    11749                   ;******************************************************************************
    11750 00001497          _GP_START_SET:
    11751                           .sym    _nScreenInf,-2,12,9,32
    11752                           .sym    _sClenBuf,1,60,1,640,,20
    11753                           .sym    _sDataBuf,21,60,1,960,,30
    11754                           .line   1
    11755                   ;----------------------------------------------------------------------
    11756                   ; 1922 | void GP_START_SET(UCHAR nScreenInf)                                    
    11757                   ;----------------------------------------------------------------------
    11758 00001497 0f2b0000         push      fp
    11759 00001498 500b0014         ldiu      sp,fp
    11760 00001499 02740032         addi      50,sp
    11761                           .line   2
    11762                   ;----------------------------------------------------------------------
    11763                   ; 1924 | UCHAR sClenBuf[20];                                                    
    11764                   ; 1925 | UCHAR sDataBuf[30];                                                    
    11765                   ;----------------------------------------------------------------------
    11766                           .line   6
    11767                   ;----------------------------------------------------------------------
    11768                   ; 1927 | memset(sClenBuf,0x20,20);                                              
    11769                   ; 1929 | switch(nScreenInf)                                                     
    11770                   ; 1931 | case 130: //                                                       
    11771                   ;----------------------------------------------------------------------
    11772 0000149a 50620014         ldiu      20,r2
TMS320C3x/4x COFF AssemblerVersion 5.11     Fri Sep 17 14:23:56 2010
Copyright (c) 1987-1999 Texas Instruments Incorporatedc:\lang\tms320c3x\511\bin\asm30.exe -l gpproface.asm gpproface.obj -tC:\Users\jds\AppData\Local\Temp\gpproface.tmp 

gpproface.asm                                                        PAGE  219

    11773 0000149b 50610020         ldiu      32,r1
    11774 0000149c 5000000b         ldiu      fp,r0
    11775 0000149d 0f220000         push      r2
    11776 0000149e 02600001         addi      1,r0
    11777 0000149f 0f210000         push      r1
    11778 000014a0 0f200000         push      r0
    11779 000014a1 62000000!        call      _memset
    11780                                                           ; Call Occurs
    11781 000014a2 6a20001d         bud       L580
    11782 000014a3 18740003         subi      3,sp
    11783 000014a4 50400b02         ldiu      *-fp(2),r0
    11784 000014a5 04e00082         cmpi      130,r0
    11785                   ;*      Branch Occurs to L580 
    11786 000014a6          L577:        
    11787                           .line   12
    11788                   ;----------------------------------------------------------------------
    11789                   ; 1933 | nSelf_Test.nSELF_Selt_Flag = TRUE;                                     
    11790                   ;----------------------------------------------------------------------
    11791 000014a6 50600001         ldiu      1,r0
    11792 000014a7 152000ba!        sti       r0,@_nSelf_Test+186
    11793                           .line   13
    11794                   ;----------------------------------------------------------------------
    11795                   ; 1934 | nSelf_Test.nSELF_ICR_SELECT = 1;                                       
    11796                   ;----------------------------------------------------------------------
    11797 000014a8 152000b9!        sti       r0,@_nSelf_Test+185
    11798                           .line   14
    11799                   ;----------------------------------------------------------------------
    11800                   ; 1935 | nSelect_Button.nScreenSetNum = 1;                                      
    11801                   ;----------------------------------------------------------------------
    11802 000014a9 15200206-        sti       r0,@_nSelect_Button+5
    11803                           .line   17
    11804                   ;----------------------------------------------------------------------
    11805                   ; 1938 | m_StScreen++;                                                          
    11806                   ;----------------------------------------------------------------------
    11807 000014aa 02200003-        addi      @_m_StScreen+0,r0
    11808 000014ab 15200003-        sti       r0,@_m_StScreen+0
    11809                           .line   19
    11810                   ;----------------------------------------------------------------------
    11811                   ; 1940 | gpSTATE;                                                               
    11812                   ;----------------------------------------------------------------------
    11813 000014ac 5061003c         ldiu      60,r1
    11814 000014ad 0f210000         push      r1
    11815 000014ae 5060000f         ldiu      15,r0
    11816 000014af 0f200000         push      r0
    11817 000014b0 6200004d'        call      _gp_WritingWord
    11818                                                           ; Call Occurs
    11819 000014b1 18740002         subi      2,sp
    11820                           .line   21
    11821                   ;----------------------------------------------------------------------
    11822                   ; 1942 | break;                                                                 
    11823                   ; 1943 | case 131: //                                                       
    11824                   ;----------------------------------------------------------------------
    11825 000014b2 6a000012         bu        L582
    11826                   ;*      Branch Occurs to L582 
TMS320C3x/4x COFF AssemblerVersion 5.11     Fri Sep 17 14:23:56 2010
Copyright (c) 1987-1999 Texas Instruments Incorporatedc:\lang\tms320c3x\511\bin\asm30.exe -l gpproface.asm gpproface.obj -tC:\Users\jds\AppData\Local\Temp\gpproface.tmp 

gpproface.asm                                                        PAGE  220

    11827 000014b3          L578:        
    11828                           .line   24
    11829                   ;----------------------------------------------------------------------
    11830                   ; 1945 | nSelf_Test.nSELF_Selt_Flag = TRUE;                                     
    11831                   ;----------------------------------------------------------------------
    11832 000014b3 50600001         ldiu      1,r0
    11833 000014b4 152000ba!        sti       r0,@_nSelf_Test+186
    11834                           .line   26
    11835                   ;----------------------------------------------------------------------
    11836                   ; 1947 | nSelf_Test.nSELF_ICR_SELECT = 0;                                       
    11837                   ;----------------------------------------------------------------------
    11838 000014b5 50600000         ldiu      0,r0
    11839 000014b6 152000b9!        sti       r0,@_nSelf_Test+185
    11840                           .line   27
    11841                   ;----------------------------------------------------------------------
    11842                   ; 1948 | nSelect_Button.nScreenSetNum = 1;                                      
    11843                   ;----------------------------------------------------------------------
    11844 000014b7 50600001         ldiu      1,r0
    11845 000014b8 15200206-        sti       r0,@_nSelect_Button+5
    11846                           .line   29
    11847                   ;----------------------------------------------------------------------
    11848                   ; 1950 | m_StScreen++;                                                          
    11849                   ;----------------------------------------------------------------------
    11850 000014b9 02200003-        addi      @_m_StScreen+0,r0
    11851 000014ba 15200003-        sti       r0,@_m_StScreen+0
    11852                           .line   30
    11853                   ;----------------------------------------------------------------------
    11854                   ; 1951 | gpSTATE;                                                               
    11855                   ;----------------------------------------------------------------------
    11856 000014bb 5061000f         ldiu      15,r1
    11857 000014bc 5060003c         ldiu      60,r0
    11858 000014bd 0f200000         push      r0
    11859 000014be 0f210000         push      r1
    11860 000014bf 6200004d'        call      _gp_WritingWord
    11861                                                           ; Call Occurs
    11862 000014c0 18740002         subi      2,sp
    11863                           .line   31
    11864                   ;----------------------------------------------------------------------
    11865                   ; 1952 | break;                                                                 
    11866                   ;----------------------------------------------------------------------
    11867 000014c1 6a000003         bu        L582
    11868                   ;*      Branch Occurs to L582 
    11869                           .line   8
    11870 000014c2          L580:        
    11871 000014c2 6a05ffe3         beq       L577
    11872                   ;*      Branch Occurs to L577 
    11873 000014c3 04e00083         cmpi      131,r0
    11874 000014c4 6a05ffee         beq       L578
    11875                   ;*      Branch Occurs to L578 
    11876 000014c5          L582:        
    11877                           .line   34
    11878 000014c5 50530b01         ldiu      *-fp(1),bk
    11879 000014c6 504bc300         ldiu      *fp,fp
    11880 000014c7 18740034         subi      52,sp
TMS320C3x/4x COFF AssemblerVersion 5.11     Fri Sep 17 14:23:56 2010
Copyright (c) 1987-1999 Texas Instruments Incorporatedc:\lang\tms320c3x\511\bin\asm30.exe -l gpproface.asm gpproface.obj -tC:\Users\jds\AppData\Local\Temp\gpproface.tmp 

gpproface.asm                                                        PAGE  221

    11881 000014c8 68000013         bu        bk
    11882                   ;*      Branch Occurs to bk 
    11883                           .endfunc        1955,000000000h,50
    11884                   
    11885                   
    11886 000014c9                  .sect    ".text"
    11887                   
    11888                           .global _GP_AUTO_MANU_SET
    11889                           .sym    _GP_AUTO_MANU_SET,_GP_AUTO_MANU_SET,32,2,0
    11890                           .func   1960
    11891                   ;******************************************************************************
    11892                   ;* FUNCTION NAME: _GP_AUTO_MANU_SET                                           *
    11893                   ;*                                                                            *
    11894                   ;*   Architecture       : TMS320C30                                           *
    11895                   ;*   Calling Convention : Stack Parameter Convention                          *
    11896                   ;*   Function Uses Regs : r0,r1,fp,sp,st                                      *
    11897                   ;*   Regs Saved         :                                                     *
    11898                   ;*   Stack Frame        : Full (w/ debug)                                     *
    11899                   ;*   Total Frame Size   : 2 Call + 1 Parm + 0 Auto + 0 SOE = 3 words          *
    11900                   ;******************************************************************************
    11901 000014c9          _GP_AUTO_MANU_SET:
    11902                           .sym    _nScreenInf,-2,12,9,32
    11903                           .line   1
    11904                   ;----------------------------------------------------------------------
    11905                   ; 1960 | void GP_AUTO_MANU_SET(UCHAR nScreenInf)                                
    11906                   ;----------------------------------------------------------------------
    11907                           .line   2
    11908                   ;----------------------------------------------------------------------
    11909                   ; 1962 | switch(nScreenInf)                                                     
    11910                   ; 1964 | case 150: //                                                       
    11911                   ;----------------------------------------------------------------------
    11912 000014c9 6a20001f         bud       L592
    11913 000014ca 0f2b0000         push      fp
    11914 000014cb 500b0014         ldiu      sp,fp
    11915 000014cc 50400b02         ldiu      *-fp(2),r0
    11916                   ;*      Branch Occurs to L592 
    11917 000014cd          L585:        
    11918                           .line   6
    11919                   ;----------------------------------------------------------------------
    11920                   ; 1965 | nTr_St_Info.nAutoManuFlagCnt++;                                        
    11921                   ;----------------------------------------------------------------------
    11922 000014cd 50600001         ldiu      1,r0
    11923 000014ce 02200177!        addi      @_nTr_St_Info+375,r0  ; Unsigned
    11924 000014cf 15200177!        sti       r0,@_nTr_St_Info+375
    11925                           .line   7
    11926                   ;----------------------------------------------------------------------
    11927                   ; 1966 | if(!(WORD_L(nTr_St_Info.nAutoManuFlagCnt)%5))                          
    11928                   ;----------------------------------------------------------------------
    11929 000014d0 506000ff         ldiu      255,r0
    11930 000014d1 02a00177!        and       @_nTr_St_Info+375,r0
    11931 000014d2 50610005         ldiu      5,r1
    11932 000014d3 62000000!        call      MOD_U30
    11933                                                           ; Call Occurs
    11934 000014d4 04e00000         cmpi      0,r0
TMS320C3x/4x COFF AssemblerVersion 5.11     Fri Sep 17 14:23:56 2010
Copyright (c) 1987-1999 Texas Instruments Incorporatedc:\lang\tms320c3x\511\bin\asm30.exe -l gpproface.asm gpproface.obj -tC:\Users\jds\AppData\Local\Temp\gpproface.tmp 

gpproface.asm                                                        PAGE  222

    11935 000014d5 6a060003         bne       L587
    11936                   ;*      Branch Occurs to L587 
    11937                           .line   9
    11938                   ;----------------------------------------------------------------------
    11939                   ; 1968 | nTr_St_Info.nAutoManuFlag = NOT(nTr_St_Info.nAutoManuFlag);            
    11940                   ;----------------------------------------------------------------------
    11941 000014d6 50600001         ldiu      1,r0
    11942 000014d7 03200176!        andn      @_nTr_St_Info+374,r0
    11943 000014d8 15200176!        sti       r0,@_nTr_St_Info+374
    11944 000014d9          L587:        
    11945                           .line   12
    11946                   ;----------------------------------------------------------------------
    11947                   ; 1971 | if(WORD_L(nTr_St_Info.nAutoManuFlag))                                  
    11948                   ;----------------------------------------------------------------------
    11949 000014d9 506000ff         ldiu      255,r0
    11950 000014da 1a200176!        tstb      @_nTr_St_Info+374,r0
    11951 000014db 6a250008         beqd      L590
    11952 000014dc 0c800000         nop
    11953 000014dd 52e00000         ldieq     0,r0
    11954 000014de 52e10096         ldieq     150,r1
    11955                   ;*      Branch Occurs to L590 
    11956                           .line   14
    11957                   ;----------------------------------------------------------------------
    11958                   ; 1973 | gp_WritingWord(150,1);                                                 
    11959                   ; 1975 | else                                                                   
    11960                   ;----------------------------------------------------------------------
    11961 000014df 50600001         ldiu      1,r0
    11962 000014e0 50610096         ldiu      150,r1
    11963 000014e1 0f200000         push      r0
    11964 000014e2 0f210000         push      r1
    11965 000014e3 6200004d'        call      _gp_WritingWord
    11966                                                           ; Call Occurs
    11967 000014e4 18740002         subi      2,sp
    11968 000014e5 6a000007         bu        L593
    11969                   ;*      Branch Occurs to L593 
    11970                           .line   18
    11971                   ;----------------------------------------------------------------------
    11972                   ; 1977 | gp_WritingWord(150,0);                                                 
    11973                   ;----------------------------------------------------------------------
    11974 000014e6          L590:        
    11975 000014e6 0f200000         push      r0
    11976 000014e7 0f210000         push      r1
    11977 000014e8 6200004d'        call      _gp_WritingWord
    11978                                                           ; Call Occurs
    11979 000014e9 18740002         subi      2,sp
    11980                           .line   21
    11981                   ;----------------------------------------------------------------------
    11982                   ; 1980 | break;                                                                 
    11983                   ;----------------------------------------------------------------------
    11984 000014ea 6a000002         bu        L593
    11985                   ;*      Branch Occurs to L593 
    11986                           .line   3
    11987 000014eb          L592:        
    11988 000014eb 04e00096         cmpi      150,r0
TMS320C3x/4x COFF AssemblerVersion 5.11     Fri Sep 17 14:23:56 2010
Copyright (c) 1987-1999 Texas Instruments Incorporatedc:\lang\tms320c3x\511\bin\asm30.exe -l gpproface.asm gpproface.obj -tC:\Users\jds\AppData\Local\Temp\gpproface.tmp 

gpproface.asm                                                        PAGE  223

    11989 000014ec 6a05ffe0         beq       L585
    11990                   ;*      Branch Occurs to L585 
    11991 000014ed          L593:        
    11992                           .line   23
    11993 000014ed 50530b01         ldiu      *-fp(1),bk
    11994 000014ee 504bc300         ldiu      *fp,fp
    11995 000014ef 18740002         subi      2,sp
    11996 000014f0 68000013         bu        bk
    11997                   ;*      Branch Occurs to bk 
    11998                           .endfunc        1982,000000000h,0
    11999                   
    12000                   
    12001 000014f1                  .sect    ".text"
    12002                   
    12003                           .global _GP_1msTime
    12004                           .sym    _GP_1msTime,_GP_1msTime,32,2,0
    12005                           .func   1986
    12006                   ;******************************************************************************
    12007                   ;* FUNCTION NAME: _GP_1msTime                                                 *
    12008                   ;*                                                                            *
    12009                   ;*   Architecture       : TMS320C30                                           *
    12010                   ;*   Calling Convention : Stack Parameter Convention                          *
    12011                   ;*   Function Uses Regs : r0,st                                               *
    12012                   ;*   Regs Saved         :                                                     *
    12013                   ;*   Stack Frame        : Full (w/ debug)                                     *
    12014                   ;*   Total Frame Size   : 2 Call + 0 Parm + 0 Auto + 0 SOE = 2 words          *
    12015                   ;******************************************************************************
    12016 000014f1          _GP_1msTime:
    12017                           .line   1
    12018                   ;----------------------------------------------------------------------
    12019                   ; 1986 | void GP_1msTime()                                                      
    12020                   ;----------------------------------------------------------------------
    12021 000014f1 0f2b0000         push      fp
    12022 000014f2 500b0014         ldiu      sp,fp
    12023                           .line   4
    12024                   ;----------------------------------------------------------------------
    12025                   ; 1989 | nTimeGp_Cnt++;                                                         
    12026                   ; 1990 | //  . .                                              
    12027                   ;----------------------------------------------------------------------
    12028 000014f3 50600001         ldiu      1,r0
    12029 000014f4 02200001-        addi      @_nTimeGp_Cnt+0,r0    ; Unsigned
    12030 000014f5 15200001-        sti       r0,@_nTimeGp_Cnt+0
    12031                           .line   7
    12032                   ;----------------------------------------------------------------------
    12033                   ; 1992 | if(nSelect_Button.nScreenRxTime) {nSelect_Button.nScreenRxTime--;}     
    12034                   ;----------------------------------------------------------------------
    12035 000014f6 08200207-        ldi       @_nSelect_Button+6,r0
    12036 000014f7 6a050003         beq       L597
    12037                   ;*      Branch Occurs to L597 
    12038 000014f8 50600001         ldiu      1,r0
    12039 000014f9 19a00207-        subri     @_nSelect_Button+6,r0 ; Unsigned
    12040 000014fa 15200207-        sti       r0,@_nSelect_Button+6
    12041 000014fb          L597:        
    12042                           .line   9
TMS320C3x/4x COFF AssemblerVersion 5.11     Fri Sep 17 14:23:56 2010
Copyright (c) 1987-1999 Texas Instruments Incorporatedc:\lang\tms320c3x\511\bin\asm30.exe -l gpproface.asm gpproface.obj -tC:\Users\jds\AppData\Local\Temp\gpproface.tmp 

gpproface.asm                                                        PAGE  224

    12043 000014fb 50410b01         ldiu      *-fp(1),r1
    12044 000014fc 504bc300         ldiu      *fp,fp
    12045 000014fd 18740002         subi      2,sp
    12046 000014fe 68000001         bu        r1
    12047                   ;*      Branch Occurs to r1 
    12048                           .endfunc        1994,000000000h,0
    12049                   
    12050                   
    12051                   
    12052 00000024                  .sect   ".cinit"
    12053 00000024 00000001         .field          1,32
    12054 00000025 0000000c-        .field          _nTimeGp_100Cnt+0,32
    12055 00000026 00000000         .field          0,32            ; _nTimeGp_100Cnt @ 0
    12056                   
    12057 000014ff                  .sect   ".text"
    12058                   
    12059                           .global _nTimeGp_100Cnt
    12060 0000000c                  .bss    _nTimeGp_100Cnt,1
    12061                           .sym    _nTimeGp_100Cnt,_nTimeGp_100Cnt,12,2,32
    12062 000014ff                  .sect    ".text"
    12063                   
    12064                           .global _GP_100msTime
    12065                           .sym    _GP_100msTime,_GP_100msTime,32,2,0
    12066                           .func   2000
    12067                   ;******************************************************************************
    12068                   ;* FUNCTION NAME: _GP_100msTime                                               *
    12069                   ;*                                                                            *
    12070                   ;*   Architecture       : TMS320C30                                           *
    12071                   ;*   Calling Convention : Stack Parameter Convention                          *
    12072                   ;*   Function Uses Regs : r0                                                  *
    12073                   ;*   Regs Saved         :                                                     *
    12074                   ;*   Stack Frame        : Full (w/ debug)                                     *
    12075                   ;*   Total Frame Size   : 2 Call + 0 Parm + 0 Auto + 0 SOE = 2 words          *
    12076                   ;******************************************************************************
    12077 000014ff          _GP_100msTime:
    12078                           .line   1
    12079                   ;----------------------------------------------------------------------
    12080                   ; 2000 | void GP_100msTime()                                                    
    12081                   ;----------------------------------------------------------------------
    12082 000014ff 0f2b0000         push      fp
    12083 00001500 500b0014         ldiu      sp,fp
    12084                           .line   3
    12085                   ;----------------------------------------------------------------------
    12086                   ; 2002 | nTimeGp_100Cnt++;                                                      
    12087                   ;----------------------------------------------------------------------
    12088 00001501 50600001         ldiu      1,r0
    12089 00001502 0220000c-        addi      @_nTimeGp_100Cnt+0,r0 ; Unsigned
    12090 00001503 1520000c-        sti       r0,@_nTimeGp_100Cnt+0
    12091                           .line   5
    12092                   ;----------------------------------------------------------------------
    12093                   ; 2004 | m_StartScreenSetTime++;                                                
    12094                   ;----------------------------------------------------------------------
    12095 00001504 50600001         ldiu      1,r0
    12096 00001505 02200000-        addi      @_m_StartScreenSetTime+0,r0
TMS320C3x/4x COFF AssemblerVersion 5.11     Fri Sep 17 14:23:56 2010
Copyright (c) 1987-1999 Texas Instruments Incorporatedc:\lang\tms320c3x\511\bin\asm30.exe -l gpproface.asm gpproface.obj -tC:\Users\jds\AppData\Local\Temp\gpproface.tmp 

gpproface.asm                                                        PAGE  225

    12097 00001506 15200000-        sti       r0,@_m_StartScreenSetTime+0
    12098                           .line   16
    12099 00001507 50410b01         ldiu      *-fp(1),r1
    12100 00001508 504bc300         ldiu      *fp,fp
    12101 00001509 18740002         subi      2,sp
    12102 0000150a 68000001         bu        r1
    12103                   ;*      Branch Occurs to r1 
    12104                           .endfunc        2015,000000000h,0
    12105                   
    12106                   
    12107                   
    12108                           .global _glTxBufA3
    12109 0000000d                  .bss    _glTxBufA3,500
    12110                           .sym    _glTxBufA3,_glTxBufA3,60,2,16000,,500
    12111                   
    12112                           .global _nSelect_Button
    12113 00000201                  .bss    _nSelect_Button,9
    12114                           .sym    _nSelect_Button,_nSelect_Button,8,2,288,.fake60
    12115                   ;******************************************************************************
    12116                   ;* STRINGS                                                                    *
    12117                   ;******************************************************************************
    12118 00000000                  .sect   ".const"
    12119 00000000 00000055 SL1:    .byte   "UpLoading!",0
          00000001 00000070 
          00000002 0000004c 
          00000003 0000006f 
          00000004 00000061 
          00000005 00000064 
          00000006 00000069 
          00000007 0000006e 
          00000008 00000067 
          00000009 00000021 
          0000000a 00000000 
    12120 0000000b 00000031 SL2:    .byte   "100%",0
          0000000c 00000030 
          0000000d 00000030 
          0000000e 00000025 
          0000000f 00000000 
    12121 00000010 0000004f SL3:    .byte   "OK_Finish!",0
          00000011 0000004b 
          00000012 0000005f 
          00000013 00000046 
          00000014 00000069 
          00000015 0000006e 
          00000016 00000069 
          00000017 00000073 
          00000018 00000068 
          00000019 00000021 
          0000001a 00000000 
    12122 0000001b 00000055 SL4:    .byte   "UNIT FiND -> OK",0
          0000001c 0000004e 
          0000001d 00000049 
          0000001e 00000054 
          0000001f 00000020 
TMS320C3x/4x COFF AssemblerVersion 5.11     Fri Sep 17 14:23:56 2010
Copyright (c) 1987-1999 Texas Instruments Incorporatedc:\lang\tms320c3x\511\bin\asm30.exe -l gpproface.asm gpproface.obj -tC:\Users\jds\AppData\Local\Temp\gpproface.tmp 

gpproface.asm                                                        PAGE  226

          00000020 00000046 
          00000021 00000069 
          00000022 0000004e 
          00000023 00000044 
          00000024 00000020 
          00000025 0000002d 
          00000026 0000003e 
          00000027 00000020 
          00000028 0000004f 
          00000029 0000004b 
          0000002a 00000000 
    12123 0000002b 00000055 SL5:    .byte   "UNIT FiND -> NG",0
          0000002c 0000004e 
          0000002d 00000049 
          0000002e 00000054 
          0000002f 00000020 
          00000030 00000046 
          00000031 00000069 
          00000032 0000004e 
          00000033 00000044 
          00000034 00000020 
          00000035 0000002d 
          00000036 0000003e 
          00000037 00000020 
          00000038 0000004e 
          00000039 00000047 
          0000003a 00000000 
    12124 0000003b 00000030 SL6:    .byte   "000%",0
          0000003c 00000030 
          0000003d 00000030 
          0000003e 00000025 
          0000003f 00000000 
    12125 00000040 00000052 SL7:    .byte   "Repet Num -> ",0
          00000041 00000065 
          00000042 00000070 
          00000043 00000065 
          00000044 00000074 
          00000045 00000020 
          00000046 0000004e 
          00000047 00000075 
          00000048 0000006d 
          00000049 00000020 
          0000004a 0000002d 
          0000004b 0000003e 
          0000004c 00000020 
          0000004d 00000000 
    12126 0000004e 00000045 SL8:    .byte   "ERASER    -> NG",0
          0000004f 00000052 
          00000050 00000041 
          00000051 00000053 
          00000052 00000045 
          00000053 00000052 
          00000054 00000020 
          00000055 00000020 
TMS320C3x/4x COFF AssemblerVersion 5.11     Fri Sep 17 14:23:56 2010
Copyright (c) 1987-1999 Texas Instruments Incorporatedc:\lang\tms320c3x\511\bin\asm30.exe -l gpproface.asm gpproface.obj -tC:\Users\jds\AppData\Local\Temp\gpproface.tmp 

gpproface.asm                                                        PAGE  227

          00000056 00000020 
          00000057 00000020 
          00000058 0000002d 
          00000059 0000003e 
          0000005a 00000020 
          0000005b 0000004e 
          0000005c 00000047 
          0000005d 00000000 
    12127 0000005e 00000045 SL9:    .byte   "ERASS     -> OK",0
          0000005f 00000052 
          00000060 00000041 
          00000061 00000053 
          00000062 00000053 
          00000063 00000020 
          00000064 00000020 
          00000065 00000020 
          00000066 00000020 
          00000067 00000020 
          00000068 0000002d 
          00000069 0000003e 
          0000006a 00000020 
          0000006b 0000004f 
          0000006c 0000004b 
          0000006d 00000000 
    12128 0000006e 00000044 SL10:   .byte   "DATA DOWN -> OK",0
          0000006f 00000041 
          00000070 00000054 
          00000071 00000041 
          00000072 00000020 
          00000073 00000044 
          00000074 0000004f 
          00000075 00000057 
          00000076 0000004e 
          00000077 00000020 
          00000078 0000002d 
          00000079 0000003e 
          0000007a 00000020 
          0000007b 0000004f 
          0000007c 0000004b 
          0000007d 00000000 
    12129 0000007e 00000044 SL11:   .byte   "DATA SDR CHACK.",0
          0000007f 00000041 
          00000080 00000054 
          00000081 00000041 
          00000082 00000020 
          00000083 00000053 
          00000084 00000044 
          00000085 00000052 
          00000086 00000020 
          00000087 00000043 
          00000088 00000048 
          00000089 00000041 
          0000008a 00000043 
          0000008b 0000004b 
TMS320C3x/4x COFF AssemblerVersion 5.11     Fri Sep 17 14:23:56 2010
Copyright (c) 1987-1999 Texas Instruments Incorporatedc:\lang\tms320c3x\511\bin\asm30.exe -l gpproface.asm gpproface.obj -tC:\Users\jds\AppData\Local\Temp\gpproface.tmp 

gpproface.asm                                                        PAGE  228

          0000008c 0000002e 
          0000008d 00000000 
    12130 0000008e 00000054 SL12:   .byte   "The Next Station ",0
          0000008f 00000068 
          00000090 00000065 
          00000091 00000020 
          00000092 0000004e 
          00000093 00000065 
          00000094 00000078 
          00000095 00000074 
          00000096 00000020 
          00000097 00000053 
          00000098 00000074 
          00000099 00000061 
          0000009a 00000074 
          0000009b 00000069 
          0000009c 0000006f 
          0000009d 0000006e 
          0000009e 00000020 
          0000009f 00000000 
    12131 000000a0 0000002a SL13:   .byte   "* TMS InterFace NG",0
          000000a1 00000020 
          000000a2 00000054 
          000000a3 0000004d 
          000000a4 00000053 
          000000a5 00000020 
          000000a6 00000049 
          000000a7 0000006e 
          000000a8 00000074 
          000000a9 00000065 
          000000aa 00000072 
          000000ab 00000046 
          000000ac 00000061 
          000000ad 00000063 
          000000ae 00000065 
          000000af 00000020 
          000000b0 0000004e 
          000000b1 00000047 
          000000b2 00000000 
    12132 000000b3 00000020 SL14:   .byte   "                              ",0
          000000b4 00000020 
          000000b5 00000020 
          000000b6 00000020 
          000000b7 00000020 
          000000b8 00000020 
          000000b9 00000020 
          000000ba 00000020 
          000000bb 00000020 
          000000bc 00000020 
          000000bd 00000020 
          000000be 00000020 
          000000bf 00000020 
          000000c0 00000020 
          000000c1 00000020 
TMS320C3x/4x COFF AssemblerVersion 5.11     Fri Sep 17 14:23:56 2010
Copyright (c) 1987-1999 Texas Instruments Incorporatedc:\lang\tms320c3x\511\bin\asm30.exe -l gpproface.asm gpproface.obj -tC:\Users\jds\AppData\Local\Temp\gpproface.tmp 

gpproface.asm                                                        PAGE  229

          000000c2 00000020 
          000000c3 00000020 
          000000c4 00000020 
          000000c5 00000020 
          000000c6 00000020 
          000000c7 00000020 
          000000c8 00000020 
          000000c9 00000020 
          000000ca 00000020 
          000000cb 00000020 
          000000cc 00000020 
          000000cd 00000020 
          000000ce 00000020 
          000000cf 00000020 
          000000d0 00000020 
          000000d1 00000000 
    12133 000000d2 00000049 SL15:   .byte   "IDC21",0
          000000d3 00000044 
          000000d4 00000043 
          000000d5 00000032 
          000000d6 00000031 
          000000d7 00000000 
    12134 000000d8 0000002d SL16:   .byte   "->",0
          000000d9 0000003e 
          000000da 00000000 
    12135 000000db 0000004e SL17:   .byte   "New UpLoad",0
          000000dc 00000065 
          000000dd 00000077 
          000000de 00000020 
          000000df 00000055 
          000000e0 00000070 
          000000e1 0000004c 
          000000e2 0000006f 
          000000e3 00000061 
          000000e4 00000064 
          000000e5 00000000 
    12136 000000e6 00000053 SL18:   .byte   "SameUpLoad",0
          000000e7 00000061 
          000000e8 0000006d 
          000000e9 00000065 
          000000ea 00000055 
          000000eb 00000070 
          000000ec 0000004c 
          000000ed 0000006f 
          000000ee 00000061 
          000000ef 00000064 
          000000f0 00000000 
    12137 000000f1 00000046 SL19:   .byte   "File CHECK",0
          000000f2 00000069 
          000000f3 0000006c 
          000000f4 00000065 
          000000f5 00000020 
          000000f6 00000043 
          000000f7 00000048 
TMS320C3x/4x COFF AssemblerVersion 5.11     Fri Sep 17 14:23:56 2010
Copyright (c) 1987-1999 Texas Instruments Incorporatedc:\lang\tms320c3x\511\bin\asm30.exe -l gpproface.asm gpproface.obj -tC:\Users\jds\AppData\Local\Temp\gpproface.tmp 

gpproface.asm                                                        PAGE  230

          000000f8 00000045 
          000000f9 00000043 
          000000fa 0000004b 
          000000fb 00000000 
    12138 000000fc 00000043 SL20:   .byte   "CARD CHECK",0
          000000fd 00000041 
          000000fe 00000052 
          000000ff 00000044 
          00000100 00000020 
          00000101 00000043 
          00000102 00000048 
          00000103 00000045 
          00000104 00000043 
          00000105 0000004b 
          00000106 00000000 
    12139 00000107 00000052 SL21:   .byte   "RND NoFile",0
          00000108 0000004e 
          00000109 00000044 
          0000010a 00000020 
          0000010b 0000004e 
          0000010c 0000006f 
          0000010d 00000046 
          0000010e 00000069 
          0000010f 0000006c 
          00000110 00000065 
          00000111 00000000 
    12140 00000112 00000052 SL22:   .byte   "RND CHECK -> OK",0
          00000113 0000004e 
          00000114 00000044 
          00000115 00000020 
          00000116 00000043 
          00000117 00000048 
          00000118 00000045 
          00000119 00000043 
          0000011a 0000004b 
          0000011b 00000020 
          0000011c 0000002d 
          0000011d 0000003e 
          0000011e 00000020 
          0000011f 0000004f 
          00000120 0000004b 
          00000121 00000000 
    12141 00000122 00000052 SL23:   .byte   "RND CHECK -> NG",0
          00000123 0000004e 
          00000124 00000044 
          00000125 00000020 
          00000126 00000043 
          00000127 00000048 
          00000128 00000045 
          00000129 00000043 
          0000012a 0000004b 
          0000012b 00000020 
          0000012c 0000002d 
          0000012d 0000003e 
TMS320C3x/4x COFF AssemblerVersion 5.11     Fri Sep 17 14:23:56 2010
Copyright (c) 1987-1999 Texas Instruments Incorporatedc:\lang\tms320c3x\511\bin\asm30.exe -l gpproface.asm gpproface.obj -tC:\Users\jds\AppData\Local\Temp\gpproface.tmp 

gpproface.asm                                                        PAGE  231

          0000012e 00000020 
          0000012f 0000004e 
          00000130 00000047 
          00000131 00000000 
    12142 00000132 00000046 SL24:   .byte   "FDD NoFile",0
          00000133 00000044 
          00000134 00000044 
          00000135 00000020 
          00000136 0000004e 
          00000137 0000006f 
          00000138 00000046 
          00000139 00000069 
          0000013a 0000006c 
          0000013b 00000065 
          0000013c 00000000 
    12143 0000013d 00000046 SL25:   .byte   "FDD DATA -> OK",0
          0000013e 00000044 
          0000013f 00000044 
          00000140 00000020 
          00000141 00000044 
          00000142 00000041 
          00000143 00000054 
          00000144 00000041 
          00000145 00000020 
          00000146 0000002d 
          00000147 0000003e 
          00000148 00000020 
          00000149 0000004f 
          0000014a 0000004b 
          0000014b 00000000 
    12144 0000014c 00000046 SL26:   .byte   "FDD CHECK -> OK",0
          0000014d 00000044 
          0000014e 00000044 
          0000014f 00000020 
          00000150 00000043 
          00000151 00000048 
          00000152 00000045 
          00000153 00000043 
          00000154 0000004b 
          00000155 00000020 
          00000156 0000002d 
          00000157 0000003e 
          00000158 00000020 
          00000159 0000004f 
          0000015a 0000004b 
          0000015b 00000000 
    12145 0000015c 00000046 SL27:   .byte   "FDD CHECK -> NG",0
          0000015d 00000044 
          0000015e 00000044 
          0000015f 00000020 
          00000160 00000043 
          00000161 00000048 
          00000162 00000045 
          00000163 00000043 
TMS320C3x/4x COFF AssemblerVersion 5.11     Fri Sep 17 14:23:56 2010
Copyright (c) 1987-1999 Texas Instruments Incorporatedc:\lang\tms320c3x\511\bin\asm30.exe -l gpproface.asm gpproface.obj -tC:\Users\jds\AppData\Local\Temp\gpproface.tmp 

gpproface.asm                                                        PAGE  232

          00000164 0000004b 
          00000165 00000020 
          00000166 0000002d 
          00000167 0000003e 
          00000168 00000020 
          00000169 0000004e 
          0000016a 00000047 
          0000016b 00000000 
    12146 0000016c 00000049 SL28:   .byte   "IDD NoFile",0
          0000016d 00000044 
          0000016e 00000044 
          0000016f 00000020 
          00000170 0000004e 
          00000171 0000006f 
          00000172 00000046 
          00000173 00000069 
          00000174 0000006c 
          00000175 00000065 
          00000176 00000000 
    12147 00000177 00000049 SL29:   .byte   "IDD CHECK -> OK",0
          00000178 00000044 
          00000179 00000044 
          0000017a 00000020 
          0000017b 00000043 
          0000017c 00000048 
          0000017d 00000045 
          0000017e 00000043 
          0000017f 0000004b 
          00000180 00000020 
          00000181 0000002d 
          00000182 0000003e 
          00000183 00000020 
          00000184 0000004f 
          00000185 0000004b 
          00000186 00000000 
    12148 00000187 00000049 SL30:   .byte   "IDD CHECK -> NG",0
          00000188 00000044 
          00000189 00000044 
          0000018a 00000020 
          0000018b 00000043 
          0000018c 00000048 
          0000018d 00000045 
          0000018e 00000043 
          0000018f 0000004b 
          00000190 00000020 
          00000191 0000002d 
          00000192 0000003e 
          00000193 00000020 
          00000194 0000004e 
          00000195 00000047 
          00000196 00000000 
    12149 00000197 00000054 SL31:   .byte   "TND NoFile",0
          00000198 0000004e 
          00000199 00000044 
TMS320C3x/4x COFF AssemblerVersion 5.11     Fri Sep 17 14:23:56 2010
Copyright (c) 1987-1999 Texas Instruments Incorporatedc:\lang\tms320c3x\511\bin\asm30.exe -l gpproface.asm gpproface.obj -tC:\Users\jds\AppData\Local\Temp\gpproface.tmp 

gpproface.asm                                                        PAGE  233

          0000019a 00000020 
          0000019b 0000004e 
          0000019c 0000006f 
          0000019d 00000046 
          0000019e 00000069 
          0000019f 0000006c 
          000001a0 00000065 
          000001a1 00000000 
    12150 000001a2 00000054 SL32:   .byte   "TND CHECK -> OK",0
          000001a3 0000004e 
          000001a4 00000044 
          000001a5 00000020 
          000001a6 00000043 
          000001a7 00000048 
          000001a8 00000045 
          000001a9 00000043 
          000001aa 0000004b 
          000001ab 00000020 
          000001ac 0000002d 
          000001ad 0000003e 
          000001ae 00000020 
          000001af 0000004f 
          000001b0 0000004b 
          000001b1 00000000 
    12151 000001b2 00000054 SL33:   .byte   "TND CHECK -> NG",0
          000001b3 0000004e 
          000001b4 00000044 
          000001b5 00000020 
          000001b6 00000043 
          000001b7 00000048 
          000001b8 00000045 
          000001b9 00000043 
          000001ba 0000004b 
          000001bb 00000020 
          000001bc 0000002d 
          000001bd 0000003e 
          000001be 00000020 
          000001bf 0000004e 
          000001c0 00000047 
          000001c1 00000000 
    12152                   ;******************************************************************************
    12153                   ;* CONSTANT TABLE                                                             *
    12154                   ;******************************************************************************
    12155 000001c2                  .sect   ".const"
    12156 0000020a                  .bss    CL1,1
    12157 0000020b                  .bss    CL2,1
    12158 0000020c                  .bss    CL3,1
    12159 0000020d                  .bss    CL4,1
    12160 0000020e                  .bss    CL5,1
    12161 0000020f                  .bss    CL6,1
    12162 00000210                  .bss    CL7,1
    12163 00000211                  .bss    CL8,1
    12164 00000212                  .bss    CL9,1
    12165 00000213                  .bss    CL10,1
TMS320C3x/4x COFF AssemblerVersion 5.11     Fri Sep 17 14:23:56 2010
Copyright (c) 1987-1999 Texas Instruments Incorporatedc:\lang\tms320c3x\511\bin\asm30.exe -l gpproface.asm gpproface.obj -tC:\Users\jds\AppData\Local\Temp\gpproface.tmp 

gpproface.asm                                                        PAGE  234

    12166 00000214                  .bss    CL11,1
    12167 00000215                  .bss    CL12,1
    12168 00000216                  .bss    CL13,1
    12169 00000217                  .bss    CL14,1
    12170 00000218                  .bss    CL15,1
    12171 00000219                  .bss    CL16,1
    12172 0000021a                  .bss    CL17,1
    12173 0000021b                  .bss    CL18,1
    12174 0000021c                  .bss    CL19,1
    12175 0000021d                  .bss    CL20,1
    12176 0000021e                  .bss    CL21,1
    12177 0000021f                  .bss    CL22,1
    12178 00000220                  .bss    CL23,1
    12179 00000221                  .bss    CL24,1
    12180 00000222                  .bss    CL25,1
    12181 00000223                  .bss    CL26,1
    12182 00000224                  .bss    CL27,1
    12183 00000225                  .bss    CL28,1
    12184 00000226                  .bss    CL29,1
    12185 00000227                  .bss    CL30,1
    12186 00000228                  .bss    CL31,1
    12187 00000229                  .bss    CL32,1
    12188 0000022a                  .bss    CL33,1
    12189 0000022b                  .bss    CL34,1
    12190 0000022c                  .bss    CL35,1
    12191 0000022d                  .bss    CL36,1
    12192 0000022e                  .bss    CL37,1
    12193 0000022f                  .bss    CL38,1
    12194 00000230                  .bss    CL39,1
    12195 00000231                  .bss    CL40,1
    12196 00000232                  .bss    CL41,1
    12197 00000233                  .bss    CL42,1
    12198 00000234                  .bss    CL43,1
    12199 00000235                  .bss    CL44,1
    12200 00000236                  .bss    CL45,1
    12201 00000237                  .bss    CL46,1
    12202 00000238                  .bss    CL47,1
    12203 00000239                  .bss    CL48,1
    12204 0000023a                  .bss    CL49,1
    12205 0000023b                  .bss    CL50,1
    12206 0000023c                  .bss    CL51,1
    12207 0000023d                  .bss    CL52,1
    12208 0000023e                  .bss    CL53,1
    12209 0000023f                  .bss    CL54,1
    12210 00000240                  .bss    CL55,1
    12211                   
    12212 00000027                  .sect   ".cinit"
    12213 00000027 00000037         .field          55,32
    12214 00000028 0000020a-        .field          CL1+0,32
    12215 00000029 0000000d-        .field          _glTxBufA3,32
    12216 0000002a 00000142!        .field          _nTr_St_Info+322,32
    12217 0000002b 00000151!        .field          _nTr_St_Info+337,32
    12218 0000002c 00000160!        .field          _nTr_St_Info+352,32
    12219 0000002d 0000ffff         .field          65535,32
TMS320C3x/4x COFF AssemblerVersion 5.11     Fri Sep 17 14:23:56 2010
Copyright (c) 1987-1999 Texas Instruments Incorporatedc:\lang\tms320c3x\511\bin\asm30.exe -l gpproface.asm gpproface.obj -tC:\Users\jds\AppData\Local\Temp\gpproface.tmp 

gpproface.asm                                                        PAGE  235

    12220 0000002e 000000aa!        .field          _nTr_St_Info+170,32
    12221 0000002f 000000d8!        .field          _nTr_St_Info+216,32
    12222 00000030 001ffffd         .field          2097149,32
    12223 00000031 001ffffc         .field          2097148,32
    12224 00000032 0000003c!        .field          _nSelf_Test+60,32
    12225 00000033 00000000!        .field          _m_Scc1TXBuff_Ach,32
    12226 00000034 00000000!        .field          _m_Scc1RXBuff_Ach_Back,32
    12227 00000035 00000000+        .field          SL1,32
    12228 00000036 0000000b+        .field          SL2,32
    12229 00000037 00000010+        .field          SL3,32
    12230 00000038 00000078!        .field          _nSelf_Test+120,32
    12231 00000039 0000001b+        .field          SL4,32
    12232 0000003a 0000002b+        .field          SL5,32
    12233 0000003b 0000003b+        .field          SL6,32
    12234 0000003c 00000040+        .field          SL7,32
    12235 0000003d 0000004e+        .field          SL8,32
    12236 0000003e 0000005e+        .field          SL9,32
    12237 0000003f 0000006e+        .field          SL10,32
    12238 00000040 0000007e+        .field          SL11,32
    12239 00000041 000007c1'        .field          SW0,32
    12240 00000042 0000008e+        .field          SL12,32
    12241 00000043 ffffffff         .field          -1,32
    12242 00000044 000000a0+        .field          SL13,32
    12243 00000045 00000105!        .field          _nNvsram_Variable+261,32
    12244 00000046 00000156!        .field          _nNvsram_Variable+342,32
    12245 00000047 00000106!        .field          _nTr_St_Info+262,32
    12246 00000048 00000c6c'        .field          SW1,32
    12247 00000049 000000b3+        .field          SL14,32
    12248 0000004a 00000dbe'        .field          SW2,32
    12249 0000004b 00000001!        .field          _StationName+1,32
    12250 0000004c 00000133!        .field          _nTr_St_Info+307,32
    12251 0000004d 000000d2+        .field          SL15,32
    12252 0000004e 000000d8+        .field          SL16,32
    12253 0000004f 000000db+        .field          SL17,32
    12254 00000050 000000e6+        .field          SL18,32
    12255 00000051 000000f1+        .field          SL19,32
    12256 00000052 000000fc+        .field          SL20,32
    12257 00000053 00000107+        .field          SL21,32
    12258 00000054 00000112+        .field          SL22,32
    12259 00000055 00000122+        .field          SL23,32
    12260 00000056 00000132+        .field          SL24,32
    12261 00000057 0000013d+        .field          SL25,32
    12262 00000058 0000014c+        .field          SL26,32
    12263 00000059 0000015c+        .field          SL27,32
    12264 0000005a 0000016c+        .field          SL28,32
    12265 0000005b 00000177+        .field          SL29,32
    12266 0000005c 00000187+        .field          SL30,32
    12267 0000005d 00000197+        .field          SL31,32
    12268 0000005e 000001a2+        .field          SL32,32
    12269 0000005f 000001b2+        .field          SL33,32
    12270                   
    12271 0000150b                  .sect   ".text"
    12272                   ;******************************************************************************
    12273                   ;* UNDEFINED EXTERNAL REFERENCES                                              *
TMS320C3x/4x COFF AssemblerVersion 5.11     Fri Sep 17 14:23:56 2010
Copyright (c) 1987-1999 Texas Instruments Incorporatedc:\lang\tms320c3x\511\bin\asm30.exe -l gpproface.asm gpproface.obj -tC:\Users\jds\AppData\Local\Temp\gpproface.tmp 

gpproface.asm                                                        PAGE  236

    12274                   ;******************************************************************************
    12275                   
    12276                           .global _Delay_SCC3_SendTo
    12277                   
    12278                           .global _Nvsram_IDC_UpLoad_CK
    12279                   
    12280                           .global _NVSRAM_Rd_StationName_Code
    12281                   
    12282                           .global _NVSRAM_Find_StationRoot
    12283                   
    12284                           .global _m_FileSize
    12285                   
    12286                           .global _nSccSendFlag
    12287                   
    12288                           .global _nDi_Check
    12289                   
    12290                           .global _nSelf_Test
    12291                   
    12292                           .global _SanDisk_Vari
    12293                   
    12294                           .global _StationName
    12295                   
    12296                           .global _nNvsram_Variable
    12297                   
    12298                           .global _nLedDataLoad
    12299                   
    12300                           .global _Idc_Load
    12301                   
    12302                           .global _SCC2_INIT_A
    12303                   
    12304                           .global _m_Scc1TXBuff_Ach
    12305                   
    12306                           .global _m_Scc1RXBuff_Ach_Back
    12307                   
    12308                           .global _SCC3_INIT_A
    12309                   
    12310                           .global _SCC1_INIT_A
    12311                   
    12312                           .global _nTmsRxData
    12313                   
    12314                           .global _nIndex_Flag
    12315                   
    12316                           .global _nTr_St_Info
    12317                   
    12318                           .global _DP_GpDataChange
    12319                   
    12320                           .global _DP_STNAME_INFO_UP
    12321                   
    12322                           .global _DP_ALL_TEXT_CHECK
    12323                   
    12324                           .global _DP_ConvHex2Asc
    12325                   
    12326                           .global _memset
    12327                           .global MOD_U30
TMS320C3x/4x COFF AssemblerVersion 5.11     Fri Sep 17 14:23:56 2010
Copyright (c) 1987-1999 Texas Instruments Incorporatedc:\lang\tms320c3x\511\bin\asm30.exe -l gpproface.asm gpproface.obj -tC:\Users\jds\AppData\Local\Temp\gpproface.tmp 

gpproface.asm                                                        PAGE  237

    12328                           .global DIV_U30
    12329                           .global _memcpy
    12330                           .global MPY_K30

 No Errors,  No Warnings
