TMS320C3x/4x COFF AssemblerVersion 5.11     Fri Jun  7 10:24:18 2002
Copyright (c) 1987-1999 Texas Instruments IncorporatedC:\LANG\TMS320C3X\BIN\ASM30.EXE -l test.asm test.obj -tC:\WINDOWS\TEMP\test.tmp 

test.asm                                                             PAGE    1

        1                   ;******************************************************************************
        2                   ;* TMS320C3x/4x ANSI C Code Generator                            Version 5.11 *
        3                   ;* Date/Time created: Fri Jun  7 10:24:17 2002                                *
        4                   ;******************************************************************************
        5                           .regalias       ; enable floating point register aliases
        6          0000000b fp      .set    ar3
        7          0000000b FP      .set    ar3
        8                   ;******************************************************************************
        9                   ;* GLOBAL FILE PARAMETERS                                                     *
       10                   ;*                                                                            *
       11                   ;*   Optimization       : Always Choose Smaller Code Size                     *
       12                   ;*   Memory             : Small Memory Model                                  *
       13                   ;*   Float-to-Int       : Normal Conversions (round toward zero)              *
       14                   ;*   Multiply           : in Hardware (24 bits max)                           *
       15                   ;*   Memory Info        : Unmapped Memory Exists                              *
       16                   ;*   Repeat Loops       : Use RPTS and/or RPTB                                *
       17                   ;*   Calls              : Normal Library ASM calls                            *
       18                   ;*   Debug Info         : Optimized TI Debug Information                      *
       19                   ;******************************************************************************
       20                   ;       C:\LANG\TMS320C3X\BIN\AC30.EXE test.c C:\WINDOWS\TEMP\test.if 
       21                           .file   "test.c"
       22                           .file   "def1.h"
       23                           .sym    _byte,0,12,13,32
       24                           .sym    _word,0,14,13,32
       25                           .sym    _dword,0,15,13,32
       26                           .file   "test.c"
       27                   
       28 00000000                  .sect   ".cinit"
       29 00000000 00000001         .field          1,32
       30 00000001 00000000-        .field          _debug_data+0,32
       31 00000002 00000000         .field          0,32            ; _debug_data @ 0
       32                   
       33 00000000                  .sect   ".text"
       34                   
       35                           .global _debug_data
       36 00000000                  .bss    _debug_data,1
       37                           .sym    _debug_data,_debug_data,14,2,32
       38                   
       39 00000003                  .sect   ".cinit"
       40 00000003 00000001         .field          1,32
       41 00000004 00000001-        .field          _debug_addr+0,32
       42 00000005 00000000         .field          0,32            ; _debug_addr @ 0
       43                   
       44 00000000                  .sect   ".text"
       45                   
       46                           .global _debug_addr
       47 00000001                  .bss    _debug_addr,1
       48                           .sym    _debug_addr,_debug_addr,14,2,32
       49 00000000                  .sect    ".text"
       50                   
       51                           .global _main
       52                           .sym    _main,_main,32,2,0
       53                           .func   16
       54                   ;******************************************************************************
TMS320C3x/4x COFF AssemblerVersion 5.11     Fri Jun  7 10:24:18 2002
Copyright (c) 1987-1999 Texas Instruments IncorporatedC:\LANG\TMS320C3X\BIN\ASM30.EXE -l test.asm test.obj -tC:\WINDOWS\TEMP\test.tmp 

test.asm                                                             PAGE    2

       55                   ;* FUNCTION NAME: _main                                                       *
       56                   ;*                                                                            *
       57                   ;*   Architecture       : TMS320C30                                           *
       58                   ;*   Calling Convention : Stack Parameter Convention                          *
       59                   ;*   Function Uses Regs :                                                     *
       60                   ;*   Regs Saved         :                                                     *
       61                   ;*   Stack Frame        : Full (w/ debug)                                     *
       62                   ;*   Total Frame Size   : 2 Call + 0 Parm + 0 Auto + 0 SOE = 2 words          *
       63                   ;******************************************************************************
       64 00000000          _main:
       65                           .line   1
       66                   ;----------------------------------------------------------------------
       67                   ;  16 | void    main(void)                                                     
       68                   ;----------------------------------------------------------------------
       69 00000000 0f2b0000         push      fp
       70 00000001 500b0014         ldiu      sp,fp
       71                           .line   3
       72                   ;----------------------------------------------------------------------
       73                   ;  18 | dsp_init();                                                            
       74                   ;----------------------------------------------------------------------
       75 00000002 62000005'        call      _dsp_init
       76                                                           ; Call Occurs
       77                           .line   8
       78                   ;----------------------------------------------------------------------
       79                   ;  23 | asm("   OR  2000h, ST ") ;                                             
       80                   ;  26 | while(1)                                                               
       81                   ;----------------------------------------------------------------------
       82 00000003 10752000    OR  2000h, ST 
       83 00000004          L2:        
       84                           .line   14
       85 00000004 6a00ffff         bu        L2
       86                   ;*      Branch Occurs to L2 
       87                           .line   17
       88                           .endfunc        32,000000000h,0
       89                   
       90                   
       91 00000005                  .sect    ".text"
       92                   
       93                           .global _dsp_init
       94                           .sym    _dsp_init,_dsp_init,32,2,0
       95                           .func   37
       96                   ;******************************************************************************
       97                   ;* FUNCTION NAME: _dsp_init                                                   *
       98                   ;*                                                                            *
       99                   ;*   Architecture       : TMS320C30                                           *
      100                   ;*   Calling Convention : Stack Parameter Convention                          *
      101                   ;*   Function Uses Regs : r0,ar0                                              *
      102                   ;*   Regs Saved         :                                                     *
      103                   ;*   Stack Frame        : Full (w/ debug)                                     *
      104                   ;*   Total Frame Size   : 2 Call + 0 Parm + 0 Auto + 0 SOE = 2 words          *
      105                   ;******************************************************************************
      106 00000005          _dsp_init:
      107                           .line   1
      108                   ;----------------------------------------------------------------------
TMS320C3x/4x COFF AssemblerVersion 5.11     Fri Jun  7 10:24:18 2002
Copyright (c) 1987-1999 Texas Instruments IncorporatedC:\LANG\TMS320C3X\BIN\ASM30.EXE -l test.asm test.obj -tC:\WINDOWS\TEMP\test.tmp 

test.asm                                                             PAGE    3

      109                   ;  37 | void dsp_init(void)                                                    
      110                   ;----------------------------------------------------------------------
      111 00000005 0f2b0000         push      fp
      112 00000006 500b0014         ldiu      sp,fp
      113                           .line   3
      114                   ;----------------------------------------------------------------------
      115                   ;  39 | RDY_CS = 0xffffffff;    /* Pin Wait Mode : D23 <--- 1 */               
      116                   ;----------------------------------------------------------------------
      117 00000007 50280002-        ldiu      @CL1,ar0
      118 00000008 5060ffff         ldiu      -1,r0
      119 00000009 1540c000         sti       r0,*ar0
      120                           .line   8
      121                   ;----------------------------------------------------------------------
      122                   ;  44 | PMBR = 0x1000;  /* SW RDY : 0 Wait : 0x1008 */                         
      123                   ;----------------------------------------------------------------------
      124 0000000a 50280003-        ldiu      @CL2,ar0
      125 0000000b 50601000         ldiu      4096,r0
      126 0000000c 1540c000         sti       r0,*ar0
      127                           .line   13
      128                   ;----------------------------------------------------------------------
      129                   ;  49 | EN_CACHE;                                                              
      130                   ;----------------------------------------------------------------------
      131 0000000d 10750800    OR   00800h, ST      
      132                           .line   16
      133                   ;----------------------------------------------------------------------
      134                   ;  52 | RINT0_VECT = OP_BR | (int)c_int06 ; /* *(int *)0x809fc6 : serial port0
      135                   ;     | receive INT */                                                         
      136                   ;----------------------------------------------------------------------
      137 0000000e 50200005-        ldiu      @CL4,r0
      138 0000000f 50280004-        ldiu      @CL3,ar0
      139 00000010 10200006-        or        @CL5,r0
      140 00000011 1540c000         sti       r0,*ar0
      141                           .line   19
      142                   ;----------------------------------------------------------------------
      143                   ;  55 | TMR0_CTRL=0x2c0 ;              /* internal clock */                    
      144                   ;----------------------------------------------------------------------
      145 00000012 50280007-        ldiu      @CL6,ar0
      146 00000013 506002c0         ldiu      704,r0
      147 00000014 1540c000         sti       r0,*ar0
      148                           .line   22
      149                   ;----------------------------------------------------------------------
      150                   ;  58 | TMR0_PERD=1920 ;          /* maximum period ,OSC:39.3216 MHz*/         
      151                   ;----------------------------------------------------------------------
      152 00000015 50280008-        ldiu      @CL7,ar0
      153 00000016 50600780         ldiu      1920,r0
      154 00000017 1540c000         sti       r0,*ar0
      155                           .line   25
      156                   ;----------------------------------------------------------------------
      157                   ;  61 | asm(" AND 0DFFFh, ST ") ;       /* 1101 1111 1111 1111 */              
      158                   ;----------------------------------------------------------------------
      159 00000018 02f5dfff  AND 0DFFFh, ST 
      160                           .line   30
      161                   ;----------------------------------------------------------------------
      162                   ;  66 | FSX_DX_CLKX_CON = 0x111;                /* pin = serial function */    
TMS320C3x/4x COFF AssemblerVersion 5.11     Fri Jun  7 10:24:18 2002
Copyright (c) 1987-1999 Texas Instruments IncorporatedC:\LANG\TMS320C3X\BIN\ASM30.EXE -l test.asm test.obj -tC:\WINDOWS\TEMP\test.tmp 

test.asm                                                             PAGE    4

      163                   ;----------------------------------------------------------------------
      164 00000019 50280009-        ldiu      @CL8,ar0
      165 0000001a 50600111         ldiu      273,r0
      166 0000001b 1540c000         sti       r0,*ar0
      167                           .line   31
      168                   ;----------------------------------------------------------------------
      169                   ;  67 | SP_GLOBAL_CON = 0x0e3c0000;             /* RRESET=XRESET=1,RLEN=XLEN=32
      170                   ;     | bit */                                                                 
      171                   ;----------------------------------------------------------------------
      172 0000001c 5028000a-        ldiu      @CL9,ar0
      173 0000001d 5020000b-        ldiu      @CL10,r0
      174 0000001e 1540c000         sti       r0,*ar0
      175                           .line   32
      176                   ;----------------------------------------------------------------------
      177                   ;  68 | S_TXD = 0x33333333;                     /* dummy txd */                
      178                   ;----------------------------------------------------------------------
      179 0000001f 5028000c-        ldiu      @CL11,ar0
      180 00000020 5020000d-        ldiu      @CL12,r0
      181 00000021 1540c000         sti       r0,*ar0
      182                           .line   35
      183                   ;----------------------------------------------------------------------
      184                   ;  71 | asm(" LDI 0120h, IE ") ;        /* 0000 0001 0010 0101 */              
      185                   ;----------------------------------------------------------------------
      186 00000022 08760120  LDI 0120h, IE 
      187                           .line   38
      188                   ;----------------------------------------------------------------------
      189                   ;  74 | asm("   OR 00002h, IOF ") ;                                            
      190                   ;----------------------------------------------------------------------
      191 00000023 10780002    OR 00002h, IOF 
      192                           .line   41
      193 00000024 50480b01         ldiu      *-fp(1),ar0
      194 00000025 504bc300         ldiu      *fp,fp
      195 00000026 18740002         subi      2,sp
      196 00000027 68000008         bu        ar0
      197                   ;*      Branch Occurs to ar0 
      198                           .endfunc        77,000000000h,0
      199                   
      200                   
      201 00000028                  .sect    ".text"
      202                   
      203                           .global _c_int06
      204                           .sym    _c_int06,_c_int06,32,2,0
      205                           .func   82
      206                   ;******************************************************************************
      207                   ;* FUNCTION NAME: _c_int06                                                    *
      208                   ;*                                                                            *
      209                   ;*   Architecture       : TMS320C30                                           *
      210                   ;*   Calling Convention : Stack Parameter Convention                          *
      211                   ;*   Function Uses Regs : r0,ar0,st                                           *
      212                   ;*   Regs Saved         : f0,r0,ar0,pc                                        *
      213                   ;*   Stack Frame        : Full (w/ debug)                                     *
      214                   ;*   Total Frame Size   : 2 Call + 0 Parm + 2 Auto + 3 SOE = 7 words          *
      215                   ;******************************************************************************
      216 00000028          _c_int06:
TMS320C3x/4x COFF AssemblerVersion 5.11     Fri Jun  7 10:24:18 2002
Copyright (c) 1987-1999 Texas Instruments IncorporatedC:\LANG\TMS320C3X\BIN\ASM30.EXE -l test.asm test.obj -tC:\WINDOWS\TEMP\test.tmp 

test.asm                                                             PAGE    5

      217                           .sym    _rx_data,1,14,1,32
      218                           .sym    _tx_data,2,14,1,32
      219                           .line   1
      220                   ;----------------------------------------------------------------------
      221                   ;  82 | void c_int06(void)                                                     
      222                   ;  84 | unsigned int rx_data, tx_data ;                                        
      223                   ;----------------------------------------------------------------------
      224 00000028 0f350000         push      st
      225 00000029 0f2b0000         push      fp
      226 0000002a 500b0014         ldiu      sp,fp
      227 0000002b 02740002         addi      2,sp
      228 0000002c 0f200000         push      r0
      229 0000002d 0fa00000         pushf     f0
      230 0000002e 0f280000         push      ar0
      231                           .line   5
      232                   ;----------------------------------------------------------------------
      233                   ;  86 | rx_data = S_RXD;                /* Read rx_data */                     
      234                   ;  88 | switch(rx_data >> 24){          /* use b31 ~ b24 */                    
      235                   ;----------------------------------------------------------------------
      236 0000002f 6a20001d         bud       L19
      237 00000030 5028000e-        ldiu      @CL13,ar0
      238 00000031 5040c000         ldiu      *ar0,r0
      239 00000032 15400301         sti       r0,*+fp(1)
      240                   ;*      Branch Occurs to L19 
      241 00000033          L9:        
      242                           .line   9
      243                   ;----------------------------------------------------------------------
      244                   ;  90 | case 0xff:  tx_data = 0;   /*  No TXD operation for TX_buffer empty */ 
      245                   ;----------------------------------------------------------------------
      246 00000033 50600000         ldiu      0,r0
      247 00000034 15400302         sti       r0,*+fp(2)
      248                           .line   10
      249                   ;----------------------------------------------------------------------
      250                   ;  91 | return;                                                                
      251                   ;----------------------------------------------------------------------
      252 00000035 6a000030         bu        L28
      253                   ;*      Branch Occurs to L28 
      254 00000036          L10:        
      255                           .line   12
      256                   ;----------------------------------------------------------------------
      257                   ;  93 | case 0x00:  tx_data = *(int *)rx_data; /* Data read operation */       
      258                   ;----------------------------------------------------------------------
      259 00000036 50480301         ldiu      *+fp(1),ar0
      260 00000037 5040c000         ldiu      *ar0,r0
      261 00000038 15400302         sti       r0,*+fp(2)
      262                           .line   13
      263                   ;----------------------------------------------------------------------
      264                   ;  94 | break;                                                                 
      265                   ;  96 | case 0x88:                                                             
      266                   ;----------------------------------------------------------------------
      267 00000039 6a000029         bu        L27
      268                   ;*      Branch Occurs to L27 
      269 0000003a          L11:        
      270                           .line   16
TMS320C3x/4x COFF AssemblerVersion 5.11     Fri Jun  7 10:24:18 2002
Copyright (c) 1987-1999 Texas Instruments IncorporatedC:\LANG\TMS320C3X\BIN\ASM30.EXE -l test.asm test.obj -tC:\WINDOWS\TEMP\test.tmp 

test.asm                                                             PAGE    6

      271                   ;----------------------------------------------------------------------
      272                   ;  97 | tx_data = 0x12345678;   break;   /* Return ID */                       
      273                   ;----------------------------------------------------------------------
      274 0000003a 5020000f-        ldiu      @CL14,r0
      275 0000003b 15400302         sti       r0,*+fp(2)
      276 0000003c 6a000026         bu        L27
      277                   ;*      Branch Occurs to L27 
      278 0000003d          L12:        
      279                           .line   18
      280                   ;----------------------------------------------------------------------
      281                   ;  99 | case 0xad:  debug_addr = rx_data & 0xffffff; /* Address setting */     
      282                   ;----------------------------------------------------------------------
      283 0000003d 50200010-        ldiu      @CL15,r0
      284 0000003e 02c00301         and       *+fp(1),r0
      285 0000003f 15200001-        sti       r0,@_debug_addr+0
      286                           .line   19
      287                   ;----------------------------------------------------------------------
      288                   ; 100 | tx_data = debug_addr;                                                  
      289                   ;----------------------------------------------------------------------
      290 00000040 15400302         sti       r0,*+fp(2)
      291                           .line   20
      292                   ;----------------------------------------------------------------------
      293                   ; 101 | break;                                                                 
      294                   ;----------------------------------------------------------------------
      295 00000041 6a000021         bu        L27
      296                   ;*      Branch Occurs to L27 
      297 00000042          L13:        
      298                           .line   22
      299                   ;----------------------------------------------------------------------
      300                   ; 103 | case 0xd1:  debug_data = rx_data << 16; /* High 16 bit data setting */ 
      301                   ;----------------------------------------------------------------------
      302 00000042 50400301         ldiu      *+fp(1),r0
      303 00000043 03e00010         ash       16,r0
      304 00000044 15200000-        sti       r0,@_debug_data+0
      305                           .line   23
      306                   ;----------------------------------------------------------------------
      307                   ; 104 | tx_data = debug_data;                                                  
      308                   ;----------------------------------------------------------------------
      309 00000045 15400302         sti       r0,*+fp(2)
      310                           .line   24
      311                   ;----------------------------------------------------------------------
      312                   ; 105 | break;                                                                 
      313                   ;----------------------------------------------------------------------
      314 00000046 6a00001c         bu        L27
      315                   ;*      Branch Occurs to L27 
      316 00000047          L14:        
      317                           .line   26
      318                   ;----------------------------------------------------------------------
      319                   ; 107 | case 0xd0:  debug_data |= rx_data & 0xffff; /* Low 16 bit data setting
      320                   ;     | */                                                                     
      321                   ;----------------------------------------------------------------------
      322 00000047 50400301         ldiu      *+fp(1),r0
      323 00000048 02e0ffff         and       65535,r0
      324 00000049 10200000-        or        @_debug_data+0,r0
TMS320C3x/4x COFF AssemblerVersion 5.11     Fri Jun  7 10:24:18 2002
Copyright (c) 1987-1999 Texas Instruments IncorporatedC:\LANG\TMS320C3X\BIN\ASM30.EXE -l test.asm test.obj -tC:\WINDOWS\TEMP\test.tmp 

test.asm                                                             PAGE    7

      325 0000004a 15200000-        sti       r0,@_debug_data+0
      326                           .line   27
      327                   ;----------------------------------------------------------------------
      328                   ; 108 | tx_data = debug_data;                                                  
      329                   ;----------------------------------------------------------------------
      330 0000004b 15400302         sti       r0,*+fp(2)
      331                           .line   28
      332                   ;----------------------------------------------------------------------
      333                   ; 109 | break;                                                                 
      334                   ;----------------------------------------------------------------------
      335 0000004c 6a000016         bu        L27
      336                   ;*      Branch Occurs to L27 
      337                           .line   30
      338                   ;----------------------------------------------------------------------
      339                   ; 111 | case 0x33:  *(int *)debug_addr = debug_data; /* Write strobe signal */ 
      340                   ;----------------------------------------------------------------------
      341 0000004d          L16:        
      342 0000004d 1540c000         sti       r0,*ar0
      343                           .line   31
      344                   ;----------------------------------------------------------------------
      345                   ; 112 | break;                                                                 
      346                   ;----------------------------------------------------------------------
      347 0000004e 6a000014         bu        L27
      348                   ;*      Branch Occurs to L27 
      349                           .line   33
      350                   ;----------------------------------------------------------------------
      351                   ; 114 | default:    tx_data = 0xffffffff; /* return 0xffffffff */              
      352                   ;----------------------------------------------------------------------
      353                           .line   34
      354                   ;----------------------------------------------------------------------
      355                   ; 115 | break;                                                                 
      356                   ;----------------------------------------------------------------------
      357 0000004f          L19:        
      358                           .line   7
      359 0000004f 50400301         ldiu      *+fp(1),r0
      360 00000050 09e0ffe8         lsh       -24,r0
      361 00000051 6a05ffe4         beq       L10
      362                   ;*      Branch Occurs to L10 
      363 00000052 04e00033         cmpi      51,r0
      364 00000053 6a25fff7         beqd      L16
      365 00000054 0c800000         nop
      366 00000055 52a80001-        ldieq     @_debug_addr+0,ar0
      367 00000056 52a00000-        ldieq     @_debug_data+0,r0
      368                   ;*      Branch Occurs to L16 
      369 00000057 04e00088         cmpi      136,r0
      370 00000058 6a05ffe1         beq       L11
      371                   ;*      Branch Occurs to L11 
      372 00000059 04e000ad         cmpi      173,r0
      373 0000005a 6a05ffe2         beq       L12
      374                   ;*      Branch Occurs to L12 
      375 0000005b 04e000d0         cmpi      208,r0
      376 0000005c 6a05ffea         beq       L14
      377                   ;*      Branch Occurs to L14 
      378 0000005d 04e000d1         cmpi      209,r0
TMS320C3x/4x COFF AssemblerVersion 5.11     Fri Jun  7 10:24:18 2002
Copyright (c) 1987-1999 Texas Instruments IncorporatedC:\LANG\TMS320C3X\BIN\ASM30.EXE -l test.asm test.obj -tC:\WINDOWS\TEMP\test.tmp 

test.asm                                                             PAGE    8

      379 0000005e 6a05ffe3         beq       L13
      380                   ;*      Branch Occurs to L13 
      381 0000005f 04e000ff         cmpi      255,r0
      382 00000060 6a05ffd2         beq       L9
      383                   ;*      Branch Occurs to L9 
      384 00000061 50200011-        ldiu      @CL16,r0
      385 00000062 15400302         sti       r0,*+fp(2)
      386 00000063          L27:        
      387                           .line   37
      388                   ;----------------------------------------------------------------------
      389                   ; 118 | S_TXD = tx_data;   /* Send tx_data */                                  
      390                   ;----------------------------------------------------------------------
      391 00000063 5028000c-        ldiu      @CL11,ar0
      392 00000064 50400302         ldiu      *+fp(2),r0
      393 00000065 1540c000         sti       r0,*ar0
      394 00000066          L28:        
      395                           .line   39
      396 00000066 0e280000         pop       ar0
      397 00000067 0ea00000         popf      f0
      398 00000068 0e200000         pop       r0
      399 00000069 18740002         subi      2,sp
      400 0000006a 0e2b0000         pop       fp
      401 0000006b 0e350000         pop       st
      402 0000006c 78000000         reti
      403                                                                   ; Return From Interrupt
      404                           .endfunc        120,000000101h,2
      405                   
      406                   
      407                   ;******************************************************************************
      408                   ;* CONSTANT TABLE                                                             *
      409                   ;******************************************************************************
      410 00000000                  .sect   ".const"
      411 00000002                  .bss    CL1,1
      412 00000003                  .bss    CL2,1
      413 00000004                  .bss    CL3,1
      414 00000005                  .bss    CL4,1
      415 00000006                  .bss    CL5,1
      416 00000007                  .bss    CL6,1
      417 00000008                  .bss    CL7,1
      418 00000009                  .bss    CL8,1
      419 0000000a                  .bss    CL9,1
      420 0000000b                  .bss    CL10,1
      421 0000000c                  .bss    CL11,1
      422 0000000d                  .bss    CL12,1
      423 0000000e                  .bss    CL13,1
      424 0000000f                  .bss    CL14,1
      425 00000010                  .bss    CL15,1
      426 00000011                  .bss    CL16,1
      427                   
      428 00000006                  .sect   ".cinit"
      429 00000006 00000010         .field          16,32
      430 00000007 00000002-        .field          CL1+0,32
      431 00000008 00980000         .field          9961472,32
      432 00000009 00808064         .field          8421476,32
TMS320C3x/4x COFF AssemblerVersion 5.11     Fri Jun  7 10:24:18 2002
Copyright (c) 1987-1999 Texas Instruments IncorporatedC:\LANG\TMS320C3X\BIN\ASM30.EXE -l test.asm test.obj -tC:\WINDOWS\TEMP\test.tmp 

test.asm                                                             PAGE    9

      433 0000000a 00809fc6         .field          8429510,32
      434 0000000b 60000000         .field          1610612736,32
      435 0000000c 00000028'        .field          _c_int06,32
      436 0000000d 00808020         .field          8421408,32
      437 0000000e 00808028         .field          8421416,32
      438 0000000f 00808042         .field          8421442,32
      439 00000010 00808040         .field          8421440,32
      440 00000011 0e3c0000         .field          238813184,32
      441 00000012 00808048         .field          8421448,32
      442 00000013 33333333         .field          858993459,32
      443 00000014 0080804c         .field          8421452,32
      444 00000015 12345678         .field          305419896,32
      445 00000016 00ffffff         .field          16777215,32
      446 00000017 ffffffff         .field          -1,32
      447                   
      448 0000006d                  .sect   ".text"

 No Errors,  No Warnings
