TMS320C3x/4x COFF AssemblerVersion 5.11     Fri Sep 17 14:23:57 2010
Copyright (c) 1987-1999 Texas Instruments Incorporatedc:\lang\tms320c3x\511\bin\asm30.exe -l led_download.asm led_download.obj -tC:\Users\jds\AppData\Local\Temp\led_download.tmp 

led_download.asm                                                     PAGE    1

        1                   ;******************************************************************************
        2                   ;* TMS320C3x/4x ANSI C Code Generator                            Version 5.11 *
        3                   ;* Date/Time created: Fri Sep 17 14:23:57 2010                                *
        4                   ;******************************************************************************
        5                           .regalias       ; enable floating point register aliases
        6          0000000b fp      .set    ar3
        7          0000000b FP      .set    ar3
        8                   ;******************************************************************************
        9                   ;* GLOBAL FILE PARAMETERS                                                     *
       10                   ;*                                                                            *
       11                   ;*   Optimization       : Always Choose Smaller Code Size                     *
       12                   ;*   Memory             : Small Memory Model                                  *
       13                   ;*   Float-to-Int       : Normal Conversions (round toward zero)              *
       14                   ;*   Multiply           : in Hardware (24 bits max)                           *
       15                   ;*   Memory Info        : Unmapped Memory Exists                              *
       16                   ;*   Repeat Loops       : Use RPTS and/or RPTB                                *
       17                   ;*   Calls              : Normal Library ASM calls                            *
       18                   ;*   Debug Info         : Optimized TI Debug Information                      *
       19                   ;******************************************************************************
       20                   ;       c:\lang\tms320c3x\511\bin\ac30.exe led_download.c C:\Users\jds\AppData\Local\Temp\led_download.
       21                           .file   "led_download.c"
       22                           .file   "All_def.h"
       23                           .sym    _DWORD,0,15,13,32
       24                           .sym    _USHORT,0,13,13,32
       25                           .sym    _UCHAR,0,12,13,32
       26                           .sym    _WORD,0,14,13,32
       27                           .file   "string.h"
       28                           .sym    _size_t,0,14,13,32
       29                           .file   "z85c30.h"
       30                           .stag   .fake2,32
       31                           .member _B0,0,14,18,1
       32                           .member _B1,1,14,18,1
       33                           .member _B2,2,14,18,1
       34                           .member _B3,3,14,18,1
       35                           .member _B4,4,14,18,1
       36                           .member _B5,5,14,18,1
       37                           .member _B6,6,14,18,1
       38                           .member _B7,7,14,18,1
       39                           .eos
       40                           .utag   .fake1,32
       41                           .member _UCHAR,0,14,11,32
       42                           .member _BIT,0,8,11,32,.fake2
       43                           .eos
       44                           .stag   .fake0,32
       45                           .member _DR,0,9,8,32,.fake1
       46                           .eos
       47                           .sym    _SD,0,8,13,32,.fake0
       48                           .stag   .fake3,224
       49                           .member _nAA,0,12,8,32
       50                           .member _nBB,32,12,8,32
       51                           .member _nCC,64,12,8,32
       52                           .member _nLen_H,96,12,8,32
       53                           .member _nLen_L,128,12,8,32
       54                           .member _nLenCom_H,160,12,8,32
TMS320C3x/4x COFF AssemblerVersion 5.11     Fri Sep 17 14:23:57 2010
Copyright (c) 1987-1999 Texas Instruments Incorporatedc:\lang\tms320c3x\511\bin\asm30.exe -l led_download.asm led_download.obj -tC:\Users\jds\AppData\Local\Temp\led_download.tmp 

led_download.asm                                                     PAGE    2

       55                           .member _nLenCom_L,192,12,8,32
       56                           .eos
       57                           .sym    _SCC_HEAD,0,8,13,224,.fake3
       58                           .stag   .fake4,320
       59                           .member _nToAdd,0,12,8,32
       60                           .member _nFromAdd,32,12,8,32
       61                           .member _nCode,64,12,8,32
       62                           .member _nSp3,96,12,8,32
       63                           .member _nSp4,128,12,8,32
       64                           .member _nErBlk,160,12,8,32
       65                           .member _nDeStCode,192,12,8,32
       66                           .member _nSp7,224,12,8,32
       67                           .member _nSp8,256,12,8,32
       68                           .member _nSp9,288,12,8,32
       69                           .eos
       70                           .sym    _SCC_TEST,0,8,13,320,.fake4
       71                           .stag   .fake5,640
       72                           .member _nHead,0,8,8,224,.fake3
       73                           .member _nTest,224,8,8,320,.fake4
       74                           .member _Etx,544,12,8,32
       75                           .member _CRC_H,576,12,8,32
       76                           .member _CRC_L,608,12,8,32
       77                           .eos
       78                           .sym    _SCC_TX_DATA,0,8,13,640,.fake5
       79                           .sym    _PSCC_TX_DATA,0,24,13,32,.fake5
       80                           .stag   .fake6,320
       81                           .member _nToAdd,0,12,8,32
       82                           .member _nFromAdd,32,12,8,32
       83                           .member _nCode,64,12,8,32
       84                           .member _nSp3,96,12,8,32
       85                           .member _nNow,128,12,8,32
       86                           .member _nNext,160,12,8,32
       87                           .member _nDeSt,192,12,8,32
       88                           .member _nStartSt,224,12,8,32
       89                           .member _nDist_H,256,12,8,32
       90                           .member _nDist_L,288,12,8,32
       91                           .eos
       92                           .sym    _SCC_TEST_RND,0,8,13,320,.fake6
       93                           .stag   .fake7,640
       94                           .member _nHead,0,8,8,224,.fake3
       95                           .member _nTest,224,8,8,320,.fake6
       96                           .member _Etx,544,12,8,32
       97                           .member _CRC_H,576,12,8,32
       98                           .member _CRC_L,608,12,8,32
       99                           .eos
      100                           .sym    _SCC_RNDTX_DATA,0,8,13,640,.fake7
      101                           .sym    _PSCC_RNDTX_DATA,0,24,13,32,.fake7
      102                           .stag   .fake8,17696
      103                           .member _nToAdd,0,12,8,32
      104                           .member _nFromAdd,32,12,8,32
      105                           .member _nCode,64,12,8,32
      106                           .member _nTEXT,96,60,8,17600,,550
      107                           .eos
      108                           .sym    _SCC_TEXT,0,8,13,17696,.fake8
TMS320C3x/4x COFF AssemblerVersion 5.11     Fri Sep 17 14:23:57 2010
Copyright (c) 1987-1999 Texas Instruments Incorporatedc:\lang\tms320c3x\511\bin\asm30.exe -l led_download.asm led_download.obj -tC:\Users\jds\AppData\Local\Temp\led_download.tmp 

led_download.asm                                                     PAGE    3

      109                           .stag   .fake9,17920
      110                           .member _nHead,0,8,8,224,.fake3
      111                           .member _nText,224,8,8,17696,.fake8
      112                           .eos
      113                           .sym    _SCC_PIB_TEXT,0,8,13,17920,.fake9
      114                           .sym    _PSCC_PIB_TEXT,0,24,13,32,.fake9
      115                           .stag   .fake10,192
      116                           .member _nYY,0,12,8,32
      117                           .member _nMM,32,12,8,32
      118                           .member _nDD,64,12,8,32
      119                           .member _nhh,96,12,8,32
      120                           .member _nmm,128,12,8,32
      121                           .member _nss,160,12,8,32
      122                           .eos
      123                           .sym    _TIME,0,8,13,192,.fake10
      124                           .stag   .fake12,32
      125                           .member _nDoor1,0,14,18,1
      126                           .member _nDoor2,1,14,18,1
      127                           .member _nDcw,2,14,18,1
      128                           .member _nNextSt,3,14,18,1
      129                           .member _nExpress,4,14,18,1
      130                           .member _B5,5,14,18,1
      131                           .member _B6,6,14,18,1
      132                           .member _B7,7,14,18,1
      133                           .eos
      134                           .stag   .fake11,608
      135                           .member _nLAddres,0,12,8,32
      136                           .member _nHAddres,32,12,8,32
      137                           .member _nContro,64,12,8,32
      138                           .member _nDataDefin,96,12,8,32
      139                           .member _nStCode,128,12,8,32
      140                           .member _nNowCode,160,12,8,32
      141                           .member _nNextCode,192,12,8,32
      142                           .member _nDestCode,224,12,8,32
      143                           .member _BIT,256,8,8,32,.fake12
      144                           .member _nCarTrainNum,288,60,8,64,,2
      145                           .member _nSp,352,12,8,32
      146                           .member _nTime,384,8,8,192,.fake10
      147                           .member _nSp_2,576,12,8,32
      148                           .eos
      149                           .sym    _TMS_RX_DATA,0,8,13,608,.fake11
      150                           .sym    _PTMS_RX_DATA,0,24,13,32,.fake11
      151                           .stag   .fake13,416
      152                           .member _TxPos,0,12,8,32
      153                           .member _TxLen,32,12,8,32
      154                           .member _TxOK,64,12,8,32
      155                           .member _TX_RTS_OFF_TIME,96,12,8,32
      156                           .member _TxBuffer,128,28,8,32
      157                           .member _RxOK,160,12,8,32
      158                           .member _RxOKCnt,192,12,8,32
      159                           .member _RxPos,224,12,8,32
      160                           .member _RxDlyTm,256,12,8,32
      161                           .member _RxLen,288,12,8,32
      162                           .member _RX_RTS_OFF_TIME,320,12,8,32
TMS320C3x/4x COFF AssemblerVersion 5.11     Fri Sep 17 14:23:57 2010
Copyright (c) 1987-1999 Texas Instruments Incorporatedc:\lang\tms320c3x\511\bin\asm30.exe -l led_download.asm led_download.obj -tC:\Users\jds\AppData\Local\Temp\led_download.tmp 

led_download.asm                                                     PAGE    4

      163                           .member _RxBuffer,352,28,8,32
      164                           .member _RxTimeOut,384,12,8,32
      165                           .eos
      166                           .sym    _SCC_INIT_SHAPE,0,8,13,416,.fake13
      167                           .file   "DataPro.h"
      168                           .stag   .fake14,128
      169                           .member _nTotalDestCnt,0,12,8,32
      170                           .member _nCheakSt,32,12,8,32
      171                           .member _nDiskInputCheckFlag,64,12,8,32
      172                           .member _nDiskUpChekFlag,96,12,8,32
      173                           .eos
      174                           .sym    _SANDISK_VARI,0,8,13,128,.fake14
      175                           .stag   .fake15,1472
      176                           .member _nCode,0,12,8,32
      177                           .member _nEnNameBuf,32,60,8,480,,15
      178                           .member _nIRNameBuf,512,60,8,960,,30
      179                           .eos
      180                           .sym    _STATION_INFO,0,8,13,1472,.fake15
      181                           .stag   .fake16,1920
      182                           .member _nPre,0,60,8,480,,15
      183                           .member _nNow,480,60,8,480,,15
      184                           .member _nNext,960,60,8,480,,15
      185                           .member _nDest,1440,60,8,480,,15
      186                           .eos
      187                           .sym    _GP_ST_NAME,0,8,13,1920,.fake16
      188                           .stag   .fake17,128
      189                           .member _nFlag_DI_INPUT,0,12,8,32
      190                           .member _nFlag_Simu,32,12,8,32
      191                           .member _nFlag_SelfTest,64,12,8,32
      192                           .member _nAutoPlay_Flag,96,12,8,32
      193                           .eos
      194                           .sym    _TIME_FLAG,0,8,13,128,.fake17
      195                           .stag   .fake18,5984
      196                           .member _nSELF_ADDDATA_BUF,0,60,8,1920,,60
      197                           .member _nSELF_RXDATA_Buf,1920,60,8,1920,,60
      198                           .member _nSELF_DownLoad_RxBuf,3840,60,8,960,,30
      199                           .member _nSELF_DownLoad_AddBuf,4800,60,8,960,,30
      200                           .member _nSELF_DownLoad_UnitCnt,5760,12,8,32
      201                           .member _nSELF_TX_Cnt,5792,12,8,32
      202                           .member _nSELF_TX_Cnt_B,5824,12,8,32
      203                           .member _nSELF_All_Cnt,5856,12,8,32
      204                           .member _nSELF_All_Cnt_B,5888,12,8,32
      205                           .member _nSELF_ICR_SELECT,5920,12,8,32
      206                           .member _nSELF_Selt_Flag,5952,12,8,32
      207                           .eos
      208                           .sym    _SELF_TEST,0,8,13,5984,.fake18
      209                           .stag   .fake19,12032
      210                           .member _nStopPatNum,0,12,8,32
      211                           .member _nStation_MaxCnt,32,12,8,32
      212                           .member _nStation_StartPointCnt,64,12,8,32
      213                           .member _nStation_PointCnt,96,12,8,32
      214                           .member _nStation_PointCntRe,128,12,8,32
      215                           .member _nStation_List,160,60,8,1920,,60
      216                           .member _nPIBPatFlag,2080,12,8,32
TMS320C3x/4x COFF AssemblerVersion 5.11     Fri Sep 17 14:23:57 2010
Copyright (c) 1987-1999 Texas Instruments Incorporatedc:\lang\tms320c3x\511\bin\asm30.exe -l led_download.asm led_download.obj -tC:\Users\jds\AppData\Local\Temp\led_download.tmp 

led_download.asm                                                     PAGE    5

      217                           .member _nDISFPatFlag,2112,12,8,32
      218                           .member _nSimulationFlag,2144,12,8,32
      219                           .member _nSimulationCnt,2176,12,8,32
      220                           .member _nSimulationRun,2208,12,8,32
      221                           .member _nAutoDoorFlag,2240,12,8,32
      222                           .member _nSpeed,2272,12,8,32
      223                           .member _nDoor,2304,12,8,32
      224                           .member _nDoorOPenCnt,2336,12,8,32
      225                           .member _nDistance,2368,12,8,32
      226                           .member _nSinmuScrCnt,2400,12,8,32
      227                           .member _nTcmsRxNGCnt,2432,12,8,32
      228                           .member _nStart,2464,8,8,1472,.fake15
      229                           .member _nPre,3936,8,8,1472,.fake15
      230                           .member _nNow,5408,8,8,1472,.fake15
      231                           .member _nNext,6880,8,8,1472,.fake15
      232                           .member _nDest,8352,8,8,1472,.fake15
      233                           .member _nGpStName,9824,8,8,1920,.fake16
      234                           .member _nSelf_Test_Flag,11744,12,8,32
      235                           .member _nClean_Flag,11776,12,8,32
      236                           .member _nTcmsAutoDriverFlag,11808,12,8,32
      237                           .member _nDoOp_StCh,11840,12,8,32
      238                           .member _nMasterFlag,11872,12,8,32
      239                           .member _nRxCode_NoNe_Flag,11904,12,8,32
      240                           .member _nSendIddTxFlag,11936,12,8,32
      241                           .member _nAutoManuFlag,11968,12,8,32
      242                           .member _nAutoManuFlagCnt,12000,12,8,32
      243                           .eos
      244                           .sym    _TRAN_STATION_INFO,0,8,13,12032,.fake19
      245                           .stag   .fake20,160
      246                           .member _nFlag,0,12,8,32
      247                           .member _nTime,32,12,8,32
      248                           .member _nTimeCnt,64,12,8,32
      249                           .member _nFlagCnt,96,12,8,32
      250                           .member _nRemem,128,12,8,32
      251                           .eos
      252                           .sym    _ONTD_CHECK,0,8,13,160,.fake20
      253                           .stag   .fake21,800
      254                           .member _nHcr,0,8,8,160,.fake20
      255                           .member _nIcr,160,8,8,160,.fake20
      256                           .member _nTcr,320,8,8,160,.fake20
      257                           .member _nDoor,480,8,8,160,.fake20
      258                           .member _nDist,640,8,8,160,.fake20
      259                           .eos
      260                           .sym    _DI_CHECK,0,8,13,800,.fake21
      261                           .stag   .fake22,18496
      262                           .member _nIM_PR_TEXT,0,60,8,17600,,550
      263                           .member _nIndexBuf,17600,60,8,640,,20
      264                           .member _nIndexST_STAllCnt,18240,12,8,32
      265                           .member _nAllCnt_Cnt,18272,12,8,32
      266                           .member _nIndexDI_DICnt,18304,12,8,32
      267                           .member _nIndexCnt,18336,12,8,32
      268                           .member _nDistanRe,18368,15,8,32
      269                           .member _nDistanNew,18400,15,8,32
      270                           .member _nBetweenFlag,18432,12,8,32
TMS320C3x/4x COFF AssemblerVersion 5.11     Fri Sep 17 14:23:57 2010
Copyright (c) 1987-1999 Texas Instruments Incorporatedc:\lang\tms320c3x\511\bin\asm30.exe -l led_download.asm led_download.obj -tC:\Users\jds\AppData\Local\Temp\led_download.tmp 

led_download.asm                                                     PAGE    6

      271                           .member _nTxEndTimeFlag,18464,12,8,32
      272                           .eos
      273                           .sym    _INDEX_FLAG,0,8,13,18496,.fake22
      274                           .stag   .fake23,192
      275                           .member _nDataDefin,0,12,8,32
      276                           .member _nCarNum,32,12,8,32
      277                           .member _nDist,64,12,8,32
      278                           .member _nNow,96,12,8,32
      279                           .member _nNext,128,12,8,32
      280                           .member _nDest,160,12,8,32
      281                           .eos
      282                           .sym    _TMS_RX_DATA_PR,0,8,13,192,.fake23
      283                           .stag   .fake24,64
      284                           .member _nTxNum,0,12,8,32
      285                           .member _nTxFlag,32,12,8,32
      286                           .eos
      287                           .sym    _IM_PR_SEND,0,8,13,64,.fake24
      288                           .stag   .fake25,384
      289                           .member _nDeSTCodeSet,0,12,8,32
      290                           .member _nTranNum,32,12,8,32
      291                           .member _nClean,64,12,8,32
      292                           .member _nPIBPaten,96,12,8,32
      293                           .member _nS_FDIPaten,128,12,8,32
      294                           .member _nCarNum,160,12,8,32
      295                           .member _nIM_Text,192,8,8,64,.fake24
      296                           .member _nPR_Text,256,8,8,64,.fake24
      297                           .member _nRNDTXFlag,320,12,8,32
      298                           .member _nManualSet,352,12,8,32
      299                           .eos
      300                           .sym    _SCC_SEND_FLAG,0,8,13,384,.fake25
      301                           .stag   .fake28,32
      302                           .member _B0,0,14,18,1
      303                           .member _B1,1,14,18,1
      304                           .member _B2,2,14,18,1
      305                           .member _B3,3,14,18,1
      306                           .member _B4,4,14,18,1
      307                           .member _B5,5,14,18,1
      308                           .member _B6,6,14,18,1
      309                           .member _B7,7,14,18,1
      310                           .eos
      311                           .utag   .fake27,32
      312                           .member _BYTE,0,14,11,32
      313                           .member _BIT,0,8,11,32,.fake28
      314                           .eos
      315                           .stag   .fake26,32
      316                           .member _DR,0,9,8,32,.fake27
      317                           .eos
      318                           .sym    _TMS_SEND_DATA,0,8,13,32,.fake26
      319                           .stag   .fake29,192
      320                           .member _nIDC_ROM_Flag,0,12,8,32
      321                           .member _nErCnt,32,12,8,32
      322                           .member _nDataNvsrLoad,64,12,8,32
      323                           .member _nDataNvsrWait,96,12,8,32
      324                           .member _nRomWriteCnt,128,12,8,32
TMS320C3x/4x COFF AssemblerVersion 5.11     Fri Sep 17 14:23:57 2010
Copyright (c) 1987-1999 Texas Instruments Incorporatedc:\lang\tms320c3x\511\bin\asm30.exe -l led_download.asm led_download.obj -tC:\Users\jds\AppData\Local\Temp\led_download.tmp 

led_download.asm                                                     PAGE    7

      325                           .member _nKO_Flag,160,12,8,32
      326                           .eos
      327                           .sym    _IDC_ROM_WRITE,0,8,13,192,.fake29
      328                           .stag   .fake30,288
      329                           .member _nTimeTranNum,0,14,8,32
      330                           .member _nStartHour,32,60,8,64,,2
      331                           .member _nStartMin,96,60,8,64,,2
      332                           .member _nEndHour,160,60,8,64,,2
      333                           .member _nEndMin,224,60,8,64,,2
      334                           .eos
      335                           .sym    _TRANNUMTIME,0,8,13,288,.fake30
      336                           .sym    _PTRANNUMTIME,0,24,13,32,.fake30
      337                           .stag   .fake31,9792
      338                           .member _nTIMEBUF,0,56,8,9792,.fake30,34
      339                           .eos
      340                           .sym    _TIMEBUF,0,8,13,9792,.fake31
      341                           .sym    _PTIMEBUF,0,24,13,32,.fake31
      342                           .file   "GpProface.h"
      343                           .stag   .fake32,160
      344                           .member _nFlag,0,12,8,32
      345                           .member _nNum,32,14,8,32
      346                           .member _nRemNum,64,14,8,32
      347                           .member _nNowSt_Re,96,12,8,32
      348                           .member _nNextSt_Re,128,12,8,32
      349                           .eos
      350                           .sym    _TRANNUM_INPUT,0,8,13,160,.fake32
      351                           .stag   .fake33,288
      352                           .member _nGPTranNumInput,0,8,8,160,.fake32
      353                           .member _nScreenSetNum,160,12,8,32
      354                           .member _nScreenRxTime,192,12,8,32
      355                           .member _nScreenSafe,224,12,8,32
      356                           .member _nScreen_Send_Delay_Time,256,12,8,32
      357                           .eos
      358                           .sym    _SELETC_BUTTON,0,8,13,288,.fake33
      359                           .file   "LED_DOWNLOAD.h"
      360                           .stag   .fake34,160
      361                           .member _nST_1,0,12,8,32
      362                           .member _nST_2,32,12,8,32
      363                           .member _nTXCnt,64,12,8,32
      364                           .member _nRepCnt,96,12,8,32
      365                           .member _nErassOk,128,12,8,32
      366                           .eos
      367                           .sym    _DOWN_STEP,0,8,13,160,.fake34
      368                           .stag   .fake35,736
      369                           .member _nRNDSelt,0,12,8,32
      370                           .member _nFDDSelt,32,12,8,32
      371                           .member _nIDDSelt,64,12,8,32
      372                           .member _nTNDSelt,96,12,8,32
      373                           .member _nFDD_DATA_Selt,128,12,8,32
      374                           .member _nSFKindCode,160,12,8,32
      375                           .member _nWaitSDR,192,12,8,32
      376                           .member _nSelfTestFlag,224,12,8,32
      377                           .member _nSDR_RxCnt,256,12,8,32
      378                           .member _nErassFlag,288,8,8,160,.fake34
TMS320C3x/4x COFF AssemblerVersion 5.11     Fri Sep 17 14:23:57 2010
Copyright (c) 1987-1999 Texas Instruments Incorporatedc:\lang\tms320c3x\511\bin\asm30.exe -l led_download.asm led_download.obj -tC:\Users\jds\AppData\Local\Temp\led_download.tmp 

led_download.asm                                                     PAGE    8

      379                           .member _nDataDownFlag,448,12,8,32
      380                           .member _nDataRepetFlag,480,12,8,32
      381                           .member _nDataRepetNum,512,12,8,32
      382                           .member _nDataRepetCnt,544,12,8,32
      383                           .member _nDataSDRFlag,576,12,8,32
      384                           .member _nDataSize,608,12,8,32
      385                           .member _nDataTxCnt,640,12,8,32
      386                           .member _nSWScreenSelt,672,12,8,32
      387                           .member _nDATAScreenSelt,704,12,8,32
      388                           .eos
      389                           .sym    _LED_DATA_DOWNLOAD,0,8,13,736,.fake35
      390                           .file   "led_download.c"
      391                   
      392 00000000                  .sect   ".cinit"
      393 00000000 00000001         .field          1,32
      394 00000001 00000000-        .field          _nLED_200ms_Flag+0,32
      395 00000002 00000000         .field          0,32            ; _nLED_200ms_Flag @ 0
      396                   
      397 00000000                  .sect   ".text"
      398                   
      399                           .global _nLED_200ms_Flag
      400 00000000                  .bss    _nLED_200ms_Flag,1
      401                           .sym    _nLED_200ms_Flag,_nLED_200ms_Flag,12,2,32
      402                   
      403 00000003                  .sect   ".cinit"
      404 00000003 00000001         .field          1,32
      405 00000004 00000001-        .field          _nLED_Time_Change+0,32
      406 00000005 000000c8         .field          200,32          ; _nLED_Time_Change @ 0
      407                   
      408 00000000                  .sect   ".text"
      409                   
      410                           .global _nLED_Time_Change
      411 00000001                  .bss    _nLED_Time_Change,1
      412                           .sym    _nLED_Time_Change,_nLED_Time_Change,12,2,32
      413                   
      414 00000006                  .sect   ".cinit"
      415 00000006 00000001         .field          1,32
      416 00000007 00000002-        .field          _nLED_Time_Cnt+0,32
      417 00000008 00000000         .field          0,32            ; _nLED_Time_Cnt @ 0
      418                   
      419 00000000                  .sect   ".text"
      420                   
      421                           .global _nLED_Time_Cnt
      422 00000002                  .bss    _nLED_Time_Cnt,1
      423                           .sym    _nLED_Time_Cnt,_nLED_Time_Cnt,12,2,32
      424                   
      425 00000009                  .sect   ".cinit"
      426 00000009 00000018         .field          IR_1,32
      427 0000000a 00000003-        .field          _DISPLAY_UNIT_IDD+0,32
      428 0000000b 00000011         .field          17,32           ; _DISPLAY_UNIT_IDD[0] @ 0
      429 0000000c 00000021         .field          33,32           ; _DISPLAY_UNIT_IDD[1] @ 32
      430 0000000d 00000031         .field          49,32           ; _DISPLAY_UNIT_IDD[2] @ 64
      431 0000000e 00000041         .field          65,32           ; _DISPLAY_UNIT_IDD[3] @ 96
      432 0000000f 00000071         .field          113,32          ; _DISPLAY_UNIT_IDD[4] @ 128
TMS320C3x/4x COFF AssemblerVersion 5.11     Fri Sep 17 14:23:57 2010
Copyright (c) 1987-1999 Texas Instruments Incorporatedc:\lang\tms320c3x\511\bin\asm30.exe -l led_download.asm led_download.obj -tC:\Users\jds\AppData\Local\Temp\led_download.tmp 

led_download.asm                                                     PAGE    9

      433 00000010 00000001         .field          1,32            ; _DISPLAY_UNIT_IDD[5] @ 160
      434 00000011 00000012         .field          18,32           ; _DISPLAY_UNIT_IDD[6] @ 192
      435 00000012 00000022         .field          34,32           ; _DISPLAY_UNIT_IDD[7] @ 224
      436 00000013 00000032         .field          50,32           ; _DISPLAY_UNIT_IDD[8] @ 256
      437 00000014 00000042         .field          66,32           ; _DISPLAY_UNIT_IDD[9] @ 288
      438 00000015 00000072         .field          114,32          ; _DISPLAY_UNIT_IDD[10] @ 320
      439 00000016 00000002         .field          2,32            ; _DISPLAY_UNIT_IDD[11] @ 352
      440 00000017 00000013         .field          19,32           ; _DISPLAY_UNIT_IDD[12] @ 384
      441 00000018 00000023         .field          35,32           ; _DISPLAY_UNIT_IDD[13] @ 416
      442 00000019 00000033         .field          51,32           ; _DISPLAY_UNIT_IDD[14] @ 448
      443 0000001a 00000043         .field          67,32           ; _DISPLAY_UNIT_IDD[15] @ 480
      444 0000001b 00000073         .field          115,32          ; _DISPLAY_UNIT_IDD[16] @ 512
      445 0000001c 00000003         .field          3,32            ; _DISPLAY_UNIT_IDD[17] @ 544
      446 0000001d 00000014         .field          20,32           ; _DISPLAY_UNIT_IDD[18] @ 576
      447 0000001e 00000024         .field          36,32           ; _DISPLAY_UNIT_IDD[19] @ 608
      448 0000001f 00000034         .field          52,32           ; _DISPLAY_UNIT_IDD[20] @ 640
      449 00000020 00000044         .field          68,32           ; _DISPLAY_UNIT_IDD[21] @ 672
      450 00000021 00000074         .field          116,32          ; _DISPLAY_UNIT_IDD[22] @ 704
      451 00000022 00000004         .field          4,32            ; _DISPLAY_UNIT_IDD[23] @ 736
      452          00000018 IR_1:   .set    24
      453                   
      454 00000000                  .sect   ".text"
      455                   
      456                           .global _DISPLAY_UNIT_IDD
      457 00000003                  .bss    _DISPLAY_UNIT_IDD,30
      458                           .sym    _DISPLAY_UNIT_IDD,_DISPLAY_UNIT_IDD,60,2,960,,30
      459                   
      460 00000023                  .sect   ".cinit"
      461 00000023 00000018         .field          IR_2,32
      462 00000024 00000021-        .field          _DISPLAY_UNIT_RND+0,32
      463 00000025 00000015         .field          21,32           ; _DISPLAY_UNIT_RND[0] @ 0
      464 00000026 00000025         .field          37,32           ; _DISPLAY_UNIT_RND[1] @ 32
      465 00000027 00000035         .field          53,32           ; _DISPLAY_UNIT_RND[2] @ 64
      466 00000028 00000045         .field          69,32           ; _DISPLAY_UNIT_RND[3] @ 96
      467 00000029 00000075         .field          117,32          ; _DISPLAY_UNIT_RND[4] @ 128
      468 0000002a 00000005         .field          5,32            ; _DISPLAY_UNIT_RND[5] @ 160
      469 0000002b 00000016         .field          22,32           ; _DISPLAY_UNIT_RND[6] @ 192
      470 0000002c 00000026         .field          38,32           ; _DISPLAY_UNIT_RND[7] @ 224
      471 0000002d 00000036         .field          54,32           ; _DISPLAY_UNIT_RND[8] @ 256
      472 0000002e 00000046         .field          70,32           ; _DISPLAY_UNIT_RND[9] @ 288
      473 0000002f 00000076         .field          118,32          ; _DISPLAY_UNIT_RND[10] @ 320
      474 00000030 00000006         .field          6,32            ; _DISPLAY_UNIT_RND[11] @ 352
      475 00000031 00000017         .field          23,32           ; _DISPLAY_UNIT_RND[12] @ 384
      476 00000032 00000027         .field          39,32           ; _DISPLAY_UNIT_RND[13] @ 416
      477 00000033 00000037         .field          55,32           ; _DISPLAY_UNIT_RND[14] @ 448
      478 00000034 00000047         .field          71,32           ; _DISPLAY_UNIT_RND[15] @ 480
      479 00000035 00000077         .field          119,32          ; _DISPLAY_UNIT_RND[16] @ 512
      480 00000036 00000007         .field          7,32            ; _DISPLAY_UNIT_RND[17] @ 544
      481 00000037 00000018         .field          24,32           ; _DISPLAY_UNIT_RND[18] @ 576
      482 00000038 00000028         .field          40,32           ; _DISPLAY_UNIT_RND[19] @ 608
      483 00000039 00000038         .field          56,32           ; _DISPLAY_UNIT_RND[20] @ 640
      484 0000003a 00000048         .field          72,32           ; _DISPLAY_UNIT_RND[21] @ 672
      485 0000003b 00000078         .field          120,32          ; _DISPLAY_UNIT_RND[22] @ 704
      486 0000003c 00000008         .field          8,32            ; _DISPLAY_UNIT_RND[23] @ 736
TMS320C3x/4x COFF AssemblerVersion 5.11     Fri Sep 17 14:23:57 2010
Copyright (c) 1987-1999 Texas Instruments Incorporatedc:\lang\tms320c3x\511\bin\asm30.exe -l led_download.asm led_download.obj -tC:\Users\jds\AppData\Local\Temp\led_download.tmp 

led_download.asm                                                     PAGE   10

      487          00000018 IR_2:   .set    24
      488                   
      489 00000000                  .sect   ".text"
      490                   
      491                           .global _DISPLAY_UNIT_RND
      492 00000021                  .bss    _DISPLAY_UNIT_RND,30
      493                           .sym    _DISPLAY_UNIT_RND,_DISPLAY_UNIT_RND,60,2,960,,30
      494                   
      495 0000003d                  .sect   ".cinit"
      496 0000003d 00000002         .field          IR_3,32
      497 0000003e 0000003f-        .field          _DISPLAY_UNIT_FDD+0,32
      498 0000003f 0000001f         .field          31,32           ; _DISPLAY_UNIT_FDD[0] @ 0
      499 00000040 0000000f         .field          15,32           ; _DISPLAY_UNIT_FDD[1] @ 32
      500          00000002 IR_3:   .set    2
      501                   
      502 00000000                  .sect   ".text"
      503                   
      504                           .global _DISPLAY_UNIT_FDD
      505 0000003f                  .bss    _DISPLAY_UNIT_FDD,5
      506                           .sym    _DISPLAY_UNIT_FDD,_DISPLAY_UNIT_FDD,60,2,160,,5
      507                   
      508 00000041                  .sect   ".cinit"
      509 00000041 00000002         .field          IR_4,32
      510 00000042 00000044-        .field          _DISPLAY_UNIT_TND+0,32
      511 00000043 0000001d         .field          29,32           ; _DISPLAY_UNIT_TND[0] @ 0
      512 00000044 0000000d         .field          13,32           ; _DISPLAY_UNIT_TND[1] @ 32
      513          00000002 IR_4:   .set    2
      514                   
      515 00000000                  .sect   ".text"
      516                   
      517                           .global _DISPLAY_UNIT_TND
      518 00000044                  .bss    _DISPLAY_UNIT_TND,5
      519                           .sym    _DISPLAY_UNIT_TND,_DISPLAY_UNIT_TND,60,2,160,,5
      520 00000000                  .sect    ".text"
      521                   
      522                           .global _LED_Init
      523                           .sym    _LED_Init,_LED_Init,32,2,0
      524                           .func   48
      525                   ;******************************************************************************
      526                   ;* FUNCTION NAME: _LED_Init                                                   *
      527                   ;*                                                                            *
      528                   ;*   Architecture       : TMS320C30                                           *
      529                   ;*   Calling Convention : Stack Parameter Convention                          *
      530                   ;*   Function Uses Regs : r0                                                  *
      531                   ;*   Regs Saved         :                                                     *
      532                   ;*   Stack Frame        : Full (w/ debug)                                     *
      533                   ;*   Total Frame Size   : 2 Call + 0 Parm + 0 Auto + 0 SOE = 2 words          *
      534                   ;******************************************************************************
      535 00000000          _LED_Init:
      536                           .line   1
      537                   ;----------------------------------------------------------------------
      538                   ;  48 | void LED_Init()                                                        
      539                   ;----------------------------------------------------------------------
      540 00000000 0f2b0000         push      fp
TMS320C3x/4x COFF AssemblerVersion 5.11     Fri Sep 17 14:23:57 2010
Copyright (c) 1987-1999 Texas Instruments Incorporatedc:\lang\tms320c3x\511\bin\asm30.exe -l led_download.asm led_download.obj -tC:\Users\jds\AppData\Local\Temp\led_download.tmp 

led_download.asm                                                     PAGE   11

      541 00000001 500b0014         ldiu      sp,fp
      542                           .line   3
      543                   ;----------------------------------------------------------------------
      544                   ;  50 | nLedDataLoad.nRNDSelt = 0;                                             
      545                   ;----------------------------------------------------------------------
      546 00000002 50600000         ldiu      0,r0
      547 00000003 15200060-        sti       r0,@_nLedDataLoad+0
      548                           .line   4
      549                   ;----------------------------------------------------------------------
      550                   ;  51 | nLedDataLoad.nFDDSelt = 0;                                             
      551                   ;----------------------------------------------------------------------
      552 00000004 15200061-        sti       r0,@_nLedDataLoad+1
      553                           .line   5
      554                   ;----------------------------------------------------------------------
      555                   ;  52 | nLedDataLoad.nIDDSelt = 0;                                             
      556                   ;----------------------------------------------------------------------
      557 00000005 15200062-        sti       r0,@_nLedDataLoad+2
      558                           .line   6
      559                   ;----------------------------------------------------------------------
      560                   ;  53 | nLedDataLoad.nTNDSelt = 0;                                             
      561                   ;----------------------------------------------------------------------
      562 00000006 15200063-        sti       r0,@_nLedDataLoad+3
      563                           .line   7
      564                   ;----------------------------------------------------------------------
      565                   ;  54 | nLedDataLoad.nFDD_DATA_Selt = 0;                                       
      566                   ;----------------------------------------------------------------------
      567 00000007 15200064-        sti       r0,@_nLedDataLoad+4
      568                           .line   8
      569                   ;----------------------------------------------------------------------
      570                   ;  55 | nLedDataLoad.nSFKindCode = 0;                                          
      571                   ;----------------------------------------------------------------------
      572 00000008 15200065-        sti       r0,@_nLedDataLoad+5
      573                           .line   10
      574                   ;----------------------------------------------------------------------
      575                   ;  57 | nLedDataLoad.nSWScreenSelt = 0;                                        
      576                   ;----------------------------------------------------------------------
      577 00000009 15200075-        sti       r0,@_nLedDataLoad+21
      578                           .line   11
      579                   ;----------------------------------------------------------------------
      580                   ;  58 | nLedDataLoad.nDATAScreenSelt = 0;                                      
      581                   ;----------------------------------------------------------------------
      582 0000000a 15200076-        sti       r0,@_nLedDataLoad+22
      583                           .line   13
      584                   ;----------------------------------------------------------------------
      585                   ;  60 | nLedDataLoad.nWaitSDR = 0;                                             
      586                   ;----------------------------------------------------------------------
      587 0000000b 15200066-        sti       r0,@_nLedDataLoad+6
      588                           .line   15
      589                   ;----------------------------------------------------------------------
      590                   ;  62 | nLedDataLoad.nSelfTestFlag = 0;                                        
      591                   ;----------------------------------------------------------------------
      592 0000000c 15200067-        sti       r0,@_nLedDataLoad+7
      593                           .line   16
      594                   ;----------------------------------------------------------------------
TMS320C3x/4x COFF AssemblerVersion 5.11     Fri Sep 17 14:23:57 2010
Copyright (c) 1987-1999 Texas Instruments Incorporatedc:\lang\tms320c3x\511\bin\asm30.exe -l led_download.asm led_download.obj -tC:\Users\jds\AppData\Local\Temp\led_download.tmp 

led_download.asm                                                     PAGE   12

      595                   ;  63 | nLedDataLoad.nSDR_RxCnt = 0;                                           
      596                   ;----------------------------------------------------------------------
      597 0000000d 15200068-        sti       r0,@_nLedDataLoad+8
      598                           .line   18
      599                   ;----------------------------------------------------------------------
      600                   ;  65 | nLedDataLoad.nErassFlag.nST_1 = 0;                                     
      601                   ;----------------------------------------------------------------------
      602 0000000e 15200069-        sti       r0,@_nLedDataLoad+9
      603                           .line   19
      604                   ;----------------------------------------------------------------------
      605                   ;  66 | nLedDataLoad.nErassFlag.nST_2 = 0;                                     
      606                   ;----------------------------------------------------------------------
      607 0000000f 1520006a-        sti       r0,@_nLedDataLoad+10
      608                           .line   20
      609                   ;----------------------------------------------------------------------
      610                   ;  67 | nLedDataLoad.nErassFlag.nTXCnt = 0;     //Erass 블럭 전송 카운터       
      611                   ;----------------------------------------------------------------------
      612 00000010 1520006b-        sti       r0,@_nLedDataLoad+11
      613                           .line   21
      614                   ;----------------------------------------------------------------------
      615                   ;  68 | nLedDataLoad.nErassFlag.nRepCnt = 0;                                   
      616                   ;----------------------------------------------------------------------
      617 00000011 1520006c-        sti       r0,@_nLedDataLoad+12
      618                           .line   22
      619                   ;----------------------------------------------------------------------
      620                   ;  69 | nLedDataLoad.nErassFlag.nErassOk = FALSE;                              
      621                   ;----------------------------------------------------------------------
      622 00000012 1520006d-        sti       r0,@_nLedDataLoad+13
      623                           .line   24
      624                   ;----------------------------------------------------------------------
      625                   ;  71 | nLedDataLoad.nDataDownFlag = 0;                                        
      626                   ;----------------------------------------------------------------------
      627 00000013 1520006e-        sti       r0,@_nLedDataLoad+14
      628                           .line   25
      629                   ;----------------------------------------------------------------------
      630                   ;  72 | nLedDataLoad.nDataRepetFlag = 0;                                       
      631                   ;----------------------------------------------------------------------
      632 00000014 1520006f-        sti       r0,@_nLedDataLoad+15
      633                           .line   26
      634                   ;----------------------------------------------------------------------
      635                   ;  73 | nLedDataLoad.nDataRepetNum = 0;                                        
      636                   ;----------------------------------------------------------------------
      637 00000015 15200070-        sti       r0,@_nLedDataLoad+16
      638                           .line   27
      639                   ;----------------------------------------------------------------------
      640                   ;  74 | nLedDataLoad.nDataRepetCnt = 0;                                        
      641                   ;----------------------------------------------------------------------
      642 00000016 15200071-        sti       r0,@_nLedDataLoad+17
      643                           .line   28
      644                   ;----------------------------------------------------------------------
      645                   ;  75 | nLedDataLoad.nDataSDRFlag = 0;                                         
      646                   ;----------------------------------------------------------------------
      647 00000017 15200072-        sti       r0,@_nLedDataLoad+18
      648                           .line   29
TMS320C3x/4x COFF AssemblerVersion 5.11     Fri Sep 17 14:23:57 2010
Copyright (c) 1987-1999 Texas Instruments Incorporatedc:\lang\tms320c3x\511\bin\asm30.exe -l led_download.asm led_download.obj -tC:\Users\jds\AppData\Local\Temp\led_download.tmp 

led_download.asm                                                     PAGE   13

      649                   ;----------------------------------------------------------------------
      650                   ;  76 | nLedDataLoad.nDataSize = 0;                                            
      651                   ;----------------------------------------------------------------------
      652 00000018 15200073-        sti       r0,@_nLedDataLoad+19
      653                           .line   30
      654                   ;----------------------------------------------------------------------
      655                   ;  77 | nLedDataLoad.nDataTxCnt = 0;                                           
      656                   ;----------------------------------------------------------------------
      657 00000019 15200074-        sti       r0,@_nLedDataLoad+20
      658                           .line   31
      659 0000001a 50410b01         ldiu      *-fp(1),r1
      660 0000001b 504bc300         ldiu      *fp,fp
      661 0000001c 18740002         subi      2,sp
      662 0000001d 68000001         bu        r1
      663                   ;*      Branch Occurs to r1 
      664                           .endfunc        78,000000000h,0
      665                   
      666                   
      667 0000001e                  .sect    ".text"
      668                   
      669                           .global _LED_Main
      670                           .sym    _LED_Main,_LED_Main,32,2,0
      671                           .func   82
      672                   ;******************************************************************************
      673                   ;* FUNCTION NAME: _LED_Main                                                   *
      674                   ;*                                                                            *
      675                   ;*   Architecture       : TMS320C30                                           *
      676                   ;*   Calling Convention : Stack Parameter Convention                          *
      677                   ;*   Function Uses Regs : r0,r1,fp,sp,st                                      *
      678                   ;*   Regs Saved         :                                                     *
      679                   ;*   Stack Frame        : Full (w/ debug)                                     *
      680                   ;*   Total Frame Size   : 2 Call + 0 Parm + 0 Auto + 0 SOE = 2 words          *
      681                   ;******************************************************************************
      682 0000001e          _LED_Main:
      683                           .line   1
      684                   ;----------------------------------------------------------------------
      685                   ;  82 | void LED_Main()                                                        
      686                   ;----------------------------------------------------------------------
      687 0000001e 0f2b0000         push      fp
      688 0000001f 500b0014         ldiu      sp,fp
      689                           .line   3
      690                   ;----------------------------------------------------------------------
      691                   ;  84 | if(nLED_200ms_Flag)                                                    
      692                   ;----------------------------------------------------------------------
      693 00000020 08200000-        ldi       @_nLED_200ms_Flag+0,r0
      694 00000021 6a050041         beq       L25
      695                   ;*      Branch Occurs to L25 
      696                           .line   5
      697                   ;----------------------------------------------------------------------
      698                   ;  86 | nLED_200ms_Flag = FALSE;                                               
      699                   ;----------------------------------------------------------------------
      700 00000022 50600000         ldiu      0,r0
      701 00000023 15200000-        sti       r0,@_nLED_200ms_Flag+0
      702                           .line   7
TMS320C3x/4x COFF AssemblerVersion 5.11     Fri Sep 17 14:23:57 2010
Copyright (c) 1987-1999 Texas Instruments Incorporatedc:\lang\tms320c3x\511\bin\asm30.exe -l led_download.asm led_download.obj -tC:\Users\jds\AppData\Local\Temp\led_download.tmp 

led_download.asm                                                     PAGE   14

      703                   ;----------------------------------------------------------------------
      704                   ;  88 | if(WORD_L(SCC2_INIT_A.TxOK))                                           
      705                   ;----------------------------------------------------------------------
      706 00000024 506000ff         ldiu      255,r0
      707 00000025 1a200002!        tstb      @_SCC2_INIT_A+2,r0
      708 00000026 6a05003c         beq       L25
      709                   ;*      Branch Occurs to L25 
      710                           .line   9
      711                   ;----------------------------------------------------------------------
      712                   ;  90 | if(nLedDataLoad.nRNDSelt || nLedDataLoad.nFDDSelt || nLedDataLoad.nIDDS
      713                   ;     | elt || nLedDataLoad.nTNDSelt )                                         
      714                   ;----------------------------------------------------------------------
      715 00000027 08200060-        ldi       @_nLedDataLoad+0,r0
      716 00000028 6a060006         bne       L10
      717                   ;*      Branch Occurs to L10 
      718 00000029 08200061-        ldi       @_nLedDataLoad+1,r0
      719 0000002a 6a060004         bne       L10
      720                   ;*      Branch Occurs to L10 
      721 0000002b 08200062-        ldi       @_nLedDataLoad+2,r0
      722 0000002c 6a060002         bne       L10
      723                   ;*      Branch Occurs to L10 
      724 0000002d 08200063-        ldi       @_nLedDataLoad+3,r0
      725 0000002e 6a050001         beq       L11
      726                   ;*      Branch Occurs to L11 
      727 0000002f          L10:        
      728                           .line   11
      729                   ;----------------------------------------------------------------------
      730                   ;  92 | LED_WaitSDR();                                                         
      731                   ;----------------------------------------------------------------------
      732 0000002f 62000067'        call      _LED_WaitSDR
      733                                                           ; Call Occurs
      734 00000030          L11:        
      735                           .line   14
      736                   ;----------------------------------------------------------------------
      737                   ;  95 | if(nLedDataLoad.nErassFlag.nST_1)                                      
      738                   ;----------------------------------------------------------------------
      739 00000030 08200069-        ldi       @_nLedDataLoad+9,r0
      740 00000031 6a050002         beq       L13
      741                   ;*      Branch Occurs to L13 
      742                           .line   16
      743                   ;----------------------------------------------------------------------
      744                   ;  97 | LED_ERASS();                                                           
      745                   ;----------------------------------------------------------------------
      746 00000032 62000103'        call      _LED_ERASS
      747                                                           ; Call Occurs
      748 00000033 6a00002f         bu        L25
      749                   ;*      Branch Occurs to L25 
      750 00000034          L13:        
      751                           .line   18
      752                   ;----------------------------------------------------------------------
      753                   ;  99 | else if(!nLedDataLoad.nErassFlag.nST_1 &&nLedDataLoad.nErassFlag.nST_2)
      754                   ;----------------------------------------------------------------------
      755 00000034 08200069-        ldi       @_nLedDataLoad+9,r0
      756 00000035 6a06000a         bne       L16
TMS320C3x/4x COFF AssemblerVersion 5.11     Fri Sep 17 14:23:57 2010
Copyright (c) 1987-1999 Texas Instruments Incorporatedc:\lang\tms320c3x\511\bin\asm30.exe -l led_download.asm led_download.obj -tC:\Users\jds\AppData\Local\Temp\led_download.tmp 

led_download.asm                                                     PAGE   15

      757                   ;*      Branch Occurs to L16 
      758 00000036 0820006a-        ldi       @_nLedDataLoad+10,r0
      759 00000037 6a250006         beqd      L16
      760 00000038 0c800000         nop
      761 00000039 532000b4!        ldine     @_nSelf_Test+180,r0
      762 0000003a 53210077-        ldine     @CL1,r1
      763                   ;*      Branch Occurs to L16 
      764                           .line   20
      765                   ;----------------------------------------------------------------------
      766                   ; 101 | LED_ERASS_SDR(nSelf_Test.nSELF_DownLoad_AddBuf,nSelf_Test.nSELF_DownLoa
      767                   ;     | d_UnitCnt);                                                            
      768                   ;----------------------------------------------------------------------
      769 0000003b 0f200000         push      r0
      770 0000003c 0f210000         push      r1
      771 0000003d 6200017c'        call      _LED_ERASS_SDR
      772                                                           ; Call Occurs
      773 0000003e 18740002         subi      2,sp
      774 0000003f 6a000023         bu        L25
      775                   ;*      Branch Occurs to L25 
      776 00000040          L16:        
      777                           .line   22
      778                   ;----------------------------------------------------------------------
      779                   ; 103 | else if(nLedDataLoad.nDataDownFlag)     // 데이타 전송.                
      780                   ;----------------------------------------------------------------------
      781 00000040 0820006e-        ldi       @_nLedDataLoad+14,r0
      782 00000041 6a05000d         beq       L20
      783                   ;*      Branch Occurs to L20 
      784                           .line   24
      785                   ;----------------------------------------------------------------------
      786                   ; 105 | LED_DataDownLoad_ST1(); // 전송 데이타 사이즈 확인.                    
      787                   ;----------------------------------------------------------------------
      788 00000042 6200024e'        call      _LED_DataDownLoad_ST1
      789                                                           ; Call Occurs
      790                           .line   26
      791                   ;----------------------------------------------------------------------
      792                   ; 107 | if(nLedDataLoad.nDataSize) // 데이타 전송.                             
      793                   ;----------------------------------------------------------------------
      794 00000043 08200073-        ldi       @_nLedDataLoad+19,r0
      795 00000044 6a050007         beq       L19
      796                   ;*      Branch Occurs to L19 
      797                           .line   28
      798                   ;----------------------------------------------------------------------
      799                   ; 109 | LED_DataDownLoad_ST2(nLedDataLoad.nDataTxCnt);                         
      800                   ;----------------------------------------------------------------------
      801 00000045 50200074-        ldiu      @_nLedDataLoad+20,r0
      802 00000046 0f200000         push      r0
      803 00000047 6200025a'        call      _LED_DataDownLoad_ST2
      804                                                           ; Call Occurs
      805 00000048 18740001         subi      1,sp
      806                           .line   29
      807                   ;----------------------------------------------------------------------
      808                   ; 110 | nLedDataLoad.nDataTxCnt++;                                             
      809                   ;----------------------------------------------------------------------
      810 00000049 50600001         ldiu      1,r0
TMS320C3x/4x COFF AssemblerVersion 5.11     Fri Sep 17 14:23:57 2010
Copyright (c) 1987-1999 Texas Instruments Incorporatedc:\lang\tms320c3x\511\bin\asm30.exe -l led_download.asm led_download.obj -tC:\Users\jds\AppData\Local\Temp\led_download.tmp 

led_download.asm                                                     PAGE   16

      811 0000004a 02200074-        addi      @_nLedDataLoad+20,r0  ; Unsigned
      812 0000004b 15200074-        sti       r0,@_nLedDataLoad+20
      813 0000004c          L19:        
      814                           .line   32
      815                   ;----------------------------------------------------------------------
      816                   ; 113 | nSelect_Button.nScreenSetNum = 13;                                     
      817                   ;----------------------------------------------------------------------
      818 0000004c 5060000d         ldiu      13,r0
      819 0000004d 15200005!        sti       r0,@_nSelect_Button+5
      820 0000004e 6a000014         bu        L25
      821                   ;*      Branch Occurs to L25 
      822 0000004f          L20:        
      823                           .line   34
      824                   ;----------------------------------------------------------------------
      825                   ; 115 | else if(nLedDataLoad.nDataSDRFlag) // 데이타 전송 확인.                
      826                   ;----------------------------------------------------------------------
      827 0000004f 08200072-        ldi       @_nLedDataLoad+18,r0
      828 00000050 6a050012         beq       L25
      829                   ;*      Branch Occurs to L25 
      830                           .line   36
      831                   ;----------------------------------------------------------------------
      832                   ; 117 | if(!nLedDataLoad.nDataRepetFlag)                                       
      833                   ;----------------------------------------------------------------------
      834 00000051 0820006f-        ldi       @_nLedDataLoad+15,r0
      835 00000052 6a260006         bned      L23
      836 00000053 0c800000         nop
      837 00000054 52a000b4!        ldieq     @_nSelf_Test+180,r0
      838 00000055 52a10077-        ldieq     @CL1,r1
      839                   ;*      Branch Occurs to L23 
      840                           .line   38
      841                   ;----------------------------------------------------------------------
      842                   ; 119 | LED_DataSDR(nSelf_Test.nSELF_DownLoad_AddBuf,nSelf_Test.nSELF_DownLoad_
      843                   ;     | UnitCnt);                                                              
      844                   ;----------------------------------------------------------------------
      845 00000056 0f200000         push      r0
      846 00000057 0f210000         push      r1
      847 00000058 620002b9'        call      _LED_DataSDR
      848                                                           ; Call Occurs
      849 00000059 18740002         subi      2,sp
      850 0000005a 6a000008         bu        L25
      851                   ;*      Branch Occurs to L25 
      852 0000005b          L23:        
      853                           .line   40
      854                   ;----------------------------------------------------------------------
      855                   ; 121 | else if(nLedDataLoad.nDataRepetFlag)    //재전송.                      
      856                   ;----------------------------------------------------------------------
      857 0000005b 0820006f-        ldi       @_nLedDataLoad+15,r0
      858 0000005c 6a050006         beq       L25
      859                   ;*      Branch Occurs to L25 
      860                           .line   42
      861                   ;----------------------------------------------------------------------
      862                   ; 123 | nLedDataLoad.nDataRepetFlag = FALSE;                                   
      863                   ;----------------------------------------------------------------------
      864 0000005d 50600000         ldiu      0,r0
TMS320C3x/4x COFF AssemblerVersion 5.11     Fri Sep 17 14:23:57 2010
Copyright (c) 1987-1999 Texas Instruments Incorporatedc:\lang\tms320c3x\511\bin\asm30.exe -l led_download.asm led_download.obj -tC:\Users\jds\AppData\Local\Temp\led_download.tmp 

led_download.asm                                                     PAGE   17

      865 0000005e 1520006f-        sti       r0,@_nLedDataLoad+15
      866                           .line   43
      867                   ;----------------------------------------------------------------------
      868                   ; 124 | LED_DataDownLoad_ST2(nLedDataLoad.nDataRepetNum);                      
      869                   ;----------------------------------------------------------------------
      870 0000005f 50200070-        ldiu      @_nLedDataLoad+16,r0
      871 00000060 0f200000         push      r0
      872 00000061 6200025a'        call      _LED_DataDownLoad_ST2
      873                                                           ; Call Occurs
      874 00000062 18740001         subi      1,sp
      875 00000063          L25:        
      876                           .line   48
      877 00000063 50530b01         ldiu      *-fp(1),bk
      878 00000064 504bc300         ldiu      *fp,fp
      879 00000065 18740002         subi      2,sp
      880 00000066 68000013         bu        bk
      881                   ;*      Branch Occurs to bk 
      882                           .endfunc        129,000000000h,0
      883                   
      884                   
      885 00000067                  .sect    ".text"
      886                   
      887                           .global _LED_WaitSDR
      888                           .sym    _LED_WaitSDR,_LED_WaitSDR,32,2,0
      889                           .func   133
      890                   ;******************************************************************************
      891                   ;* FUNCTION NAME: _LED_WaitSDR                                                *
      892                   ;*                                                                            *
      893                   ;*   Architecture       : TMS320C30                                           *
      894                   ;*   Calling Convention : Stack Parameter Convention                          *
      895                   ;*   Function Uses Regs : r0,r1,r2,r3,ar0,ar1,fp,sp,st,rs,re,rc               *
      896                   ;*   Regs Saved         :                                                     *
      897                   ;*   Stack Frame        : Full (w/ debug)                                     *
      898                   ;*   Total Frame Size   : 2 Call + 0 Parm + 31 Auto + 0 SOE = 33 words        *
      899                   ;******************************************************************************
      900 00000067          _LED_WaitSDR:
      901                           .sym    _sWastBuf,1,60,1,640,,20
      902                           .sym    _sSelfTestBuf,21,60,1,352,,11
      903                           .line   1
      904                   ;----------------------------------------------------------------------
      905                   ; 133 | void LED_WaitSDR()                                                     
      906                   ; 135 | UCHAR sWastBuf[20];                                                    
      907                   ; 136 | UCHAR sSelfTestBuf[11];                                                
      908                   ;----------------------------------------------------------------------
      909 00000067 0f2b0000         push      fp
      910 00000068 500b0014         ldiu      sp,fp
      911 00000069 0274001f         addi      31,sp
      912                           .line   6
      913                   ;----------------------------------------------------------------------
      914                   ; 138 | if(nLedDataLoad.nWaitSDR)                                              
      915                   ;----------------------------------------------------------------------
      916 0000006a 08200066-        ldi       @_nLedDataLoad+6,r0
      917 0000006b 6a050040         beq       L36
      918                   ;*      Branch Occurs to L36 
TMS320C3x/4x COFF AssemblerVersion 5.11     Fri Sep 17 14:23:57 2010
Copyright (c) 1987-1999 Texas Instruments Incorporatedc:\lang\tms320c3x\511\bin\asm30.exe -l led_download.asm led_download.obj -tC:\Users\jds\AppData\Local\Temp\led_download.tmp 

led_download.asm                                                     PAGE   18

      919                           .line   8
      920                   ;----------------------------------------------------------------------
      921                   ; 140 | nLedDataLoad.nWaitSDR--;                                               
      922                   ;----------------------------------------------------------------------
      923 0000006c 50600001         ldiu      1,r0
      924 0000006d 19a00066-        subri     @_nLedDataLoad+6,r0   ; Unsigned
      925 0000006e 15200066-        sti       r0,@_nLedDataLoad+6
      926                           .line   10
      927                   ;----------------------------------------------------------------------
      928                   ; 142 | SCC_TX_PROTOCOL(sWastBuf,nLedDataLoad.nSFKindCode,0x31,0x1F,0,0,0,0,0,1
      929                   ;     | 0);                                                                    
      930                   ;----------------------------------------------------------------------
      931 0000006f 5061000a         ldiu      10,r1
      932 00000070 507b0000         ldiu      0,rc
      933 00000071 507a0000         ldiu      0,re
      934 00000072 50620000         ldiu      0,r2
      935 00000073 5063001f         ldiu      31,r3
      936 00000074 50790031         ldiu      49,rs
      937 00000075 0f210000         push      r1
      938 00000076 50600000         ldiu      0,r0
      939 00000077 0f200000         push      r0
      940 00000078 50610000         ldiu      0,r1
      941 00000079 0f3b0000         push      rc
      942 0000007a 5000000b         ldiu      fp,r0
      943 0000007b 0f3a0000         push      re
      944 0000007c 0f210000         push      r1
      945 0000007d 02600001         addi      1,r0
      946 0000007e 0f220000         push      r2
      947 0000007f 0f230000         push      r3
      948 00000080 0f390000         push      rs
      949 00000081 50210065-        ldiu      @_nLedDataLoad+5,r1
      950 00000082 0f210000         push      r1
      951 00000083 0f200000         push      r0
      952 00000084 62000000!        call      _SCC_TX_PROTOCOL
      953                                                           ; Call Occurs
      954 00000085 1874000a         subi      10,sp
      955                           .line   12
      956                   ;----------------------------------------------------------------------
      957                   ; 144 | if(nLedDataLoad.nRNDSelt || nLedDataLoad.nFDDSelt || nLedDataLoad.nTNDS
      958                   ;     | elt ) //다운로드 기능중 차내 빼고는 "B"채널로 보낸다.                  
      959                   ;----------------------------------------------------------------------
      960 00000086 08200060-        ldi       @_nLedDataLoad+0,r0
      961 00000087 6a060007         bne       L31
      962                   ;*      Branch Occurs to L31 
      963 00000088 08200061-        ldi       @_nLedDataLoad+1,r0
      964 00000089 6a060005         bne       L31
      965                   ;*      Branch Occurs to L31 
      966 0000008a 08200063-        ldi       @_nLedDataLoad+3,r0
      967 0000008b 6a25000d         beqd      L33
      968 0000008c 52e20005         ldieq     5,r2
      969 0000008d 5280000b         ldieq     fp,r0
      970 0000008e 52e10000         ldieq     0,r1
      971                   ;*      Branch Occurs to L33 
      972 0000008f          L31:        
TMS320C3x/4x COFF AssemblerVersion 5.11     Fri Sep 17 14:23:57 2010
Copyright (c) 1987-1999 Texas Instruments Incorporatedc:\lang\tms320c3x\511\bin\asm30.exe -l led_download.asm led_download.obj -tC:\Users\jds\AppData\Local\Temp\led_download.tmp 

led_download.asm                                                     PAGE   19

      973                           .line   14
      974                   ;----------------------------------------------------------------------
      975                   ; 146 | Delay_SCC2_SendTo(sWastBuf,20,SCC_B_CHANNEL,5);                        
      976                   ; 148 | else {                                                                 
      977                   ;----------------------------------------------------------------------
      978 0000008f 50610005         ldiu      5,r1
      979 00000090 5000000b         ldiu      fp,r0
      980 00000091 50620001         ldiu      1,r2
      981 00000092 50630014         ldiu      20,r3
      982 00000093 0f210000         push      r1
      983 00000094 02600001         addi      1,r0
      984 00000095 0f220000         push      r2
      985 00000096 0f230000         push      r3
      986 00000097 0f200000         push      r0
      987 00000098 62000000!        call      _Delay_SCC2_SendTo
      988                                                           ; Call Occurs
      989 00000099 18740004         subi      4,sp
      990 0000009a 6a000008         bu        L34
      991                   ;*      Branch Occurs to L34 
      992                           .line   17
      993                   ;----------------------------------------------------------------------
      994                   ; 149 | Delay_SCC2_SendTo(sWastBuf,20,SCC_A_CHANNEL,5);                        
      995                   ;----------------------------------------------------------------------
      996 0000009b          L33:        
      997 0000009b 50630014         ldiu      20,r3
      998 0000009c 0f220000         push      r2
      999 0000009d 02600001         addi      1,r0
     1000 0000009e 0f210000         push      r1
     1001 0000009f 0f230000         push      r3
     1002 000000a0 0f200000         push      r0
     1003 000000a1 62000000!        call      _Delay_SCC2_SendTo
     1004                                                           ; Call Occurs
     1005 000000a2 18740004         subi      4,sp
     1006 000000a3          L34:        
     1007                           .line   20
     1008                   ;----------------------------------------------------------------------
     1009                   ; 152 | if(!nLedDataLoad.nWaitSDR)                                             
     1010                   ;----------------------------------------------------------------------
     1011 000000a3 08200066-        ldi       @_nLedDataLoad+6,r0
     1012 000000a4 6a060007         bne       L36
     1013                   ;*      Branch Occurs to L36 
     1014                           .line   22
     1015                   ;----------------------------------------------------------------------
     1016                   ; 154 | GP_DOWNLOAD_SDR();      //자기진단 결과 표출 초기화.                   
     1017                   ;----------------------------------------------------------------------
     1018 000000a5 62000000!        call      _GP_DOWNLOAD_SDR
     1019                                                           ; Call Occurs
     1020                           .line   23
     1021                   ;----------------------------------------------------------------------
     1022                   ; 155 | nLED_Time_Change = 250;                                                
     1023                   ;----------------------------------------------------------------------
     1024 000000a6 506000fa         ldiu      250,r0
     1025 000000a7 15200001-        sti       r0,@_nLED_Time_Change+0
     1026                           .line   24
TMS320C3x/4x COFF AssemblerVersion 5.11     Fri Sep 17 14:23:57 2010
Copyright (c) 1987-1999 Texas Instruments Incorporatedc:\lang\tms320c3x\511\bin\asm30.exe -l led_download.asm led_download.obj -tC:\Users\jds\AppData\Local\Temp\led_download.tmp 

led_download.asm                                                     PAGE   20

     1027                   ;----------------------------------------------------------------------
     1028                   ; 156 | nLedDataLoad.nSelfTestFlag = 1;                                        
     1029                   ;----------------------------------------------------------------------
     1030 000000a8 50600001         ldiu      1,r0
     1031 000000a9 15200067-        sti       r0,@_nLedDataLoad+7
     1032                           .line   26
     1033                   ;----------------------------------------------------------------------
     1034                   ; 158 | nLedDataLoad.nErassFlag.nTXCnt = 0;                                    
     1035                   ;----------------------------------------------------------------------
     1036 000000aa 50600000         ldiu      0,r0
     1037 000000ab 1520006b-        sti       r0,@_nLedDataLoad+11
     1038 000000ac          L36:        
     1039                           .line   30
     1040                   ;----------------------------------------------------------------------
     1041                   ; 162 | if(nLedDataLoad.nSelfTestFlag)                                         
     1042                   ;----------------------------------------------------------------------
     1043 000000ac 08200067-        ldi       @_nLedDataLoad+7,r0
     1044 000000ad 6a050051         beq       L46
     1045                   ;*      Branch Occurs to L46 
     1046                           .line   33
     1047                   ;----------------------------------------------------------------------
     1048                   ; 165 | if(WORD_L(nLedDataLoad.nFDDSelt))                                      
     1049                   ;----------------------------------------------------------------------
     1050 000000ae 506000ff         ldiu      255,r0
     1051 000000af 1a200061-        tstb      @_nLedDataLoad+1,r0
     1052 000000b0 6a050011         beq       L39
     1053                   ;*      Branch Occurs to L39 
     1054                           .line   35
     1055                   ;----------------------------------------------------------------------
     1056                   ; 167 | DP_SelfTest(DISPLAY_UNIT_FDD,nSelf_Test.nSELF_DownLoad_RxBuf,DISPLAY_FD
     1057                   ;     | D_UNIT_CNT);                                                           
     1058                   ;----------------------------------------------------------------------
     1059 000000b1 50610002         ldiu      2,r1
     1060 000000b2 50200078-        ldiu      @CL2,r0
     1061 000000b3 50220079-        ldiu      @CL3,r2
     1062 000000b4 0f210000         push      r1
     1063 000000b5 0f200000         push      r0
     1064 000000b6 0f220000         push      r2
     1065 000000b7 62000000!        call      _DP_SelfTest
     1066                                                           ; Call Occurs
     1067 000000b8 18740003         subi      3,sp
     1068                           .line   36
     1069                   ;----------------------------------------------------------------------
     1070                   ; 168 | memcpy(nSelf_Test.nSELF_DownLoad_AddBuf,DISPLAY_UNIT_FDD,DISPLAY_FDD_UN
     1071                   ;     | IT_CNT);                                                               
     1072                   ;----------------------------------------------------------------------
     1073 000000b9 50280079-        ldiu      @CL3,ar0
     1074 000000ba 50290077-        ldiu      @CL1,ar1
     1075 000000bb 5040c000         ldiu      *ar0,r0
     1076 000000bc 1540c100         sti       r0,*ar1
     1077 000000bd 50400001         ldiu      *+ar0,r0
     1078 000000be 15400101         sti       r0,*+ar1
     1079                           .line   37
     1080                   ;----------------------------------------------------------------------
TMS320C3x/4x COFF AssemblerVersion 5.11     Fri Sep 17 14:23:57 2010
Copyright (c) 1987-1999 Texas Instruments Incorporatedc:\lang\tms320c3x\511\bin\asm30.exe -l led_download.asm led_download.obj -tC:\Users\jds\AppData\Local\Temp\led_download.tmp 

led_download.asm                                                     PAGE   21

     1081                   ; 169 | nSelf_Test.nSELF_DownLoad_UnitCnt = DISPLAY_FDD_UNIT_CNT;              
     1082                   ;----------------------------------------------------------------------
     1083 000000bf 50600002         ldiu      2,r0
     1084 000000c0 152000b4!        sti       r0,@_nSelf_Test+180
     1085 000000c1 6a00003b         bu        L45
     1086                   ;*      Branch Occurs to L45 
     1087 000000c2          L39:        
     1088                           .line   39
     1089                   ;----------------------------------------------------------------------
     1090                   ; 171 | else if(WORD_L(nLedDataLoad.nRNDSelt))                                 
     1091                   ;----------------------------------------------------------------------
     1092 000000c2 506000ff         ldiu      255,r0
     1093 000000c3 1a200060-        tstb      @_nLedDataLoad+0,r0
     1094 000000c4 6a050011         beq       L41
     1095                   ;*      Branch Occurs to L41 
     1096                           .line   41
     1097                   ;----------------------------------------------------------------------
     1098                   ; 173 | DP_SelfTest(DISPLAY_UNIT_RND,nSelf_Test.nSELF_DownLoad_RxBuf,DISPLAY_RN
     1099                   ;     | D_UNIT_CNT);                                                           
     1100                   ;----------------------------------------------------------------------
     1101 000000c5 50620018         ldiu      24,r2
     1102 000000c6 50210078-        ldiu      @CL2,r1
     1103 000000c7 5020007a-        ldiu      @CL4,r0
     1104 000000c8 0f220000         push      r2
     1105 000000c9 0f210000         push      r1
     1106 000000ca 0f200000         push      r0
     1107 000000cb 62000000!        call      _DP_SelfTest
     1108                                                           ; Call Occurs
     1109 000000cc 18740003         subi      3,sp
     1110                           .line   42
     1111                   ;----------------------------------------------------------------------
     1112                   ; 174 | memcpy(nSelf_Test.nSELF_DownLoad_AddBuf,DISPLAY_UNIT_RND,DISPLAY_RND_UN
     1113                   ;     | IT_CNT);                                                               
     1114                   ;----------------------------------------------------------------------
     1115 000000cd 50280077-        ldiu      @CL1,ar0
     1116 000000ce 5029007a-        ldiu      @CL4,ar1
     1117 000000cf 50402101         ldiu      *ar1++(1),r0
     1118 000000d0 13fb0016         rpts      22                    ; Fast MEMCPY(#3)
     1119 000000d1 da002021         sti       r0,*ar0++(1)
     1120                   ||      ldi       *ar1++(1),r0
     1121 000000d2 15402001         sti       r0,*ar0++(1)
     1122                           .line   43
     1123                   ;----------------------------------------------------------------------
     1124                   ; 175 | nSelf_Test.nSELF_DownLoad_UnitCnt = DISPLAY_RND_UNIT_CNT;              
     1125                   ;----------------------------------------------------------------------
     1126 000000d3 50600018         ldiu      24,r0
     1127 000000d4 152000b4!        sti       r0,@_nSelf_Test+180
     1128 000000d5 6a000027         bu        L45
     1129                   ;*      Branch Occurs to L45 
     1130 000000d6          L41:        
     1131                           .line   45
     1132                   ;----------------------------------------------------------------------
     1133                   ; 177 | else if(WORD_L(nLedDataLoad.nIDDSelt))                                 
     1134                   ;----------------------------------------------------------------------
TMS320C3x/4x COFF AssemblerVersion 5.11     Fri Sep 17 14:23:57 2010
Copyright (c) 1987-1999 Texas Instruments Incorporatedc:\lang\tms320c3x\511\bin\asm30.exe -l led_download.asm led_download.obj -tC:\Users\jds\AppData\Local\Temp\led_download.tmp 

led_download.asm                                                     PAGE   22

     1135 000000d6 506000ff         ldiu      255,r0
     1136 000000d7 1a200062-        tstb      @_nLedDataLoad+2,r0
     1137 000000d8 6a050011         beq       L43
     1138                   ;*      Branch Occurs to L43 
     1139                           .line   47
     1140                   ;----------------------------------------------------------------------
     1141                   ; 179 | DP_SelfTest(DISPLAY_UNIT_IDD,nSelf_Test.nSELF_DownLoad_RxBuf,DISPLAY_ID
     1142                   ;     | D_UNIT_CNT);                                                           
     1143                   ;----------------------------------------------------------------------
     1144 000000d9 50620018         ldiu      24,r2
     1145 000000da 50210078-        ldiu      @CL2,r1
     1146 000000db 5020007b-        ldiu      @CL5,r0
     1147 000000dc 0f220000         push      r2
     1148 000000dd 0f210000         push      r1
     1149 000000de 0f200000         push      r0
     1150 000000df 62000000!        call      _DP_SelfTest
     1151                                                           ; Call Occurs
     1152 000000e0 18740003         subi      3,sp
     1153                           .line   48
     1154                   ;----------------------------------------------------------------------
     1155                   ; 180 | memcpy(nSelf_Test.nSELF_DownLoad_AddBuf,DISPLAY_UNIT_IDD,DISPLAY_IDD_UN
     1156                   ;     | IT_CNT);                                                               
     1157                   ;----------------------------------------------------------------------
     1158 000000e1 50280077-        ldiu      @CL1,ar0
     1159 000000e2 5029007b-        ldiu      @CL5,ar1
     1160 000000e3 50402101         ldiu      *ar1++(1),r0
     1161 000000e4 13fb0016         rpts      22                    ; Fast MEMCPY(#6)
     1162 000000e5 da002021         sti       r0,*ar0++(1)
     1163                   ||      ldi       *ar1++(1),r0
     1164 000000e6 15402001         sti       r0,*ar0++(1)
     1165                           .line   49
     1166                   ;----------------------------------------------------------------------
     1167                   ; 181 | nSelf_Test.nSELF_DownLoad_UnitCnt = DISPLAY_IDD_UNIT_CNT;              
     1168                   ;----------------------------------------------------------------------
     1169 000000e7 50600018         ldiu      24,r0
     1170 000000e8 152000b4!        sti       r0,@_nSelf_Test+180
     1171 000000e9 6a000013         bu        L45
     1172                   ;*      Branch Occurs to L45 
     1173 000000ea          L43:        
     1174                           .line   52
     1175                   ;----------------------------------------------------------------------
     1176                   ; 184 | else if(WORD_L(nLedDataLoad.nTNDSelt))                                 
     1177                   ;----------------------------------------------------------------------
     1178 000000ea 506000ff         ldiu      255,r0
     1179 000000eb 1a200063-        tstb      @_nLedDataLoad+3,r0
     1180 000000ec 6a050010         beq       L45
     1181                   ;*      Branch Occurs to L45 
     1182                           .line   54
     1183                   ;----------------------------------------------------------------------
     1184                   ; 186 | DP_SelfTest(DISPLAY_UNIT_TND,nSelf_Test.nSELF_DownLoad_RxBuf,DISPLAY_TN
     1185                   ;     | D_UNIT_CNT);                                                           
     1186                   ;----------------------------------------------------------------------
     1187 000000ed 50600002         ldiu      2,r0
     1188 000000ee 50210078-        ldiu      @CL2,r1
TMS320C3x/4x COFF AssemblerVersion 5.11     Fri Sep 17 14:23:57 2010
Copyright (c) 1987-1999 Texas Instruments Incorporatedc:\lang\tms320c3x\511\bin\asm30.exe -l led_download.asm led_download.obj -tC:\Users\jds\AppData\Local\Temp\led_download.tmp 

led_download.asm                                                     PAGE   23

     1189 000000ef 5022007c-        ldiu      @CL6,r2
     1190 000000f0 0f200000         push      r0
     1191 000000f1 0f210000         push      r1
     1192 000000f2 0f220000         push      r2
     1193 000000f3 62000000!        call      _DP_SelfTest
     1194                                                           ; Call Occurs
     1195 000000f4 18740003         subi      3,sp
     1196                           .line   55
     1197                   ;----------------------------------------------------------------------
     1198                   ; 187 | memcpy(nSelf_Test.nSELF_DownLoad_AddBuf,DISPLAY_UNIT_TND,DISPLAY_TND_UN
     1199                   ;     | IT_CNT);                                                               
     1200                   ;----------------------------------------------------------------------
     1201 000000f5 5029007c-        ldiu      @CL6,ar1
     1202 000000f6 50280077-        ldiu      @CL1,ar0
     1203 000000f7 5040c100         ldiu      *ar1,r0
     1204 000000f8 1540c000         sti       r0,*ar0
     1205 000000f9 50400101         ldiu      *+ar1,r0
     1206 000000fa 15400001         sti       r0,*+ar0
     1207                           .line   56
     1208                   ;----------------------------------------------------------------------
     1209                   ; 188 | nSelf_Test.nSELF_DownLoad_UnitCnt = DISPLAY_TND_UNIT_CNT;              
     1210                   ;----------------------------------------------------------------------
     1211 000000fb 50600002         ldiu      2,r0
     1212 000000fc 152000b4!        sti       r0,@_nSelf_Test+180
     1213 000000fd          L45:        
     1214                           .line   59
     1215                   ;----------------------------------------------------------------------
     1216                   ; 191 | nSelect_Button.nScreenSetNum = 11;                                     
     1217                   ;----------------------------------------------------------------------
     1218 000000fd 5060000b         ldiu      11,r0
     1219 000000fe 15200005!        sti       r0,@_nSelect_Button+5
     1220 000000ff          L46:        
     1221                           .line   61
     1222 000000ff 50530b01         ldiu      *-fp(1),bk
     1223 00000100 504bc300         ldiu      *fp,fp
     1224 00000101 18740021         subi      33,sp
     1225 00000102 68000013         bu        bk
     1226                   ;*      Branch Occurs to bk 
     1227                           .endfunc        193,000000000h,31
     1228                   
     1229                   
     1230                   
     1231 00000045                  .sect   ".cinit"
     1232 00000045 00000004         .field          IR_5,32
     1233 00000046 00000049-        .field          .init0$1+0,32
     1234 00000047 0000003c         .field          60,32           ; .init0$1[0] @ 0
     1235 00000048 0000003d         .field          61,32           ; .init0$1[1] @ 32
     1236 00000049 0000003e         .field          62,32           ; .init0$1[2] @ 64
     1237 0000004a 0000003f         .field          63,32           ; .init0$1[3] @ 96
     1238          00000004 IR_5:   .set    4
     1239                   
     1240 00000103                  .sect   ".text"
     1241                   
     1242 0000004b                  .sect   ".cinit"
TMS320C3x/4x COFF AssemblerVersion 5.11     Fri Sep 17 14:23:57 2010
Copyright (c) 1987-1999 Texas Instruments Incorporatedc:\lang\tms320c3x\511\bin\asm30.exe -l led_download.asm led_download.obj -tC:\Users\jds\AppData\Local\Temp\led_download.tmp 

led_download.asm                                                     PAGE   24

     1243 0000004b 00000004         .field          IR_6,32
     1244 0000004c 0000004e-        .field          .init1$2+0,32
     1245 0000004d 00000000         .field          0,32            ; .init1$2[0] @ 0
     1246 0000004e 00000001         .field          1,32            ; .init1$2[1] @ 32
     1247 0000004f 00000002         .field          2,32            ; .init1$2[2] @ 64
     1248 00000050 00000003         .field          3,32            ; .init1$2[3] @ 96
     1249          00000004 IR_6:   .set    4
     1250                   
     1251 00000103                  .sect   ".text"
     1252 00000103                  .sect    ".text"
     1253                   
     1254                           .global _LED_ERASS
     1255                           .sym    _LED_ERASS,_LED_ERASS,32,2,0
     1256                           .func   198
     1257                   ;******************************************************************************
     1258                   ;* FUNCTION NAME: _LED_ERASS                                                  *
     1259                   ;*                                                                            *
     1260                   ;*   Architecture       : TMS320C30                                           *
     1261                   ;*   Calling Convention : Stack Parameter Convention                          *
     1262                   ;*   Function Uses Regs : r0,r1,r2,r3,ar0,ar1,fp,ir0,sp,st,rs,re,rc           *
     1263                   ;*   Regs Saved         :                                                     *
     1264                   ;*   Stack Frame        : Full (w/ debug)                                     *
     1265                   ;*   Total Frame Size   : 2 Call + 0 Parm + 36 Auto + 0 SOE = 38 words        *
     1266                   ;******************************************************************************
     1267 00000103          _LED_ERASS:
     1268 00000049                  .bss    .init0$1,5
     1269                           .sym    .init0$1,.init0$1,60,3,160,,5
     1270 0000004e                  .bss    .init1$2,5
     1271                           .sym    .init1$2,.init1$2,60,3,160,,5
     1272                           .sym    _sSelf_Tx_Buf,1,60,1,800,,25
     1273                           .sym    _sErBlkBuf,26,60,1,160,,5
     1274                           .sym    _sErDataBlk,31,60,1,160,,5
     1275                           .sym    _sErBlkPoint,36,12,1,32
     1276                           .line   1
     1277                   ;----------------------------------------------------------------------
     1278                   ; 198 | void LED_ERASS()                                                       
     1279                   ; 200 | UCHAR sSelf_Tx_Buf[25];                                                
     1280                   ;----------------------------------------------------------------------
     1281 00000103 0f2b0000         push      fp
     1282 00000104 500b0014         ldiu      sp,fp
     1283 00000105 02740024         addi      36,sp
     1284                           .line   4
     1285                   ;----------------------------------------------------------------------
     1286                   ; 201 | UCHAR sErBlkBuf[5] = {0x3C,0x3D,0x3E,0x3F};                            
     1287                   ;----------------------------------------------------------------------
     1288 00000106 5029007d-        ldiu      @CL7,ar1
     1289 00000107 5008000b         ldiu      fp,ar0
     1290 00000108 0268001a         addi      26,ar0
     1291 00000109 50402101         ldiu      *ar1++(1),r0
     1292 0000010a 13fb0003         rpts      3                     ; Fast MEMCPY(#9)
     1293 0000010b da002021         sti       r0,*ar0++(1)
     1294                   ||      ldi       *ar1++(1),r0
     1295 0000010c 15402001         sti       r0,*ar0++(1)
     1296                           .line   5
TMS320C3x/4x COFF AssemblerVersion 5.11     Fri Sep 17 14:23:57 2010
Copyright (c) 1987-1999 Texas Instruments Incorporatedc:\lang\tms320c3x\511\bin\asm30.exe -l led_download.asm led_download.obj -tC:\Users\jds\AppData\Local\Temp\led_download.tmp 

led_download.asm                                                     PAGE   25

     1297                   ;----------------------------------------------------------------------
     1298                   ; 202 | UCHAR sErDataBlk[5] = {0x00,0x01,0x02,0x03};                           
     1299                   ;----------------------------------------------------------------------
     1300 0000010d 5029007e-        ldiu      @CL8,ar1
     1301 0000010e 5008000b         ldiu      fp,ar0
     1302 0000010f 0268001f         addi      31,ar0
     1303 00000110 50402101         ldiu      *ar1++(1),r0
     1304 00000111 13fb0003         rpts      3                     ; Fast MEMCPY(#12)
     1305 00000112 da002021         sti       r0,*ar0++(1)
     1306                   ||      ldi       *ar1++(1),r0
     1307 00000113 15402001         sti       r0,*ar0++(1)
     1308                           .line   6
     1309                   ;----------------------------------------------------------------------
     1310                   ; 203 | UCHAR sErBlkPoint = 4; //삭제 한 블럭 갯수.                            
     1311                   ;----------------------------------------------------------------------
     1312 00000114 50600004         ldiu      4,r0
     1313 00000115 15400324         sti       r0,*+fp(36)
     1314                           .line   8
     1315                   ;----------------------------------------------------------------------
     1316                   ; 205 | nLED_Time_Change = 2500;                                               
     1317                   ;----------------------------------------------------------------------
     1318 00000116 506009c4         ldiu      2500,r0
     1319 00000117 15200001-        sti       r0,@_nLED_Time_Change+0
     1320                           .line   10
     1321                   ;----------------------------------------------------------------------
     1322                   ; 207 | if(nLedDataLoad.nFDD_DATA_Selt) //데이타 다운로드 기능일 경우 블럭 번호
     1323                   ;     | 가 바뀐다.                                                             
     1324                   ;----------------------------------------------------------------------
     1325 00000118 08200064-        ldi       @_nLedDataLoad+4,r0
     1326 00000119 6a250007         beqd      L50
     1327 0000011a 0c800000         nop
     1328 0000011b 5308000b         ldine     fp,ar0
     1329 0000011c 5309000b         ldine     fp,ar1
     1330                   ;*      Branch Occurs to L50 
     1331                           .line   12
     1332                   ;----------------------------------------------------------------------
     1333                   ; 209 | memcpy(sErBlkBuf,sErDataBlk,5);                                        
     1334                   ;----------------------------------------------------------------------
     1335 0000011d 0268001a         addi      26,ar0
     1336 0000011e 0269001f         addi      31,ar1
     1337 0000011f 50402101         ldiu      *ar1++(1),r0
     1338 00000120 13fb0003         rpts      3                     ; Fast MEMCPY(#15)
     1339 00000121 da002021         sti       r0,*ar0++(1)
     1340                   ||      ldi       *ar1++(1),r0
     1341 00000122 15402001         sti       r0,*ar0++(1)
     1342 00000123          L50:        
     1343                           .line   15
     1344                   ;----------------------------------------------------------------------
     1345                   ; 212 | if(nLedDataLoad.nIDDSelt)                                              
     1346                   ;----------------------------------------------------------------------
     1347 00000123 08200062-        ldi       @_nLedDataLoad+2,r0
     1348 00000124 6a050009         beq       L52
     1349                   ;*      Branch Occurs to L52 
     1350                           .line   17
TMS320C3x/4x COFF AssemblerVersion 5.11     Fri Sep 17 14:23:57 2010
Copyright (c) 1987-1999 Texas Instruments Incorporatedc:\lang\tms320c3x\511\bin\asm30.exe -l led_download.asm led_download.obj -tC:\Users\jds\AppData\Local\Temp\led_download.tmp 

led_download.asm                                                     PAGE   26

     1351                   ;----------------------------------------------------------------------
     1352                   ; 214 | sErBlkBuf[0] = 0x3F;                                                   
     1353                   ;----------------------------------------------------------------------
     1354 00000125 5008000b         ldiu      fp,ar0
     1355 00000126 0268001a         addi      26,ar0
     1356 00000127 5060003f         ldiu      63,r0
     1357 00000128 1540c000         sti       r0,*ar0
     1358                           .line   18
     1359                   ;----------------------------------------------------------------------
     1360                   ; 215 | sErBlkBuf[1] = 0x3F;                                                   
     1361                   ;----------------------------------------------------------------------
     1362 00000129 5008000b         ldiu      fp,ar0
     1363 0000012a 0268001b         addi      27,ar0
     1364 0000012b 1540c000         sti       r0,*ar0
     1365                           .line   19
     1366                   ;----------------------------------------------------------------------
     1367                   ; 216 | sErBlkPoint = 1;                                                       
     1368                   ;----------------------------------------------------------------------
     1369 0000012c 50600001         ldiu      1,r0
     1370 0000012d 15400324         sti       r0,*+fp(36)
     1371 0000012e          L52:        
     1372                           .line   22
     1373                   ;----------------------------------------------------------------------
     1374                   ; 219 | if(nLedDataLoad.nErassFlag.nTXCnt>=sErBlkPoint)                        
     1375                   ;----------------------------------------------------------------------
     1376 0000012e 5020006b-        ldiu      @_nLedDataLoad+11,r0
     1377 0000012f 04c00324         cmpi      *+fp(36),r0
     1378 00000130 6a21000a         blod      L55
     1379 00000131 0c800000         nop
     1380 00000132 50a0006b-        ldilo     @_nLedDataLoad+11,r0
     1381 00000133 50c10324         ldilo     *+fp(36),r1
     1382                   ;*      Branch Occurs to L55 
     1383                           .line   24
     1384                   ;----------------------------------------------------------------------
     1385                   ; 221 | nLedDataLoad.nErassFlag.nTXCnt = 0;                                    
     1386                   ;----------------------------------------------------------------------
     1387 00000134 50600000         ldiu      0,r0
     1388 00000135 1520006b-        sti       r0,@_nLedDataLoad+11
     1389                           .line   25
     1390                   ;----------------------------------------------------------------------
     1391                   ; 222 | nSelf_Test.nSELF_TX_Cnt = 0;                                           
     1392                   ;----------------------------------------------------------------------
     1393 00000136 152000b5!        sti       r0,@_nSelf_Test+181
     1394                           .line   27
     1395                   ;----------------------------------------------------------------------
     1396                   ; 224 | nLedDataLoad.nErassFlag.nST_1 = FALSE;                                 
     1397                   ;----------------------------------------------------------------------
     1398 00000137 15200069-        sti       r0,@_nLedDataLoad+9
     1399                           .line   28
     1400                   ;----------------------------------------------------------------------
     1401                   ; 225 | nLedDataLoad.nErassFlag.nST_2 = TRUE;                                  
     1402                   ;----------------------------------------------------------------------
     1403 00000138 50600001         ldiu      1,r0
     1404 00000139 1520006a-        sti       r0,@_nLedDataLoad+10
TMS320C3x/4x COFF AssemblerVersion 5.11     Fri Sep 17 14:23:57 2010
Copyright (c) 1987-1999 Texas Instruments Incorporatedc:\lang\tms320c3x\511\bin\asm30.exe -l led_download.asm led_download.obj -tC:\Users\jds\AppData\Local\Temp\led_download.tmp 

led_download.asm                                                     PAGE   27

     1405                           .line   29
     1406                   ;----------------------------------------------------------------------
     1407                   ; 226 | nSelect_Button.nScreenSetNum = 12;                                     
     1408                   ; 228 | else                                                                   
     1409                   ;----------------------------------------------------------------------
     1410 0000013a 5060000c         ldiu      12,r0
     1411 0000013b 15200005!        sti       r0,@_nSelect_Button+5
     1412 0000013c 6a00003b         bu        L62
     1413                   ;*      Branch Occurs to L62 
     1414                           .line   33
     1415                   ;----------------------------------------------------------------------
     1416                   ; 230 | SCC_TX_PROTOCOL(sSelf_Tx_Buf,nLedDataLoad.nSFKindCode,0x31,0x01,0,0,sEr
     1417                   ;     | BlkBuf[(nLedDataLoad.nErassFlag.nTXCnt)%sErBlkPoint],0,0,10);          
     1418                   ;----------------------------------------------------------------------
     1419 0000013d          L55:        
     1420 0000013d 62000000!        call      MOD_U30
     1421                                                           ; Call Occurs
     1422 0000013e 50630000         ldiu      0,r3
     1423 0000013f 50620001         ldiu      1,r2
     1424 00000140 5008000b         ldiu      fp,ar0
     1425 00000141 0268001a         addi      26,ar0
     1426 00000142 50110000         ldiu      r0,ir0
     1427 00000143 50790000         ldiu      0,rs
     1428 00000144 507b0000         ldiu      0,rc
     1429 00000145 5061000a         ldiu      10,r1
     1430 00000146 505a4000         ldiu      *+ar0(ir0),re
     1431 00000147 50600000         ldiu      0,r0
     1432 00000148 0f210000         push      r1
     1433 00000149 0f200000         push      r0
     1434 0000014a 0f230000         push      r3
     1435 0000014b 50610031         ldiu      49,r1
     1436 0000014c 0f3a0000         push      re
     1437 0000014d 5000000b         ldiu      fp,r0
     1438 0000014e 0f390000         push      rs
     1439 0000014f 0f3b0000         push      rc
     1440 00000150 0f220000         push      r2
     1441 00000151 02600001         addi      1,r0
     1442 00000152 0f210000         push      r1
     1443 00000153 50210065-        ldiu      @_nLedDataLoad+5,r1
     1444 00000154 0f210000         push      r1
     1445 00000155 0f200000         push      r0
     1446 00000156 62000000!        call      _SCC_TX_PROTOCOL
     1447                                                           ; Call Occurs
     1448 00000157 1874000a         subi      10,sp
     1449                           .line   35
     1450                   ;----------------------------------------------------------------------
     1451                   ; 232 | if(nLedDataLoad.nRNDSelt || nLedDataLoad.nFDDSelt || nLedDataLoad.nTNDS
     1452                   ;     | elt ) //다운로드 기능중 차내 빼고는 "B"채널로 보낸다.                  
     1453                   ;----------------------------------------------------------------------
     1454 00000158 08200060-        ldi       @_nLedDataLoad+0,r0
     1455 00000159 6a060007         bne       L58
     1456                   ;*      Branch Occurs to L58 
     1457 0000015a 08200061-        ldi       @_nLedDataLoad+1,r0
     1458 0000015b 6a060005         bne       L58
TMS320C3x/4x COFF AssemblerVersion 5.11     Fri Sep 17 14:23:57 2010
Copyright (c) 1987-1999 Texas Instruments Incorporatedc:\lang\tms320c3x\511\bin\asm30.exe -l led_download.asm led_download.obj -tC:\Users\jds\AppData\Local\Temp\led_download.tmp 

led_download.asm                                                     PAGE   28

     1459                   ;*      Branch Occurs to L58 
     1460 0000015c 08200063-        ldi       @_nLedDataLoad+3,r0
     1461 0000015d 6a25000d         beqd      L60
     1462 0000015e 52e10005         ldieq     5,r1
     1463 0000015f 5280000b         ldieq     fp,r0
     1464 00000160 52e20000         ldieq     0,r2
     1465                   ;*      Branch Occurs to L60 
     1466 00000161          L58:        
     1467                           .line   37
     1468                   ;----------------------------------------------------------------------
     1469                   ; 234 | Delay_SCC2_SendTo(sSelf_Tx_Buf,20,SCC_B_CHANNEL,5);                    
     1470                   ; 236 | else {                                                                 
     1471                   ;----------------------------------------------------------------------
     1472 00000161 50610005         ldiu      5,r1
     1473 00000162 5000000b         ldiu      fp,r0
     1474 00000163 50620001         ldiu      1,r2
     1475 00000164 50630014         ldiu      20,r3
     1476 00000165 0f210000         push      r1
     1477 00000166 02600001         addi      1,r0
     1478 00000167 0f220000         push      r2
     1479 00000168 0f230000         push      r3
     1480 00000169 0f200000         push      r0
     1481 0000016a 62000000!        call      _Delay_SCC2_SendTo
     1482                                                           ; Call Occurs
     1483 0000016b 18740004         subi      4,sp
     1484 0000016c 6a000008         bu        L61
     1485                   ;*      Branch Occurs to L61 
     1486                           .line   40
     1487                   ;----------------------------------------------------------------------
     1488                   ; 237 | Delay_SCC2_SendTo(sSelf_Tx_Buf,20,SCC_A_CHANNEL,5);                    
     1489                   ;----------------------------------------------------------------------
     1490 0000016d          L60:        
     1491 0000016d 50630014         ldiu      20,r3
     1492 0000016e 0f210000         push      r1
     1493 0000016f 02600001         addi      1,r0
     1494 00000170 0f220000         push      r2
     1495 00000171 0f230000         push      r3
     1496 00000172 0f200000         push      r0
     1497 00000173 62000000!        call      _Delay_SCC2_SendTo
     1498                                                           ; Call Occurs
     1499 00000174 18740004         subi      4,sp
     1500 00000175          L61:        
     1501                           .line   43
     1502                   ;----------------------------------------------------------------------
     1503                   ; 240 | nLedDataLoad.nErassFlag.nTXCnt++;                                      
     1504                   ;----------------------------------------------------------------------
     1505 00000175 50600001         ldiu      1,r0
     1506 00000176 0220006b-        addi      @_nLedDataLoad+11,r0  ; Unsigned
     1507 00000177 1520006b-        sti       r0,@_nLedDataLoad+11
     1508 00000178          L62:        
     1509                           .line   45
     1510 00000178 50530b01         ldiu      *-fp(1),bk
     1511 00000179 504bc300         ldiu      *fp,fp
     1512 0000017a 18740026         subi      38,sp
TMS320C3x/4x COFF AssemblerVersion 5.11     Fri Sep 17 14:23:57 2010
Copyright (c) 1987-1999 Texas Instruments Incorporatedc:\lang\tms320c3x\511\bin\asm30.exe -l led_download.asm led_download.obj -tC:\Users\jds\AppData\Local\Temp\led_download.tmp 

led_download.asm                                                     PAGE   29

     1513 0000017b 68000013         bu        bk
     1514                   ;*      Branch Occurs to bk 
     1515                           .endfunc        242,000000000h,36
     1516                   
     1517                   
     1518                   
     1519 00000051                  .sect   ".cinit"
     1520 00000051 00000001         .field          1,32
     1521 00000052 00000053-        .field          _d_Sdr_A+0,32
     1522 00000053 00000000         .field          0,32            ; _d_Sdr_A @ 0
     1523                   
     1524 0000017c                  .sect   ".text"
     1525                   
     1526                           .global _d_Sdr_A
     1527 00000053                  .bss    _d_Sdr_A,1
     1528                           .sym    _d_Sdr_A,_d_Sdr_A,12,2,32
     1529                   
     1530 00000054                  .sect   ".cinit"
     1531 00000054 00000001         .field          1,32
     1532 00000055 00000054-        .field          _d_Sdr_B+0,32
     1533 00000056 00000000         .field          0,32            ; _d_Sdr_B @ 0
     1534                   
     1535 0000017c                  .sect   ".text"
     1536                   
     1537                           .global _d_Sdr_B
     1538 00000054                  .bss    _d_Sdr_B,1
     1539                           .sym    _d_Sdr_B,_d_Sdr_B,12,2,32
     1540                   
     1541 00000057                  .sect   ".cinit"
     1542 00000057 00000001         .field          1,32
     1543 00000058 00000055-        .field          _d_Sdr_C+0,32
     1544 00000059 00000000         .field          0,32            ; _d_Sdr_C @ 0
     1545                   
     1546 0000017c                  .sect   ".text"
     1547                   
     1548                           .global _d_Sdr_C
     1549 00000055                  .bss    _d_Sdr_C,1
     1550                           .sym    _d_Sdr_C,_d_Sdr_C,12,2,32
     1551                   
     1552 0000005a                  .sect   ".cinit"
     1553 0000005a 00000004         .field          IR_7,32
     1554 0000005b 00000056-        .field          .init2$3+0,32
     1555 0000005c 0000003c         .field          60,32           ; .init2$3[0] @ 0
     1556 0000005d 0000003d         .field          61,32           ; .init2$3[1] @ 32
     1557 0000005e 0000003e         .field          62,32           ; .init2$3[2] @ 64
     1558 0000005f 0000003f         .field          63,32           ; .init2$3[3] @ 96
     1559          00000004 IR_7:   .set    4
     1560                   
     1561 0000017c                  .sect   ".text"
     1562                   
     1563 00000060                  .sect   ".cinit"
     1564 00000060 00000004         .field          IR_8,32
     1565 00000061 0000005b-        .field          .init3$4+0,32
     1566 00000062 00000000         .field          0,32            ; .init3$4[0] @ 0
TMS320C3x/4x COFF AssemblerVersion 5.11     Fri Sep 17 14:23:57 2010
Copyright (c) 1987-1999 Texas Instruments Incorporatedc:\lang\tms320c3x\511\bin\asm30.exe -l led_download.asm led_download.obj -tC:\Users\jds\AppData\Local\Temp\led_download.tmp 

led_download.asm                                                     PAGE   30

     1567 00000063 00000001         .field          1,32            ; .init3$4[1] @ 32
     1568 00000064 00000002         .field          2,32            ; .init3$4[2] @ 64
     1569 00000065 00000003         .field          3,32            ; .init3$4[3] @ 96
     1570          00000004 IR_8:   .set    4
     1571                   
     1572 0000017c                  .sect   ".text"
     1573 0000017c                  .sect    ".text"
     1574                   
     1575                           .global _LED_ERASS_SDR
     1576                           .sym    _LED_ERASS_SDR,_LED_ERASS_SDR,32,2,0
     1577                           .func   248
     1578                   ;******************************************************************************
     1579                   ;* FUNCTION NAME: _LED_ERASS_SDR                                              *
     1580                   ;*                                                                            *
     1581                   ;*   Architecture       : TMS320C30                                           *
     1582                   ;*   Calling Convention : Stack Parameter Convention                          *
     1583                   ;*   Function Uses Regs : r0,r1,r2,r3,ar0,ar1,fp,ir0,ir1,bk,sp,st,rs,re,rc    *
     1584                   ;*   Regs Saved         :                                                     *
     1585                   ;*   Stack Frame        : Full (w/ debug)                                     *
     1586                   ;*   Total Frame Size   : 2 Call + 2 Parm + 63 Auto + 0 SOE = 67 words        *
     1587                   ;******************************************************************************
     1588 0000017c          _LED_ERASS_SDR:
     1589                           .sym    _pDataBuf,-2,28,9,32
     1590                           .sym    _sUnitCnt,-3,12,9,32
     1591 00000056                  .bss    .init2$3,5
     1592                           .sym    .init2$3,.init2$3,60,3,160,,5
     1593 0000005b                  .bss    .init3$4,5
     1594                           .sym    .init3$4,.init3$4,60,3,160,,5
     1595                           .sym    _i,1,4,1,32
     1596                           .sym    _sSelf_Tx_Buf,2,60,1,800,,25
     1597                           .sym    _sSelf_RxData_Buf,27,60,1,800,,25
     1598                           .sym    _sErBlkBuf,52,60,1,160,,5
     1599                           .sym    _sErDataBlk,57,60,1,160,,5
     1600                           .sym    _sErAddCnt,62,12,1,32
     1601                           .sym    _sErBlkPoint,63,12,1,32
     1602                           .line   1
     1603                   ;----------------------------------------------------------------------
     1604                   ; 248 | void LED_ERASS_SDR(UCHAR *pDataBuf,UCHAR sUnitCnt)                     
     1605                   ;----------------------------------------------------------------------
     1606 0000017c 0f2b0000         push      fp
     1607 0000017d 500b0014         ldiu      sp,fp
     1608 0000017e 0274003f         addi      63,sp
     1609                           .line   2
     1610                   ;----------------------------------------------------------------------
     1611                   ; 250 | int i;                                                                 
     1612                   ; 251 | UCHAR sSelf_Tx_Buf[25];                                                
     1613                   ; 252 | UCHAR sSelf_RxData_Buf[25];                                            
     1614                   ;----------------------------------------------------------------------
     1615                           .line   6
     1616                   ;----------------------------------------------------------------------
     1617                   ; 253 | UCHAR sErBlkBuf[5] = {0x3C,0x3D,0x3E,0x3F};                            
     1618                   ;----------------------------------------------------------------------
     1619 0000017f 5029007f-        ldiu      @CL9,ar1
     1620 00000180 5008000b         ldiu      fp,ar0
TMS320C3x/4x COFF AssemblerVersion 5.11     Fri Sep 17 14:23:57 2010
Copyright (c) 1987-1999 Texas Instruments Incorporatedc:\lang\tms320c3x\511\bin\asm30.exe -l led_download.asm led_download.obj -tC:\Users\jds\AppData\Local\Temp\led_download.tmp 

led_download.asm                                                     PAGE   31

     1621 00000181 02680034         addi      52,ar0
     1622 00000182 50402101         ldiu      *ar1++(1),r0
     1623 00000183 13fb0003         rpts      3                     ; Fast MEMCPY(#18)
     1624 00000184 da002021         sti       r0,*ar0++(1)
     1625                   ||      ldi       *ar1++(1),r0
     1626 00000185 15402001         sti       r0,*ar0++(1)
     1627                           .line   7
     1628                   ;----------------------------------------------------------------------
     1629                   ; 254 | UCHAR sErDataBlk[5] = {0x00,0x01,0x02,0x03};                           
     1630                   ;----------------------------------------------------------------------
     1631 00000186 50290080-        ldiu      @CL10,ar1
     1632 00000187 5008000b         ldiu      fp,ar0
     1633 00000188 02680039         addi      57,ar0
     1634 00000189 50402101         ldiu      *ar1++(1),r0
     1635 0000018a 13fb0003         rpts      3                     ; Fast MEMCPY(#21)
     1636 0000018b da002021         sti       r0,*ar0++(1)
     1637                   ||      ldi       *ar1++(1),r0
     1638 0000018c 15402001         sti       r0,*ar0++(1)
     1639                           .line   8
     1640                   ;----------------------------------------------------------------------
     1641                   ; 255 | UCHAR sErAddCnt = 0;                                                   
     1642                   ;----------------------------------------------------------------------
     1643 0000018d 50600000         ldiu      0,r0
     1644 0000018e 1540033e         sti       r0,*+fp(62)
     1645                           .line   9
     1646                   ;----------------------------------------------------------------------
     1647                   ; 256 | UCHAR sErBlkPoint = 4; //삭제 한 블럭 갯수.                            
     1648                   ;----------------------------------------------------------------------
     1649 0000018f 50600004         ldiu      4,r0
     1650 00000190 1540033f         sti       r0,*+fp(63)
     1651                           .line   11
     1652                   ;----------------------------------------------------------------------
     1653                   ; 258 | if(nLedDataLoad.nFDD_DATA_Selt) //데이타 다운로드 기능일 경우 블럭 번호
     1654                   ;     | 가 바뀐다.                                                             
     1655                   ;----------------------------------------------------------------------
     1656 00000191 08200064-        ldi       @_nLedDataLoad+4,r0
     1657 00000192 6a250007         beqd      L66
     1658 00000193 0c800000         nop
     1659 00000194 5308000b         ldine     fp,ar0
     1660 00000195 5309000b         ldine     fp,ar1
     1661                   ;*      Branch Occurs to L66 
     1662                           .line   13
     1663                   ;----------------------------------------------------------------------
     1664                   ; 260 | memcpy(sErBlkBuf,sErDataBlk,5);                                        
     1665                   ;----------------------------------------------------------------------
     1666 00000196 02680034         addi      52,ar0
     1667 00000197 02690039         addi      57,ar1
     1668 00000198 50402101         ldiu      *ar1++(1),r0
     1669 00000199 13fb0003         rpts      3                     ; Fast MEMCPY(#24)
     1670 0000019a da002021         sti       r0,*ar0++(1)
     1671                   ||      ldi       *ar1++(1),r0
     1672 0000019b 15402001         sti       r0,*ar0++(1)
     1673 0000019c          L66:        
     1674                           .line   16
TMS320C3x/4x COFF AssemblerVersion 5.11     Fri Sep 17 14:23:57 2010
Copyright (c) 1987-1999 Texas Instruments Incorporatedc:\lang\tms320c3x\511\bin\asm30.exe -l led_download.asm led_download.obj -tC:\Users\jds\AppData\Local\Temp\led_download.tmp 

led_download.asm                                                     PAGE   32

     1675                   ;----------------------------------------------------------------------
     1676                   ; 263 | if(nLedDataLoad.nIDDSelt)                                              
     1677                   ;----------------------------------------------------------------------
     1678 0000019c 08200062-        ldi       @_nLedDataLoad+2,r0
     1679 0000019d 6a050009         beq       L68
     1680                   ;*      Branch Occurs to L68 
     1681                           .line   18
     1682                   ;----------------------------------------------------------------------
     1683                   ; 265 | sErBlkBuf[0] = 0x3F;                                                   
     1684                   ;----------------------------------------------------------------------
     1685 0000019e 5008000b         ldiu      fp,ar0
     1686 0000019f 02680034         addi      52,ar0
     1687 000001a0 5060003f         ldiu      63,r0
     1688 000001a1 1540c000         sti       r0,*ar0
     1689                           .line   19
     1690                   ;----------------------------------------------------------------------
     1691                   ; 266 | sErBlkBuf[1] = 0x3F;                                                   
     1692                   ;----------------------------------------------------------------------
     1693 000001a2 5008000b         ldiu      fp,ar0
     1694 000001a3 02680035         addi      53,ar0
     1695 000001a4 1540c000         sti       r0,*ar0
     1696                           .line   20
     1697                   ;----------------------------------------------------------------------
     1698                   ; 267 | sErBlkPoint = 1;                                                       
     1699                   ;----------------------------------------------------------------------
     1700 000001a5 50600001         ldiu      1,r0
     1701 000001a6 1540033f         sti       r0,*+fp(63)
     1702 000001a7          L68:        
     1703                           .line   23
     1704                   ;----------------------------------------------------------------------
     1705                   ; 270 | memcpy(sSelf_RxData_Buf,nSelf_Test.nSELF_DownLoad_RxBuf,nSelf_Test.nSEL
     1706                   ;     | F_DownLoad_UnitCnt);                                                   
     1707                   ;----------------------------------------------------------------------
     1708 000001a7 502200b4!        ldiu      @_nSelf_Test+180,r2
     1709 000001a8 5000000b         ldiu      fp,r0
     1710 000001a9 50210078-        ldiu      @CL2,r1
     1711 000001aa 0f220000         push      r2
     1712 000001ab 0260001b         addi      27,r0
     1713 000001ac 0f210000         push      r1
     1714 000001ad 0f200000         push      r0
     1715 000001ae 62000000!        call      _memcpy
     1716                                                           ; Call Occurs
     1717 000001af 18740003         subi      3,sp
     1718                           .line   25
     1719                   ;----------------------------------------------------------------------
     1720                   ; 272 | nLED_Time_Change = 200;                                                
     1721                   ;----------------------------------------------------------------------
     1722 000001b0 506000c8         ldiu      200,r0
     1723 000001b1 15200001-        sti       r0,@_nLED_Time_Change+0
     1724                           .line   28
     1725                   ;----------------------------------------------------------------------
     1726                   ; 275 | for(i = WORD_L(nSelf_Test.nSELF_TX_Cnt);i<(sUnitCnt);i++)              
     1727                   ;----------------------------------------------------------------------
     1728 000001b2 506000ff         ldiu      255,r0
TMS320C3x/4x COFF AssemblerVersion 5.11     Fri Sep 17 14:23:57 2010
Copyright (c) 1987-1999 Texas Instruments Incorporatedc:\lang\tms320c3x\511\bin\asm30.exe -l led_download.asm led_download.obj -tC:\Users\jds\AppData\Local\Temp\led_download.tmp 

led_download.asm                                                     PAGE   33

     1729 000001b3 02a000b5!        and       @_nSelf_Test+181,r0
     1730 000001b4 15400301         sti       r0,*+fp(1)
     1731 000001b5 50400301         ldiu      *+fp(1),r0
     1732 000001b6 04c00b03         cmpi      *-fp(3),r0
     1733 000001b7 6a040012         bhs       L73
     1734                   ;*      Branch Occurs to L73 
     1735 000001b8          L69:        
     1736                           .line   30
     1737                   ;----------------------------------------------------------------------
     1738                   ; 277 | if(!WORD_L(sSelf_RxData_Buf[i]))                                       
     1739                   ;----------------------------------------------------------------------
     1740 000001b8 5008000b         ldiu      fp,ar0
     1741 000001b9 50510301         ldiu      *+fp(1),ir0
     1742 000001ba 0268001b         addi      27,ar0
     1743 000001bb 506000ff         ldiu      255,r0
     1744 000001bc 27c00040         tstb3     *+ar0(ir0),r0
     1745 000001bd 6a060003         bne       L72
     1746                   ;*      Branch Occurs to L72 
     1747                           .line   32
     1748                   ;----------------------------------------------------------------------
     1749                   ; 279 | sErAddCnt = i;                                                         
     1750                   ;----------------------------------------------------------------------
     1751 000001be 50400301         ldiu      *+fp(1),r0
     1752 000001bf 1540033e         sti       r0,*+fp(62)
     1753                           .line   33
     1754                   ;----------------------------------------------------------------------
     1755                   ; 280 | break;                                                                 
     1756                   ;----------------------------------------------------------------------
     1757 000001c0 6a000009         bu        L73
     1758                   ;*      Branch Occurs to L73 
     1759 000001c1          L72:        
     1760                           .line   35
     1761                   ;----------------------------------------------------------------------
     1762                   ; 282 | else {nSelf_Test.nSELF_TX_Cnt++;}                                      
     1763                   ;----------------------------------------------------------------------
     1764 000001c1 50600001         ldiu      1,r0
     1765 000001c2 022000b5!        addi      @_nSelf_Test+181,r0   ; Unsigned
     1766 000001c3 152000b5!        sti       r0,@_nSelf_Test+181
     1767                           .line   28
     1768 000001c4 50600001         ldiu      1,r0
     1769 000001c5 02400301         addi      *+fp(1),r0
     1770 000001c6 15400301         sti       r0,*+fp(1)
     1771 000001c7 50400301         ldiu      *+fp(1),r0
     1772 000001c8 04c00b03         cmpi      *-fp(3),r0
     1773 000001c9 6a01ffee         blo       L69
     1774                   ;*      Branch Occurs to L69 
     1775 000001ca          L73:        
     1776                           .line   38
     1777                   ;----------------------------------------------------------------------
     1778                   ; 285 | if(nSelf_Test.nSELF_TX_Cnt >= sUnitCnt)                                
     1779                   ;----------------------------------------------------------------------
     1780 000001ca 502000b5!        ldiu      @_nSelf_Test+181,r0
     1781 000001cb 04c00b03         cmpi      *-fp(3),r0
     1782 000001cc 6a210036         blod      L81
TMS320C3x/4x COFF AssemblerVersion 5.11     Fri Sep 17 14:23:57 2010
Copyright (c) 1987-1999 Texas Instruments Incorporatedc:\lang\tms320c3x\511\bin\asm30.exe -l led_download.asm led_download.obj -tC:\Users\jds\AppData\Local\Temp\led_download.tmp 

led_download.asm                                                     PAGE   34

     1783 000001cd 0c800000         nop
     1784 000001ce 50a0006b-        ldilo     @_nLedDataLoad+11,r0
     1785 000001cf 50c1033f         ldilo     *+fp(63),r1
     1786                   ;*      Branch Occurs to L81 
     1787                           .line   40
     1788                   ;----------------------------------------------------------------------
     1789                   ; 287 | nSelf_Test.nSELF_TX_Cnt = 0;                                           
     1790                   ;----------------------------------------------------------------------
     1791 000001d0 50600000         ldiu      0,r0
     1792 000001d1 152000b5!        sti       r0,@_nSelf_Test+181
     1793                           .line   42
     1794                   ;----------------------------------------------------------------------
     1795                   ; 289 | nLedDataLoad.nErassFlag.nST_1 = FALSE;                                 
     1796                   ;----------------------------------------------------------------------
     1797 000001d2 15200069-        sti       r0,@_nLedDataLoad+9
     1798                           .line   43
     1799                   ;----------------------------------------------------------------------
     1800                   ; 290 | nLedDataLoad.nErassFlag.nST_2 = FALSE;                                 
     1801                   ;----------------------------------------------------------------------
     1802 000001d3 1520006a-        sti       r0,@_nLedDataLoad+10
     1803                           .line   45
     1804                   ;----------------------------------------------------------------------
     1805                   ; 292 | d_Sdr_C = sErBlkPoint;                                                 
     1806                   ;----------------------------------------------------------------------
     1807 000001d4 5040033f         ldiu      *+fp(63),r0
     1808 000001d5 15200055-        sti       r0,@_d_Sdr_C+0
     1809                           .line   47
     1810                   ;----------------------------------------------------------------------
     1811                   ; 294 | d_Sdr_B = nLedDataLoad.nSDR_RxCnt;                                     
     1812                   ; 296 | //nLedDataLoad.nErassFlag.nTXCnt = (nLedDataLoad.nErassFlag.nTXCnt) - (
     1813                   ;     | nLedDataLoad.nErassFlag.nTXCnt%sErBlkPoint);                           
     1814                   ;----------------------------------------------------------------------
     1815 000001d6 50200068-        ldiu      @_nLedDataLoad+8,r0
     1816 000001d7 15200054-        sti       r0,@_d_Sdr_B+0
     1817                           .line   50
     1818                   ;----------------------------------------------------------------------
     1819                   ; 297 | d_Sdr_A = nLedDataLoad.nErassFlag.nTXCnt;                              
     1820                   ;----------------------------------------------------------------------
     1821 000001d8 5020006b-        ldiu      @_nLedDataLoad+11,r0
     1822 000001d9 15200053-        sti       r0,@_d_Sdr_A+0
     1823                           .line   52
     1824                   ;----------------------------------------------------------------------
     1825                   ; 299 | if(WORD_L(nLedDataLoad.nErassFlag.nTXCnt) == WORD_L(nLedDataLoad.nSDR_R
     1826                   ;     | xCnt))   //모두 잘 지워 졌을때.                                        
     1827                   ;----------------------------------------------------------------------
     1828 000001da 506100ff         ldiu      255,r1
     1829 000001db 02a1006b-        and       @_nLedDataLoad+11,r1
     1830 000001dc 506000ff         ldiu      255,r0
     1831 000001dd 02a00068-        and       @_nLedDataLoad+8,r0
     1832 000001de 23800100         cmpi3     r0,r1
     1833 000001df 6a060017         bne       L76
     1834                   ;*      Branch Occurs to L76 
     1835                           .line   54
     1836                   ;----------------------------------------------------------------------
TMS320C3x/4x COFF AssemblerVersion 5.11     Fri Sep 17 14:23:57 2010
Copyright (c) 1987-1999 Texas Instruments Incorporatedc:\lang\tms320c3x\511\bin\asm30.exe -l led_download.asm led_download.obj -tC:\Users\jds\AppData\Local\Temp\led_download.tmp 

led_download.asm                                                     PAGE   35

     1837                   ; 301 | nLedDataLoad.nErassFlag.nRepCnt = 0;                                   
     1838                   ;----------------------------------------------------------------------
     1839 000001e0 50600000         ldiu      0,r0
     1840 000001e1 1520006c-        sti       r0,@_nLedDataLoad+12
     1841                           .line   55
     1842                   ;----------------------------------------------------------------------
     1843                   ; 302 | nLedDataLoad.nErassFlag.nErassOk = TRUE;                               
     1844                   ;----------------------------------------------------------------------
     1845 000001e2 50600001         ldiu      1,r0
     1846 000001e3 1520006d-        sti       r0,@_nLedDataLoad+13
     1847                           .line   57
     1848                   ;----------------------------------------------------------------------
     1849                   ; 304 | gpLED_UPLOAD_DABUT;                                                    
     1850                   ;----------------------------------------------------------------------
     1851 000001e4 50610001         ldiu      1,r1
     1852 000001e5 0f210000         push      r1
     1853 000001e6 506002bd         ldiu      701,r0
     1854 000001e7 0f200000         push      r0
     1855 000001e8 62000000!        call      _gp_WritingWord
     1856                                                           ; Call Occurs
     1857 000001e9 18740002         subi      2,sp
     1858                           .line   58
     1859                   ;----------------------------------------------------------------------
     1860                   ; 305 | gpLED_UPLOAD_DABUT_SF_ON;                                              
     1861                   ;----------------------------------------------------------------------
     1862 000001ea 50600001         ldiu      1,r0
     1863 000001eb 506102c7         ldiu      711,r1
     1864 000001ec 0f200000         push      r0
     1865 000001ed 0f210000         push      r1
     1866 000001ee 62000000!        call      _gp_WritingWord
     1867                                                           ; Call Occurs
     1868 000001ef 18740002         subi      2,sp
     1869                           .line   60
     1870                   ;----------------------------------------------------------------------
     1871                   ; 307 | gpLED_UPLOAD_BUTOFF;                                                   
     1872                   ; 309 | else    // 지우기 실패로 인해 다시 지운다. 5회 반복한다.               
     1873                   ;----------------------------------------------------------------------
     1874 000001f0 506102bc         ldiu      700,r1
     1875 000001f1 50600000         ldiu      0,r0
     1876 000001f2 0f200000         push      r0
     1877 000001f3 0f210000         push      r1
     1878 000001f4 62000000!        call      _gp_WritingWord
     1879                                                           ; Call Occurs
     1880 000001f5 18740002         subi      2,sp
     1881 000001f6 6a00000a         bu        L79
     1882                   ;*      Branch Occurs to L79 
     1883 000001f7          L76:        
     1884                           .line   64
     1885                   ;----------------------------------------------------------------------
     1886                   ; 311 | nLedDataLoad.nErassFlag.nRepCnt++;                                     
     1887                   ;----------------------------------------------------------------------
     1888 000001f7 50600001         ldiu      1,r0
     1889 000001f8 0220006c-        addi      @_nLedDataLoad+12,r0  ; Unsigned
     1890 000001f9 1520006c-        sti       r0,@_nLedDataLoad+12
TMS320C3x/4x COFF AssemblerVersion 5.11     Fri Sep 17 14:23:57 2010
Copyright (c) 1987-1999 Texas Instruments Incorporatedc:\lang\tms320c3x\511\bin\asm30.exe -l led_download.asm led_download.obj -tC:\Users\jds\AppData\Local\Temp\led_download.tmp 

led_download.asm                                                     PAGE   36

     1891                           .line   65
     1892                   ;----------------------------------------------------------------------
     1893                   ; 312 | if(nLedDataLoad.nErassFlag.nRepCnt <5)                                 
     1894                   ;----------------------------------------------------------------------
     1895 000001fa 04e00005         cmpi      5,r0
     1896 000001fb 6a040003         bhs       L78
     1897                   ;*      Branch Occurs to L78 
     1898                           .line   67
     1899                   ;----------------------------------------------------------------------
     1900                   ; 314 | nLedDataLoad.nErassFlag.nST_1 = TRUE;                                  
     1901                   ; 316 | else                                                                   
     1902                   ;----------------------------------------------------------------------
     1903 000001fc 50600001         ldiu      1,r0
     1904 000001fd 15200069-        sti       r0,@_nLedDataLoad+9
     1905 000001fe 6a000002         bu        L79
     1906                   ;*      Branch Occurs to L79 
     1907 000001ff          L78:        
     1908                           .line   71
     1909                   ;----------------------------------------------------------------------
     1910                   ; 318 | nLedDataLoad.nErassFlag.nRepCnt = 0;                                   
     1911                   ;----------------------------------------------------------------------
     1912 000001ff 50600000         ldiu      0,r0
     1913 00000200 1520006c-        sti       r0,@_nLedDataLoad+12
     1914 00000201          L79:        
     1915                           .line   75
     1916                   ;----------------------------------------------------------------------
     1917                   ; 322 | nLedDataLoad.nSDR_RxCnt = 0;                                           
     1918                   ;----------------------------------------------------------------------
     1919 00000201 50600000         ldiu      0,r0
     1920 00000202 15200068-        sti       r0,@_nLedDataLoad+8
     1921                           .line   76
     1922                   ;----------------------------------------------------------------------
     1923                   ; 323 | nLedDataLoad.nErassFlag.nTXCnt = 0;                                    
     1924                   ; 325 | else                                                                   
     1925                   ;----------------------------------------------------------------------
     1926 00000203 1520006b-        sti       r0,@_nLedDataLoad+11
     1927 00000204 6a000045         bu        L90
     1928                   ;*      Branch Occurs to L90 
     1929                           .line   80
     1930                   ;----------------------------------------------------------------------
     1931                   ; 327 | SCC_TX_PROTOCOL(sSelf_Tx_Buf,pDataBuf[sErAddCnt],0x31,0x07,0,0x10,sErBl
     1932                   ;     | kBuf[(nLedDataLoad.nErassFlag.nTXCnt)%sErBlkPoint],0,0,10);            
     1933                   ;----------------------------------------------------------------------
     1934 00000205          L81:        
     1935 00000205 62000000!        call      MOD_U30
     1936                                                           ; Call Occurs
     1937 00000206 5063000a         ldiu      10,r3
     1938 00000207 50730031         ldiu      49,bk
     1939 00000208 5008000b         ldiu      fp,ar0
     1940 00000209 50510b02         ldiu      *-fp(2),ir0
     1941 0000020a 02680034         addi      52,ar0
     1942 0000020b 5049033e         ldiu      *+fp(62),ar1
     1943 0000020c 50120000         ldiu      r0,ir1
     1944 0000020d 50790000         ldiu      0,rs
TMS320C3x/4x COFF AssemblerVersion 5.11     Fri Sep 17 14:23:57 2010
Copyright (c) 1987-1999 Texas Instruments Incorporatedc:\lang\tms320c3x\511\bin\asm30.exe -l led_download.asm led_download.obj -tC:\Users\jds\AppData\Local\Temp\led_download.tmp 

led_download.asm                                                     PAGE   37

     1945 0000020e 507a0000         ldiu      0,re
     1946                   
     1947 0000020f c6504180         ldiu      *+ar0(ir1),r1
     1948                   ||      ldiu      *+ar1(ir0),r2
     1949                   
     1950 00000210 507b0007         ldiu      7,rc
     1951 00000211 0f230000         push      r3
     1952 00000212 5000000b         ldiu      fp,r0
     1953 00000213 0f390000         push      rs
     1954 00000214 50630000         ldiu      0,r3
     1955 00000215 02600002         addi      2,r0
     1956 00000216 50790010         ldiu      16,rs
     1957 00000217 0f230000         push      r3
     1958 00000218 0f210000         push      r1
     1959 00000219 0f390000         push      rs
     1960 0000021a 0f3a0000         push      re
     1961 0000021b 0f3b0000         push      rc
     1962 0000021c 0f330000         push      bk
     1963 0000021d 0f220000         push      r2
     1964 0000021e 0f200000         push      r0
     1965 0000021f 62000000!        call      _SCC_TX_PROTOCOL
     1966                                                           ; Call Occurs
     1967 00000220 1874000a         subi      10,sp
     1968                           .line   82
     1969                   ;----------------------------------------------------------------------
     1970                   ; 329 | nLedDataLoad.nErassFlag.nTXCnt++;                                      
     1971                   ;----------------------------------------------------------------------
     1972 00000221 50600001         ldiu      1,r0
     1973 00000222 0220006b-        addi      @_nLedDataLoad+11,r0  ; Unsigned
     1974 00000223 1520006b-        sti       r0,@_nLedDataLoad+11
     1975                           .line   84
     1976                   ;----------------------------------------------------------------------
     1977                   ; 331 | if(!(nLedDataLoad.nErassFlag.nTXCnt%sErBlkPoint) && nLedDataLoad.nErass
     1978                   ;     | Flag.nTXCnt)//한 장치당 삭제 블럭 갯수 만큼 물어 본다.                 
     1979                   ;----------------------------------------------------------------------
     1980 00000224 5041033f         ldiu      *+fp(63),r1
     1981 00000225 62000000!        call      MOD_U30
     1982                                                           ; Call Occurs
     1983 00000226 04e00000         cmpi      0,r0
     1984 00000227 6a060005         bne       L84
     1985                   ;*      Branch Occurs to L84 
     1986 00000228 0820006b-        ldi       @_nLedDataLoad+11,r0
     1987 00000229 6a050003         beq       L84
     1988                   ;*      Branch Occurs to L84 
     1989                           .line   86
     1990                   ;----------------------------------------------------------------------
     1991                   ; 333 | nSelf_Test.nSELF_TX_Cnt++;                                             
     1992                   ;----------------------------------------------------------------------
     1993 0000022a 50600001         ldiu      1,r0
     1994 0000022b 022000b5!        addi      @_nSelf_Test+181,r0   ; Unsigned
     1995 0000022c 152000b5!        sti       r0,@_nSelf_Test+181
     1996 0000022d          L84:        
     1997                           .line   89
     1998                   ;----------------------------------------------------------------------
TMS320C3x/4x COFF AssemblerVersion 5.11     Fri Sep 17 14:23:57 2010
Copyright (c) 1987-1999 Texas Instruments Incorporatedc:\lang\tms320c3x\511\bin\asm30.exe -l led_download.asm led_download.obj -tC:\Users\jds\AppData\Local\Temp\led_download.tmp 

led_download.asm                                                     PAGE   38

     1999                   ; 336 | if(nLedDataLoad.nRNDSelt || nLedDataLoad.nFDDSelt || nLedDataLoad.nTNDS
     2000                   ;     | elt ) //다운로드 기능중 차내 빼고는 "B"채널로 보낸다.                  
     2001                   ;----------------------------------------------------------------------
     2002 0000022d 08200060-        ldi       @_nLedDataLoad+0,r0
     2003 0000022e 6a060007         bne       L87
     2004                   ;*      Branch Occurs to L87 
     2005 0000022f 08200061-        ldi       @_nLedDataLoad+1,r0
     2006 00000230 6a060005         bne       L87
     2007                   ;*      Branch Occurs to L87 
     2008 00000231 08200063-        ldi       @_nLedDataLoad+3,r0
     2009 00000232 6a25000d         beqd      L89
     2010 00000233 52e30005         ldieq     5,r3
     2011 00000234 5280000b         ldieq     fp,r0
     2012 00000235 52e10000         ldieq     0,r1
     2013                   ;*      Branch Occurs to L89 
     2014 00000236          L87:        
     2015                           .line   91
     2016                   ;----------------------------------------------------------------------
     2017                   ; 338 | Delay_SCC2_SendTo(sSelf_Tx_Buf,20,SCC_B_CHANNEL,5);                    
     2018                   ; 340 | else {                                                                 
     2019                   ;----------------------------------------------------------------------
     2020 00000236 50630005         ldiu      5,r3
     2021 00000237 5000000b         ldiu      fp,r0
     2022 00000238 50620001         ldiu      1,r2
     2023 00000239 50610014         ldiu      20,r1
     2024 0000023a 0f230000         push      r3
     2025 0000023b 02600002         addi      2,r0
     2026 0000023c 0f220000         push      r2
     2027 0000023d 0f210000         push      r1
     2028 0000023e 0f200000         push      r0
     2029 0000023f 62000000!        call      _Delay_SCC2_SendTo
     2030                                                           ; Call Occurs
     2031 00000240 18740004         subi      4,sp
     2032 00000241 6a000008         bu        L90
     2033                   ;*      Branch Occurs to L90 
     2034                           .line   94
     2035                   ;----------------------------------------------------------------------
     2036                   ; 341 | Delay_SCC2_SendTo(sSelf_Tx_Buf,20,SCC_A_CHANNEL,5);                    
     2037                   ;----------------------------------------------------------------------
     2038 00000242          L89:        
     2039 00000242 50620014         ldiu      20,r2
     2040 00000243 0f230000         push      r3
     2041 00000244 02600002         addi      2,r0
     2042 00000245 0f210000         push      r1
     2043 00000246 0f220000         push      r2
     2044 00000247 0f200000         push      r0
     2045 00000248 62000000!        call      _Delay_SCC2_SendTo
     2046                                                           ; Call Occurs
     2047 00000249 18740004         subi      4,sp
     2048 0000024a          L90:        
     2049                           .line   99
     2050 0000024a 50530b01         ldiu      *-fp(1),bk
     2051 0000024b 504bc300         ldiu      *fp,fp
     2052 0000024c 18740041         subi      65,sp
TMS320C3x/4x COFF AssemblerVersion 5.11     Fri Sep 17 14:23:57 2010
Copyright (c) 1987-1999 Texas Instruments Incorporatedc:\lang\tms320c3x\511\bin\asm30.exe -l led_download.asm led_download.obj -tC:\Users\jds\AppData\Local\Temp\led_download.tmp 

led_download.asm                                                     PAGE   39

     2053 0000024d 68000013         bu        bk
     2054                   ;*      Branch Occurs to bk 
     2055                           .endfunc        346,000000000h,63
     2056                   
     2057                   
     2058 0000024e                  .sect    ".text"
     2059                   
     2060                           .global _LED_DataDownLoad_ST1
     2061                           .sym    _LED_DataDownLoad_ST1,_LED_DataDownLoad_ST1,32,2,0
     2062                           .func   350
     2063                   ;******************************************************************************
     2064                   ;* FUNCTION NAME: _LED_DataDownLoad_ST1                                       *
     2065                   ;*                                                                            *
     2066                   ;*   Architecture       : TMS320C30                                           *
     2067                   ;*   Calling Convention : Stack Parameter Convention                          *
     2068                   ;*   Function Uses Regs : r0,st                                               *
     2069                   ;*   Regs Saved         :                                                     *
     2070                   ;*   Stack Frame        : Full (w/ debug)                                     *
     2071                   ;*   Total Frame Size   : 2 Call + 0 Parm + 0 Auto + 0 SOE = 2 words          *
     2072                   ;******************************************************************************
     2073 0000024e          _LED_DataDownLoad_ST1:
     2074                           .line   1
     2075                   ;----------------------------------------------------------------------
     2076                   ; 350 | void LED_DataDownLoad_ST1()                                            
     2077                   ;----------------------------------------------------------------------
     2078 0000024e 0f2b0000         push      fp
     2079 0000024f 500b0014         ldiu      sp,fp
     2080                           .line   3
     2081                   ;----------------------------------------------------------------------
     2082                   ; 352 | if(!nLedDataLoad.nDataSize)                                            
     2083                   ;----------------------------------------------------------------------
     2084 00000250 08200073-        ldi       @_nLedDataLoad+19,r0
     2085 00000251 6a060004         bne       L94
     2086                   ;*      Branch Occurs to L94 
     2087                           .line   5
     2088                   ;----------------------------------------------------------------------
     2089                   ; 354 | nLedDataLoad.nDataSize = Nvsram_IDC_UpLoad_Da();                       
     2090                   ;----------------------------------------------------------------------
     2091 00000252 62000000!        call      _Nvsram_IDC_UpLoad_Da
     2092                                                           ; Call Occurs
     2093 00000253 15200073-        sti       r0,@_nLedDataLoad+19
     2094                           .line   7
     2095                   ;----------------------------------------------------------------------
     2096                   ; 356 | nLED_Time_Change = 500;                                                
     2097                   ;----------------------------------------------------------------------
     2098 00000254 506001f4         ldiu      500,r0
     2099 00000255 15200001-        sti       r0,@_nLED_Time_Change+0
     2100 00000256          L94:        
     2101                           .line   9
     2102 00000256 50530b01         ldiu      *-fp(1),bk
     2103 00000257 504bc300         ldiu      *fp,fp
     2104 00000258 18740002         subi      2,sp
     2105 00000259 68000013         bu        bk
     2106                   ;*      Branch Occurs to bk 
TMS320C3x/4x COFF AssemblerVersion 5.11     Fri Sep 17 14:23:57 2010
Copyright (c) 1987-1999 Texas Instruments Incorporatedc:\lang\tms320c3x\511\bin\asm30.exe -l led_download.asm led_download.obj -tC:\Users\jds\AppData\Local\Temp\led_download.tmp 

led_download.asm                                                     PAGE   40

     2107                           .endfunc        358,000000000h,0
     2108                   
     2109                   
     2110 0000025a                  .sect    ".text"
     2111                   
     2112                           .global _LED_DataDownLoad_ST2
     2113                           .sym    _LED_DataDownLoad_ST2,_LED_DataDownLoad_ST2,32,2,0
     2114                           .func   359
     2115                   ;******************************************************************************
     2116                   ;* FUNCTION NAME: _LED_DataDownLoad_ST2                                       *
     2117                   ;*                                                                            *
     2118                   ;*   Architecture       : TMS320C30                                           *
     2119                   ;*   Calling Convention : Stack Parameter Convention                          *
     2120                   ;*   Function Uses Regs : r0,r1,r2,r3,ar0,ar1,fp,ir0,sp,st,rs,re,rc           *
     2121                   ;*   Regs Saved         :                                                     *
     2122                   ;*   Stack Frame        : Full (w/ debug)                                     *
     2123                   ;*   Total Frame Size   : 2 Call + 1 Parm + 302 Auto + 0 SOE = 305 words      *
     2124                   ;******************************************************************************
     2125 0000025a          _LED_DataDownLoad_ST2:
     2126                           .sym    _nBlkNum,-2,12,9,32
     2127                           .sym    _sDataBuf,1,60,1,4800,,150
     2128                           .sym    _sDataTextBuf,151,60,1,4800,,150
     2129                           .sym    _sErBlkPoint,301,12,1,32
     2130                           .sym    _sReDataPoint,302,12,1,32
     2131                           .line   1
     2132                   ;----------------------------------------------------------------------
     2133                   ; 359 | void LED_DataDownLoad_ST2(UCHAR nBlkNum)                               
     2134                   ;----------------------------------------------------------------------
     2135 0000025a 0f2b0000         push      fp
     2136 0000025b 500b0014         ldiu      sp,fp
     2137 0000025c 0274012e         addi      302,sp
     2138                           .line   2
     2139                   ;----------------------------------------------------------------------
     2140                   ; 361 | UCHAR sDataBuf[150];                                                   
     2141                   ; 362 | UCHAR sDataTextBuf[150];                                               
     2142                   ;----------------------------------------------------------------------
     2143                           .line   5
     2144                   ;----------------------------------------------------------------------
     2145                   ; 363 | UCHAR sErBlkPoint = 30720; //삭제 한 블럭 갯수.                        
     2146                   ;----------------------------------------------------------------------
     2147 0000025d 5071012d         ldiu      301,ir0
     2148 0000025e 50607800         ldiu      30720,r0
     2149 0000025f 15404300         sti       r0,*+fp(ir0)
     2150                           .line   6
     2151                   ;----------------------------------------------------------------------
     2152                   ; 364 | UCHAR sReDataPoint = 0; // 데이타 전송일 경우 100번재 부터 시작 한다.  
     2153                   ;----------------------------------------------------------------------
     2154 00000260 5071012e         ldiu      302,ir0
     2155 00000261 50600000         ldiu      0,r0
     2156 00000262 15404300         sti       r0,*+fp(ir0)
     2157                           .line   8
     2158                   ;----------------------------------------------------------------------
     2159                   ; 366 | if(nLedDataLoad.nFDD_DATA_Selt) //데이타 다운로드 기능일 경우 블럭 번호
     2160                   ;     | 가 바뀐다.                                                             
TMS320C3x/4x COFF AssemblerVersion 5.11     Fri Sep 17 14:23:57 2010
Copyright (c) 1987-1999 Texas Instruments Incorporatedc:\lang\tms320c3x\511\bin\asm30.exe -l led_download.asm led_download.obj -tC:\Users\jds\AppData\Local\Temp\led_download.tmp 

led_download.asm                                                     PAGE   41

     2161                   ;----------------------------------------------------------------------
     2162 00000263 08200064-        ldi       @_nLedDataLoad+4,r0
     2163 00000264 6a250005         beqd      L98
     2164 00000265 0c800000         nop
     2165 00000266 5371012d         ldine     301,ir0
     2166 00000267 53600000         ldine     0,r0
     2167                   ;*      Branch Occurs to L98 
     2168                           .line   10
     2169                   ;----------------------------------------------------------------------
     2170                   ; 368 | sErBlkPoint = 0;                                                       
     2171                   ;----------------------------------------------------------------------
     2172 00000268 15404300         sti       r0,*+fp(ir0)
     2173                           .line   11
     2174                   ;----------------------------------------------------------------------
     2175                   ; 369 | sReDataPoint = 100;                                                    
     2176                   ;----------------------------------------------------------------------
     2177 00000269 5071012e         ldiu      302,ir0
     2178 0000026a 50600064         ldiu      100,r0
     2179 0000026b 15404300         sti       r0,*+fp(ir0)
     2180 0000026c          L98:        
     2181                           .line   14
     2182                   ;----------------------------------------------------------------------
     2183                   ; 372 | if(nLedDataLoad.nIDDSelt)                                              
     2184                   ;----------------------------------------------------------------------
     2185 0000026c 08200062-        ldi       @_nLedDataLoad+2,r0
     2186 0000026d 6a250005         beqd      L100
     2187 0000026e 0c800000         nop
     2188 0000026f 5371012d         ldine     301,ir0
     2189 00000270 53607e00         ldine     32256,r0
     2190                   ;*      Branch Occurs to L100 
     2191                           .line   16
     2192                   ;----------------------------------------------------------------------
     2193                   ; 374 | sErBlkPoint = 32256;                                                   
     2194                   ;----------------------------------------------------------------------
     2195 00000271 15404300         sti       r0,*+fp(ir0)
     2196                           .line   17
     2197                   ;----------------------------------------------------------------------
     2198                   ; 375 | sReDataPoint = 0;                                                      
     2199                   ;----------------------------------------------------------------------
     2200 00000272 5071012e         ldiu      302,ir0
     2201 00000273 50600000         ldiu      0,r0
     2202 00000274 15404300         sti       r0,*+fp(ir0)
     2203 00000275          L100:        
     2204                           .line   20
     2205                   ;----------------------------------------------------------------------
     2206                   ; 378 | memcpy(sDataBuf,&NVSRAM((nBlkNum*128)+sReDataPoint),128);              
     2207                   ;----------------------------------------------------------------------
     2208 00000275 50400b02         ldiu      *-fp(2),r0
     2209 00000276 5009000b         ldiu      fp,ar1
     2210 00000277 5071012e         ldiu      302,ir0
     2211 00000278 0ae00080         mpyi      128,r0
     2212 00000279 02690001         addi      1,ar1
     2213 0000027a 21284300         addi3     r0,*+fp(ir0),ar0      ; Unsigned
     2214 0000027b 02280081-        addi      @CL11,ar0             ; Unsigned
TMS320C3x/4x COFF AssemblerVersion 5.11     Fri Sep 17 14:23:57 2010
Copyright (c) 1987-1999 Texas Instruments Incorporatedc:\lang\tms320c3x\511\bin\asm30.exe -l led_download.asm led_download.obj -tC:\Users\jds\AppData\Local\Temp\led_download.tmp 

led_download.asm                                                     PAGE   42

     2215 0000027c 50402001         ldiu      *ar0++(1),r0
     2216 0000027d 13fb007e         rpts      126                   ; Fast MEMCPY(#27)
     2217 0000027e da002120         sti       r0,*ar1++(1)
     2218                   ||      ldi       *ar0++(1),r0
     2219 0000027f 15402101         sti       r0,*ar1++(1)
     2220                           .line   22
     2221                   ;----------------------------------------------------------------------
     2222                   ; 380 | SCC_Tx_DownLoad_TEXT(sDataTextBuf,sDataBuf,nLedDataLoad.nSFKindCode,(nB
     2223                   ;     | lkNum+sErBlkPoint));                                                   
     2224                   ;----------------------------------------------------------------------
     2225 00000280 5001000b         ldiu      fp,r1
     2226 00000281 5071012d         ldiu      301,ir0
     2227 00000282 50420b02         ldiu      *-fp(2),r2
     2228 00000283 21224302         addi3     r2,*+fp(ir0),r2       ; Unsigned
     2229 00000284 5000000b         ldiu      fp,r0
     2230 00000285 0f220000         push      r2
     2231 00000286 02600001         addi      1,r0
     2232 00000287 50220065-        ldiu      @_nLedDataLoad+5,r2
     2233 00000288 0f220000         push      r2
     2234 00000289 02610097         addi      151,r1
     2235 0000028a 0f200000         push      r0
     2236 0000028b 0f210000         push      r1
     2237 0000028c 62000000!        call      _SCC_Tx_DownLoad_TEXT
     2238                                                           ; Call Occurs
     2239 0000028d 18740004         subi      4,sp
     2240                           .line   24
     2241                   ;----------------------------------------------------------------------
     2242                   ; 382 | if(nLedDataLoad.nRNDSelt || nLedDataLoad.nFDDSelt || nLedDataLoad.nTNDS
     2243                   ;     | elt ) //다운로드 기능중 차내 빼고는 "B"채널로 보낸다.                  
     2244                   ;----------------------------------------------------------------------
     2245 0000028e 08200060-        ldi       @_nLedDataLoad+0,r0
     2246 0000028f 6a060007         bne       L103
     2247                   ;*      Branch Occurs to L103 
     2248 00000290 08200061-        ldi       @_nLedDataLoad+1,r0
     2249 00000291 6a060005         bne       L103
     2250                   ;*      Branch Occurs to L103 
     2251 00000292 08200063-        ldi       @_nLedDataLoad+3,r0
     2252 00000293 6a25000d         beqd      L105
     2253 00000294 52e30005         ldieq     5,r3
     2254 00000295 5280000b         ldieq     fp,r0
     2255 00000296 52e10000         ldieq     0,r1
     2256                   ;*      Branch Occurs to L105 
     2257 00000297          L103:        
     2258                           .line   26
     2259                   ;----------------------------------------------------------------------
     2260                   ; 384 | Delay_SCC2_SendTo(sDataTextBuf,144,SCC_B_CHANNEL,5);                   
     2261                   ; 386 | else {                                                                 
     2262                   ;----------------------------------------------------------------------
     2263 00000297 50620005         ldiu      5,r2
     2264 00000298 5000000b         ldiu      fp,r0
     2265 00000299 50630001         ldiu      1,r3
     2266 0000029a 50610090         ldiu      144,r1
     2267 0000029b 0f220000         push      r2
     2268 0000029c 02600097         addi      151,r0
TMS320C3x/4x COFF AssemblerVersion 5.11     Fri Sep 17 14:23:57 2010
Copyright (c) 1987-1999 Texas Instruments Incorporatedc:\lang\tms320c3x\511\bin\asm30.exe -l led_download.asm led_download.obj -tC:\Users\jds\AppData\Local\Temp\led_download.tmp 

led_download.asm                                                     PAGE   43

     2269 0000029d 0f230000         push      r3
     2270 0000029e 0f210000         push      r1
     2271 0000029f 0f200000         push      r0
     2272 000002a0 62000000!        call      _Delay_SCC2_SendTo
     2273                                                           ; Call Occurs
     2274 000002a1 18740004         subi      4,sp
     2275 000002a2 6a000008         bu        L106
     2276                   ;*      Branch Occurs to L106 
     2277                           .line   29
     2278                   ;----------------------------------------------------------------------
     2279                   ; 387 | Delay_SCC2_SendTo(sDataTextBuf,144,SCC_A_CHANNEL,5);                   
     2280                   ;----------------------------------------------------------------------
     2281 000002a3          L105:        
     2282 000002a3 50620090         ldiu      144,r2
     2283 000002a4 0f230000         push      r3
     2284 000002a5 02600097         addi      151,r0
     2285 000002a6 0f210000         push      r1
     2286 000002a7 0f220000         push      r2
     2287 000002a8 0f200000         push      r0
     2288 000002a9 62000000!        call      _Delay_SCC2_SendTo
     2289                                                           ; Call Occurs
     2290 000002aa 18740004         subi      4,sp
     2291 000002ab          L106:        
     2292                           .line   32
     2293                   ;----------------------------------------------------------------------
     2294                   ; 390 | if(DWORD_MASKING(nBlkNum*128) >= DWORD_MASKING(nLedDataLoad.nDataSize))
     2295                   ;----------------------------------------------------------------------
     2296 000002ab 50400b02         ldiu      *-fp(2),r0
     2297 000002ac 0ae00080         mpyi      128,r0
     2298 000002ad 04a00073-        cmpi      @_nLedDataLoad+19,r0
     2299 000002ae 6a010006         blo       L108
     2300                   ;*      Branch Occurs to L108 
     2301                           .line   34
     2302                   ;----------------------------------------------------------------------
     2303                   ; 392 | nLedDataLoad.nDataDownFlag = FALSE;                                    
     2304                   ;----------------------------------------------------------------------
     2305 000002af 50600000         ldiu      0,r0
     2306 000002b0 1520006e-        sti       r0,@_nLedDataLoad+14
     2307                           .line   35
     2308                   ;----------------------------------------------------------------------
     2309                   ; 393 | nLedDataLoad.nDataSDRFlag = TRUE;                                      
     2310                   ;----------------------------------------------------------------------
     2311 000002b1 50600001         ldiu      1,r0
     2312 000002b2 15200072-        sti       r0,@_nLedDataLoad+18
     2313                           .line   36
     2314                   ;----------------------------------------------------------------------
     2315                   ; 394 | nLedDataLoad.nDataSize = 0;                                            
     2316                   ; 395 | //nLedDataLoad.nDataTxCnt = 0;                                         
     2317                   ;----------------------------------------------------------------------
     2318 000002b3 50600000         ldiu      0,r0
     2319 000002b4 15200073-        sti       r0,@_nLedDataLoad+19
     2320 000002b5          L108:        
     2321                           .line   39
     2322 000002b5 50530b01         ldiu      *-fp(1),bk
TMS320C3x/4x COFF AssemblerVersion 5.11     Fri Sep 17 14:23:57 2010
Copyright (c) 1987-1999 Texas Instruments Incorporatedc:\lang\tms320c3x\511\bin\asm30.exe -l led_download.asm led_download.obj -tC:\Users\jds\AppData\Local\Temp\led_download.tmp 

led_download.asm                                                     PAGE   44

     2323 000002b6 504bc300         ldiu      *fp,fp
     2324 000002b7 18740130         subi      304,sp
     2325 000002b8 68000013         bu        bk
     2326                   ;*      Branch Occurs to bk 
     2327                           .endfunc        397,000000000h,302
     2328                   
     2329                   
     2330 000002b9                  .sect    ".text"
     2331                   
     2332                           .global _LED_DataSDR
     2333                           .sym    _LED_DataSDR,_LED_DataSDR,32,2,0
     2334                           .func   399
     2335                   ;******************************************************************************
     2336                   ;* FUNCTION NAME: _LED_DataSDR                                                *
     2337                   ;*                                                                            *
     2338                   ;*   Architecture       : TMS320C30                                           *
     2339                   ;*   Calling Convention : Stack Parameter Convention                          *
     2340                   ;*   Function Uses Regs : r0,r1,r2,r3,ar0,fp,ir0,bk,sp,st,rs,re,rc            *
     2341                   ;*   Regs Saved         :                                                     *
     2342                   ;*   Stack Frame        : Full (w/ debug)                                     *
     2343                   ;*   Total Frame Size   : 2 Call + 2 Parm + 55 Auto + 0 SOE = 59 words        *
     2344                   ;******************************************************************************
     2345 000002b9          _LED_DataSDR:
     2346                           .sym    _pDataBuf,-2,28,9,32
     2347                           .sym    _sUnitCnt,-3,12,9,32
     2348                           .sym    _i,1,12,1,32
     2349                           .sym    _sSelf_RxData_Buf,2,60,1,800,,25
     2350                           .sym    _sSelf_Tx_Buf,27,60,1,800,,25
     2351                           .sym    _sPoinData,52,12,1,32
     2352                           .sym    _sDataBlt1,53,12,1,32
     2353                           .sym    _sDataBlt2,54,12,1,32
     2354                           .sym    _sErBlkPoint,55,12,1,32
     2355                           .line   1
     2356                   ;----------------------------------------------------------------------
     2357                   ; 399 | void LED_DataSDR(UCHAR *pDataBuf,UCHAR sUnitCnt)                       
     2358                   ;----------------------------------------------------------------------
     2359 000002b9 0f2b0000         push      fp
     2360 000002ba 500b0014         ldiu      sp,fp
     2361 000002bb 02740037         addi      55,sp
     2362                           .line   2
     2363                   ;----------------------------------------------------------------------
     2364                   ; 401 | UCHAR i;                                                               
     2365                   ; 402 | UCHAR sSelf_RxData_Buf[25];                                            
     2366                   ; 403 | UCHAR sSelf_Tx_Buf[25];                                                
     2367                   ; 404 | UCHAR sPoinData;                                                       
     2368                   ; 405 | UCHAR sDataBlt1,sDataBlt2;                                             
     2369                   ;----------------------------------------------------------------------
     2370                           .line   8
     2371                   ;----------------------------------------------------------------------
     2372                   ; 406 | UCHAR sErBlkPoint = 30720; //삭제 한 블럭 갯수.                        
     2373                   ;----------------------------------------------------------------------
     2374 000002bc 50607800         ldiu      30720,r0
     2375 000002bd 15400337         sti       r0,*+fp(55)
     2376                           .line   10
TMS320C3x/4x COFF AssemblerVersion 5.11     Fri Sep 17 14:23:57 2010
Copyright (c) 1987-1999 Texas Instruments Incorporatedc:\lang\tms320c3x\511\bin\asm30.exe -l led_download.asm led_download.obj -tC:\Users\jds\AppData\Local\Temp\led_download.tmp 

led_download.asm                                                     PAGE   45

     2377                   ;----------------------------------------------------------------------
     2378                   ; 408 | nLED_Time_Change = 200;                                                
     2379                   ;----------------------------------------------------------------------
     2380 000002be 506000c8         ldiu      200,r0
     2381 000002bf 15200001-        sti       r0,@_nLED_Time_Change+0
     2382                           .line   12
     2383                   ;----------------------------------------------------------------------
     2384                   ; 410 | if(nLedDataLoad.nFDD_DATA_Selt) //데이타 다운로드 기능일 경우 블럭 번호
     2385                   ;     | 가 바뀐다.                                                             
     2386                   ;----------------------------------------------------------------------
     2387 000002c0 08200064-        ldi       @_nLedDataLoad+4,r0
     2388 000002c1 6a050002         beq       L112
     2389                   ;*      Branch Occurs to L112 
     2390                           .line   14
     2391                   ;----------------------------------------------------------------------
     2392                   ; 412 | sErBlkPoint = 0;                                                       
     2393                   ;----------------------------------------------------------------------
     2394 000002c2 50600000         ldiu      0,r0
     2395 000002c3 15400337         sti       r0,*+fp(55)
     2396 000002c4          L112:        
     2397                           .line   17
     2398                   ;----------------------------------------------------------------------
     2399                   ; 415 | if(nLedDataLoad.nIDDSelt)                                              
     2400                   ;----------------------------------------------------------------------
     2401 000002c4 08200062-        ldi       @_nLedDataLoad+2,r0
     2402 000002c5 6a050002         beq       L114
     2403                   ;*      Branch Occurs to L114 
     2404                           .line   19
     2405                   ;----------------------------------------------------------------------
     2406                   ; 417 | sErBlkPoint = 32256;                                                   
     2407                   ;----------------------------------------------------------------------
     2408 000002c6 50607e00         ldiu      32256,r0
     2409 000002c7 15400337         sti       r0,*+fp(55)
     2410 000002c8          L114:        
     2411                           .line   22
     2412                   ;----------------------------------------------------------------------
     2413                   ; 420 | sDataBlt1 = sErBlkPoint;                                               
     2414                   ;----------------------------------------------------------------------
     2415 000002c8 50400337         ldiu      *+fp(55),r0
     2416 000002c9 15400335         sti       r0,*+fp(53)
     2417                           .line   23
     2418                   ;----------------------------------------------------------------------
     2419                   ; 421 | sDataBlt2 = (nLedDataLoad.nDataTxCnt-1) + sErBlkPoint;                 
     2420                   ;----------------------------------------------------------------------
     2421 000002ca 02200074-        addi      @_nLedDataLoad+20,r0  ; Unsigned
     2422 000002cb 18600001         subi      1,r0                  ; Unsigned
     2423 000002cc 15400336         sti       r0,*+fp(54)
     2424                           .line   25
     2425                   ;----------------------------------------------------------------------
     2426                   ; 423 | memcpy(sSelf_RxData_Buf,nSelf_Test.nSELF_DownLoad_RxBuf,nSelf_Test.nSEL
     2427                   ;     | F_DownLoad_UnitCnt);                                                   
     2428                   ;----------------------------------------------------------------------
     2429 000002cd 502200b4!        ldiu      @_nSelf_Test+180,r2
     2430 000002ce 50210078-        ldiu      @CL2,r1
TMS320C3x/4x COFF AssemblerVersion 5.11     Fri Sep 17 14:23:57 2010
Copyright (c) 1987-1999 Texas Instruments Incorporatedc:\lang\tms320c3x\511\bin\asm30.exe -l led_download.asm led_download.obj -tC:\Users\jds\AppData\Local\Temp\led_download.tmp 

led_download.asm                                                     PAGE   46

     2431 000002cf 0f220000         push      r2
     2432 000002d0 5000000b         ldiu      fp,r0
     2433 000002d1 0f210000         push      r1
     2434 000002d2 02600002         addi      2,r0
     2435 000002d3 0f200000         push      r0
     2436 000002d4 62000000!        call      _memcpy
     2437                                                           ; Call Occurs
     2438 000002d5 18740003         subi      3,sp
     2439                           .line   27
     2440                   ;----------------------------------------------------------------------
     2441                   ; 425 | if(WORD_L(nLedDataLoad.nDataRepetCnt) > 5)      //5회 이상 이면 NG처리
     2442                   ;     | 構 다음으로 넘어 간다.                                                
     2443                   ;----------------------------------------------------------------------
     2444 000002d6 506000ff         ldiu      255,r0
     2445 000002d7 02a00071-        and       @_nLedDataLoad+17,r0
     2446 000002d8 04e00005         cmpi      5,r0
     2447 000002d9 6a020008         bls       L116
     2448                   ;*      Branch Occurs to L116 
     2449                           .line   29
     2450                   ;----------------------------------------------------------------------
     2451                   ; 427 | nSelf_Test.nSELF_DownLoad_RxBuf[nSelf_Test.nSELF_TX_Cnt] = 1;          
     2452                   ;----------------------------------------------------------------------
     2453 000002da 503100b5!        ldiu      @_nSelf_Test+181,ir0
     2454 000002db 50280078-        ldiu      @CL2,ar0
     2455 000002dc 50600001         ldiu      1,r0
     2456 000002dd 15404000         sti       r0,*+ar0(ir0)
     2457                           .line   30
     2458                   ;----------------------------------------------------------------------
     2459                   ; 428 | nSelf_Test.nSELF_TX_Cnt++;                                             
     2460                   ;----------------------------------------------------------------------
     2461 000002de 022000b5!        addi      @_nSelf_Test+181,r0   ; Unsigned
     2462 000002df 152000b5!        sti       r0,@_nSelf_Test+181
     2463                           .line   31
     2464                   ;----------------------------------------------------------------------
     2465                   ; 429 | nLedDataLoad.nDataRepetCnt = 0;                                        
     2466                   ;----------------------------------------------------------------------
     2467 000002e0 50600000         ldiu      0,r0
     2468 000002e1 15200071-        sti       r0,@_nLedDataLoad+17
     2469 000002e2          L116:        
     2470                           .line   34
     2471                   ;----------------------------------------------------------------------
     2472                   ; 432 | for(i = WORD_L(nSelf_Test.nSELF_TX_Cnt);i<(sUnitCnt);i++)              
     2473                   ;----------------------------------------------------------------------
     2474 000002e2 506000ff         ldiu      255,r0
     2475 000002e3 02a000b5!        and       @_nSelf_Test+181,r0
     2476 000002e4 15400301         sti       r0,*+fp(1)
     2477 000002e5 04c00b03         cmpi      *-fp(3),r0
     2478 000002e6 6a040011         bhs       L121
     2479                   ;*      Branch Occurs to L121 
     2480 000002e7          L117:        
     2481                           .line   36
     2482                   ;----------------------------------------------------------------------
     2483                   ; 434 | if(!WORD_L(sSelf_RxData_Buf[i]))                                       
     2484                   ;----------------------------------------------------------------------
TMS320C3x/4x COFF AssemblerVersion 5.11     Fri Sep 17 14:23:57 2010
Copyright (c) 1987-1999 Texas Instruments Incorporatedc:\lang\tms320c3x\511\bin\asm30.exe -l led_download.asm led_download.obj -tC:\Users\jds\AppData\Local\Temp\led_download.tmp 

led_download.asm                                                     PAGE   47

     2485 000002e7 5008000b         ldiu      fp,ar0
     2486 000002e8 50510301         ldiu      *+fp(1),ir0
     2487 000002e9 02680002         addi      2,ar0
     2488 000002ea 506000ff         ldiu      255,r0
     2489 000002eb 27c00040         tstb3     *+ar0(ir0),r0
     2490 000002ec 6a060003         bne       L120
     2491                   ;*      Branch Occurs to L120 
     2492                           .line   38
     2493                   ;----------------------------------------------------------------------
     2494                   ; 436 | sPoinData = i;                                                         
     2495                   ;----------------------------------------------------------------------
     2496 000002ed 50400301         ldiu      *+fp(1),r0
     2497 000002ee 15400334         sti       r0,*+fp(52)
     2498                           .line   39
     2499                   ;----------------------------------------------------------------------
     2500                   ; 437 | break;                                                                 
     2501                   ;----------------------------------------------------------------------
     2502 000002ef 6a000008         bu        L121
     2503                   ;*      Branch Occurs to L121 
     2504 000002f0          L120:        
     2505                           .line   41
     2506                   ;----------------------------------------------------------------------
     2507                   ; 439 | else {nSelf_Test.nSELF_TX_Cnt++;}                                      
     2508                   ;----------------------------------------------------------------------
     2509 000002f0 50600001         ldiu      1,r0
     2510 000002f1 022000b5!        addi      @_nSelf_Test+181,r0   ; Unsigned
     2511 000002f2 152000b5!        sti       r0,@_nSelf_Test+181
     2512                           .line   34
     2513 000002f3 50600001         ldiu      1,r0
     2514 000002f4 02400301         addi      *+fp(1),r0            ; Unsigned
     2515 000002f5 15400301         sti       r0,*+fp(1)
     2516 000002f6 04c00b03         cmpi      *-fp(3),r0
     2517 000002f7 6a01ffef         blo       L117
     2518                   ;*      Branch Occurs to L117 
     2519 000002f8          L121:        
     2520                           .line   44
     2521                   ;----------------------------------------------------------------------
     2522                   ; 442 | if(nSelf_Test.nSELF_TX_Cnt >= sUnitCnt)                                
     2523                   ;----------------------------------------------------------------------
     2524 000002f8 502000b5!        ldiu      @_nSelf_Test+181,r0
     2525 000002f9 04c00b03         cmpi      *-fp(3),r0
     2526 000002fa 6a010045         blo       L128
     2527                   ;*      Branch Occurs to L128 
     2528                           .line   46
     2529                   ;----------------------------------------------------------------------
     2530                   ; 444 | nLedDataLoad.nDataSDRFlag = FALSE;                                     
     2531                   ;----------------------------------------------------------------------
     2532 000002fb 50600000         ldiu      0,r0
     2533 000002fc 15200072-        sti       r0,@_nLedDataLoad+18
     2534                           .line   47
     2535                   ;----------------------------------------------------------------------
     2536                   ; 445 | nLedDataLoad.nDataTxCnt = 0;                                           
     2537                   ;----------------------------------------------------------------------
     2538 000002fd 15200074-        sti       r0,@_nLedDataLoad+20
TMS320C3x/4x COFF AssemblerVersion 5.11     Fri Sep 17 14:23:57 2010
Copyright (c) 1987-1999 Texas Instruments Incorporatedc:\lang\tms320c3x\511\bin\asm30.exe -l led_download.asm led_download.obj -tC:\Users\jds\AppData\Local\Temp\led_download.tmp 

led_download.asm                                                     PAGE   48

     2539                           .line   48
     2540                   ;----------------------------------------------------------------------
     2541                   ; 446 | nLedDataLoad.nDataRepetCnt = 0;                                        
     2542                   ;----------------------------------------------------------------------
     2543 000002fe 15200071-        sti       r0,@_nLedDataLoad+17
     2544                           .line   49
     2545                   ;----------------------------------------------------------------------
     2546                   ; 447 | nLedDataLoad.nDataRepetNum = 0;                                        
     2547                   ;----------------------------------------------------------------------
     2548 000002ff 15200070-        sti       r0,@_nLedDataLoad+16
     2549                           .line   51
     2550                   ;----------------------------------------------------------------------
     2551                   ; 449 | gpLED_UPLOAD_DABUTOFF;                                                 
     2552                   ; 451 | //gpLED_UPLOAD_ERBUT_SF_ON;                                            
     2553                   ; 452 | //gpLED_UPLOAD_DABUT_SF_ON;                                            
     2554                   ;----------------------------------------------------------------------
     2555 00000300 50610000         ldiu      0,r1
     2556 00000301 0f210000         push      r1
     2557 00000302 506002bd         ldiu      701,r0
     2558 00000303 0f200000         push      r0
     2559 00000304 62000000!        call      _gp_WritingWord
     2560                                                           ; Call Occurs
     2561 00000305 18740002         subi      2,sp
     2562                           .line   55
     2563                   ;----------------------------------------------------------------------
     2564                   ; 453 | gpROOTEN;                                                              
     2565                   ;----------------------------------------------------------------------
     2566 00000306 50610001         ldiu      1,r1
     2567 00000307 50600039         ldiu      57,r0
     2568 00000308 0f210000         push      r1
     2569 00000309 0f200000         push      r0
     2570 0000030a 62000000!        call      _gp_WritingWord
     2571                                                           ; Call Occurs
     2572 0000030b 18740002         subi      2,sp
     2573                           .line   57
     2574                   ;----------------------------------------------------------------------
     2575                   ; 455 | SCC_TX_PROTOCOL(sSelf_Tx_Buf,nLedDataLoad.nSFKindCode,0x31,0x0B,0,0x00,
     2576                   ;     | 0x00,0,0,10);                                                          
     2577                   ;----------------------------------------------------------------------
     2578 0000030c 50620000         ldiu      0,r2
     2579 0000030d 5060000a         ldiu      10,r0
     2580 0000030e 0f200000         push      r0
     2581 0000030f 50610000         ldiu      0,r1
     2582 00000310 0f220000         push      r2
     2583 00000311 507a0000         ldiu      0,re
     2584 00000312 50600000         ldiu      0,r0
     2585 00000313 0f3a0000         push      re
     2586 00000314 0f200000         push      r0
     2587 00000315 5063000b         ldiu      11,r3
     2588 00000316 0f210000         push      r1
     2589 00000317 0f220000         push      r2
     2590 00000318 50790031         ldiu      49,rs
     2591 00000319 0f230000         push      r3
     2592 0000031a 0f390000         push      rs
TMS320C3x/4x COFF AssemblerVersion 5.11     Fri Sep 17 14:23:57 2010
Copyright (c) 1987-1999 Texas Instruments Incorporatedc:\lang\tms320c3x\511\bin\asm30.exe -l led_download.asm led_download.obj -tC:\Users\jds\AppData\Local\Temp\led_download.tmp 

led_download.asm                                                     PAGE   49

     2593 0000031b 50210065-        ldiu      @_nLedDataLoad+5,r1
     2594 0000031c 0f210000         push      r1
     2595 0000031d 5000000b         ldiu      fp,r0
     2596 0000031e 0260001b         addi      27,r0
     2597 0000031f 0f200000         push      r0
     2598 00000320 62000000!        call      _SCC_TX_PROTOCOL
     2599                                                           ; Call Occurs
     2600 00000321 1874000a         subi      10,sp
     2601                           .line   59
     2602                   ;----------------------------------------------------------------------
     2603                   ; 457 | if(nLedDataLoad.nRNDSelt || nLedDataLoad.nFDDSelt || nLedDataLoad.nTNDS
     2604                   ;     | elt ) //다운로드 기능중 차내 빼고는 "B"채널로 보낸다.                  
     2605                   ;----------------------------------------------------------------------
     2606 00000322 08200060-        ldi       @_nLedDataLoad+0,r0
     2607 00000323 6a060007         bne       L125
     2608                   ;*      Branch Occurs to L125 
     2609 00000324 08200061-        ldi       @_nLedDataLoad+1,r0
     2610 00000325 6a060005         bne       L125
     2611                   ;*      Branch Occurs to L125 
     2612 00000326 08200063-        ldi       @_nLedDataLoad+3,r0
     2613 00000327 6a25000d         beqd      L127
     2614 00000328 52e10005         ldieq     5,r1
     2615 00000329 5280000b         ldieq     fp,r0
     2616 0000032a 52e20000         ldieq     0,r2
     2617                   ;*      Branch Occurs to L127 
     2618 0000032b          L125:        
     2619                           .line   61
     2620                   ;----------------------------------------------------------------------
     2621                   ; 459 | Delay_SCC2_SendTo(sSelf_Tx_Buf,20,SCC_B_CHANNEL,5);                    
     2622                   ; 461 | else {                                                                 
     2623                   ;----------------------------------------------------------------------
     2624 0000032b 50620005         ldiu      5,r2
     2625 0000032c 5000000b         ldiu      fp,r0
     2626 0000032d 50610001         ldiu      1,r1
     2627 0000032e 50630014         ldiu      20,r3
     2628 0000032f 0f220000         push      r2
     2629 00000330 0260001b         addi      27,r0
     2630 00000331 0f210000         push      r1
     2631 00000332 0f230000         push      r3
     2632 00000333 0f200000         push      r0
     2633 00000334 62000000!        call      _Delay_SCC2_SendTo
     2634                                                           ; Call Occurs
     2635 00000335 18740004         subi      4,sp
     2636 00000336 6a00003f         bu        L134
     2637                   ;*      Branch Occurs to L134 
     2638                           .line   64
     2639                   ;----------------------------------------------------------------------
     2640                   ; 462 | Delay_SCC2_SendTo(sSelf_Tx_Buf,20,SCC_A_CHANNEL,5);                    
     2641                   ; 468 | else                                                                   
     2642                   ;----------------------------------------------------------------------
     2643 00000337          L127:        
     2644 00000337 50630014         ldiu      20,r3
     2645 00000338 0f210000         push      r1
     2646 00000339 0260001b         addi      27,r0
TMS320C3x/4x COFF AssemblerVersion 5.11     Fri Sep 17 14:23:57 2010
Copyright (c) 1987-1999 Texas Instruments Incorporatedc:\lang\tms320c3x\511\bin\asm30.exe -l led_download.asm led_download.obj -tC:\Users\jds\AppData\Local\Temp\led_download.tmp 

led_download.asm                                                     PAGE   50

     2647 0000033a 0f220000         push      r2
     2648 0000033b 0f230000         push      r3
     2649 0000033c 0f200000         push      r0
     2650 0000033d 62000000!        call      _Delay_SCC2_SendTo
     2651                                                           ; Call Occurs
     2652 0000033e 18740004         subi      4,sp
     2653 0000033f 6a000036         bu        L134
     2654                   ;*      Branch Occurs to L134 
     2655 00000340          L128:        
     2656                           .line   73
     2657                   ;----------------------------------------------------------------------
     2658                   ; 471 | SCC_TX_PROTOCOL(sSelf_Tx_Buf,pDataBuf[sPoinData],0x31,0x07,0,0x20,0x00,
     2659                   ;     | sDataBlt1,sDataBlt2,10);                                               
     2660                   ;----------------------------------------------------------------------
     2661 00000340 50510b02         ldiu      *-fp(2),ir0
     2662 00000341 50480334         ldiu      *+fp(52),ar0
     2663 00000342 5060000a         ldiu      10,r0
     2664 00000343 50790000         ldiu      0,rs
     2665 00000344 50630020         ldiu      32,r3
     2666 00000345 50620000         ldiu      0,r2
     2667 00000346 507b0007         ldiu      7,rc
     2668 00000347 50414000         ldiu      *+ar0(ir0),r1
     2669 00000348 50730031         ldiu      49,bk
     2670 00000349 0f200000         push      r0
     2671 0000034a 50400336         ldiu      *+fp(54),r0
     2672 0000034b 0f200000         push      r0
     2673 0000034c 505a0335         ldiu      *+fp(53),re
     2674 0000034d 5000000b         ldiu      fp,r0
     2675 0000034e 0f3a0000         push      re
     2676 0000034f 0f390000         push      rs
     2677 00000350 0260001b         addi      27,r0
     2678 00000351 0f230000         push      r3
     2679 00000352 0f220000         push      r2
     2680 00000353 0f3b0000         push      rc
     2681 00000354 0f330000         push      bk
     2682 00000355 0f210000         push      r1
     2683 00000356 0f200000         push      r0
     2684 00000357 62000000!        call      _SCC_TX_PROTOCOL
     2685                                                           ; Call Occurs
     2686 00000358 1874000a         subi      10,sp
     2687                           .line   75
     2688                   ;----------------------------------------------------------------------
     2689                   ; 473 | if(nLedDataLoad.nRNDSelt || nLedDataLoad.nFDDSelt || nLedDataLoad.nTNDS
     2690                   ;     | elt ) //다운로드 기능중 차내 빼고는 "B"채널로 보낸다.                  
     2691                   ;----------------------------------------------------------------------
     2692 00000359 08200060-        ldi       @_nLedDataLoad+0,r0
     2693 0000035a 6a060007         bne       L131
     2694                   ;*      Branch Occurs to L131 
     2695 0000035b 08200061-        ldi       @_nLedDataLoad+1,r0
     2696 0000035c 6a060005         bne       L131
     2697                   ;*      Branch Occurs to L131 
     2698 0000035d 08200063-        ldi       @_nLedDataLoad+3,r0
     2699 0000035e 6a25000d         beqd      L133
     2700 0000035f 52e20005         ldieq     5,r2
TMS320C3x/4x COFF AssemblerVersion 5.11     Fri Sep 17 14:23:57 2010
Copyright (c) 1987-1999 Texas Instruments Incorporatedc:\lang\tms320c3x\511\bin\asm30.exe -l led_download.asm led_download.obj -tC:\Users\jds\AppData\Local\Temp\led_download.tmp 

led_download.asm                                                     PAGE   51

     2701 00000360 5280000b         ldieq     fp,r0
     2702 00000361 52e30000         ldieq     0,r3
     2703                   ;*      Branch Occurs to L133 
     2704 00000362          L131:        
     2705                           .line   77
     2706                   ;----------------------------------------------------------------------
     2707                   ; 475 | Delay_SCC2_SendTo(sSelf_Tx_Buf,20,SCC_B_CHANNEL,5);                    
     2708                   ; 477 | else {                                                                 
     2709                   ;----------------------------------------------------------------------
     2710 00000362 50610005         ldiu      5,r1
     2711 00000363 5000000b         ldiu      fp,r0
     2712 00000364 50620001         ldiu      1,r2
     2713 00000365 50630014         ldiu      20,r3
     2714 00000366 0f210000         push      r1
     2715 00000367 0260001b         addi      27,r0
     2716 00000368 0f220000         push      r2
     2717 00000369 0f230000         push      r3
     2718 0000036a 0f200000         push      r0
     2719 0000036b 62000000!        call      _Delay_SCC2_SendTo
     2720                                                           ; Call Occurs
     2721 0000036c 18740004         subi      4,sp
     2722 0000036d 6a000008         bu        L134
     2723                   ;*      Branch Occurs to L134 
     2724                           .line   80
     2725                   ;----------------------------------------------------------------------
     2726                   ; 478 | Delay_SCC2_SendTo(sSelf_Tx_Buf,20,SCC_A_CHANNEL,5);                    
     2727                   ;----------------------------------------------------------------------
     2728 0000036e          L133:        
     2729 0000036e 50610014         ldiu      20,r1
     2730 0000036f 0f220000         push      r2
     2731 00000370 0260001b         addi      27,r0
     2732 00000371 0f230000         push      r3
     2733 00000372 0f210000         push      r1
     2734 00000373 0f200000         push      r0
     2735 00000374 62000000!        call      _Delay_SCC2_SendTo
     2736                                                           ; Call Occurs
     2737 00000375 18740004         subi      4,sp
     2738 00000376          L134:        
     2739                           .line   87
     2740                   ;----------------------------------------------------------------------
     2741                   ; 485 | nLedDataLoad.nDataRepetCnt++;                                          
     2742                   ;----------------------------------------------------------------------
     2743 00000376 50600001         ldiu      1,r0
     2744 00000377 02200071-        addi      @_nLedDataLoad+17,r0  ; Unsigned
     2745 00000378 15200071-        sti       r0,@_nLedDataLoad+17
     2746                           .line   90
     2747 00000379 50530b01         ldiu      *-fp(1),bk
     2748 0000037a 504bc300         ldiu      *fp,fp
     2749 0000037b 18740039         subi      57,sp
     2750 0000037c 68000013         bu        bk
     2751                   ;*      Branch Occurs to bk 
     2752                           .endfunc        488,000000000h,55
     2753                   
     2754                   
TMS320C3x/4x COFF AssemblerVersion 5.11     Fri Sep 17 14:23:57 2010
Copyright (c) 1987-1999 Texas Instruments Incorporatedc:\lang\tms320c3x\511\bin\asm30.exe -l led_download.asm led_download.obj -tC:\Users\jds\AppData\Local\Temp\led_download.tmp 

led_download.asm                                                     PAGE   52

     2755 0000037d                  .sect    ".text"
     2756                   
     2757                           .global _LED_Timer_1ms
     2758                           .sym    _LED_Timer_1ms,_LED_Timer_1ms,32,2,0
     2759                           .func   492
     2760                   ;******************************************************************************
     2761                   ;* FUNCTION NAME: _LED_Timer_1ms                                              *
     2762                   ;*                                                                            *
     2763                   ;*   Architecture       : TMS320C30                                           *
     2764                   ;*   Calling Convention : Stack Parameter Convention                          *
     2765                   ;*   Function Uses Regs : r0,r1,st                                            *
     2766                   ;*   Regs Saved         :                                                     *
     2767                   ;*   Stack Frame        : Full (w/ debug)                                     *
     2768                   ;*   Total Frame Size   : 2 Call + 0 Parm + 0 Auto + 0 SOE = 2 words          *
     2769                   ;******************************************************************************
     2770 0000037d          _LED_Timer_1ms:
     2771                           .line   1
     2772                   ;----------------------------------------------------------------------
     2773                   ; 492 | void LED_Timer_1ms()                                                   
     2774                   ;----------------------------------------------------------------------
     2775 0000037d 0f2b0000         push      fp
     2776 0000037e 500b0014         ldiu      sp,fp
     2777                           .line   3
     2778                   ;----------------------------------------------------------------------
     2779                   ; 494 | nLED_Time_Cnt++;                                                       
     2780                   ;----------------------------------------------------------------------
     2781 0000037f 50600001         ldiu      1,r0
     2782 00000380 02200002-        addi      @_nLED_Time_Cnt+0,r0  ; Unsigned
     2783 00000381 15200002-        sti       r0,@_nLED_Time_Cnt+0
     2784                           .line   4
     2785                   ;----------------------------------------------------------------------
     2786                   ; 495 | if(!(nLED_Time_Cnt%nLED_Time_Change))                                  
     2787                   ;----------------------------------------------------------------------
     2788 00000382 50210001-        ldiu      @_nLED_Time_Change+0,r1
     2789 00000383 62000000!        call      MOD_U30
     2790                                                           ; Call Occurs
     2791 00000384 04e00000         cmpi      0,r0
     2792 00000385 6a060003         bne       L139
     2793                   ;*      Branch Occurs to L139 
     2794                           .line   6
     2795                   ;----------------------------------------------------------------------
     2796                   ; 497 | nLED_Time_Cnt = 1;                                                     
     2797                   ;----------------------------------------------------------------------
     2798 00000386 50600001         ldiu      1,r0
     2799 00000387 15200002-        sti       r0,@_nLED_Time_Cnt+0
     2800                           .line   7
     2801                   ;----------------------------------------------------------------------
     2802                   ; 498 | nLED_200ms_Flag = TRUE;                                                
     2803                   ;----------------------------------------------------------------------
     2804 00000388 15200000-        sti       r0,@_nLED_200ms_Flag+0
     2805 00000389          L139:        
     2806                           .line   10
     2807 00000389 50490b01         ldiu      *-fp(1),ar1
     2808 0000038a 504bc300         ldiu      *fp,fp
TMS320C3x/4x COFF AssemblerVersion 5.11     Fri Sep 17 14:23:57 2010
Copyright (c) 1987-1999 Texas Instruments Incorporatedc:\lang\tms320c3x\511\bin\asm30.exe -l led_download.asm led_download.obj -tC:\Users\jds\AppData\Local\Temp\led_download.tmp 

led_download.asm                                                     PAGE   53

     2809 0000038b 18740002         subi      2,sp
     2810 0000038c 68000009         bu        ar1
     2811                   ;*      Branch Occurs to ar1 
     2812                           .endfunc        501,000000000h,0
     2813                   
     2814                   
     2815                   
     2816                           .global _nLedDataLoad
     2817 00000060                  .bss    _nLedDataLoad,23
     2818                           .sym    _nLedDataLoad,_nLedDataLoad,8,2,736,.fake35
     2819                   ;******************************************************************************
     2820                   ;* CONSTANT TABLE                                                             *
     2821                   ;******************************************************************************
     2822 00000000                  .sect   ".const"
     2823 00000077                  .bss    CL1,1
     2824 00000078                  .bss    CL2,1
     2825 00000079                  .bss    CL3,1
     2826 0000007a                  .bss    CL4,1
     2827 0000007b                  .bss    CL5,1
     2828 0000007c                  .bss    CL6,1
     2829 0000007d                  .bss    CL7,1
     2830 0000007e                  .bss    CL8,1
     2831 0000007f                  .bss    CL9,1
     2832 00000080                  .bss    CL10,1
     2833 00000081                  .bss    CL11,1
     2834                   
     2835 00000066                  .sect   ".cinit"
     2836 00000066 0000000b         .field          11,32
     2837 00000067 00000077-        .field          CL1+0,32
     2838 00000068 00000096!        .field          _nSelf_Test+150,32
     2839 00000069 00000078!        .field          _nSelf_Test+120,32
     2840 0000006a 0000003f-        .field          _DISPLAY_UNIT_FDD,32
     2841 0000006b 00000021-        .field          _DISPLAY_UNIT_RND,32
     2842 0000006c 00000003-        .field          _DISPLAY_UNIT_IDD,32
     2843 0000006d 00000044-        .field          _DISPLAY_UNIT_TND,32
     2844 0000006e 00000049-        .field          .init0$1,32
     2845 0000006f 0000004e-        .field          .init1$2,32
     2846 00000070 00000056-        .field          .init2$3,32
     2847 00000071 0000005b-        .field          .init3$4,32
     2848 00000072 00200000         .field          2097152,32
     2849                   
     2850 0000038d                  .sect   ".text"
     2851                   ;******************************************************************************
     2852                   ;* UNDEFINED EXTERNAL REFERENCES                                              *
     2853                   ;******************************************************************************
     2854                   
     2855                           .global _Delay_SCC2_SendTo
     2856                   
     2857                           .global _SCC_TX_PROTOCOL
     2858                   
     2859                           .global _SCC_Tx_DownLoad_TEXT
     2860                   
     2861                           .global _DP_SelfTest
     2862                   
TMS320C3x/4x COFF AssemblerVersion 5.11     Fri Sep 17 14:23:57 2010
Copyright (c) 1987-1999 Texas Instruments Incorporatedc:\lang\tms320c3x\511\bin\asm30.exe -l led_download.asm led_download.obj -tC:\Users\jds\AppData\Local\Temp\led_download.tmp 

led_download.asm                                                     PAGE   54

     2863                           .global _gp_WritingWord
     2864                   
     2865                           .global _GP_DOWNLOAD_SDR
     2866                   
     2867                           .global _nSelect_Button
     2868                   
     2869                           .global _nSelf_Test
     2870                   
     2871                           .global _SCC2_INIT_A
     2872                           .global MOD_U30
     2873                           .global _memcpy
     2874                           .global _Nvsram_IDC_UpLoad_Da

 No Errors,  No Warnings
