TMS320C3x/4x COFF AssemblerVersion 5.11     Tue Dec  7 12:02:21 2010
Copyright (c) 1987-1999 Texas Instruments Incorporatedc:\lang\tms320c3x\511\bin\asm30.exe -l cf.asm cf.obj -tC:\Users\jds\AppData\Local\Temp\cf.tmp 

cf.asm                                                               PAGE    1

        1                   ;******************************************************************************
        2                   ;* TMS320C3x/4x ANSI C Code Generator                            Version 5.11 *
        3                   ;* Date/Time created: Tue Dec  7 12:02:21 2010                                *
        4                   ;******************************************************************************
        5                           .regalias       ; enable floating point register aliases
        6          0000000b fp      .set    ar3
        7          0000000b FP      .set    ar3
        8                   ;******************************************************************************
        9                   ;* GLOBAL FILE PARAMETERS                                                     *
       10                   ;*                                                                            *
       11                   ;*   Optimization       : Always Choose Smaller Code Size                     *
       12                   ;*   Memory             : Small Memory Model                                  *
       13                   ;*   Float-to-Int       : Normal Conversions (round toward zero)              *
       14                   ;*   Multiply           : in Hardware (24 bits max)                           *
       15                   ;*   Memory Info        : Unmapped Memory Exists                              *
       16                   ;*   Repeat Loops       : Use RPTS and/or RPTB                                *
       17                   ;*   Calls              : Normal Library ASM calls                            *
       18                   ;*   Debug Info         : Optimized TI Debug Information                      *
       19                   ;******************************************************************************
       20                   ;       c:\lang\tms320c3x\511\bin\ac30.exe cf.c C:\Users\jds\AppData\Local\Temp\cf.if 
       21                           .file   "cf.c"
       22                           .file   "def.h"
       23                           .sym    _WORD,0,13,13,32
       24                           .sym    _USHORT,0,13,13,32
       25                           .sym    _BYTE,0,12,13,32
       26                           .sym    _UCHAR,0,12,13,32
       27                           .sym    _UINT,0,14,13,32
       28                           .sym    _BOOL,0,4,13,32
       29                           .sym    _DWORD,0,15,13,32
       30                           .file   "cf.h"
       31                           .stag   .fake0,416
       32                           .member _FileName,0,60,8,256,,8
       33                           .member _ExtName,256,60,8,96,,3
       34                           .member _StartCluster,352,13,8,32
       35                           .member _FileSize,384,13,8,32
       36                           .eos
       37                           .sym    _OPEN_FILE,0,8,13,416,.fake0
       38                           .stag   .fake1,1472
       39                           .member _StationCode,0,12,8,32
       40                           .member _EngName,32,60,8,480,,15
       41                           .member _IranName,512,60,8,960,,30
       42                           .eos
       43                           .sym    _STATION_NAME,0,8,13,1472,.fake1
       44                           .stag   .fake2,1472
       45                           .member _StationCode,0,12,8,32
       46                           .member _EngName,32,60,8,480,,15
       47                           .member _IranName,512,60,8,960,,30
       48                           .eos
       49                           .sym    _STATION_NAME_ALL,0,8,13,1472,.fake2
       50                           .stag   .fake3,96
       51                           .member _nDis_Point,0,15,8,32
       52                           .member _Type,32,12,8,32
       53                           .member _Number,64,12,8,32
       54                           .eos
TMS320C3x/4x COFF AssemblerVersion 5.11     Tue Dec  7 12:02:21 2010
Copyright (c) 1987-1999 Texas Instruments Incorporatedc:\lang\tms320c3x\511\bin\asm30.exe -l cf.asm cf.obj -tC:\Users\jds\AppData\Local\Temp\cf.tmp 

cf.asm                                                               PAGE    2

       55                           .sym    _DISPLAY_INDEX,0,8,13,96,.fake3
       56                           .stag   .fake4,1952
       57                           .member _nDoor,0,12,8,32
       58                           .member _nDisplay_str,32,56,8,1920,.fake3,20
       59                           .eos
       60                           .sym    _DISPLAY_INDEX_NAME,0,8,13,1952,.fake4
       61                           .stag   .fake5,512
       62                           .member _nStationCode,0,12,8,32
       63                           .member _nStationName,32,60,8,480,,15
       64                           .eos
       65                           .sym    _DEST_SET_SCREEN,0,8,13,512,.fake5
       66                           .stag   .fake6,16032
       67                           .member _nScreenNum,0,12,8,32
       68                           .member _nDestSetNum,32,12,8,32
       69                           .member _nDestSetNumRe,64,12,8,32
       70                           .member _nStop_Patten_Num,96,12,8,32
       71                           .member _nTrainClass_Num,128,12,8,32
       72                           .member _nMatchCode,160,60,8,8192,,256
       73                           .member _nDestCodeList,8352,60,8,2560,,80
       74                           .member _nDestScreen,10912,56,8,5120,.fake5,10
       75                           .eos
       76                           .sym    _NVSRAM_VARIABLE,0,8,13,16032,.fake6
       77                           .stag   .fake7,64
       78                           .member _nData_Type,0,12,8,32
       79                           .eos
       80                           .sym    _DATA_TYPE,0,8,13,64,.fake7
       81                           .sym    _PDATA_TYPE,0,24,13,32,.fake7
       82                           .stag   .fake8,160
       83                           .member _nData_Type,0,12,8,32
       84                           .member _nDia_Num,32,60,8,64,,2
       85                           .member _nDia_Type,96,12,8,32
       86                           .member _nTrain_Num_Cnt,128,12,8,32
       87                           .eos
       88                           .sym    _DIA_HEARD,0,8,13,160,.fake8
       89                           .sym    _PDIA_HEARD,0,24,13,32,.fake8
       90                           .stag   .fake9,384
       91                           .member _nTrain_Num,0,60,8,192,,6
       92                           .member _nStop_Pat_Num,192,12,8,32
       93                           .member _nSta_Tim,224,60,8,96,,3
       94                           .member _nTrain_Class,320,12,8,32
       95                           .member _nDestination_Code,352,12,8,32
       96                           .eos
       97                           .sym    _DIA_BODY,0,8,13,384,.fake9
       98                           .sym    _PDIA_BODY,0,24,13,32,.fake9
       99                           .stag   .fake10,4000
      100                           .member _nHead,0,8,8,160,.fake8
      101                           .member _nBody,160,56,8,3840,.fake9,10
      102                           .eos
      103                           .sym    _DIA_HE_BOD_LIST,0,8,13,4000,.fake10
      104                           .stag   .fake11,40000
      105                           .member _nDiaList,0,56,8,40000,.fake10,10
      106                           .eos
      107                           .sym    _DIA_LIST,0,8,13,40000,.fake11
      108                           .sym    _PDIA_LIST,0,24,13,32,.fake11
TMS320C3x/4x COFF AssemblerVersion 5.11     Tue Dec  7 12:02:21 2010
Copyright (c) 1987-1999 Texas Instruments Incorporatedc:\lang\tms320c3x\511\bin\asm30.exe -l cf.asm cf.obj -tC:\Users\jds\AppData\Local\Temp\cf.tmp 

cf.asm                                                               PAGE    3

      109                           .stag   .fake12,1600
      110                           .member _nStationCode,0,12,8,32
      111                           .member _nStation_EngName,32,60,8,480,,15
      112                           .member _nStation_IranName,512,60,8,960,,30
      113                           .member _nRxStationCode,1472,60,8,128,,4
      114                           .eos
      115                           .sym    _STATIONNAMEBODY,0,8,13,1600,.fake12
      116                           .sym    _PSTATIONNAMEBODY,0,24,13,32,.fake12
      117                           .stag   .fake13,160064
      118                           .member _nHead,0,8,8,64,.fake7
      119                           .member _nBody,64,56,8,160000,.fake12,100
      120                           .eos
      121                           .sym    _STATIONNAME,0,8,13,160064,.fake13
      122                           .sym    _PSTATIONNAME,0,24,13,32,.fake13
      123                           .stag   .fake14,64
      124                           .member _nStationCode,0,12,8,32
      125                           .member _nSp,32,12,8,32
      126                           .eos
      127                           .sym    _STOPPATTERN_INDEX,0,8,13,64,.fake14
      128                           .sym    _PSTOPPATTERN_INDEX,0,24,13,32,.fake14
      129                           .stag   .fake15,4032
      130                           .member _nStopPatNum,0,12,8,32
      131                           .member _nDeparture_Code,32,12,8,32
      132                           .member _nArrive_Code,64,12,8,32
      133                           .member _nStation_Count,96,12,8,32
      134                           .member _nDest_Code,128,12,8,32
      135                           .member _nTranClass,160,12,8,32
      136                           .member _nStopPatIndex,192,56,8,3840,.fake14,60
      137                           .eos
      138                           .sym    _STOPPATTERN_BODY,0,8,13,4032,.fake15
      139                           .sym    _PSTOPPATTERN_BODY,0,24,13,32,.fake15
      140                           .stag   .fake16,1209664
      141                           .member _nHead,0,8,8,64,.fake7
      142                           .member _nBody,64,56,8,1209600,.fake15,300
      143                           .eos
      144                           .sym    _STOPPATTERN,0,8,13,1209664,.fake16
      145                           .sym    _PSTOPPATTERN,0,24,13,32,.fake16
      146                           .stag   .fake17,64
      147                           .member _nCount_Code,0,12,8,32
      148                           .member _nStation_Code,32,12,8,32
      149                           .eos
      150                           .sym    _DESTBODY,0,8,13,64,.fake17
      151                           .sym    _PDESTBODY,0,24,13,32,.fake17
      152                           .stag   .fake18,5184
      153                           .member _nHead,0,8,8,64,.fake7
      154                           .member _nBody,64,56,8,5120,.fake17,80
      155                           .eos
      156                           .sym    _DESTCODE,0,8,13,5184,.fake18
      157                           .sym    _PDESTCODE,0,24,13,32,.fake18
      158                           .stag   .fake19,192
      159                           .member _nDisPoint,0,60,8,128,,4
      160                           .member _nTable_Type,128,12,8,32
      161                           .member _nTable_Num,160,12,8,32
      162                           .eos
TMS320C3x/4x COFF AssemblerVersion 5.11     Tue Dec  7 12:02:21 2010
Copyright (c) 1987-1999 Texas Instruments Incorporatedc:\lang\tms320c3x\511\bin\asm30.exe -l cf.asm cf.obj -tC:\Users\jds\AppData\Local\Temp\cf.tmp 

cf.asm                                                               PAGE    4

      163                           .sym    _DISPTEXT,0,8,13,192,.fake19
      164                           .sym    _PDISPTEXT,0,24,13,32,.fake19
      165                           .stag   .fake20,4096
      166                           .member _nDis_Tim_Num,0,12,8,32
      167                           .member _nCurrStation_Code,32,12,8,32
      168                           .member _nNextStation_Code,64,12,8,32
      169                           .member _nTrain_Class,96,12,8,32
      170                           .member _nBetween_Code,128,12,8,32
      171                           .member _nDistan_Code,160,12,8,32
      172                           .member _nDoor_RL,192,12,8,32
      173                           .member _nText,256,56,8,3840,.fake19,20
      174                           .eos
      175                           .sym    _DISPBODY,0,8,13,4096,.fake20
      176                           .sym    _PDISPBODY,0,24,13,32,.fake20
      177                           .stag   .fake21,1228864
      178                           .member _nHead,0,8,8,64,.fake7
      179                           .member _nBody,64,56,8,1228800,.fake20,300
      180                           .eos
      181                           .sym    _DISP,0,8,13,1228864,.fake21
      182                           .sym    _PDISP,0,24,13,32,.fake21
      183                           .stag   .fake22,9600
      184                           .member _nImCheck,0,12,8,32
      185                           .member _nImNum,32,12,8,32
      186                           .member _nImText,64,60,8,9536,,298
      187                           .eos
      188                           .sym    _IMTEXTBODY,0,8,13,9600,.fake22
      189                           .sym    _PIMTEXTBODY,0,24,13,32,.fake22
      190                           .stag   .fake23,960064
      191                           .member _nHead,0,8,8,64,.fake7
      192                           .member _nBody,64,56,8,960000,.fake22,100
      193                           .eos
      194                           .sym    _IMTEXT,0,8,13,960064,.fake23
      195                           .sym    _PIMTEXT,0,24,13,32,.fake23
      196                           .stag   .fake24,16000
      197                           .member _nPrCheck,0,12,8,32
      198                           .member _nPrNum,32,12,8,32
      199                           .member _nPrText,64,60,8,15936,,498
      200                           .eos
      201                           .sym    _PRTEXTBODY,0,8,13,16000,.fake24
      202                           .sym    _PPRTEXTBODY,0,24,13,32,.fake24
      203                           .stag   .fake25,960064
      204                           .member _nHead,0,8,8,64,.fake7
      205                           .member _nBody,64,56,8,960000,.fake24,60
      206                           .eos
      207                           .sym    _PRTEXT,0,8,13,960064,.fake25
      208                           .sym    _PPRTEXT,0,24,13,32,.fake25
      209                           .file   "main.h"
      210                           .file   "cf.c"
      211                   
      212 00000000                  .sect   ".cinit"
      213 00000000 00000001         .field          1,32
      214 00000001 00000000-        .field          _glHeader+0,32
      215 00000002 00000000         .field          0,32            ; _glHeader @ 0
      216                   
TMS320C3x/4x COFF AssemblerVersion 5.11     Tue Dec  7 12:02:21 2010
Copyright (c) 1987-1999 Texas Instruments Incorporatedc:\lang\tms320c3x\511\bin\asm30.exe -l cf.asm cf.obj -tC:\Users\jds\AppData\Local\Temp\cf.tmp 

cf.asm                                                               PAGE    5

      217 00000000                  .sect   ".text"
      218                   
      219                           .global _glHeader
      220 00000000                  .bss    _glHeader,1
      221                           .sym    _glHeader,_glHeader,13,2,32
      222                   
      223 00000003                  .sect   ".cinit"
      224 00000003 00000001         .field          1,32
      225 00000004 00000001-        .field          _glSectPerTrack+0,32
      226 00000005 00000000         .field          0,32            ; _glSectPerTrack @ 0
      227                   
      228 00000000                  .sect   ".text"
      229                   
      230                           .global _glSectPerTrack
      231 00000001                  .bss    _glSectPerTrack,1
      232                           .sym    _glSectPerTrack,_glSectPerTrack,13,2,32
      233                   
      234 00000006                  .sect   ".cinit"
      235 00000006 00000001         .field          1,32
      236 00000007 00000002-        .field          _glDiskFail+0,32
      237 00000008 00000000         .field          0,32            ; _glDiskFail @ 0
      238                   
      239 00000000                  .sect   ".text"
      240                   
      241                           .global _glDiskFail
      242 00000002                  .bss    _glDiskFail,1
      243                           .sym    _glDiskFail,_glDiskFail,13,2,32
      244                   
      245 00000009                  .sect   ".cinit"
      246 00000009 00000001         .field          1,32
      247 0000000a 00000003-        .field          _glSectorStartOffset+0,32
      248 0000000b 00000000         .field          0,32            ; _glSectorStartOffset @ 0
      249                   
      250 00000000                  .sect   ".text"
      251                   
      252                           .global _glSectorStartOffset
      253 00000003                  .bss    _glSectorStartOffset,1
      254                           .sym    _glSectorStartOffset,_glSectorStartOffset,4,2,32
      255                   
      256 0000000c                  .sect   ".cinit"
      257 0000000c 00000001         .field          1,32
      258 0000000d 00000004-        .field          _m_FileSize+0,32
      259 0000000e 00000000         .field          0,32            ; _m_FileSize @ 0
      260                   
      261 00000000                  .sect   ".text"
      262                   
      263                           .global _m_FileSize
      264 00000004                  .bss    _m_FileSize,1
      265                           .sym    _m_FileSize,_m_FileSize,12,2,32
      266                   
      267 0000000f                  .sect   ".cinit"
      268 0000000f 00000001         .field          1,32
      269 00000010 00000005-        .field          _glStartCluster+0,32
      270 00000011 00000000         .field          0,32            ; _glStartCluster @ 0
TMS320C3x/4x COFF AssemblerVersion 5.11     Tue Dec  7 12:02:21 2010
Copyright (c) 1987-1999 Texas Instruments Incorporatedc:\lang\tms320c3x\511\bin\asm30.exe -l cf.asm cf.obj -tC:\Users\jds\AppData\Local\Temp\cf.tmp 

cf.asm                                                               PAGE    6

      271                   
      272 00000000                  .sect   ".text"
      273                   
      274                           .global _glStartCluster
      275 00000005                  .bss    _glStartCluster,1
      276                           .sym    _glStartCluster,_glStartCluster,13,2,32
      277                   
      278 00000012                  .sect   ".cinit"
      279 00000012 00000001         .field          1,32
      280 00000013 00000006-        .field          _glTotalClusterCnt+0,32
      281 00000014 00000000         .field          0,32            ; _glTotalClusterCnt @ 0
      282                   
      283 00000000                  .sect   ".text"
      284                   
      285                           .global _glTotalClusterCnt
      286 00000006                  .bss    _glTotalClusterCnt,1
      287                           .sym    _glTotalClusterCnt,_glTotalClusterCnt,13,2,32
      288                   
      289 00000015                  .sect   ".cinit"
      290 00000015 00000001         .field          1,32
      291 00000016 00000007-        .field          _glSecCnt+0,32
      292 00000017 00000000         .field          0,32            ; _glSecCnt @ 0
      293                   
      294 00000000                  .sect   ".text"
      295                   
      296                           .global _glSecCnt
      297 00000007                  .bss    _glSecCnt,1
      298                           .sym    _glSecCnt,_glSecCnt,13,2,32
      299                   
      300 00000018                  .sect   ".cinit"
      301 00000018 00000001         .field          1,32
      302 00000019 00000008-        .field          _PreSector+0,32
      303 0000001a 00000000         .field          0,32            ; _PreSector @ 0
      304                   
      305 00000000                  .sect   ".text"
      306                   
      307                           .global _PreSector
      308 00000008                  .bss    _PreSector,1
      309                           .sym    _PreSector,_PreSector,13,2,32
      310                   
      311 0000001b                  .sect   ".cinit"
      312 0000001b 00000001         .field          1,32
      313 0000001c 00000009-        .field          _NowSector+0,32
      314 0000001d 00000000         .field          0,32            ; _NowSector @ 0
      315                   
      316 00000000                  .sect   ".text"
      317                   
      318                           .global _NowSector
      319 00000009                  .bss    _NowSector,1
      320                           .sym    _NowSector,_NowSector,13,2,32
      321 00000000                  .sect    ".text"
      322                   
      323                           .global _SanDisk_WaitReady
      324                           .sym    _SanDisk_WaitReady,_SanDisk_WaitReady,36,2,0
TMS320C3x/4x COFF AssemblerVersion 5.11     Tue Dec  7 12:02:21 2010
Copyright (c) 1987-1999 Texas Instruments Incorporatedc:\lang\tms320c3x\511\bin\asm30.exe -l cf.asm cf.obj -tC:\Users\jds\AppData\Local\Temp\cf.tmp 

cf.asm                                                               PAGE    7

      325                           .func   46
      326                   ;******************************************************************************
      327                   ;* FUNCTION NAME: _SanDisk_WaitReady                                          *
      328                   ;*                                                                            *
      329                   ;*   Architecture       : TMS320C30                                           *
      330                   ;*   Calling Convention : Stack Parameter Convention                          *
      331                   ;*   Function Uses Regs : r0,ar0,st                                           *
      332                   ;*   Regs Saved         :                                                     *
      333                   ;*   Stack Frame        : Full (w/ debug)                                     *
      334                   ;*   Total Frame Size   : 2 Call + 0 Parm + 3 Auto + 0 SOE = 5 words          *
      335                   ;******************************************************************************
      336 00000000          _SanDisk_WaitReady:
      337                           .sym    _a,1,12,1,32
      338                           .sym    _b,2,12,1,32
      339                           .sym    _j,3,4,1,32
      340                           .line   1
      341                   ;----------------------------------------------------------------------
      342                   ;  46 | int SanDisk_WaitReady()                                                
      343                   ;  48 | unsigned char a,b;                                                     
      344                   ;----------------------------------------------------------------------
      345 00000000 0f2b0000         push      fp
      346 00000001 500b0014         ldiu      sp,fp
      347 00000002 02740003         addi      3,sp
      348                           .line   4
      349                   ;----------------------------------------------------------------------
      350                   ;  49 | int j =1;                                                              
      351                   ;----------------------------------------------------------------------
      352 00000003 50600001         ldiu      1,r0
      353 00000004 15400303         sti       r0,*+fp(3)
      354                           .line   6
      355                   ;----------------------------------------------------------------------
      356                   ;  51 | a = STATUS_REG;                                                        
      357                   ;----------------------------------------------------------------------
      358 00000005 502810c2-        ldiu      @CL1,ar0
      359 00000006 5040c000         ldiu      *ar0,r0
      360 00000007 15400301         sti       r0,*+fp(1)
      361                           .line   7
      362                   ;----------------------------------------------------------------------
      363                   ;  52 | b = a & 0xf0;                                                          
      364                   ;----------------------------------------------------------------------
      365 00000008 506000f0         ldiu      240,r0
      366 00000009 02c00301         and       *+fp(1),r0
      367 0000000a 15400302         sti       r0,*+fp(2)
      368                           .line   9
      369                   ;----------------------------------------------------------------------
      370                   ;  54 | while(a==0x01) // 이전 명령 에러인 경우,                               
      371                   ;  56 |         //if(FDD_STATUS_RD&0x03){j=0; break;}   // active low          
      372                   ;----------------------------------------------------------------------
      373 0000000b 50400301         ldiu      *+fp(1),r0
      374 0000000c 04e00001         cmpi      1,r0
      375 0000000d 6a060005         bne       L3
      376                   ;*      Branch Occurs to L3 
      377 0000000e          L2:        
      378                           .line   12
TMS320C3x/4x COFF AssemblerVersion 5.11     Tue Dec  7 12:02:21 2010
Copyright (c) 1987-1999 Texas Instruments Incorporatedc:\lang\tms320c3x\511\bin\asm30.exe -l cf.asm cf.obj -tC:\Users\jds\AppData\Local\Temp\cf.tmp 

cf.asm                                                               PAGE    8

      379                   ;----------------------------------------------------------------------
      380                   ;  57 | a = STATUS_REG;                                                        
      381                   ;----------------------------------------------------------------------
      382 0000000e 502810c2-        ldiu      @CL1,ar0
      383 0000000f 5040c000         ldiu      *ar0,r0
      384 00000010 15400301         sti       r0,*+fp(1)
      385                           .line   9
      386 00000011 04e00001         cmpi      1,r0
      387 00000012 6a05fffb         beq       L2
      388                   ;*      Branch Occurs to L2 
      389 00000013          L3:        
      390                           .line   15
      391                   ;----------------------------------------------------------------------
      392                   ;  60 | while(b!=0x50) // Flash Memory 의 Ready가 1로 Set 될때까지..           
      393                   ;  62 |         //if(FDD_STATUS_RD&0x03){j=0; break;}                          
      394                   ;----------------------------------------------------------------------
      395 00000013 50400302         ldiu      *+fp(2),r0
      396 00000014 04e00050         cmpi      80,r0
      397 00000015 6a050008         beq       L5
      398                   ;*      Branch Occurs to L5 
      399 00000016          L4:        
      400                           .line   18
      401                   ;----------------------------------------------------------------------
      402                   ;  63 | a = STATUS_REG;                                                        
      403                   ;----------------------------------------------------------------------
      404 00000016 502810c2-        ldiu      @CL1,ar0
      405 00000017 5040c000         ldiu      *ar0,r0
      406 00000018 15400301         sti       r0,*+fp(1)
      407                           .line   19
      408                   ;----------------------------------------------------------------------
      409                   ;  64 | b = a & 0xf0;                                                          
      410                   ;----------------------------------------------------------------------
      411 00000019 506000f0         ldiu      240,r0
      412 0000001a 02c00301         and       *+fp(1),r0
      413 0000001b 15400302         sti       r0,*+fp(2)
      414                           .line   15
      415 0000001c 04e00050         cmpi      80,r0
      416 0000001d 6a06fff8         bne       L4
      417                   ;*      Branch Occurs to L4 
      418 0000001e          L5:        
      419                           .line   21
      420                   ;----------------------------------------------------------------------
      421                   ;  66 | return j;                                                              
      422                   ;----------------------------------------------------------------------
      423 0000001e 50400303         ldiu      *+fp(3),r0
      424                           .line   22
      425 0000001f 50480b01         ldiu      *-fp(1),ar0
      426 00000020 504bc300         ldiu      *fp,fp
      427 00000021 18740005         subi      5,sp
      428 00000022 68000008         bu        ar0
      429                   ;*      Branch Occurs to ar0 
      430                           .endfunc        67,000000000h,3
      431                   
      432                   
TMS320C3x/4x COFF AssemblerVersion 5.11     Tue Dec  7 12:02:21 2010
Copyright (c) 1987-1999 Texas Instruments Incorporatedc:\lang\tms320c3x\511\bin\asm30.exe -l cf.asm cf.obj -tC:\Users\jds\AppData\Local\Temp\cf.tmp 

cf.asm                                                               PAGE    9

      433 00000023                  .sect    ".text"
      434                   
      435                           .global _Sandisk_WaitDRQ
      436                           .sym    _Sandisk_WaitDRQ,_Sandisk_WaitDRQ,36,2,0
      437                           .func   73
      438                   ;******************************************************************************
      439                   ;* FUNCTION NAME: _Sandisk_WaitDRQ                                            *
      440                   ;*                                                                            *
      441                   ;*   Architecture       : TMS320C30                                           *
      442                   ;*   Calling Convention : Stack Parameter Convention                          *
      443                   ;*   Function Uses Regs : r0,r1,ar0,st                                        *
      444                   ;*   Regs Saved         :                                                     *
      445                   ;*   Stack Frame        : Full (w/ debug)                                     *
      446                   ;*   Total Frame Size   : 2 Call + 0 Parm + 4 Auto + 0 SOE = 6 words          *
      447                   ;******************************************************************************
      448 00000023          _Sandisk_WaitDRQ:
      449                           .sym    _a,1,12,1,32
      450                           .sym    _b,2,12,1,32
      451                           .sym    _c,3,12,1,32
      452                           .sym    _j,4,4,1,32
      453                           .line   1
      454                   ;----------------------------------------------------------------------
      455                   ;  73 | int Sandisk_WaitDRQ()                                                  
      456                   ;  75 | unsigned char a,b,c;                                                   
      457                   ;  76 | int j;                                                                 
      458                   ;----------------------------------------------------------------------
      459 00000023 0f2b0000         push      fp
      460 00000024 500b0014         ldiu      sp,fp
      461 00000025 02740004         addi      4,sp
      462                           .line   6
      463                   ;----------------------------------------------------------------------
      464                   ;  78 | a = (STATUS_REG & 0xfe);                                               
      465                   ;----------------------------------------------------------------------
      466 00000026 502810c2-        ldiu      @CL1,ar0
      467 00000027 506000fe         ldiu      254,r0
      468 00000028 21a0c000         and3      r0,*ar0,r0
      469 00000029 15400301         sti       r0,*+fp(1)
      470                           .line   7
      471                   ;----------------------------------------------------------------------
      472                   ;  79 | b = a & 0xf8;                                                          
      473                   ;----------------------------------------------------------------------
      474 0000002a 506000f8         ldiu      248,r0
      475 0000002b 02c00301         and       *+fp(1),r0
      476 0000002c 15400302         sti       r0,*+fp(2)
      477                           .line   9
      478                   ;----------------------------------------------------------------------
      479                   ;  81 | while(a==0x01)                                                         
      480                   ;  83 |         //if(FDD_STATUS_RD&0x03){j=0; break;}                          
      481                   ;----------------------------------------------------------------------
      482 0000002d 50400301         ldiu      *+fp(1),r0
      483 0000002e 04e00001         cmpi      1,r0
      484 0000002f 6a060005         bne       L10
      485                   ;*      Branch Occurs to L10 
      486 00000030          L9:        
TMS320C3x/4x COFF AssemblerVersion 5.11     Tue Dec  7 12:02:21 2010
Copyright (c) 1987-1999 Texas Instruments Incorporatedc:\lang\tms320c3x\511\bin\asm30.exe -l cf.asm cf.obj -tC:\Users\jds\AppData\Local\Temp\cf.tmp 

cf.asm                                                               PAGE   10

      487                           .line   12
      488                   ;----------------------------------------------------------------------
      489                   ;  84 | a = STATUS_REG;                                                        
      490                   ;----------------------------------------------------------------------
      491 00000030 502810c2-        ldiu      @CL1,ar0
      492 00000031 5040c000         ldiu      *ar0,r0
      493 00000032 15400301         sti       r0,*+fp(1)
      494                           .line   9
      495 00000033 04e00001         cmpi      1,r0
      496 00000034 6a05fffb         beq       L9
      497                   ;*      Branch Occurs to L9 
      498 00000035          L10:        
      499                           .line   15
      500                   ;----------------------------------------------------------------------
      501                   ;  87 | while(b!=0x58) // Data Request 셋될때까지..                            
      502                   ;  89 |         //if(FDD_STATUS_RD&0x03){j=0; break;}                          
      503                   ;----------------------------------------------------------------------
      504 00000035 50400302         ldiu      *+fp(2),r0
      505 00000036 04e00058         cmpi      88,r0
      506 00000037 506100fe         ldiu      254,r1
      507 00000038 6a050008         beq       L12
      508                   ;*      Branch Occurs to L12 
      509 00000039          L11:        
      510                           .line   18
      511                   ;----------------------------------------------------------------------
      512                   ;  90 | a = (STATUS_REG & 0xfe);                                               
      513                   ;----------------------------------------------------------------------
      514 00000039 502810c2-        ldiu      @CL1,ar0
      515 0000003a 21a0c001         and3      r1,*ar0,r0
      516 0000003b 15400301         sti       r0,*+fp(1)
      517                           .line   19
      518                   ;----------------------------------------------------------------------
      519                   ;  91 | b = a&0xf8;                                                            
      520                   ;----------------------------------------------------------------------
      521 0000003c 506000f8         ldiu      248,r0
      522 0000003d 02c00301         and       *+fp(1),r0
      523 0000003e 15400302         sti       r0,*+fp(2)
      524                           .line   15
      525 0000003f 04e00058         cmpi      88,r0
      526 00000040 6a06fff8         bne       L11
      527                   ;*      Branch Occurs to L11 
      528 00000041          L12:        
      529                           .line   22
      530                   ;----------------------------------------------------------------------
      531                   ;  94 | return j;                                                              
      532                   ;----------------------------------------------------------------------
      533 00000041 50400304         ldiu      *+fp(4),r0
      534                           .line   23
      535 00000042 50480b01         ldiu      *-fp(1),ar0
      536 00000043 504bc300         ldiu      *fp,fp
      537 00000044 18740006         subi      6,sp
      538 00000045 68000008         bu        ar0
      539                   ;*      Branch Occurs to ar0 
      540                           .endfunc        95,000000000h,4
TMS320C3x/4x COFF AssemblerVersion 5.11     Tue Dec  7 12:02:21 2010
Copyright (c) 1987-1999 Texas Instruments Incorporatedc:\lang\tms320c3x\511\bin\asm30.exe -l cf.asm cf.obj -tC:\Users\jds\AppData\Local\Temp\cf.tmp 

cf.asm                                                               PAGE   11

      541                   
      542                   
      543                   
      544 0000001e                  .sect   ".cinit"
      545 0000001e 00000002         .field          IR_1,32
      546 0000001f 0000000a-        .field          .init0$1+0,32
      547 00000020 00000000         .field          0,32            ; .init0$1[0] @ 0
      548 00000021 00000000         .field          0,32            ; .init0$1[1] @ 32
      549          00000002 IR_1:   .set    2
      550                   
      551 00000046                  .sect   ".text"
      552 00000046                  .sect    ".text"
      553                   
      554                           .global _SanDisk_Info_Read
      555                           .sym    _SanDisk_Info_Read,_SanDisk_Info_Read,32,2,0
      556                           .func   101
      557                   ;******************************************************************************
      558                   ;* FUNCTION NAME: _SanDisk_Info_Read                                          *
      559                   ;*                                                                            *
      560                   ;*   Architecture       : TMS320C30                                           *
      561                   ;*   Calling Convention : Stack Parameter Convention                          *
      562                   ;*   Function Uses Regs : r0,r1,ar0,ar1,fp,ir0,st,rs,re,rc                    *
      563                   ;*   Regs Saved         :                                                     *
      564                   ;*   Stack Frame        : Full (w/ debug)                                     *
      565                   ;*   Total Frame Size   : 2 Call + 0 Parm + 257 Auto + 0 SOE = 259 words      *
      566                   ;******************************************************************************
      567 00000046          _SanDisk_Info_Read:
      568 0000000a                  .bss    .init0$1,256
      569                           .sym    .init0$1,.init0$1,60,3,8192,,256
      570                           .sym    _i,1,13,1,32
      571                           .sym    _glCardInfoBuff,2,60,1,8192,,256
      572                           .line   1
      573                   ;----------------------------------------------------------------------
      574                   ; 101 | void SanDisk_Info_Read()                                               
      575                   ; 103 | WORD i;                                                                
      576                   ;----------------------------------------------------------------------
      577 00000046 0f2b0000         push      fp
      578 00000047 500b0014         ldiu      sp,fp
      579 00000048 02740101         addi      257,sp
      580                           .line   4
      581                   ;----------------------------------------------------------------------
      582                   ; 104 | UCHAR glCardInfoBuff[256]={0,0,};                                      
      583                   ;----------------------------------------------------------------------
      584 00000049 502910c3-        ldiu      @CL2,ar1
      585 0000004a 5008000b         ldiu      fp,ar0
      586 0000004b 02680002         addi      2,ar0
      587 0000004c 50402101         ldiu      *ar1++(1),r0
      588 0000004d 13fb00fe         rpts      254                   ; Fast MEMCPY(#3)
      589 0000004e da002021         sti       r0,*ar0++(1)
      590                   ||      ldi       *ar1++(1),r0
      591 0000004f 15402001         sti       r0,*ar0++(1)
      592                           .line   6
      593                   ;----------------------------------------------------------------------
      594                   ; 106 | COMMAND_REG= INFO_REG;                                                 
TMS320C3x/4x COFF AssemblerVersion 5.11     Tue Dec  7 12:02:21 2010
Copyright (c) 1987-1999 Texas Instruments Incorporatedc:\lang\tms320c3x\511\bin\asm30.exe -l cf.asm cf.obj -tC:\Users\jds\AppData\Local\Temp\cf.tmp 

cf.asm                                                               PAGE   12

      595                   ;----------------------------------------------------------------------
      596 00000050 502810c2-        ldiu      @CL1,ar0
      597 00000051 506000ec         ldiu      236,r0
      598 00000052 1540c000         sti       r0,*ar0
      599                           .line   8
      600                   ;----------------------------------------------------------------------
      601                   ; 108 | Sandisk_WaitDRQ();                                                     
      602                   ;----------------------------------------------------------------------
      603 00000053 62000023'        call      _Sandisk_WaitDRQ
      604                                                           ; Call Occurs
      605                           .line   10
      606                   ;----------------------------------------------------------------------
      607                   ; 110 | for(i=0;i<256;i++) glCardInfoBuff[i] = DATA_REG & 0xff;                
      608                   ;----------------------------------------------------------------------
      609 00000054 50600000         ldiu      0,r0
      610 00000055 15400301         sti       r0,*+fp(1)
      611 00000056 50010000         ldiu      r0,r1
      612 00000057 04e10100         cmpi      256,r1
      613 00000058 506000ff         ldiu      255,r0
      614 00000059 6a04000b         bhs       L17
      615                   ;*      Branch Occurs to L17 
      616 0000005a          L16:        
      617 0000005a 5008000b         ldiu      fp,ar0
      618 0000005b 502910c4-        ldiu      @CL3,ar1
      619 0000005c 50510301         ldiu      *+fp(1),ir0
      620 0000005d 02680002         addi      2,ar0
      621 0000005e 21a1c100         and3      r0,*ar1,r1
      622 0000005f 15414000         sti       r1,*+ar0(ir0)
      623 00000060 50610001         ldiu      1,r1
      624 00000061 02410301         addi      *+fp(1),r1            ; Unsigned
      625 00000062 15410301         sti       r1,*+fp(1)
      626 00000063 04e10100         cmpi      256,r1
      627 00000064 6a01fff5         blo       L16
      628                   ;*      Branch Occurs to L16 
      629 00000065          L17:        
      630                           .line   12
      631                   ;----------------------------------------------------------------------
      632                   ; 112 | glHeader = (glCardInfoBuff[0]&0xff)|((glCardInfoBuff[1]<<8)& 0xff00);  
      633                   ;----------------------------------------------------------------------
      634 00000065 5009000b         ldiu      fp,ar1
      635 00000066 5008000b         ldiu      fp,ar0
      636 00000067 50600008         ldiu      8,r0
      637 00000068 506100ff         ldiu      255,r1
      638 00000069 02690003         addi      3,ar1
      639 0000006a 02680002         addi      2,ar0
      640 0000006b 22a0c100         ash3      r0,*ar1,r0
      641 0000006c 21a1c001         and3      r1,*ar0,r1
      642 0000006d 02e0ff00         and       65280,r0
      643 0000006e 25800001         or3       r1,r0,r0
      644 0000006f 15200000-        sti       r0,@_glHeader+0
      645                           .line   13
      646                   ;----------------------------------------------------------------------
      647                   ; 113 | glSectPerTrack = (glCardInfoBuff[12]&0xff)|((glCardInfoBuff[13]<<8)& 0x
      648                   ;     | ff00);                                                                 
TMS320C3x/4x COFF AssemblerVersion 5.11     Tue Dec  7 12:02:21 2010
Copyright (c) 1987-1999 Texas Instruments Incorporatedc:\lang\tms320c3x\511\bin\asm30.exe -l cf.asm cf.obj -tC:\Users\jds\AppData\Local\Temp\cf.tmp 

cf.asm                                                               PAGE   13

      649                   ;----------------------------------------------------------------------
      650 00000070 5008000b         ldiu      fp,ar0
      651 00000071 5009000b         ldiu      fp,ar1
      652 00000072 0268000f         addi      15,ar0
      653 00000073 0269000e         addi      14,ar1
      654 00000074 506100ff         ldiu      255,r1
      655 00000075 50600008         ldiu      8,r0
      656 00000076 22a0c000         ash3      r0,*ar0,r0
      657 00000077 21a1c101         and3      r1,*ar1,r1
      658 00000078 02e0ff00         and       65280,r0
      659 00000079 25800001         or3       r1,r0,r0
      660 0000007a 15200001-        sti       r0,@_glSectPerTrack+0
      661                           .line   14
      662 0000007b 50530b01         ldiu      *-fp(1),bk
      663 0000007c 504bc300         ldiu      *fp,fp
      664 0000007d 18740103         subi      259,sp
      665 0000007e 68000013         bu        bk
      666                   ;*      Branch Occurs to bk 
      667                           .endfunc        114,000000000h,257
      668                   
      669                   
      670 0000007f                  .sect    ".text"
      671                   
      672                           .global _SanDisk_ABS_RD
      673                           .sym    _SanDisk_ABS_RD,_SanDisk_ABS_RD,36,2,0
      674                           .func   119
      675                   ;******************************************************************************
      676                   ;* FUNCTION NAME: _SanDisk_ABS_RD                                             *
      677                   ;*                                                                            *
      678                   ;*   Architecture       : TMS320C30                                           *
      679                   ;*   Calling Convention : Stack Parameter Convention                          *
      680                   ;*   Function Uses Regs : r0,r1,ar0,ar1,ir0,st                                *
      681                   ;*   Regs Saved         :                                                     *
      682                   ;*   Stack Frame        : Full (w/ debug)                                     *
      683                   ;*   Total Frame Size   : 2 Call + 2 Parm + 2 Auto + 0 SOE = 6 words          *
      684                   ;******************************************************************************
      685 0000007f          _SanDisk_ABS_RD:
      686                           .sym    _nABSSector,-2,15,9,32
      687                           .sym    _pBuff,-3,28,9,32
      688                           .sym    _i,1,13,1,32
      689                           .sym    _nTemp,2,4,1,32
      690                           .line   1
      691                   ;----------------------------------------------------------------------
      692                   ; 119 | int SanDisk_ABS_RD(DWORD nABSSector,UCHAR *pBuff)                      
      693                   ;----------------------------------------------------------------------
      694 0000007f 0f2b0000         push      fp
      695 00000080 500b0014         ldiu      sp,fp
      696 00000081 02740002         addi      2,sp
      697                           .line   2
      698                   ;----------------------------------------------------------------------
      699                   ; 121 | WORD i;                                                                
      700                   ; 122 | int nTemp;                                                             
      701                   ;----------------------------------------------------------------------
      702                           .line   6
TMS320C3x/4x COFF AssemblerVersion 5.11     Tue Dec  7 12:02:21 2010
Copyright (c) 1987-1999 Texas Instruments Incorporatedc:\lang\tms320c3x\511\bin\asm30.exe -l cf.asm cf.obj -tC:\Users\jds\AppData\Local\Temp\cf.tmp 

cf.asm                                                               PAGE   14

      703                   ;----------------------------------------------------------------------
      704                   ; 124 | SanDisk_WaitReady();                                                   
      705                   ;----------------------------------------------------------------------
      706 00000082 62000000'        call      _SanDisk_WaitReady
      707                                                           ; Call Occurs
      708                           .line   8
      709                   ;----------------------------------------------------------------------
      710                   ; 126 | nABSSector += glSectorStartOffset;                                     
      711                   ;----------------------------------------------------------------------
      712 00000083 50200003-        ldiu      @_glSectorStartOffset+0,r0
      713 00000084 02400b02         addi      *-fp(2),r0            ; Unsigned
      714 00000085 15400b02         sti       r0,*-fp(2)
      715                           .line   10
      716                   ;----------------------------------------------------------------------
      717                   ; 128 | SEC_CNT_REG     = 0x01;                                                
      718                   ;----------------------------------------------------------------------
      719 00000086 502810c5-        ldiu      @CL4,ar0
      720 00000087 50600001         ldiu      1,r0
      721 00000088 1540c000         sti       r0,*ar0
      722                           .line   11
      723                   ;----------------------------------------------------------------------
      724                   ; 129 | SEC_NUM_REG     = nABSSector & 0xff;                                   
      725                   ;----------------------------------------------------------------------
      726 00000089 506000ff         ldiu      255,r0
      727 0000008a 502810c6-        ldiu      @CL5,ar0
      728 0000008b 02c00b02         and       *-fp(2),r0
      729 0000008c 1540c000         sti       r0,*ar0
      730                           .line   12
      731                   ;----------------------------------------------------------------------
      732                   ; 130 | CYL_LOW_REG     = nABSSector >> 8;                                     
      733                   ;----------------------------------------------------------------------
      734 0000008d 50400b02         ldiu      *-fp(2),r0
      735 0000008e 502810c7-        ldiu      @CL6,ar0
      736 0000008f 09e0fff8         lsh       -8,r0
      737 00000090 1540c000         sti       r0,*ar0
      738                           .line   13
      739                   ;----------------------------------------------------------------------
      740                   ; 131 | CYL_HI_REG      = nABSSector >> 16;                                    
      741                   ;----------------------------------------------------------------------
      742 00000091 502810c8-        ldiu      @CL7,ar0
      743 00000092 50400b02         ldiu      *-fp(2),r0
      744 00000093 09e0fff0         lsh       -16,r0
      745 00000094 1540c000         sti       r0,*ar0
      746                           .line   14
      747                   ;----------------------------------------------------------------------
      748                   ; 132 | DRV_HD_REG      = 0xe0 | ((nABSSector >> 24)&0xf);                     
      749                   ;----------------------------------------------------------------------
      750 00000095 50400b02         ldiu      *-fp(2),r0
      751 00000096 09e0ffe8         lsh       -24,r0
      752 00000097 02e0000f         and       15,r0
      753 00000098 502810c9-        ldiu      @CL8,ar0
      754 00000099 106000e0         or        224,r0
      755 0000009a 1540c000         sti       r0,*ar0
      756                           .line   15
TMS320C3x/4x COFF AssemblerVersion 5.11     Tue Dec  7 12:02:21 2010
Copyright (c) 1987-1999 Texas Instruments Incorporatedc:\lang\tms320c3x\511\bin\asm30.exe -l cf.asm cf.obj -tC:\Users\jds\AppData\Local\Temp\cf.tmp 

cf.asm                                                               PAGE   15

      757                   ;----------------------------------------------------------------------
      758                   ; 133 | COMMAND_REG     = RD_REG;                                              
      759                   ;----------------------------------------------------------------------
      760 0000009b 502810c2-        ldiu      @CL1,ar0
      761 0000009c 50600020         ldiu      32,r0
      762 0000009d 1540c000         sti       r0,*ar0
      763                           .line   17
      764                   ;----------------------------------------------------------------------
      765                   ; 135 | Sandisk_WaitDRQ();                                                     
      766                   ;----------------------------------------------------------------------
      767 0000009e 62000023'        call      _Sandisk_WaitDRQ
      768                                                           ; Call Occurs
      769                           .line   18
      770                   ;----------------------------------------------------------------------
      771                   ; 136 | for (i=0;i<512;i++) pBuff[i] = WORD_L(DATA_REG);                       
      772                   ;----------------------------------------------------------------------
      773 0000009f 50600000         ldiu      0,r0
      774 000000a0 15400301         sti       r0,*+fp(1)
      775 000000a1 50010000         ldiu      r0,r1
      776 000000a2 04e10200         cmpi      512,r1
      777 000000a3 506000ff         ldiu      255,r0
      778 000000a4 6a04000a         bhs       L22
      779                   ;*      Branch Occurs to L22 
      780 000000a5          L21:        
      781 000000a5 502910c4-        ldiu      @CL3,ar1
      782 000000a6 50510b03         ldiu      *-fp(3),ir0
      783 000000a7 50480301         ldiu      *+fp(1),ar0
      784 000000a8 21a1c100         and3      r0,*ar1,r1
      785 000000a9 15414000         sti       r1,*+ar0(ir0)
      786 000000aa 50610001         ldiu      1,r1
      787 000000ab 02410301         addi      *+fp(1),r1            ; Unsigned
      788 000000ac 15410301         sti       r1,*+fp(1)
      789 000000ad 04e10200         cmpi      512,r1
      790 000000ae 6a01fff6         blo       L21
      791                   ;*      Branch Occurs to L21 
      792 000000af          L22:        
      793                           .line   19
      794 000000af 50530b01         ldiu      *-fp(1),bk
      795 000000b0 504bc300         ldiu      *fp,fp
      796 000000b1 18740004         subi      4,sp
      797 000000b2 68000013         bu        bk
      798                   ;*      Branch Occurs to bk 
      799                           .endfunc        137,000000000h,2
      800                   
      801                   
      802 000000b3                  .sect    ".text"
      803                   
      804                           .global _Sandisk_Init
      805                           .sym    _Sandisk_Init,_Sandisk_Init,36,2,0
      806                           .func   144
      807                   ;******************************************************************************
      808                   ;* FUNCTION NAME: _Sandisk_Init                                               *
      809                   ;*                                                                            *
      810                   ;*   Architecture       : TMS320C30                                           *
TMS320C3x/4x COFF AssemblerVersion 5.11     Tue Dec  7 12:02:21 2010
Copyright (c) 1987-1999 Texas Instruments Incorporatedc:\lang\tms320c3x\511\bin\asm30.exe -l cf.asm cf.obj -tC:\Users\jds\AppData\Local\Temp\cf.tmp 

cf.asm                                                               PAGE   16

      811                   ;*   Calling Convention : Stack Parameter Convention                          *
      812                   ;*   Function Uses Regs : r0,r1,r2,ar0,ar1,ar2,fp,sp,st,rs,re,rc              *
      813                   ;*   Regs Saved         :                                                     *
      814                   ;*   Stack Frame        : Full (w/ debug)                                     *
      815                   ;*   Total Frame Size   : 2 Call + 0 Parm + 513 Auto + 0 SOE = 515 words      *
      816                   ;******************************************************************************
      817 000000b3          _Sandisk_Init:
      818                           .sym    _nBuff,1,60,1,16384,,512
      819                           .sym    _nTemp,513,12,1,32
      820                           .line   1
      821                   ;----------------------------------------------------------------------
      822                   ; 144 | int Sandisk_Init()                                                     
      823                   ; 146 | UCHAR nBuff[512];                                                      
      824                   ; 147 | UCHAR nTemp;                                                           
      825                   ;----------------------------------------------------------------------
      826 000000b3 0f2b0000         push      fp
      827 000000b4 500b0014         ldiu      sp,fp
      828 000000b5 02740201         addi      513,sp
      829                           .line   6
      830                   ;----------------------------------------------------------------------
      831                   ; 149 | SanDisk_Info_Read();                                                   
      832                   ;----------------------------------------------------------------------
      833 000000b6 62000046'        call      _SanDisk_Info_Read
      834                                                           ; Call Occurs
      835                           .line   7
      836                   ;----------------------------------------------------------------------
      837                   ; 150 | SanDisk_ABS_RD(0,nBuff);                                               
      838                   ;----------------------------------------------------------------------
      839 000000b7 5000000b         ldiu      fp,r0
      840 000000b8 50610000         ldiu      0,r1
      841 000000b9 02600001         addi      1,r0
      842 000000ba 0f200000         push      r0
      843 000000bb 0f210000         push      r1
      844 000000bc 6200007f'        call      _SanDisk_ABS_RD
      845                                                           ; Call Occurs
      846 000000bd 18740002         subi      2,sp
      847                           .line   9
      848                   ;----------------------------------------------------------------------
      849                   ; 152 | if(nBuff[0] == 0xeb)                                                   
      850                   ;----------------------------------------------------------------------
      851 000000be 5008000b         ldiu      fp,ar0
      852 000000bf 02680001         addi      1,ar0
      853 000000c0 5040c000         ldiu      *ar0,r0
      854 000000c1 04e000eb         cmpi      235,r0
      855 000000c2 6a060004         bne       L26
      856                   ;*      Branch Occurs to L26 
      857                           .line   11
      858                   ;----------------------------------------------------------------------
      859                   ; 154 | glSectorStartOffset = 0;                                               
      860                   ;----------------------------------------------------------------------
      861 000000c3 50600000         ldiu      0,r0
      862 000000c4 15200003-        sti       r0,@_glSectorStartOffset+0
      863                           .line   12
      864                   ;----------------------------------------------------------------------
TMS320C3x/4x COFF AssemblerVersion 5.11     Tue Dec  7 12:02:21 2010
Copyright (c) 1987-1999 Texas Instruments Incorporatedc:\lang\tms320c3x\511\bin\asm30.exe -l cf.asm cf.obj -tC:\Users\jds\AppData\Local\Temp\cf.tmp 

cf.asm                                                               PAGE   17

      865                   ; 155 | glDiskFail = 0;                                                        
      866                   ; 157 | else                                                                   
      867                   ;----------------------------------------------------------------------
      868 000000c5 15200002-        sti       r0,@_glDiskFail+0
      869 000000c6 6a000013         bu        L29
      870                   ;*      Branch Occurs to L29 
      871 000000c7          L26:        
      872                           .line   16
      873                   ;----------------------------------------------------------------------
      874                   ; 159 | SanDisk_ABS_RD(glSectPerTrack,nBuff);                                  
      875                   ;----------------------------------------------------------------------
      876 000000c7 5000000b         ldiu      fp,r0
      877 000000c8 02600001         addi      1,r0
      878 000000c9 0f200000         push      r0
      879 000000ca 50200001-        ldiu      @_glSectPerTrack+0,r0
      880 000000cb 0f200000         push      r0
      881 000000cc 6200007f'        call      _SanDisk_ABS_RD
      882                                                           ; Call Occurs
      883 000000cd 18740002         subi      2,sp
      884                           .line   18
      885                   ;----------------------------------------------------------------------
      886                   ; 161 | if(nBuff[0] == 0xeb)                                                   
      887                   ;----------------------------------------------------------------------
      888 000000ce 5008000b         ldiu      fp,ar0
      889 000000cf 02680001         addi      1,ar0
      890 000000d0 5040c000         ldiu      *ar0,r0
      891 000000d1 04e000eb         cmpi      235,r0
      892 000000d2 6a060005         bne       L28
      893                   ;*      Branch Occurs to L28 
      894                           .line   20
      895                   ;----------------------------------------------------------------------
      896                   ; 163 | glSectorStartOffset = glSectPerTrack;                                  
      897                   ;----------------------------------------------------------------------
      898 000000d3 50200001-        ldiu      @_glSectPerTrack+0,r0
      899 000000d4 15200003-        sti       r0,@_glSectorStartOffset+0
      900                           .line   21
      901                   ;----------------------------------------------------------------------
      902                   ; 164 | glDiskFail = 0;                                                        
      903                   ;----------------------------------------------------------------------
      904 000000d5 50600000         ldiu      0,r0
      905 000000d6 15200002-        sti       r0,@_glDiskFail+0
      906 000000d7 6a000002         bu        L29
      907                   ;*      Branch Occurs to L29 
      908 000000d8          L28:        
      909                           .line   23
      910                   ;----------------------------------------------------------------------
      911                   ; 166 | else glDiskFail = 1;                                                   
      912                   ; 167 | } // if end                                                            
      913                   ;----------------------------------------------------------------------
      914 000000d8 50600001         ldiu      1,r0
      915 000000d9 15200002-        sti       r0,@_glDiskFail+0
      916 000000da          L29:        
      917                           .line   26
      918                   ;----------------------------------------------------------------------
TMS320C3x/4x COFF AssemblerVersion 5.11     Tue Dec  7 12:02:21 2010
Copyright (c) 1987-1999 Texas Instruments Incorporatedc:\lang\tms320c3x\511\bin\asm30.exe -l cf.asm cf.obj -tC:\Users\jds\AppData\Local\Temp\cf.tmp 

cf.asm                                                               PAGE   18

      919                   ; 169 | if(!glDiskFail)                                                        
      920                   ;----------------------------------------------------------------------
      921 000000da 08200002-        ldi       @_glDiskFail+0,r0
      922 000000db 6a260073         bned      L40
      923 000000dc 5288000b         ldieq     fp,ar0
      924 000000dd 5289000b         ldieq     fp,ar1
      925 000000de 52e00008         ldieq     8,r0
      926                   ;*      Branch Occurs to L40 
      927                           .line   28
      928                   ;----------------------------------------------------------------------
      929                   ; 171 | m_nFat1Offset = ((nBuff[DOS_BOOT_NRESRVD_SECS+1]<<8)|nBuff[DOS_BOOT_NRE
      930                   ;     | SRVD_SECS]);                                                           
      931                   ;----------------------------------------------------------------------
      932 000000df 02680010         addi      16,ar0
      933 000000e0 0269000f         addi      15,ar1
      934 000000e1 22a0c000         ash3      r0,*ar0,r0
      935 000000e2 25a0c100         or3       r0,*ar1,r0
      936 000000e3 15200eba-        sti       r0,@_m_nFat1Offset+0
      937                           .line   29
      938                   ;----------------------------------------------------------------------
      939                   ; 172 | m_nFatSize = ((nBuff[DOS_BOOT_SEC_PER_FAT+1]<<8)|nBuff[DOS_BOOT_SEC_PER
      940                   ;     | _FAT]);                                                                
      941                   ;----------------------------------------------------------------------
      942 000000e4 5008000b         ldiu      fp,ar0
      943 000000e5 5009000b         ldiu      fp,ar1
      944 000000e6 02680018         addi      24,ar0
      945 000000e7 02690017         addi      23,ar1
      946 000000e8 50600008         ldiu      8,r0
      947 000000e9 22a0c000         ash3      r0,*ar0,r0
      948 000000ea 25a0c100         or3       r0,*ar1,r0
      949 000000eb 15200301-        sti       r0,@_m_nFatSize+0
      950                           .line   30
      951                   ;----------------------------------------------------------------------
      952                   ; 173 | m_nFat2Offset = (nBuff[DOS_BOOT_NFATS]==1)? m_nFat1Offset : m_nFat1Offs
      953                   ;     | et+m_nFatSize;                                                         
      954                   ; 174 | //m_nRootOffset = m_nFat2Offset + ((nBuff[DOS_BOOT_SEC_PER_FAT+1]<<8)|n
      955                   ;     | Buff[DOS_BOOT_SEC_PER_FAT]);                                           
      956                   ;----------------------------------------------------------------------
      957 000000ec 5008000b         ldiu      fp,ar0
      958 000000ed 02680011         addi      17,ar0
      959 000000ee 5040c000         ldiu      *ar0,r0
      960 000000ef 04e00001         cmpi      1,r0
      961 000000f0 6a060004         bne       L32
      962                   ;*      Branch Occurs to L32 
      963 000000f1 6a200003         bud       L33
      964 000000f2 0c800000         nop
      965 000000f3 0c800000         nop
      966 000000f4 50200eba-        ldiu      @_m_nFat1Offset+0,r0
      967                   ;*      Branch Occurs to L33 
      968 000000f5          L32:        
      969 000000f5 50200301-        ldiu      @_m_nFatSize+0,r0
      970 000000f6 02200eba-        addi      @_m_nFat1Offset+0,r0  ; Unsigned
      971 000000f7          L33:        
      972 000000f7 15200300-        sti       r0,@_m_nFat2Offset+0
TMS320C3x/4x COFF AssemblerVersion 5.11     Tue Dec  7 12:02:21 2010
Copyright (c) 1987-1999 Texas Instruments Incorporatedc:\lang\tms320c3x\511\bin\asm30.exe -l cf.asm cf.obj -tC:\Users\jds\AppData\Local\Temp\cf.tmp 

cf.asm                                                               PAGE   19

      973                           .line   33
      974                   ;----------------------------------------------------------------------
      975                   ; 176 | m_nRootOffset=((nBuff[DOS_BOOT_NRESRVD_SECS+1]<<8)|nBuff[DOS_BOOT_NRESR
      976                   ;     | VD_SECS])+(nBuff[DOS_BOOT_NFATS]*m_nFatSize);                          
      977                   ;----------------------------------------------------------------------
      978 000000f8 5009000b         ldiu      fp,ar1
      979 000000f9 500a000b         ldiu      fp,ar2
      980 000000fa 5008000b         ldiu      fp,ar0
      981 000000fb 50610008         ldiu      8,r1
      982 000000fc 02690011         addi      17,ar1
      983 000000fd 026a0010         addi      16,ar2
      984 000000fe 0268000f         addi      15,ar0
      985 000000ff 5040c100         ldiu      *ar1,r0
      986 00000100 22a1c201         ash3      r1,*ar2,r1
      987 00000101 0aa00301-        mpyi      @_m_nFatSize+0,r0
      988 00000102 25a1c001         or3       r1,*ar0,r1
      989 00000103 21000100         addi3     r0,r1,r0              ; Unsigned
      990 00000104 15200ecc-        sti       r0,@_m_nRootOffset+0
      991                           .line   34
      992                   ;----------------------------------------------------------------------
      993                   ; 177 | m_nDataOffset = m_nRootOffset  + ((nBuff[DOS_BOOT_MAX_ROOT_ENTS+1]<<8)|
      994                   ;     | nBuff[DOS_BOOT_MAX_ROOT_ENTS])/16; /* 16 EntryPerSector */;            
      995                   ;----------------------------------------------------------------------
      996 00000105 5009000b         ldiu      fp,ar1
      997 00000106 5008000b         ldiu      fp,ar0
      998 00000107 02690013         addi      19,ar1
      999 00000108 02680012         addi      18,ar0
     1000 00000109 50600008         ldiu      8,r0
     1001 0000010a 22a0c100         ash3      r0,*ar1,r0
     1002 0000010b 25a0c000         or3       r0,*ar0,r0
     1003 0000010c 09e0fffc         lsh       -4,r0
     1004 0000010d 02200ecc-        addi      @_m_nRootOffset+0,r0  ; Unsigned
     1005 0000010e 1520033f-        sti       r0,@_m_nDataOffset+0
     1006                           .line   35
     1007                   ;----------------------------------------------------------------------
     1008                   ; 178 | m_nSecPerClust= nBuff[DOS_BOOT_SEC_PER_CLUST];                         
     1009                   ;----------------------------------------------------------------------
     1010 0000010f 5008000b         ldiu      fp,ar0
     1011 00000110 0268000e         addi      14,ar0
     1012 00000111 5040c000         ldiu      *ar0,r0
     1013 00000112 15200eb8-        sti       r0,@_m_nSecPerClust+0
     1014                           .line   36
     1015                   ;----------------------------------------------------------------------
     1016                   ; 179 | m_wTotalSec   = *(WORD*)(&nBuff[DOS_BOOT_NSECTORS]);                   
     1017                   ;----------------------------------------------------------------------
     1018 00000113 5008000b         ldiu      fp,ar0
     1019 00000114 02680014         addi      20,ar0
     1020 00000115 5040c000         ldiu      *ar0,r0
     1021 00000116 15200ebb-        sti       r0,@_m_wTotalSec+0
     1022                           .line   37
     1023                   ;----------------------------------------------------------------------
     1024                   ; 180 | m_wTotalSec   = ((m_wTotalSec<<8)&0xff00)|((m_wTotalSec>>8)&0x00ff);   
     1025                   ;----------------------------------------------------------------------
     1026 00000117 50010000         ldiu      r0,r1
TMS320C3x/4x COFF AssemblerVersion 5.11     Tue Dec  7 12:02:21 2010
Copyright (c) 1987-1999 Texas Instruments Incorporatedc:\lang\tms320c3x\511\bin\asm30.exe -l cf.asm cf.obj -tC:\Users\jds\AppData\Local\Temp\cf.tmp 

cf.asm                                                               PAGE   20

     1027 00000118 09e1fff8         lsh       -8,r1
     1028 00000119 02e100ff         and       255,r1
     1029 0000011a 03e00008         ash       8,r0
     1030 0000011b 02e0ff00         and       65280,r0
     1031 0000011c 25800100         or3       r0,r1,r0
     1032 0000011d 15200ebb-        sti       r0,@_m_wTotalSec+0
     1033                           .line   38
     1034                   ;----------------------------------------------------------------------
     1035                   ; 181 | memcpy(m_VolumeID,&nBuff[DOS_BOOT_VOL_ID],4);                          
     1036                   ;----------------------------------------------------------------------
     1037 0000011e 5009000b         ldiu      fp,ar1
     1038 0000011f 02690028         addi      40,ar1
     1039 00000120 502810ca-        ldiu      @CL9,ar0
     1040 00000121 5040c100         ldiu      *ar1,r0
     1041 00000122 1540c000         sti       r0,*ar0
     1042 00000123 50400101         ldiu      *+ar1,r0
     1043 00000124 15400001         sti       r0,*+ar0
     1044 00000125 50400102         ldiu      *+ar1(2),r0
     1045 00000126 15400002         sti       r0,*+ar0(2)
     1046 00000127 50400103         ldiu      *+ar1(3),r0
     1047 00000128 15400003         sti       r0,*+ar0(3)
     1048                           .line   39
     1049                   ;----------------------------------------------------------------------
     1050                   ; 182 | memcpy(m_szVolume,&nBuff[DOS_BOOT_VOL_LABEL],11);                      
     1051                   ;----------------------------------------------------------------------
     1052 00000129 5008000b         ldiu      fp,ar0
     1053 0000012a 0268002c         addi      44,ar0
     1054 0000012b 502910cb-        ldiu      @CL10,ar1
     1055 0000012c 50402001         ldiu      *ar0++(1),r0
     1056 0000012d 13fb0009         rpts      9                     ; Fast MEMCPY(#6)
     1057 0000012e da002120         sti       r0,*ar1++(1)
     1058                   ||      ldi       *ar0++(1),r0
     1059 0000012f 15402101         sti       r0,*ar1++(1)
     1060                           .line   40
     1061                   ;----------------------------------------------------------------------
     1062                   ; 183 | m_szVolume[11] = 0;                                                    
     1063                   ;----------------------------------------------------------------------
     1064 00000130 50600000         ldiu      0,r0
     1065 00000131 15200ec7-        sti       r0,@_m_szVolume+11
     1066                           .line   42
     1067                   ;----------------------------------------------------------------------
     1068                   ; 185 | if(!strncmp(&nBuff[DOS_BOOT_FAT_LABEL],"FAT12   ",8))m_nFat = 1;       
     1069                   ;----------------------------------------------------------------------
     1070 00000132 5002000b         ldiu      fp,r2
     1071 00000133 02620037         addi      55,r2
     1072 00000134 50600008         ldiu      8,r0
     1073 00000135 502110cc-        ldiu      @CL11,r1
     1074 00000136 0f200000         push      r0
     1075 00000137 0f210000         push      r1
     1076 00000138 0f220000         push      r2
     1077 00000139 62000000!        call      _strncmp
     1078                                                           ; Call Occurs
     1079 0000013a 04e00000         cmpi      0,r0
     1080 0000013b 6a260004         bned      L36
TMS320C3x/4x COFF AssemblerVersion 5.11     Tue Dec  7 12:02:21 2010
Copyright (c) 1987-1999 Texas Instruments Incorporatedc:\lang\tms320c3x\511\bin\asm30.exe -l cf.asm cf.obj -tC:\Users\jds\AppData\Local\Temp\cf.tmp 

cf.asm                                                               PAGE   21

     1081 0000013c 18740003         subi      3,sp
     1082 0000013d 53600008         ldine     8,r0
     1083 0000013e 5302000b         ldine     fp,r2
     1084                   ;*      Branch Occurs to L36 
     1085 0000013f 50600001         ldiu      1,r0
     1086 00000140 15200eb9-        sti       r0,@_m_nFat+0
     1087 00000141 6a00000f         bu        L40
     1088                   ;*      Branch Occurs to L40 
     1089                           .line   43
     1090                   ;----------------------------------------------------------------------
     1091                   ; 186 | else if(!strncmp(&nBuff[DOS_BOOT_FAT_LABEL],"FAT16   ",8))m_nFat = 2;  
     1092                   ;----------------------------------------------------------------------
     1093 00000142          L36:        
     1094 00000142 502110cd-        ldiu      @CL12,r1
     1095 00000143 0f200000         push      r0
     1096 00000144 02620037         addi      55,r2
     1097 00000145 0f210000         push      r1
     1098 00000146 0f220000         push      r2
     1099 00000147 62000000!        call      _strncmp
     1100                                                           ; Call Occurs
     1101 00000148 04e00000         cmpi      0,r0
     1102 00000149 6a260004         bned      L39
     1103 0000014a 18740003         subi      3,sp
     1104 0000014b 0c800000         nop
     1105 0000014c 53600000         ldine     0,r0
     1106                   ;*      Branch Occurs to L39 
     1107 0000014d 50600002         ldiu      2,r0
     1108 0000014e 15200eb9-        sti       r0,@_m_nFat+0
     1109 0000014f 6a000001         bu        L40
     1110                   ;*      Branch Occurs to L40 
     1111                           .line   44
     1112                   ;----------------------------------------------------------------------
     1113                   ; 187 | else m_nFat=0;                                                         
     1114                   ; 188 | } // if end                                                            
     1115                   ;----------------------------------------------------------------------
     1116 00000150          L39:        
     1117 00000150 15200eb9-        sti       r0,@_m_nFat+0
     1118 00000151          L40:        
     1119                           .line   47
     1120                   ;----------------------------------------------------------------------
     1121                   ; 190 | return !glDiskFail;                                                    
     1122                   ;----------------------------------------------------------------------
     1123 00000151 08210002-        ldi       @_glDiskFail+0,r1
     1124 00000152 50600000         ldiu      0,r0
     1125 00000153 52e00001         ldieq     1,r0
     1126                           .line   48
     1127 00000154 50530b01         ldiu      *-fp(1),bk
     1128 00000155 504bc300         ldiu      *fp,fp
     1129 00000156 18740203         subi      515,sp
     1130 00000157 68000013         bu        bk
     1131                   ;*      Branch Occurs to bk 
     1132                           .endfunc        191,000000000h,513
     1133                   
     1134                   
TMS320C3x/4x COFF AssemblerVersion 5.11     Tue Dec  7 12:02:21 2010
Copyright (c) 1987-1999 Texas Instruments Incorporatedc:\lang\tms320c3x\511\bin\asm30.exe -l cf.asm cf.obj -tC:\Users\jds\AppData\Local\Temp\cf.tmp 

cf.asm                                                               PAGE   22

     1135 00000158                  .sect    ".text"
     1136                   
     1137                           .global _FileEntry
     1138                           .sym    _FileEntry,_FileEntry,36,2,0
     1139                           .func   199
     1140                   ;******************************************************************************
     1141                   ;* FUNCTION NAME: _FileEntry                                                  *
     1142                   ;*                                                                            *
     1143                   ;*   Architecture       : TMS320C30                                           *
     1144                   ;*   Calling Convention : Stack Parameter Convention                          *
     1145                   ;*   Function Uses Regs : r0,r1,r2,r3,ar0,ar1,ar2,fp,ir0,ir1,sp,st,rs,re,rc   *
     1146                   ;*   Regs Saved         :                                                     *
     1147                   ;*   Stack Frame        : Full (w/ debug)                                     *
     1148                   ;*   Total Frame Size   : 2 Call + 0 Parm + 517 Auto + 0 SOE = 519 words      *
     1149                   ;******************************************************************************
     1150 00000158          _FileEntry:
     1151                           .sym    _nBuff,1,60,1,16384,,512
     1152                           .sym    _i,513,4,1,32
     1153                           .sym    _k,514,4,1,32
     1154                           .sym    _j,515,4,1,32
     1155                           .sym    _m,516,4,1,32
     1156                           .sym    _nSanDiskBuf,517,28,1,32
     1157                           .line   1
     1158                   ;----------------------------------------------------------------------
     1159                   ; 199 | int FileEntry()                                                        
     1160                   ; 201 | UCHAR nBuff[512];                                                      
     1161                   ;----------------------------------------------------------------------
     1162 00000158 0f2b0000         push      fp
     1163 00000159 500b0014         ldiu      sp,fp
     1164 0000015a 02740205         addi      517,sp
     1165                           .line   4
     1166                   ;----------------------------------------------------------------------
     1167                   ; 202 | int i,k,j=0,m =0;                                                      
     1168                   ; 203 | UCHAR *nSanDiskBuf;                                                    
     1169                   ;----------------------------------------------------------------------
     1170 0000015b 50710203         ldiu      515,ir0
     1171 0000015c 50600000         ldiu      0,r0
     1172 0000015d 15404300         sti       r0,*+fp(ir0)
     1173 0000015e 50710204         ldiu      516,ir0
     1174 0000015f 15404300         sti       r0,*+fp(ir0)
     1175                           .line   6
     1176                   ;----------------------------------------------------------------------
     1177                   ; 204 | nSanDiskBuf=nBuff;                                                     
     1178                   ;----------------------------------------------------------------------
     1179 00000160 50710205         ldiu      517,ir0
     1180 00000161 5000000b         ldiu      fp,r0
     1181 00000162 02600001         addi      1,r0
     1182 00000163 15404300         sti       r0,*+fp(ir0)
     1183                           .line   7
     1184                   ;----------------------------------------------------------------------
     1185                   ; 205 | for(k=0;k<(m_nDataOffset-m_nRootOffset);k++)                           
     1186                   ;----------------------------------------------------------------------
     1187 00000164 50710202         ldiu      514,ir0
     1188 00000165 50600000         ldiu      0,r0
TMS320C3x/4x COFF AssemblerVersion 5.11     Tue Dec  7 12:02:21 2010
Copyright (c) 1987-1999 Texas Instruments Incorporatedc:\lang\tms320c3x\511\bin\asm30.exe -l cf.asm cf.obj -tC:\Users\jds\AppData\Local\Temp\cf.tmp 

cf.asm                                                               PAGE   23

     1189 00000166 15404300         sti       r0,*+fp(ir0)
     1190 00000167 50414300         ldiu      *+fp(ir0),r1
     1191 00000168 50200ecc-        ldiu      @_m_nRootOffset+0,r0
     1192 00000169 19a0033f-        subri     @_m_nDataOffset+0,r0  ; Unsigned
     1193 0000016a 23800100         cmpi3     r0,r1
     1194 0000016b 6a0400c0         bhs       L61
     1195                   ;*      Branch Occurs to L61 
     1196 0000016c          L44:        
     1197                           .line   9
     1198                   ;----------------------------------------------------------------------
     1199                   ; 207 | if(m) break;                                                           
     1200                   ;----------------------------------------------------------------------
     1201 0000016c 50710204         ldiu      516,ir0
     1202 0000016d 08404300         ldi       *+fp(ir0),r0
     1203 0000016e 6a0600bd         bne       L61
     1204                   ;*      Branch Occurs to L61 
     1205                           .line   10
     1206                   ;----------------------------------------------------------------------
     1207                   ; 208 | SanDisk_ABS_RD(m_nRootOffset+k,nBuff);                                 
     1208                   ;----------------------------------------------------------------------
     1209 0000016f 50210ecc-        ldiu      @_m_nRootOffset+0,r1
     1210 00000170 50710202         ldiu      514,ir0
     1211 00000171 5000000b         ldiu      fp,r0
     1212 00000172 21214301         addi3     r1,*+fp(ir0),r1       ; Unsigned
     1213 00000173 02600001         addi      1,r0
     1214 00000174 0f200000         push      r0
     1215 00000175 0f210000         push      r1
     1216 00000176 6200007f'        call      _SanDisk_ABS_RD
     1217                                                           ; Call Occurs
     1218 00000177 18740002         subi      2,sp
     1219                           .line   12
     1220                   ;----------------------------------------------------------------------
     1221                   ; 210 | for(i=0;i<16;i++) // 512byte 내용 검색                                 
     1222                   ;----------------------------------------------------------------------
     1223 00000178 50710201         ldiu      513,ir0
     1224 00000179 50600000         ldiu      0,r0
     1225 0000017a 15404300         sti       r0,*+fp(ir0)
     1226 0000017b 50404300         ldiu      *+fp(ir0),r0
     1227 0000017c 04e00010         cmpi      16,r0
     1228 0000017d 6a0a00a4         bge       L60
     1229                   ;*      Branch Occurs to L60 
     1230 0000017e          L46:        
     1231                           .line   14
     1232                   ;----------------------------------------------------------------------
     1233                   ; 212 | if(nBuff[i*32]==NULL) {m=1; break;}                                    
     1234                   ;----------------------------------------------------------------------
     1235 0000017e 5008000b         ldiu      fp,ar0
     1236 0000017f 50600020         ldiu      32,r0
     1237 00000180 50710201         ldiu      513,ir0
     1238 00000181 02680001         addi      1,ar0
     1239 00000182 25314300         mpyi3     r0,*+fp(ir0),ir0
     1240 00000183 08404000         ldi       *+ar0(ir0),r0
     1241 00000184 6a260005         bned      L49
     1242 00000185 5308000b         ldine     fp,ar0
TMS320C3x/4x COFF AssemblerVersion 5.11     Tue Dec  7 12:02:21 2010
Copyright (c) 1987-1999 Texas Instruments Incorporatedc:\lang\tms320c3x\511\bin\asm30.exe -l cf.asm cf.obj -tC:\Users\jds\AppData\Local\Temp\cf.tmp 

cf.asm                                                               PAGE   24

     1243 00000186 53600020         ldine     32,r0
     1244 00000187 53710201         ldine     513,ir0
     1245                   ;*      Branch Occurs to L49 
     1246 00000188 50710204         ldiu      516,ir0
     1247 00000189 50600001         ldiu      1,r0
     1248 0000018a 15404300         sti       r0,*+fp(ir0)
     1249 0000018b 6a000096         bu        L60
     1250                   ;*      Branch Occurs to L60 
     1251                           .line   16
     1252                   ;----------------------------------------------------------------------
     1253                   ; 214 | if((nBuff[i*32]==0xE5)||!(nBuff[i*32+26]||nBuff[i*32+27]));
     1254                   ;     |          //지운파일, 클러스터 0                                        
     1255                   ;----------------------------------------------------------------------
     1256 0000018c          L49:        
     1257 0000018c 02680001         addi      1,ar0
     1258 0000018d 25314300         mpyi3     r0,*+fp(ir0),ir0
     1259 0000018e 50404000         ldiu      *+ar0(ir0),r0
     1260 0000018f 04e000e5         cmpi      229,r0
     1261 00000190 6a050089         beq       L59
     1262                   ;*      Branch Occurs to L59 
     1263 00000191 5008000b         ldiu      fp,ar0
     1264 00000192 50600020         ldiu      32,r0
     1265 00000193 50710201         ldiu      513,ir0
     1266 00000194 02680001         addi      1,ar0
     1267 00000195 25314300         mpyi3     r0,*+fp(ir0),ir0
     1268 00000196 0271001a         addi      26,ir0
     1269 00000197 08404000         ldi       *+ar0(ir0),r0
     1270 00000198 6a060008         bne       L53
     1271                   ;*      Branch Occurs to L53 
     1272 00000199 5008000b         ldiu      fp,ar0
     1273 0000019a 50600020         ldiu      32,r0
     1274 0000019b 50710201         ldiu      513,ir0
     1275 0000019c 02680001         addi      1,ar0
     1276 0000019d 25314300         mpyi3     r0,*+fp(ir0),ir0
     1277 0000019e 0271001b         addi      27,ir0
     1278 0000019f 08404000         ldi       *+ar0(ir0),r0
     1279 000001a0 6a050079         beq       L59
     1280                   ;*      Branch Occurs to L59 
     1281 000001a1          L53:        
     1282                           .line   17
     1283                   ;----------------------------------------------------------------------
     1284                   ; 215 | else if(!(nBuff[i*32+28]||nBuff[i*32+29]||nBuff[i*32+30]||nBuff[i*32+31
     1285                   ;     | ]));     // recycled 파일                                              
     1286                   ; 216 | else                                                                   
     1287                   ;----------------------------------------------------------------------
     1288 000001a1 5008000b         ldiu      fp,ar0
     1289 000001a2 50600020         ldiu      32,r0
     1290 000001a3 50710201         ldiu      513,ir0
     1291 000001a4 02680001         addi      1,ar0
     1292 000001a5 25314300         mpyi3     r0,*+fp(ir0),ir0
     1293 000001a6 0271001c         addi      28,ir0
     1294 000001a7 08404000         ldi       *+ar0(ir0),r0
     1295 000001a8 6a060018         bne       L58
     1296                   ;*      Branch Occurs to L58 
TMS320C3x/4x COFF AssemblerVersion 5.11     Tue Dec  7 12:02:21 2010
Copyright (c) 1987-1999 Texas Instruments Incorporatedc:\lang\tms320c3x\511\bin\asm30.exe -l cf.asm cf.obj -tC:\Users\jds\AppData\Local\Temp\cf.tmp 

cf.asm                                                               PAGE   25

     1297 000001a9 5008000b         ldiu      fp,ar0
     1298 000001aa 50600020         ldiu      32,r0
     1299 000001ab 50710201         ldiu      513,ir0
     1300 000001ac 02680001         addi      1,ar0
     1301 000001ad 25314300         mpyi3     r0,*+fp(ir0),ir0
     1302 000001ae 0271001d         addi      29,ir0
     1303 000001af 08404000         ldi       *+ar0(ir0),r0
     1304 000001b0 6a060010         bne       L58
     1305                   ;*      Branch Occurs to L58 
     1306 000001b1 5008000b         ldiu      fp,ar0
     1307 000001b2 50600020         ldiu      32,r0
     1308 000001b3 50710201         ldiu      513,ir0
     1309 000001b4 02680001         addi      1,ar0
     1310 000001b5 25314300         mpyi3     r0,*+fp(ir0),ir0
     1311 000001b6 0271001e         addi      30,ir0
     1312 000001b7 08404000         ldi       *+ar0(ir0),r0
     1313 000001b8 6a060008         bne       L58
     1314                   ;*      Branch Occurs to L58 
     1315 000001b9 5008000b         ldiu      fp,ar0
     1316 000001ba 50600020         ldiu      32,r0
     1317 000001bb 50710201         ldiu      513,ir0
     1318 000001bc 02680001         addi      1,ar0
     1319 000001bd 25314300         mpyi3     r0,*+fp(ir0),ir0
     1320 000001be 0271001f         addi      31,ir0
     1321 000001bf 08404000         ldi       *+ar0(ir0),r0
     1322 000001c0 6a050059         beq       L59
     1323                   ;*      Branch Occurs to L59 
     1324 000001c1          L58:        
     1325                           .line   20
     1326                   ;----------------------------------------------------------------------
     1327                   ; 218 | memcpy(FileList[j].FileName,&nBuff[i*32],8);                           
     1328                   ;----------------------------------------------------------------------
     1329 000001c1 5001000b         ldiu      fp,r1
     1330 000001c2 5060000d         ldiu      13,r0
     1331 000001c3 50720203         ldiu      515,ir1
     1332 000001c4 50620020         ldiu      32,r2
     1333 000001c5 50710201         ldiu      513,ir0
     1334 000001c6 02610001         addi      1,r1
     1335 000001c7 25288300         mpyi3     r0,*+fp(ir1),ar0
     1336 000001c8 25224302         mpyi3     r2,*+fp(ir0),r2
     1337 000001c9 022810ce-        addi      @CL13,ar0             ; Unsigned
     1338 000001ca 21090201         addi3     r1,r2,ar1             ; Unsigned
     1339 000001cb 50402101         ldiu      *ar1++(1),r0
     1340 000001cc 13fb0006         rpts      6                     ; Fast MEMCPY(#9)
     1341 000001cd da002021         sti       r0,*ar0++(1)
     1342                   ||      ldi       *ar1++(1),r0
     1343 000001ce 15402001         sti       r0,*ar0++(1)
     1344                           .line   21
     1345                   ;----------------------------------------------------------------------
     1346                   ; 219 | memcpy(FileList[j].ExtName,&nBuff[i*32+8],3);                          
     1347                   ;----------------------------------------------------------------------
     1348 000001cf 5001000b         ldiu      fp,r1
     1349 000001d0 50600020         ldiu      32,r0
     1350 000001d1 5062000d         ldiu      13,r2
TMS320C3x/4x COFF AssemblerVersion 5.11     Tue Dec  7 12:02:21 2010
Copyright (c) 1987-1999 Texas Instruments Incorporatedc:\lang\tms320c3x\511\bin\asm30.exe -l cf.asm cf.obj -tC:\Users\jds\AppData\Local\Temp\cf.tmp 

cf.asm                                                               PAGE   26

     1351 000001d2 25204300         mpyi3     r0,*+fp(ir0),r0
     1352 000001d3 02600008         addi      8,r0
     1353 000001d4 02610001         addi      1,r1
     1354 000001d5 25288302         mpyi3     r2,*+fp(ir1),ar0
     1355 000001d6 21090001         addi3     r1,r0,ar1             ; Unsigned
     1356 000001d7 022810cf-        addi      @CL14,ar0             ; Unsigned
     1357 000001d8 5040c100         ldiu      *ar1,r0
     1358 000001d9 1540c000         sti       r0,*ar0
     1359 000001da 50400101         ldiu      *+ar1,r0
     1360 000001db 15400001         sti       r0,*+ar0
     1361 000001dc 50400102         ldiu      *+ar1(2),r0
     1362 000001dd 15400002         sti       r0,*+ar0(2)
     1363                           .line   22
     1364                   ;----------------------------------------------------------------------
     1365                   ; 220 | FileList[j].StartCluster = (nBuff[i*32+27]<<8)|nBuff[i*32+26];         
     1366                   ;----------------------------------------------------------------------
     1367 000001de 5008000b         ldiu      fp,ar0
     1368 000001df 5009000b         ldiu      fp,ar1
     1369 000001e0 50620020         ldiu      32,r2
     1370 000001e1 25314302         mpyi3     r2,*+fp(ir0),ir0
     1371 000001e2 02690001         addi      1,ar1
     1372 000001e3 0271001b         addi      27,ir0
     1373 000001e4 50630008         ldiu      8,r3
     1374 000001e5 22a24103         ash3      r3,*+ar1(ir0),r2
     1375 000001e6 50720201         ldiu      513,ir1
     1376 000001e7 50610020         ldiu      32,r1
     1377 000001e8 25318301         mpyi3     r1,*+fp(ir1),ir0
     1378 000001e9 02680001         addi      1,ar0
     1379 000001ea 50720203         ldiu      515,ir1
     1380 000001eb 5060000d         ldiu      13,r0
     1381 000001ec 0271001a         addi      26,ir0
     1382 000001ed 25328300         mpyi3     r0,*+fp(ir1),ir1
     1383 000001ee 502a10d0-        ldiu      @CL15,ar2
     1384 000001ef 25a04002         or3       r2,*+ar0(ir0),r0
     1385 000001f0 15408200         sti       r0,*+ar2(ir1)
     1386                           .line   23
     1387                   ;----------------------------------------------------------------------
     1388                   ; 221 | FileList[j].FileSize = (nBuff[i*32+31]<<24)|(nBuff[i*32+30]<<16)|(nBuff
     1389                   ;     | [i*32+29]<<8)|nBuff[i*32+28];                                          
     1390                   ;----------------------------------------------------------------------
     1391 000001f1 50710201         ldiu      513,ir0
     1392 000001f2 25314301         mpyi3     r1,*+fp(ir0),ir0
     1393 000001f3 500a000b         ldiu      fp,ar2
     1394 000001f4 0271001f         addi      31,ir0
     1395 000001f5 026a0001         addi      1,ar2
     1396 000001f6 50610018         ldiu      24,r1
     1397 000001f7 22a14201         ash3      r1,*+ar2(ir0),r1
     1398 000001f8 5009000b         ldiu      fp,ar1
     1399 000001f9 50600020         ldiu      32,r0
     1400 000001fa 50720201         ldiu      513,ir1
     1401 000001fb 50710201         ldiu      513,ir0
     1402 000001fc 25328300         mpyi3     r0,*+fp(ir1),ir1
     1403 000001fd 02690001         addi      1,ar1
     1404 000001fe 0272001e         addi      30,ir1
TMS320C3x/4x COFF AssemblerVersion 5.11     Tue Dec  7 12:02:21 2010
Copyright (c) 1987-1999 Texas Instruments Incorporatedc:\lang\tms320c3x\511\bin\asm30.exe -l cf.asm cf.obj -tC:\Users\jds\AppData\Local\Temp\cf.tmp 

cf.asm                                                               PAGE   27

     1405 000001ff 50620010         ldiu      16,r2
     1406 00000200 22a38102         ash3      r2,*+ar1(ir1),r3
     1407 00000201 25314300         mpyi3     r0,*+fp(ir0),ir0
     1408 00000202 25830301         or3       r1,r3,r3
     1409 00000203 0271001d         addi      29,ir0
     1410 00000204 5008000b         ldiu      fp,ar0
     1411 00000205 50720201         ldiu      513,ir1
     1412 00000206 50620008         ldiu      8,r2
     1413 00000207 02680001         addi      1,ar0
     1414 00000208 50610020         ldiu      32,r1
     1415 00000209 22a24002         ash3      r2,*+ar0(ir0),r2
     1416 0000020a 25318301         mpyi3     r1,*+fp(ir1),ir0
     1417 0000020b 50720203         ldiu      515,ir1
     1418 0000020c 0271001c         addi      28,ir0
     1419 0000020d 5009000b         ldiu      fp,ar1
     1420 0000020e 5060000d         ldiu      13,r0
     1421 0000020f 502a10d1-        ldiu      @CL16,ar2
     1422 00000210 25328300         mpyi3     r0,*+fp(ir1),ir1
     1423 00000211 02690001         addi      1,ar1
     1424 00000212 25820203         or3       r3,r2,r2
     1425 00000213 25a04102         or3       r2,*+ar1(ir0),r0
     1426 00000214 15408200         sti       r0,*+ar2(ir1)
     1427                           .line   25
     1428                   ;----------------------------------------------------------------------
     1429                   ; 223 | j++;                                                                   
     1430                   ; 224 | } // else end                                                          
     1431                   ; 225 | } // for end                                                           
     1432                   ;----------------------------------------------------------------------
     1433 00000215 50600001         ldiu      1,r0
     1434 00000216 50720203         ldiu      515,ir1
     1435 00000217 50710203         ldiu      515,ir0
     1436 00000218 21208300         addi3     r0,*+fp(ir1),r0
     1437 00000219 15404300         sti       r0,*+fp(ir0)
     1438 0000021a          L59:        
     1439                           .line   12
     1440 0000021a 50600001         ldiu      1,r0
     1441 0000021b 50720201         ldiu      513,ir1
     1442 0000021c 50710201         ldiu      513,ir0
     1443 0000021d 21208300         addi3     r0,*+fp(ir1),r0
     1444 0000021e 15404300         sti       r0,*+fp(ir0)
     1445 0000021f 50404300         ldiu      *+fp(ir0),r0
     1446 00000220 04e00010         cmpi      16,r0
     1447 00000221 6a07ff5c         blt       L46
     1448                   ;*      Branch Occurs to L46 
     1449 00000222          L60:        
     1450                           .line   7
     1451 00000222 50600001         ldiu      1,r0
     1452 00000223 50710202         ldiu      514,ir0
     1453 00000224 50720202         ldiu      514,ir1
     1454 00000225 21204300         addi3     r0,*+fp(ir0),r0
     1455 00000226 15408300         sti       r0,*+fp(ir1)
     1456 00000227 50414300         ldiu      *+fp(ir0),r1
     1457 00000228 50200ecc-        ldiu      @_m_nRootOffset+0,r0
     1458 00000229 19a0033f-        subri     @_m_nDataOffset+0,r0  ; Unsigned
TMS320C3x/4x COFF AssemblerVersion 5.11     Tue Dec  7 12:02:21 2010
Copyright (c) 1987-1999 Texas Instruments Incorporatedc:\lang\tms320c3x\511\bin\asm30.exe -l cf.asm cf.obj -tC:\Users\jds\AppData\Local\Temp\cf.tmp 

cf.asm                                                               PAGE   28

     1459 0000022a 23800100         cmpi3     r0,r1
     1460 0000022b 6a01ff40         blo       L44
     1461                   ;*      Branch Occurs to L44 
     1462 0000022c          L61:        
     1463                           .line   29
     1464                   ;----------------------------------------------------------------------
     1465                   ; 227 | return j;                                                              
     1466                   ;----------------------------------------------------------------------
     1467 0000022c 50710203         ldiu      515,ir0
     1468 0000022d 50404300         ldiu      *+fp(ir0),r0
     1469                           .line   30
     1470 0000022e 50530b01         ldiu      *-fp(1),bk
     1471 0000022f 504bc300         ldiu      *fp,fp
     1472 00000230 18740207         subi      519,sp
     1473 00000231 68000013         bu        bk
     1474                   ;*      Branch Occurs to bk 
     1475                           .endfunc        228,000000000h,517
     1476                   
     1477                   
     1478                   
     1479 00000022                  .sect   ".cinit"
     1480 00000022 00000001         .field          1,32
     1481 00000023 0000010a-        .field          _nFileKindCnt+0,32
     1482 00000024 00000000         .field          0,32            ; _nFileKindCnt @ 0
     1483                   
     1484 00000232                  .sect   ".text"
     1485                   
     1486                           .global _nFileKindCnt
     1487 0000010a                  .bss    _nFileKindCnt,1
     1488                           .sym    _nFileKindCnt,_nFileKindCnt,12,2,32
     1489 00000232                  .sect    ".text"
     1490                   
     1491                           .global _FileCompare1
     1492                           .sym    _FileCompare1,_FileCompare1,36,2,0
     1493                           .func   237
     1494                   ;******************************************************************************
     1495                   ;* FUNCTION NAME: _FileCompare1                                               *
     1496                   ;*                                                                            *
     1497                   ;*   Architecture       : TMS320C30                                           *
     1498                   ;*   Calling Convention : Stack Parameter Convention                          *
     1499                   ;*   Function Uses Regs : r0,r1,r2,fp,sp,st                                   *
     1500                   ;*   Regs Saved         :                                                     *
     1501                   ;*   Stack Frame        : Full (w/ debug)                                     *
     1502                   ;*   Total Frame Size   : 2 Call + 0 Parm + 2 Auto + 0 SOE = 4 words          *
     1503                   ;******************************************************************************
     1504 00000232          _FileCompare1:
     1505                           .sym    _i,1,4,1,32
     1506                           .sym    _j,2,4,1,32
     1507                           .line   1
     1508                   ;----------------------------------------------------------------------
     1509                   ; 237 | int FileCompare1()                                                     
     1510                   ;----------------------------------------------------------------------
     1511 00000232 0f2b0000         push      fp
     1512 00000233 500b0014         ldiu      sp,fp
TMS320C3x/4x COFF AssemblerVersion 5.11     Tue Dec  7 12:02:21 2010
Copyright (c) 1987-1999 Texas Instruments Incorporatedc:\lang\tms320c3x\511\bin\asm30.exe -l cf.asm cf.obj -tC:\Users\jds\AppData\Local\Temp\cf.tmp 

cf.asm                                                               PAGE   29

     1513 00000234 02740002         addi      2,sp
     1514                           .line   3
     1515                   ;----------------------------------------------------------------------
     1516                   ; 239 | int i,j=-1;                                                            
     1517                   ;----------------------------------------------------------------------
     1518 00000235 5060ffff         ldiu      -1,r0
     1519 00000236 15400302         sti       r0,*+fp(2)
     1520                           .line   5
     1521                   ;----------------------------------------------------------------------
     1522                   ; 241 | nFileKindCnt = FileEntry();                                            
     1523                   ;----------------------------------------------------------------------
     1524 00000237 62000158'        call      _FileEntry
     1525                                                           ; Call Occurs
     1526 00000238 1520010a-        sti       r0,@_nFileKindCnt+0
     1527                           .line   7
     1528                   ;----------------------------------------------------------------------
     1529                   ; 243 | for(i=0;i<nFileKindCnt;i++)                                            
     1530                   ;----------------------------------------------------------------------
     1531 00000239 50600000         ldiu      0,r0
     1532 0000023a 15400301         sti       r0,*+fp(1)
     1533 0000023b 50400301         ldiu      *+fp(1),r0
     1534 0000023c 04a0010a-        cmpi      @_nFileKindCnt+0,r0
     1535 0000023d 6a040021         bhs       L69
     1536                   ;*      Branch Occurs to L69 
     1537 0000023e          L65:        
     1538                           .line   9
     1539                   ;----------------------------------------------------------------------
     1540                   ; 245 | if(!strncmp(FileList[i].FileName,(UCHAR *)"PATTERN ",8) && !strncmp(Fil
     1541                   ;     | eList[i].ExtName,(UCHAR *)"BIN",3)){j=i;break;}                        
     1542                   ;----------------------------------------------------------------------
     1543 0000023e 50400301         ldiu      *+fp(1),r0
     1544 0000023f 50620008         ldiu      8,r2
     1545 00000240 502110d2-        ldiu      @CL17,r1
     1546 00000241 0ae0000d         mpyi      13,r0
     1547 00000242 0f220000         push      r2
     1548 00000243 022010ce-        addi      @CL13,r0              ; Unsigned
     1549 00000244 0f210000         push      r1
     1550 00000245 0f200000         push      r0
     1551 00000246 62000000!        call      _strncmp
     1552                                                           ; Call Occurs
     1553 00000247 04e00000         cmpi      0,r0
     1554 00000248 18740003         subi      3,sp
     1555 00000249 6a06000f         bne       L68
     1556                   ;*      Branch Occurs to L68 
     1557 0000024a 50400301         ldiu      *+fp(1),r0
     1558 0000024b 50620003         ldiu      3,r2
     1559 0000024c 502110d3-        ldiu      @CL18,r1
     1560 0000024d 0ae0000d         mpyi      13,r0
     1561 0000024e 0f220000         push      r2
     1562 0000024f 022010cf-        addi      @CL14,r0              ; Unsigned
     1563 00000250 0f210000         push      r1
     1564 00000251 0f200000         push      r0
     1565 00000252 62000000!        call      _strncmp
     1566                                                           ; Call Occurs
TMS320C3x/4x COFF AssemblerVersion 5.11     Tue Dec  7 12:02:21 2010
Copyright (c) 1987-1999 Texas Instruments Incorporatedc:\lang\tms320c3x\511\bin\asm30.exe -l cf.asm cf.obj -tC:\Users\jds\AppData\Local\Temp\cf.tmp 

cf.asm                                                               PAGE   30

     1567 00000253 04e00000         cmpi      0,r0
     1568 00000254 18740003         subi      3,sp
     1569 00000255 6a060003         bne       L68
     1570                   ;*      Branch Occurs to L68 
     1571 00000256 50400301         ldiu      *+fp(1),r0
     1572 00000257 15400302         sti       r0,*+fp(2)
     1573 00000258 6a000006         bu        L69
     1574                   ;*      Branch Occurs to L69 
     1575 00000259          L68:        
     1576                           .line   7
     1577 00000259 50600001         ldiu      1,r0
     1578 0000025a 02400301         addi      *+fp(1),r0
     1579 0000025b 15400301         sti       r0,*+fp(1)
     1580 0000025c 50400301         ldiu      *+fp(1),r0
     1581 0000025d 04a0010a-        cmpi      @_nFileKindCnt+0,r0
     1582 0000025e 6a01ffdf         blo       L65
     1583                   ;*      Branch Occurs to L65 
     1584 0000025f          L69:        
     1585                           .line   11
     1586                   ;----------------------------------------------------------------------
     1587                   ; 247 | return j;                                                              
     1588                   ;----------------------------------------------------------------------
     1589 0000025f 50400302         ldiu      *+fp(2),r0
     1590                           .line   12
     1591 00000260 50530b01         ldiu      *-fp(1),bk
     1592 00000261 504bc300         ldiu      *fp,fp
     1593 00000262 18740004         subi      4,sp
     1594 00000263 68000013         bu        bk
     1595                   ;*      Branch Occurs to bk 
     1596                           .endfunc        248,000000000h,2
     1597                   
     1598                   
     1599 00000264                  .sect    ".text"
     1600                   
     1601                           .global _FileCompare2
     1602                           .sym    _FileCompare2,_FileCompare2,36,2,0
     1603                           .func   250
     1604                   ;******************************************************************************
     1605                   ;* FUNCTION NAME: _FileCompare2                                               *
     1606                   ;*                                                                            *
     1607                   ;*   Architecture       : TMS320C30                                           *
     1608                   ;*   Calling Convention : Stack Parameter Convention                          *
     1609                   ;*   Function Uses Regs : r0,r1,r2,fp,sp,st                                   *
     1610                   ;*   Regs Saved         :                                                     *
     1611                   ;*   Stack Frame        : Full (w/ debug)                                     *
     1612                   ;*   Total Frame Size   : 2 Call + 0 Parm + 2 Auto + 0 SOE = 4 words          *
     1613                   ;******************************************************************************
     1614 00000264          _FileCompare2:
     1615                           .sym    _i,1,4,1,32
     1616                           .sym    _j,2,4,1,32
     1617                           .line   1
     1618                   ;----------------------------------------------------------------------
     1619                   ; 250 | int FileCompare2()                                                     
     1620                   ;----------------------------------------------------------------------
TMS320C3x/4x COFF AssemblerVersion 5.11     Tue Dec  7 12:02:21 2010
Copyright (c) 1987-1999 Texas Instruments Incorporatedc:\lang\tms320c3x\511\bin\asm30.exe -l cf.asm cf.obj -tC:\Users\jds\AppData\Local\Temp\cf.tmp 

cf.asm                                                               PAGE   31

     1621 00000264 0f2b0000         push      fp
     1622 00000265 500b0014         ldiu      sp,fp
     1623 00000266 02740002         addi      2,sp
     1624                           .line   3
     1625                   ;----------------------------------------------------------------------
     1626                   ; 252 | int i,j=-1;                                                            
     1627                   ;----------------------------------------------------------------------
     1628 00000267 5060ffff         ldiu      -1,r0
     1629 00000268 15400302         sti       r0,*+fp(2)
     1630                           .line   5
     1631                   ;----------------------------------------------------------------------
     1632                   ; 254 | for(i=0;i<nFileKindCnt;i++)                                            
     1633                   ;----------------------------------------------------------------------
     1634 00000269 50600000         ldiu      0,r0
     1635 0000026a 15400301         sti       r0,*+fp(1)
     1636 0000026b 50400301         ldiu      *+fp(1),r0
     1637 0000026c 04a0010a-        cmpi      @_nFileKindCnt+0,r0
     1638 0000026d 6a040021         bhs       L77
     1639                   ;*      Branch Occurs to L77 
     1640 0000026e          L73:        
     1641                           .line   7
     1642                   ;----------------------------------------------------------------------
     1643                   ; 256 | if(!strncmp(FileList[i].FileName,(UCHAR *)"IDC_SW",6) && !strncmp(FileL
     1644                   ;     | ist[i].ExtName,(UCHAR *)"BIN",3)){j=i;break;}                          
     1645                   ;----------------------------------------------------------------------
     1646 0000026e 50400301         ldiu      *+fp(1),r0
     1647 0000026f 50620006         ldiu      6,r2
     1648 00000270 502110d4-        ldiu      @CL19,r1
     1649 00000271 0ae0000d         mpyi      13,r0
     1650 00000272 0f220000         push      r2
     1651 00000273 022010ce-        addi      @CL13,r0              ; Unsigned
     1652 00000274 0f210000         push      r1
     1653 00000275 0f200000         push      r0
     1654 00000276 62000000!        call      _strncmp
     1655                                                           ; Call Occurs
     1656 00000277 04e00000         cmpi      0,r0
     1657 00000278 18740003         subi      3,sp
     1658 00000279 6a06000f         bne       L76
     1659                   ;*      Branch Occurs to L76 
     1660 0000027a 50400301         ldiu      *+fp(1),r0
     1661 0000027b 50620003         ldiu      3,r2
     1662 0000027c 502110d3-        ldiu      @CL18,r1
     1663 0000027d 0ae0000d         mpyi      13,r0
     1664 0000027e 0f220000         push      r2
     1665 0000027f 022010cf-        addi      @CL14,r0              ; Unsigned
     1666 00000280 0f210000         push      r1
     1667 00000281 0f200000         push      r0
     1668 00000282 62000000!        call      _strncmp
     1669                                                           ; Call Occurs
     1670 00000283 04e00000         cmpi      0,r0
     1671 00000284 18740003         subi      3,sp
     1672 00000285 6a060003         bne       L76
     1673                   ;*      Branch Occurs to L76 
     1674 00000286 50400301         ldiu      *+fp(1),r0
TMS320C3x/4x COFF AssemblerVersion 5.11     Tue Dec  7 12:02:21 2010
Copyright (c) 1987-1999 Texas Instruments Incorporatedc:\lang\tms320c3x\511\bin\asm30.exe -l cf.asm cf.obj -tC:\Users\jds\AppData\Local\Temp\cf.tmp 

cf.asm                                                               PAGE   32

     1675 00000287 15400302         sti       r0,*+fp(2)
     1676 00000288 6a000006         bu        L77
     1677                   ;*      Branch Occurs to L77 
     1678 00000289          L76:        
     1679                           .line   5
     1680 00000289 50600001         ldiu      1,r0
     1681 0000028a 02400301         addi      *+fp(1),r0
     1682 0000028b 15400301         sti       r0,*+fp(1)
     1683 0000028c 50400301         ldiu      *+fp(1),r0
     1684 0000028d 04a0010a-        cmpi      @_nFileKindCnt+0,r0
     1685 0000028e 6a01ffdf         blo       L73
     1686                   ;*      Branch Occurs to L73 
     1687 0000028f          L77:        
     1688                           .line   9
     1689                   ;----------------------------------------------------------------------
     1690                   ; 258 | return j;                                                              
     1691                   ;----------------------------------------------------------------------
     1692 0000028f 50400302         ldiu      *+fp(2),r0
     1693                           .line   11
     1694 00000290 50530b01         ldiu      *-fp(1),bk
     1695 00000291 504bc300         ldiu      *fp,fp
     1696 00000292 18740004         subi      4,sp
     1697 00000293 68000013         bu        bk
     1698                   ;*      Branch Occurs to bk 
     1699                           .endfunc        260,000000000h,2
     1700                   
     1701                   
     1702 00000294                  .sect    ".text"
     1703                   
     1704                           .global _SDD_SWFind
     1705                           .sym    _SDD_SWFind,_SDD_SWFind,36,2,0
     1706                           .func   262
     1707                   ;******************************************************************************
     1708                   ;* FUNCTION NAME: _SDD_SWFind                                                 *
     1709                   ;*                                                                            *
     1710                   ;*   Architecture       : TMS320C30                                           *
     1711                   ;*   Calling Convention : Stack Parameter Convention                          *
     1712                   ;*   Function Uses Regs : r0,r1,r2,fp,sp,st                                   *
     1713                   ;*   Regs Saved         :                                                     *
     1714                   ;*   Stack Frame        : Full (w/ debug)                                     *
     1715                   ;*   Total Frame Size   : 2 Call + 0 Parm + 2 Auto + 0 SOE = 4 words          *
     1716                   ;******************************************************************************
     1717 00000294          _SDD_SWFind:
     1718                           .sym    _i,1,4,1,32
     1719                           .sym    _j,2,4,1,32
     1720                           .line   1
     1721                   ;----------------------------------------------------------------------
     1722                   ; 262 | int SDD_SWFind()                                                       
     1723                   ;----------------------------------------------------------------------
     1724 00000294 0f2b0000         push      fp
     1725 00000295 500b0014         ldiu      sp,fp
     1726 00000296 02740002         addi      2,sp
     1727                           .line   3
     1728                   ;----------------------------------------------------------------------
TMS320C3x/4x COFF AssemblerVersion 5.11     Tue Dec  7 12:02:21 2010
Copyright (c) 1987-1999 Texas Instruments Incorporatedc:\lang\tms320c3x\511\bin\asm30.exe -l cf.asm cf.obj -tC:\Users\jds\AppData\Local\Temp\cf.tmp 

cf.asm                                                               PAGE   33

     1729                   ; 264 | int i,j=-1;                                                            
     1730                   ;----------------------------------------------------------------------
     1731 00000297 5060ffff         ldiu      -1,r0
     1732 00000298 15400302         sti       r0,*+fp(2)
     1733                           .line   5
     1734                   ;----------------------------------------------------------------------
     1735                   ; 266 | for(i=0;i<nFileKindCnt;i++)                                            
     1736                   ;----------------------------------------------------------------------
     1737 00000299 50600000         ldiu      0,r0
     1738 0000029a 15400301         sti       r0,*+fp(1)
     1739 0000029b 50400301         ldiu      *+fp(1),r0
     1740 0000029c 04a0010a-        cmpi      @_nFileKindCnt+0,r0
     1741 0000029d 6a040021         bhs       L85
     1742                   ;*      Branch Occurs to L85 
     1743 0000029e          L81:        
     1744                           .line   7
     1745                   ;----------------------------------------------------------------------
     1746                   ; 268 | if(!strncmp(FileList[i].FileName,(UCHAR *)"SDD_SW",6) && !strncmp(FileL
     1747                   ;     | ist[i].ExtName,(UCHAR *)"BIN",3)){j=i;break;}                          
     1748                   ;----------------------------------------------------------------------
     1749 0000029e 50400301         ldiu      *+fp(1),r0
     1750 0000029f 50620006         ldiu      6,r2
     1751 000002a0 502110d5-        ldiu      @CL20,r1
     1752 000002a1 0ae0000d         mpyi      13,r0
     1753 000002a2 0f220000         push      r2
     1754 000002a3 022010ce-        addi      @CL13,r0              ; Unsigned
     1755 000002a4 0f210000         push      r1
     1756 000002a5 0f200000         push      r0
     1757 000002a6 62000000!        call      _strncmp
     1758                                                           ; Call Occurs
     1759 000002a7 04e00000         cmpi      0,r0
     1760 000002a8 18740003         subi      3,sp
     1761 000002a9 6a06000f         bne       L84
     1762                   ;*      Branch Occurs to L84 
     1763 000002aa 50400301         ldiu      *+fp(1),r0
     1764 000002ab 50620003         ldiu      3,r2
     1765 000002ac 502110d3-        ldiu      @CL18,r1
     1766 000002ad 0ae0000d         mpyi      13,r0
     1767 000002ae 0f220000         push      r2
     1768 000002af 022010cf-        addi      @CL14,r0              ; Unsigned
     1769 000002b0 0f210000         push      r1
     1770 000002b1 0f200000         push      r0
     1771 000002b2 62000000!        call      _strncmp
     1772                                                           ; Call Occurs
     1773 000002b3 04e00000         cmpi      0,r0
     1774 000002b4 18740003         subi      3,sp
     1775 000002b5 6a060003         bne       L84
     1776                   ;*      Branch Occurs to L84 
     1777 000002b6 50400301         ldiu      *+fp(1),r0
     1778 000002b7 15400302         sti       r0,*+fp(2)
     1779 000002b8 6a000006         bu        L85
     1780                   ;*      Branch Occurs to L85 
     1781 000002b9          L84:        
     1782                           .line   5
TMS320C3x/4x COFF AssemblerVersion 5.11     Tue Dec  7 12:02:21 2010
Copyright (c) 1987-1999 Texas Instruments Incorporatedc:\lang\tms320c3x\511\bin\asm30.exe -l cf.asm cf.obj -tC:\Users\jds\AppData\Local\Temp\cf.tmp 

cf.asm                                                               PAGE   34

     1783 000002b9 50600001         ldiu      1,r0
     1784 000002ba 02400301         addi      *+fp(1),r0
     1785 000002bb 15400301         sti       r0,*+fp(1)
     1786 000002bc 50400301         ldiu      *+fp(1),r0
     1787 000002bd 04a0010a-        cmpi      @_nFileKindCnt+0,r0
     1788 000002be 6a01ffdf         blo       L81
     1789                   ;*      Branch Occurs to L81 
     1790 000002bf          L85:        
     1791                           .line   9
     1792                   ;----------------------------------------------------------------------
     1793                   ; 270 | return j;                                                              
     1794                   ;----------------------------------------------------------------------
     1795 000002bf 50400302         ldiu      *+fp(2),r0
     1796                           .line   10
     1797 000002c0 50530b01         ldiu      *-fp(1),bk
     1798 000002c1 504bc300         ldiu      *fp,fp
     1799 000002c2 18740004         subi      4,sp
     1800 000002c3 68000013         bu        bk
     1801                   ;*      Branch Occurs to bk 
     1802                           .endfunc        271,000000000h,2
     1803                   
     1804                   
     1805 000002c4                  .sect    ".text"
     1806                   
     1807                           .global _FDD_SWFind
     1808                           .sym    _FDD_SWFind,_FDD_SWFind,36,2,0
     1809                           .func   273
     1810                   ;******************************************************************************
     1811                   ;* FUNCTION NAME: _FDD_SWFind                                                 *
     1812                   ;*                                                                            *
     1813                   ;*   Architecture       : TMS320C30                                           *
     1814                   ;*   Calling Convention : Stack Parameter Convention                          *
     1815                   ;*   Function Uses Regs : r0,r1,r2,fp,sp,st                                   *
     1816                   ;*   Regs Saved         :                                                     *
     1817                   ;*   Stack Frame        : Full (w/ debug)                                     *
     1818                   ;*   Total Frame Size   : 2 Call + 0 Parm + 2 Auto + 0 SOE = 4 words          *
     1819                   ;******************************************************************************
     1820 000002c4          _FDD_SWFind:
     1821                           .sym    _i,1,4,1,32
     1822                           .sym    _j,2,4,1,32
     1823                           .line   1
     1824                   ;----------------------------------------------------------------------
     1825                   ; 273 | int FDD_SWFind()                                                       
     1826                   ;----------------------------------------------------------------------
     1827 000002c4 0f2b0000         push      fp
     1828 000002c5 500b0014         ldiu      sp,fp
     1829 000002c6 02740002         addi      2,sp
     1830                           .line   3
     1831                   ;----------------------------------------------------------------------
     1832                   ; 275 | int i,j=-1;                                                            
     1833                   ;----------------------------------------------------------------------
     1834 000002c7 5060ffff         ldiu      -1,r0
     1835 000002c8 15400302         sti       r0,*+fp(2)
     1836                           .line   5
TMS320C3x/4x COFF AssemblerVersion 5.11     Tue Dec  7 12:02:21 2010
Copyright (c) 1987-1999 Texas Instruments Incorporatedc:\lang\tms320c3x\511\bin\asm30.exe -l cf.asm cf.obj -tC:\Users\jds\AppData\Local\Temp\cf.tmp 

cf.asm                                                               PAGE   35

     1837                   ;----------------------------------------------------------------------
     1838                   ; 277 | for(i=0;i<nFileKindCnt;i++)                                            
     1839                   ;----------------------------------------------------------------------
     1840 000002c9 50600000         ldiu      0,r0
     1841 000002ca 15400301         sti       r0,*+fp(1)
     1842 000002cb 50400301         ldiu      *+fp(1),r0
     1843 000002cc 04a0010a-        cmpi      @_nFileKindCnt+0,r0
     1844 000002cd 6a040021         bhs       L93
     1845                   ;*      Branch Occurs to L93 
     1846 000002ce          L89:        
     1847                           .line   7
     1848                   ;----------------------------------------------------------------------
     1849                   ; 279 | if(!strncmp(FileList[i].FileName,(UCHAR *)"FDD_SW",6) && !strncmp(FileL
     1850                   ;     | ist[i].ExtName,(UCHAR *)"BIN",3)){j=i;break;}                          
     1851                   ;----------------------------------------------------------------------
     1852 000002ce 50400301         ldiu      *+fp(1),r0
     1853 000002cf 50620006         ldiu      6,r2
     1854 000002d0 502110d6-        ldiu      @CL21,r1
     1855 000002d1 0ae0000d         mpyi      13,r0
     1856 000002d2 0f220000         push      r2
     1857 000002d3 022010ce-        addi      @CL13,r0              ; Unsigned
     1858 000002d4 0f210000         push      r1
     1859 000002d5 0f200000         push      r0
     1860 000002d6 62000000!        call      _strncmp
     1861                                                           ; Call Occurs
     1862 000002d7 04e00000         cmpi      0,r0
     1863 000002d8 18740003         subi      3,sp
     1864 000002d9 6a06000f         bne       L92
     1865                   ;*      Branch Occurs to L92 
     1866 000002da 50400301         ldiu      *+fp(1),r0
     1867 000002db 50620003         ldiu      3,r2
     1868 000002dc 502110d3-        ldiu      @CL18,r1
     1869 000002dd 0ae0000d         mpyi      13,r0
     1870 000002de 0f220000         push      r2
     1871 000002df 022010cf-        addi      @CL14,r0              ; Unsigned
     1872 000002e0 0f210000         push      r1
     1873 000002e1 0f200000         push      r0
     1874 000002e2 62000000!        call      _strncmp
     1875                                                           ; Call Occurs
     1876 000002e3 04e00000         cmpi      0,r0
     1877 000002e4 18740003         subi      3,sp
     1878 000002e5 6a060003         bne       L92
     1879                   ;*      Branch Occurs to L92 
     1880 000002e6 50400301         ldiu      *+fp(1),r0
     1881 000002e7 15400302         sti       r0,*+fp(2)
     1882 000002e8 6a000006         bu        L93
     1883                   ;*      Branch Occurs to L93 
     1884 000002e9          L92:        
     1885                           .line   5
     1886 000002e9 50600001         ldiu      1,r0
     1887 000002ea 02400301         addi      *+fp(1),r0
     1888 000002eb 15400301         sti       r0,*+fp(1)
     1889 000002ec 50400301         ldiu      *+fp(1),r0
     1890 000002ed 04a0010a-        cmpi      @_nFileKindCnt+0,r0
TMS320C3x/4x COFF AssemblerVersion 5.11     Tue Dec  7 12:02:21 2010
Copyright (c) 1987-1999 Texas Instruments Incorporatedc:\lang\tms320c3x\511\bin\asm30.exe -l cf.asm cf.obj -tC:\Users\jds\AppData\Local\Temp\cf.tmp 

cf.asm                                                               PAGE   36

     1891 000002ee 6a01ffdf         blo       L89
     1892                   ;*      Branch Occurs to L89 
     1893 000002ef          L93:        
     1894                           .line   9
     1895                   ;----------------------------------------------------------------------
     1896                   ; 281 | return j;                                                              
     1897                   ;----------------------------------------------------------------------
     1898 000002ef 50400302         ldiu      *+fp(2),r0
     1899                           .line   10
     1900 000002f0 50530b01         ldiu      *-fp(1),bk
     1901 000002f1 504bc300         ldiu      *fp,fp
     1902 000002f2 18740004         subi      4,sp
     1903 000002f3 68000013         bu        bk
     1904                   ;*      Branch Occurs to bk 
     1905                           .endfunc        282,000000000h,2
     1906                   
     1907                   
     1908                   
     1909 00000025                  .sect   ".cinit"
     1910 00000025 00000001         .field          1,32
     1911 00000026 0000010b-        .field          _d_Sector_Cnt+0,32
     1912 00000027 00000000         .field          0,32            ; _d_Sector_Cnt @ 0
     1913                   
     1914 000002f4                  .sect   ".text"
     1915                   
     1916                           .global _d_Sector_Cnt
     1917 0000010b                  .bss    _d_Sector_Cnt,1
     1918                           .sym    _d_Sector_Cnt,_d_Sector_Cnt,12,2,32
     1919 000002f4                  .sect    ".text"
     1920                   
     1921                           .global _GetUsedCluster
     1922                           .sym    _GetUsedCluster,_GetUsedCluster,45,2,0
     1923                           .func   291
     1924                   ;******************************************************************************
     1925                   ;* FUNCTION NAME: _GetUsedCluster                                             *
     1926                   ;*                                                                            *
     1927                   ;*   Architecture       : TMS320C30                                           *
     1928                   ;*   Calling Convention : Stack Parameter Convention                          *
     1929                   ;*   Function Uses Regs : r0,r1,ar0,ar1,ar2,fp,ar4,ir0,ir1,sp,st              *
     1930                   ;*   Regs Saved         : ar4                                                 *
     1931                   ;*   Stack Frame        : Full (w/ debug)                                     *
     1932                   ;*   Total Frame Size   : 2 Call + 2 Parm + 1543 Auto + 1 SOE = 1548 words    *
     1933                   ;******************************************************************************
     1934 000002f4          _GetUsedCluster:
     1935                           .sym    _nSize,-2,13,9,32
     1936                           .sym    _pNextCluster,-3,28,9,32
     1937                           .sym    _i,1,13,1,32
     1938                           .sym    _k,2,13,1,32
     1939                           .sym    _j,3,13,1,32
     1940                           .sym    _PreRDSector,4,4,1,32
     1941                           .sym    _FATOffset,5,4,1,32
     1942                           .sym    _nTemp,6,4,1,32
     1943                           .sym    _nBuff,7,60,1,49152,,1536
     1944                           .sym    _nSanDiskBuf,1543,28,1,32
TMS320C3x/4x COFF AssemblerVersion 5.11     Tue Dec  7 12:02:21 2010
Copyright (c) 1987-1999 Texas Instruments Incorporatedc:\lang\tms320c3x\511\bin\asm30.exe -l cf.asm cf.obj -tC:\Users\jds\AppData\Local\Temp\cf.tmp 

cf.asm                                                               PAGE   37

     1945                           .line   1
     1946                   ;----------------------------------------------------------------------
     1947                   ; 291 | WORD GetUsedCluster(WORD nSize,UCHAR *pNextCluster)                    
     1948                   ;----------------------------------------------------------------------
     1949 000002f4 0f2b0000         push      fp
     1950 000002f5 500b0014         ldiu      sp,fp
     1951 000002f6 02740607         addi      1543,sp
     1952 000002f7 0f2c0000         push      ar4
     1953                           .line   2
     1954                   ;----------------------------------------------------------------------
     1955                   ; 293 | WORD i,k,j;                                                            
     1956                   ;----------------------------------------------------------------------
     1957                           .line   4
     1958                   ;----------------------------------------------------------------------
     1959                   ; 294 | int PreRDSector = 0;                                                   
     1960                   ; 295 | int FATOffset;                                                         
     1961                   ; 296 | int nTemp;                                                             
     1962                   ; 297 | UCHAR nBuff[0x600];                                                    
     1963                   ; 299 | UCHAR *nSanDiskBuf;                                                    
     1964                   ;----------------------------------------------------------------------
     1965 000002f8 50600000         ldiu      0,r0
     1966 000002f9 15400304         sti       r0,*+fp(4)
     1967                           .line   10
     1968                   ;----------------------------------------------------------------------
     1969                   ; 300 | nSanDiskBuf=nBuff;                                                     
     1970                   ; 301 | switch(m_nFat)                                                         
     1971                   ; 303 |         case DOS_PTYPE_FAT12:                                          
     1972                   ;----------------------------------------------------------------------
     1973 000002fa 50710607         ldiu      1543,ir0
     1974 000002fb 6a2000b5         bud       L112
     1975 000002fc 5000000b         ldiu      fp,r0
     1976 000002fd 02600007         addi      7,r0
     1977 000002fe 15404300         sti       r0,*+fp(ir0)
     1978                   ;*      Branch Occurs to L112 
     1979 000002ff          L97:        
     1980                           .line   15
     1981                   ;----------------------------------------------------------------------
     1982                   ; 305 | FATOffset = glStartCluster/1024 +1;             // FAT sector Offset   
     1983                   ;----------------------------------------------------------------------
     1984 000002ff 50200005-        ldiu      @_glStartCluster+0,r0
     1985 00000300 09e0fff6         lsh       -10,r0
     1986 00000301 02600001         addi      1,r0                  ; Unsigned
     1987 00000302 15400305         sti       r0,*+fp(5)
     1988                           .line   16
     1989                   ;----------------------------------------------------------------------
     1990                   ; 306 | pNextCluster[0] = glStartCluster;                                      
     1991                   ;----------------------------------------------------------------------
     1992 00000303 50480b03         ldiu      *-fp(3),ar0
     1993 00000304 50200005-        ldiu      @_glStartCluster+0,r0
     1994 00000305 1540c000         sti       r0,*ar0
     1995                           .line   18
     1996                   ;----------------------------------------------------------------------
     1997                   ; 308 | for(i=1;i<nSize/512/m_nSecPerClust+1;i++)       // 클러스터의 옵셋과 결
     1998                   ;     | 과 값이 다른경우 에러처리 필요                                         
TMS320C3x/4x COFF AssemblerVersion 5.11     Tue Dec  7 12:02:21 2010
Copyright (c) 1987-1999 Texas Instruments Incorporatedc:\lang\tms320c3x\511\bin\asm30.exe -l cf.asm cf.obj -tC:\Users\jds\AppData\Local\Temp\cf.tmp 

cf.asm                                                               PAGE   38

     1999                   ;----------------------------------------------------------------------
     2000 00000306 50600001         ldiu      1,r0
     2001 00000307 15400301         sti       r0,*+fp(1)
     2002 00000308 50210eb8-        ldiu      @_m_nSecPerClust+0,r1
     2003 00000309 50400b02         ldiu      *-fp(2),r0
     2004 0000030a 09e0fff7         lsh       -9,r0
     2005 0000030b 62000000!        call      DIV_U30
     2006                                                           ; Call Occurs
     2007 0000030c 02600001         addi      1,r0                  ; Unsigned
     2008 0000030d 50410301         ldiu      *+fp(1),r1
     2009 0000030e 23800100         cmpi3     r0,r1
     2010 0000030f 6a0400a8         bhs       L114
     2011                   ;*      Branch Occurs to L114 
     2012 00000310          L98:        
     2013                           .line   20
     2014                   ;----------------------------------------------------------------------
     2015                   ; 310 | if(PreRDSector != FATOffset)                                           
     2016                   ;----------------------------------------------------------------------
     2017 00000310 50400304         ldiu      *+fp(4),r0
     2018 00000311 04c00305         cmpi      *+fp(5),r0
     2019 00000312 6a050017         beq       L100
     2020                   ;*      Branch Occurs to L100 
     2021                           .line   22
     2022                   ;----------------------------------------------------------------------
     2023                   ; 312 | SanDisk_ABS_RD(FATOffset,nBuff);                                       
     2024                   ;----------------------------------------------------------------------
     2025 00000313 5000000b         ldiu      fp,r0
     2026 00000314 50410305         ldiu      *+fp(5),r1
     2027 00000315 02600007         addi      7,r0
     2028 00000316 0f200000         push      r0
     2029 00000317 0f210000         push      r1
     2030 00000318 6200007f'        call      _SanDisk_ABS_RD
     2031                                                           ; Call Occurs
     2032 00000319 18740002         subi      2,sp
     2033                           .line   23
     2034                   ;----------------------------------------------------------------------
     2035                   ; 313 | SanDisk_ABS_RD(FATOffset+1,nBuff+0x200);                               
     2036                   ;----------------------------------------------------------------------
     2037 0000031a 50600001         ldiu      1,r0
     2038 0000031b 50610207         ldiu      519,r1
     2039 0000031c 02400305         addi      *+fp(5),r0            ; Unsigned
     2040 0000031d 0201000b         addi      fp,r1
     2041 0000031e 0f210000         push      r1
     2042 0000031f 0f200000         push      r0
     2043 00000320 6200007f'        call      _SanDisk_ABS_RD
     2044                                                           ; Call Occurs
     2045 00000321 18740002         subi      2,sp
     2046                           .line   24
     2047                   ;----------------------------------------------------------------------
     2048                   ; 314 | SanDisk_ABS_RD(FATOffset+2,nBuff+0x400);                               
     2049                   ;----------------------------------------------------------------------
     2050 00000322 50610407         ldiu      1031,r1
     2051 00000323 50600002         ldiu      2,r0
     2052 00000324 02400305         addi      *+fp(5),r0            ; Unsigned
TMS320C3x/4x COFF AssemblerVersion 5.11     Tue Dec  7 12:02:21 2010
Copyright (c) 1987-1999 Texas Instruments Incorporatedc:\lang\tms320c3x\511\bin\asm30.exe -l cf.asm cf.obj -tC:\Users\jds\AppData\Local\Temp\cf.tmp 

cf.asm                                                               PAGE   39

     2053 00000325 0201000b         addi      fp,r1
     2054 00000326 0f210000         push      r1
     2055 00000327 0f200000         push      r0
     2056 00000328 6200007f'        call      _SanDisk_ABS_RD
     2057                                                           ; Call Occurs
     2058 00000329 18740002         subi      2,sp
     2059 0000032a          L100:        
     2060                           .line   26
     2061                   ;----------------------------------------------------------------------
     2062                   ; 316 | PreRDSector= FATOffset;                 // 이전 FAT 섹터 읽기 백업
     2063                   ;     |                                                                        
     2064                   ;----------------------------------------------------------------------
     2065 0000032a 50400305         ldiu      *+fp(5),r0
     2066 0000032b 15400304         sti       r0,*+fp(4)
     2067                           .line   28
     2068                   ;----------------------------------------------------------------------
     2069                   ; 318 | k = ((pNextCluster[i-1]%1024)*3)/2;     // 클러스터 시작 어드레스 (하위
     2070                   ;     | )                                                                      
     2071                   ;----------------------------------------------------------------------
     2072 0000032c 50480301         ldiu      *+fp(1),ar0
     2073 0000032d 02480b03         addi      *-fp(3),ar0           ; Unsigned
     2074 0000032e 506003ff         ldiu      1023,r0
     2075 0000032f 02c00801         and       *-ar0(1),r0
     2076 00000330 50610003         ldiu      3,r1
     2077 00000331 62000000!        call      MPY_K30
     2078                                                           ; Call Occurs
     2079 00000332 09a010d7-        lsh       @CL22,r0
     2080 00000333 15400302         sti       r0,*+fp(2)
     2081                           .line   29
     2082                   ;----------------------------------------------------------------------
     2083                   ; 319 | pNextCluster[i] = ((nBuff[k+1]<<8)&0xff00)|nBuff[k];                   
     2084                   ;----------------------------------------------------------------------
     2085 00000334 5009000b         ldiu      fp,ar1
     2086 00000335 5008000b         ldiu      fp,ar0
     2087 00000336 50710001         ldiu      1,ir0
     2088 00000337 02690007         addi      7,ar1
     2089 00000338 02680007         addi      7,ar0
     2090 00000339 50610008         ldiu      8,r1
     2091 0000033a 50400b03         ldiu      *-fp(3),r0
     2092 0000033b 02510302         addi      *+fp(2),ir0           ; Unsigned
     2093 0000033c 22a14001         ash3      r1,*+ar0(ir0),r1
     2094 0000033d 02e1ff00         and       65280,r1
     2095 0000033e 50110000         ldiu      r0,ir0
     2096 0000033f 50520302         ldiu      *+fp(2),ir1
     2097 00000340 504a0301         ldiu      *+fp(1),ar2
     2098 00000341 25a18101         or3       r1,*+ar1(ir1),r1
     2099 00000342 15414200         sti       r1,*+ar2(ir0)
     2100                           .line   31
     2101                   ;----------------------------------------------------------------------
     2102                   ; 321 | if(pNextCluster[i-1]%2) pNextCluster[i] >>= 4;                         
     2103                   ;----------------------------------------------------------------------
     2104 00000343 50480301         ldiu      *+fp(1),ar0
     2105 00000344 02480b03         addi      *-fp(3),ar0           ; Unsigned
     2106 00000345 50600001         ldiu      1,r0
TMS320C3x/4x COFF AssemblerVersion 5.11     Tue Dec  7 12:02:21 2010
Copyright (c) 1987-1999 Texas Instruments Incorporatedc:\lang\tms320c3x\511\bin\asm30.exe -l cf.asm cf.obj -tC:\Users\jds\AppData\Local\Temp\cf.tmp 

cf.asm                                                               PAGE   40

     2107 00000346 1a400801         tstb      *-ar0(1),r0
     2108 00000347 6a050005         beq       L102
     2109                   ;*      Branch Occurs to L102 
     2110 00000348 50510b03         ldiu      *-fp(3),ir0
     2111 00000349 50480301         ldiu      *+fp(1),ar0
     2112 0000034a 5060fffc         ldiu      -4,r0
     2113 0000034b 24204000         lsh3      r0,*+ar0(ir0),r0
     2114 0000034c 15404000         sti       r0,*+ar0(ir0)
     2115 0000034d          L102:        
     2116                           .line   32
     2117                   ;----------------------------------------------------------------------
     2118                   ; 322 | pNextCluster[i] &= 0xfff;                                              
     2119                   ;----------------------------------------------------------------------
     2120 0000034d 50510b03         ldiu      *-fp(3),ir0
     2121 0000034e 50480301         ldiu      *+fp(1),ar0
     2122 0000034f 50600fff         ldiu      4095,r0
     2123 00000350 21a04000         and3      r0,*+ar0(ir0),r0
     2124 00000351 15404000         sti       r0,*+ar0(ir0)
     2125                           .line   34
     2126                   ;----------------------------------------------------------------------
     2127                   ; 324 | if(pNextCluster[i]>= 0xff8) break;                                     
     2128                   ;----------------------------------------------------------------------
     2129 00000352 50510b03         ldiu      *-fp(3),ir0
     2130 00000353 50480301         ldiu      *+fp(1),ar0
     2131 00000354 50404000         ldiu      *+ar0(ir0),r0
     2132 00000355 04e00ff8         cmpi      4088,r0
     2133 00000356 6a040061         bhs       L114
     2134                   ;*      Branch Occurs to L114 
     2135                           .line   35
     2136                   ;----------------------------------------------------------------------
     2137                   ; 325 | FATOffset = pNextCluster[i]/1024 +1;                                   
     2138                   ;----------------------------------------------------------------------
     2139 00000357 5060fff6         ldiu      -10,r0
     2140 00000358 24204000         lsh3      r0,*+ar0(ir0),r0
     2141 00000359 02600001         addi      1,r0                  ; Unsigned
     2142 0000035a 15400305         sti       r0,*+fp(5)
     2143                           .line   18
     2144 0000035b 50600001         ldiu      1,r0
     2145 0000035c 02400301         addi      *+fp(1),r0            ; Unsigned
     2146 0000035d 15400301         sti       r0,*+fp(1)
     2147 0000035e 50210eb8-        ldiu      @_m_nSecPerClust+0,r1
     2148 0000035f 50400b02         ldiu      *-fp(2),r0
     2149 00000360 09e0fff7         lsh       -9,r0
     2150 00000361 62000000!        call      DIV_U30
     2151                                                           ; Call Occurs
     2152 00000362 02600001         addi      1,r0                  ; Unsigned
     2153 00000363 50410301         ldiu      *+fp(1),r1
     2154 00000364 23800100         cmpi3     r0,r1
     2155 00000365 6a01ffaa         blo       L98
     2156                   ;*      Branch Occurs to L98 
     2157                           .line   37
     2158                   ;----------------------------------------------------------------------
     2159                   ; 327 | break;                                                                 
     2160                   ; 329 | case DOS_PTYPE_FAT16:                                                  
TMS320C3x/4x COFF AssemblerVersion 5.11     Tue Dec  7 12:02:21 2010
Copyright (c) 1987-1999 Texas Instruments Incorporatedc:\lang\tms320c3x\511\bin\asm30.exe -l cf.asm cf.obj -tC:\Users\jds\AppData\Local\Temp\cf.tmp 

cf.asm                                                               PAGE   41

     2161                   ;----------------------------------------------------------------------
     2162 00000366 6a000051         bu        L114
     2163                   ;*      Branch Occurs to L114 
     2164 00000367          L105:        
     2165                           .line   41
     2166                   ;----------------------------------------------------------------------
     2167                   ; 331 | FATOffset = glStartCluster/256 +m_nFat1Offset;          // "+1" Boot Se
     2168                   ;     | ctor를 의미한다.                                                       
     2169                   ;----------------------------------------------------------------------
     2170 00000367 50200005-        ldiu      @_glStartCluster+0,r0
     2171 00000368 09e0fff8         lsh       -8,r0
     2172 00000369 02200eba-        addi      @_m_nFat1Offset+0,r0  ; Unsigned
     2173 0000036a 15400305         sti       r0,*+fp(5)
     2174                           .line   42
     2175                   ;----------------------------------------------------------------------
     2176                   ; 332 | pNextCluster[0] = glStartCluster;                                      
     2177                   ;----------------------------------------------------------------------
     2178 0000036b 50480b03         ldiu      *-fp(3),ar0
     2179 0000036c 50200005-        ldiu      @_glStartCluster+0,r0
     2180 0000036d 1540c000         sti       r0,*ar0
     2181                           .line   44
     2182                   ;----------------------------------------------------------------------
     2183                   ; 334 | for(i=1;i<(nSize/512/m_nSecPerClust)+2;i++)                            
     2184                   ;----------------------------------------------------------------------
     2185 0000036e 50600001         ldiu      1,r0
     2186 0000036f 15400301         sti       r0,*+fp(1)
     2187 00000370 50210eb8-        ldiu      @_m_nSecPerClust+0,r1
     2188 00000371 50400b02         ldiu      *-fp(2),r0
     2189 00000372 09e0fff7         lsh       -9,r0
     2190 00000373 62000000!        call      DIV_U30
     2191                                                           ; Call Occurs
     2192 00000374 02600002         addi      2,r0                  ; Unsigned
     2193 00000375 50410301         ldiu      *+fp(1),r1
     2194 00000376 23800100         cmpi3     r0,r1
     2195 00000377 6a040040         bhs       L114
     2196                   ;*      Branch Occurs to L114 
     2197 00000378          L106:        
     2198                           .line   46
     2199                   ;----------------------------------------------------------------------
     2200                   ; 336 | if(PreRDSector != FATOffset)                                           
     2201                   ;----------------------------------------------------------------------
     2202 00000378 50400304         ldiu      *+fp(4),r0
     2203 00000379 04c00305         cmpi      *+fp(5),r0
     2204 0000037a 6a050007         beq       L108
     2205                   ;*      Branch Occurs to L108 
     2206                           .line   48
     2207                   ;----------------------------------------------------------------------
     2208                   ; 338 | SanDisk_ABS_RD(FATOffset,nBuff);                                       
     2209                   ;----------------------------------------------------------------------
     2210 0000037b 5000000b         ldiu      fp,r0
     2211 0000037c 50410305         ldiu      *+fp(5),r1
     2212 0000037d 02600007         addi      7,r0
     2213 0000037e 0f200000         push      r0
     2214 0000037f 0f210000         push      r1
TMS320C3x/4x COFF AssemblerVersion 5.11     Tue Dec  7 12:02:21 2010
Copyright (c) 1987-1999 Texas Instruments Incorporatedc:\lang\tms320c3x\511\bin\asm30.exe -l cf.asm cf.obj -tC:\Users\jds\AppData\Local\Temp\cf.tmp 

cf.asm                                                               PAGE   42

     2215 00000380 6200007f'        call      _SanDisk_ABS_RD
     2216                                                           ; Call Occurs
     2217 00000381 18740002         subi      2,sp
     2218 00000382          L108:        
     2219                           .line   50
     2220                   ;----------------------------------------------------------------------
     2221                   ; 340 | PreRDSector= FATOffset;                 // 이전 FAT 섹터 읽기 백업
     2222                   ;     |                                                                        
     2223                   ;----------------------------------------------------------------------
     2224 00000382 50400305         ldiu      *+fp(5),r0
     2225 00000383 15400304         sti       r0,*+fp(4)
     2226                           .line   51
     2227                   ;----------------------------------------------------------------------
     2228                   ; 341 | pNextCluster[i] =nBuff[(pNextCluster[i-1]%256)*2+1]<<8|nBuff[(pNextClus
     2229                   ;     | ter[i-1]%256)*2];                                                      
     2230                   ;----------------------------------------------------------------------
     2231 00000384 504c0301         ldiu      *+fp(1),ar4
     2232 00000385 500a000b         ldiu      fp,ar2
     2233 00000386 507200ff         ldiu      255,ir1
     2234 00000387 50610008         ldiu      8,r1
     2235 00000388 507100ff         ldiu      255,ir0
     2236 00000389 5009000c         ldiu      ar4,ar1
     2237 0000038a 5008000b         ldiu      fp,ar0
     2238 0000038b 026a0007         addi      7,ar2
     2239 0000038c 024c0b03         addi      *-fp(3),ar4           ; Unsigned
     2240 0000038d 02490b03         addi      *-fp(3),ar1           ; Unsigned
     2241 0000038e 50400b03         ldiu      *-fp(3),r0
     2242 0000038f 02d20c01         and       *-ar4(1),ir1
     2243 00000390 0af20002         mpyi      2,ir1
     2244 00000391 02d10901         and       *-ar1(1),ir0
     2245 00000392 02680007         addi      7,ar0
     2246 00000393 02720001         addi      1,ir1                 ; Unsigned
     2247 00000394 0af10002         mpyi      2,ir0
     2248 00000395 22a18201         ash3      r1,*+ar2(ir1),r1
     2249 00000396 504c0301         ldiu      *+fp(1),ar4
     2250 00000397 25a14001         or3       r1,*+ar0(ir0),r1
     2251 00000398 50110000         ldiu      r0,ir0
     2252 00000399 15414400         sti       r1,*+ar4(ir0)
     2253                           .line   52
     2254                   ;----------------------------------------------------------------------
     2255                   ; 342 | if((pNextCluster[i]&0xffff) >= 0xfff8) break;                          
     2256                   ;----------------------------------------------------------------------
     2257 0000039a 50480301         ldiu      *+fp(1),ar0
     2258 0000039b 50510b03         ldiu      *-fp(3),ir0
     2259 0000039c 50404000         ldiu      *+ar0(ir0),r0
     2260 0000039d 02e0ffff         and       65535,r0
     2261 0000039e 04a010d8-        cmpi      @CL23,r0
     2262 0000039f 6a040018         bhs       L114
     2263                   ;*      Branch Occurs to L114 
     2264                           .line   54
     2265                   ;----------------------------------------------------------------------
     2266                   ; 344 | d_Sector_Cnt++;                                                        
     2267                   ;----------------------------------------------------------------------
     2268 000003a0 50600001         ldiu      1,r0
TMS320C3x/4x COFF AssemblerVersion 5.11     Tue Dec  7 12:02:21 2010
Copyright (c) 1987-1999 Texas Instruments Incorporatedc:\lang\tms320c3x\511\bin\asm30.exe -l cf.asm cf.obj -tC:\Users\jds\AppData\Local\Temp\cf.tmp 

cf.asm                                                               PAGE   43

     2269 000003a1 0220010b-        addi      @_d_Sector_Cnt+0,r0   ; Unsigned
     2270 000003a2 1520010b-        sti       r0,@_d_Sector_Cnt+0
     2271                           .line   56
     2272                   ;----------------------------------------------------------------------
     2273                   ; 346 | FATOffset = pNextCluster[i]/256 +m_nFat1Offset;         // "1" Boot Sec
     2274                   ;     | tor를 의미한다.                                                        
     2275                   ; 347 | }// FAT의 Cluster Read Complete!                                       
     2276                   ;----------------------------------------------------------------------
     2277 000003a3 5060fff8         ldiu      -8,r0
     2278 000003a4 24204000         lsh3      r0,*+ar0(ir0),r0
     2279 000003a5 02200eba-        addi      @_m_nFat1Offset+0,r0  ; Unsigned
     2280 000003a6 15400305         sti       r0,*+fp(5)
     2281                           .line   44
     2282 000003a7 50600001         ldiu      1,r0
     2283 000003a8 02400301         addi      *+fp(1),r0            ; Unsigned
     2284 000003a9 15400301         sti       r0,*+fp(1)
     2285 000003aa 50210eb8-        ldiu      @_m_nSecPerClust+0,r1
     2286 000003ab 50400b02         ldiu      *-fp(2),r0
     2287 000003ac 09e0fff7         lsh       -9,r0
     2288 000003ad 62000000!        call      DIV_U30
     2289                                                           ; Call Occurs
     2290 000003ae 02600002         addi      2,r0                  ; Unsigned
     2291 000003af 50410301         ldiu      *+fp(1),r1
     2292 000003b0 23800100         cmpi3     r0,r1
     2293 000003b1 6a01ffc6         blo       L106
     2294                   ;*      Branch Occurs to L106 
     2295                           .line   58
     2296                   ;----------------------------------------------------------------------
     2297                   ; 348 | break;                                                                 
     2298                   ; 352 | //      nTemp = (nSize/512/m_nSecPerClust)+1;                          
     2299                   ; 353 | //      if(nTemp!=i) i=0;  // 파일이 디스크 공간이 부족한때 저장할때 DO
     2300                   ;     | S상에서의 에러가 발생됨                                                
     2301                   ;----------------------------------------------------------------------
     2302 000003b2 6a000005         bu        L114
     2303                   ;*      Branch Occurs to L114 
     2304 000003b3          L112:        
     2305                           .line   11
     2306 000003b3 50200eb9-        ldiu      @_m_nFat+0,r0
     2307 000003b4 04e00001         cmpi      1,r0
     2308 000003b5 6a05ff49         beq       L97
     2309                   ;*      Branch Occurs to L97 
     2310 000003b6 04e00002         cmpi      2,r0
     2311 000003b7 6a05ffaf         beq       L105
     2312                   ;*      Branch Occurs to L105 
     2313 000003b8          L114:        
     2314                           .line   64
     2315                   ;----------------------------------------------------------------------
     2316                   ; 354 | return i;                                                              
     2317                   ;----------------------------------------------------------------------
     2318 000003b8 50400301         ldiu      *+fp(1),r0
     2319                           .line   65
     2320 000003b9 50530b01         ldiu      *-fp(1),bk
     2321 000003ba 0e2c0000         pop       ar4
     2322 000003bb 504bc300         ldiu      *fp,fp
TMS320C3x/4x COFF AssemblerVersion 5.11     Tue Dec  7 12:02:21 2010
Copyright (c) 1987-1999 Texas Instruments Incorporatedc:\lang\tms320c3x\511\bin\asm30.exe -l cf.asm cf.obj -tC:\Users\jds\AppData\Local\Temp\cf.tmp 

cf.asm                                                               PAGE   44

     2323 000003bc 18740609         subi      1545,sp
     2324 000003bd 68000013         bu        bk
     2325                   ;*      Branch Occurs to bk 
     2326                           .endfunc        355,000001000h,1543
     2327                   
     2328                   
     2329 000003be                  .sect    ".text"
     2330                   
     2331                           .global _Seek_File
     2332                           .sym    _Seek_File,_Seek_File,36,2,0
     2333                           .func   367
     2334                   ;******************************************************************************
     2335                   ;* FUNCTION NAME: _Seek_File                                                  *
     2336                   ;*                                                                            *
     2337                   ;*   Architecture       : TMS320C30                                           *
     2338                   ;*   Calling Convention : Stack Parameter Convention                          *
     2339                   ;*   Function Uses Regs : r0,r1,ar0,fp,ir0,sp,st                              *
     2340                   ;*   Regs Saved         :                                                     *
     2341                   ;*   Stack Frame        : Full (w/ debug)                                     *
     2342                   ;*   Total Frame Size   : 2 Call + 0 Parm + 2 Auto + 0 SOE = 4 words          *
     2343                   ;******************************************************************************
     2344 000003be          _Seek_File:
     2345                           .sym    _j,1,4,1,32
     2346                           .sym    _nTemp1,2,4,1,32
     2347                           .line   1
     2348                   ;----------------------------------------------------------------------
     2349                   ; 367 | int Seek_File()                                                        
     2350                   ;----------------------------------------------------------------------
     2351 000003be 0f2b0000         push      fp
     2352 000003bf 500b0014         ldiu      sp,fp
     2353 000003c0 02740002         addi      2,sp
     2354                           .line   3
     2355                   ;----------------------------------------------------------------------
     2356                   ; 369 | int j=0;                                                               
     2357                   ; 370 | int nTemp1;                                                            
     2358                   ;----------------------------------------------------------------------
     2359 000003c1 50600000         ldiu      0,r0
     2360 000003c2 15400301         sti       r0,*+fp(1)
     2361                           .line   6
     2362                   ;----------------------------------------------------------------------
     2363                   ; 372 | nTemp1 = FileCompare1();                                               
     2364                   ;----------------------------------------------------------------------
     2365 000003c3 62000232'        call      _FileCompare1
     2366                                                           ; Call Occurs
     2367 000003c4 15400302         sti       r0,*+fp(2)
     2368                           .line   7
     2369                   ;----------------------------------------------------------------------
     2370                   ; 373 | if(nTemp1!=-1)                                                         
     2371                   ;----------------------------------------------------------------------
     2372 000003c5 04e0ffff         cmpi      -1,r0
     2373 000003c6 6a050018         beq       L119
     2374                   ;*      Branch Occurs to L119 
     2375                           .line   9
     2376                   ;----------------------------------------------------------------------
TMS320C3x/4x COFF AssemblerVersion 5.11     Tue Dec  7 12:02:21 2010
Copyright (c) 1987-1999 Texas Instruments Incorporatedc:\lang\tms320c3x\511\bin\asm30.exe -l cf.asm cf.obj -tC:\Users\jds\AppData\Local\Temp\cf.tmp 

cf.asm                                                               PAGE   45

     2377                   ; 375 | glStartCluster = FileList[nTemp1].StartCluster;                        
     2378                   ;----------------------------------------------------------------------
     2379 000003c7 50110000         ldiu      r0,ir0
     2380 000003c8 502810d0-        ldiu      @CL15,ar0
     2381 000003c9 0af1000d         mpyi      13,ir0
     2382 000003ca 50404000         ldiu      *+ar0(ir0),r0
     2383 000003cb 15200005-        sti       r0,@_glStartCluster+0
     2384                           .line   10
     2385                   ;----------------------------------------------------------------------
     2386                   ; 376 | glSecCnt = FileList[nTemp1].FileSize/512 ;                             
     2387                   ;----------------------------------------------------------------------
     2388 000003cc 5061000d         ldiu      13,r1
     2389 000003cd 50400302         ldiu      *+fp(2),r0
     2390 000003ce 62000000!        call      MPY_K30
     2391                                                           ; Call Occurs
     2392 000003cf 502810d1-        ldiu      @CL16,ar0
     2393 000003d0 50110000         ldiu      r0,ir0
     2394 000003d1 502010d9-        ldiu      @CL24,r0
     2395 000003d2 24204000         lsh3      r0,*+ar0(ir0),r0
     2396 000003d3 15200007-        sti       r0,@_glSecCnt+0
     2397                           .line   11
     2398                   ;----------------------------------------------------------------------
     2399                   ; 377 | glTotalClusterCnt = GetUsedCluster(FileList[nTemp1].FileSize,Cluster_On
     2400                   ;     | eFileBuf);                                                             
     2401                   ;----------------------------------------------------------------------
     2402 000003d4 50510302         ldiu      *+fp(2),ir0
     2403 000003d5 0af1000d         mpyi      13,ir0
     2404 000003d6 502010da-        ldiu      @CL25,r0
     2405 000003d7 50414000         ldiu      *+ar0(ir0),r1
     2406 000003d8 0f200000         push      r0
     2407 000003d9 0f210000         push      r1
     2408 000003da 620002f4'        call      _GetUsedCluster
     2409                                                           ; Call Occurs
     2410 000003db 18740002         subi      2,sp
     2411 000003dc 15200006-        sti       r0,@_glTotalClusterCnt+0
     2412                           .line   12
     2413                   ;----------------------------------------------------------------------
     2414                   ; 378 | j=1;                                                                   
     2415                   ;----------------------------------------------------------------------
     2416 000003dd 50600001         ldiu      1,r0
     2417 000003de 15400301         sti       r0,*+fp(1)
     2418 000003df          L119:        
     2419                           .line   14
     2420                   ;----------------------------------------------------------------------
     2421                   ; 380 | return j;                                                              
     2422                   ;----------------------------------------------------------------------
     2423 000003df 50400301         ldiu      *+fp(1),r0
     2424                           .line   15
     2425 000003e0 50530b01         ldiu      *-fp(1),bk
     2426 000003e1 504bc300         ldiu      *fp,fp
     2427 000003e2 18740004         subi      4,sp
     2428 000003e3 68000013         bu        bk
     2429                   ;*      Branch Occurs to bk 
     2430                           .endfunc        381,000000000h,2
TMS320C3x/4x COFF AssemblerVersion 5.11     Tue Dec  7 12:02:21 2010
Copyright (c) 1987-1999 Texas Instruments Incorporatedc:\lang\tms320c3x\511\bin\asm30.exe -l cf.asm cf.obj -tC:\Users\jds\AppData\Local\Temp\cf.tmp 

cf.asm                                                               PAGE   46

     2431                   
     2432                   
     2433 000003e4                  .sect    ".text"
     2434                   
     2435                           .global _Seek_File_UNIT
     2436                           .sym    _Seek_File_UNIT,_Seek_File_UNIT,36,2,0
     2437                           .func   388
     2438                   ;******************************************************************************
     2439                   ;* FUNCTION NAME: _Seek_File_UNIT                                             *
     2440                   ;*                                                                            *
     2441                   ;*   Architecture       : TMS320C30                                           *
     2442                   ;*   Calling Convention : Stack Parameter Convention                          *
     2443                   ;*   Function Uses Regs : r0,r1,ar0,fp,ir0,sp,st                              *
     2444                   ;*   Regs Saved         :                                                     *
     2445                   ;*   Stack Frame        : Full (w/ debug)                                     *
     2446                   ;*   Total Frame Size   : 2 Call + 1 Parm + 2 Auto + 0 SOE = 5 words          *
     2447                   ;******************************************************************************
     2448 000003e4          _Seek_File_UNIT:
     2449                           .sym    _sKindUnit,-2,12,9,32
     2450                           .sym    _j,1,4,1,32
     2451                           .sym    _nTemp1,2,4,1,32
     2452                           .line   1
     2453                   ;----------------------------------------------------------------------
     2454                   ; 388 | int Seek_File_UNIT(UCHAR sKindUnit)                                    
     2455                   ;----------------------------------------------------------------------
     2456 000003e4 0f2b0000         push      fp
     2457 000003e5 500b0014         ldiu      sp,fp
     2458 000003e6 02740002         addi      2,sp
     2459                           .line   2
     2460                           .line   3
     2461                   ;----------------------------------------------------------------------
     2462                   ; 390 | int j=0;                                                               
     2463                   ; 391 | int nTemp1;                                                            
     2464                   ;----------------------------------------------------------------------
     2465 000003e7 50600000         ldiu      0,r0
     2466 000003e8 15400301         sti       r0,*+fp(1)
     2467                           .line   6
     2468                   ;----------------------------------------------------------------------
     2469                   ; 393 | if(sKindUnit == 1)              {nTemp1 = FileCompare2();}             
     2470                   ;----------------------------------------------------------------------
     2471 000003e9 50400b02         ldiu      *-fp(2),r0
     2472 000003ea 04e00001         cmpi      1,r0
     2473 000003eb 6a060003         bne       L124
     2474                   ;*      Branch Occurs to L124 
     2475 000003ec 62000264'        call      _FileCompare2
     2476                                                           ; Call Occurs
     2477 000003ed 15400302         sti       r0,*+fp(2)
     2478 000003ee 6a00000b         bu        L128
     2479                   ;*      Branch Occurs to L128 
     2480 000003ef          L124:        
     2481                           .line   7
     2482                   ;----------------------------------------------------------------------
     2483                   ; 394 | else if(sKindUnit == 2) {nTemp1 = SDD_SWFind();}                       
     2484                   ;----------------------------------------------------------------------
TMS320C3x/4x COFF AssemblerVersion 5.11     Tue Dec  7 12:02:21 2010
Copyright (c) 1987-1999 Texas Instruments Incorporatedc:\lang\tms320c3x\511\bin\asm30.exe -l cf.asm cf.obj -tC:\Users\jds\AppData\Local\Temp\cf.tmp 

cf.asm                                                               PAGE   47

     2485 000003ef 50400b02         ldiu      *-fp(2),r0
     2486 000003f0 04e00002         cmpi      2,r0
     2487 000003f1 6a060003         bne       L126
     2488                   ;*      Branch Occurs to L126 
     2489 000003f2 62000294'        call      _SDD_SWFind
     2490                                                           ; Call Occurs
     2491 000003f3 15400302         sti       r0,*+fp(2)
     2492 000003f4 6a000005         bu        L128
     2493                   ;*      Branch Occurs to L128 
     2494 000003f5          L126:        
     2495                           .line   8
     2496                   ;----------------------------------------------------------------------
     2497                   ; 395 | else if(sKindUnit == 3) {nTemp1 = FDD_SWFind();}                       
     2498                   ;----------------------------------------------------------------------
     2499 000003f5 50400b02         ldiu      *-fp(2),r0
     2500 000003f6 04e00003         cmpi      3,r0
     2501 000003f7 6a060002         bne       L128
     2502                   ;*      Branch Occurs to L128 
     2503 000003f8 620002c4'        call      _FDD_SWFind
     2504                                                           ; Call Occurs
     2505 000003f9 15400302         sti       r0,*+fp(2)
     2506 000003fa          L128:        
     2507                           .line   10
     2508                   ;----------------------------------------------------------------------
     2509                   ; 397 | if(nTemp1!=-1)                                                         
     2510                   ;----------------------------------------------------------------------
     2511 000003fa 50400302         ldiu      *+fp(2),r0
     2512 000003fb 04e0ffff         cmpi      -1,r0
     2513 000003fc 6a05001c         beq       L130
     2514                   ;*      Branch Occurs to L130 
     2515                           .line   12
     2516                   ;----------------------------------------------------------------------
     2517                   ; 399 | glStartCluster = FileList[nTemp1].StartCluster;                        
     2518                   ;----------------------------------------------------------------------
     2519 000003fd 50110000         ldiu      r0,ir0
     2520 000003fe 502810d0-        ldiu      @CL15,ar0
     2521 000003ff 0af1000d         mpyi      13,ir0
     2522 00000400 50404000         ldiu      *+ar0(ir0),r0
     2523 00000401 15200005-        sti       r0,@_glStartCluster+0
     2524                           .line   13
     2525                   ;----------------------------------------------------------------------
     2526                   ; 400 | glSecCnt = FileList[nTemp1].FileSize/512 ;                             
     2527                   ;----------------------------------------------------------------------
     2528 00000402 5061000d         ldiu      13,r1
     2529 00000403 50400302         ldiu      *+fp(2),r0
     2530 00000404 62000000!        call      MPY_K30
     2531                                                           ; Call Occurs
     2532 00000405 502810d1-        ldiu      @CL16,ar0
     2533 00000406 50110000         ldiu      r0,ir0
     2534 00000407 502010d9-        ldiu      @CL24,r0
     2535 00000408 24204000         lsh3      r0,*+ar0(ir0),r0
     2536 00000409 15200007-        sti       r0,@_glSecCnt+0
     2537                           .line   15
     2538                   ;----------------------------------------------------------------------
TMS320C3x/4x COFF AssemblerVersion 5.11     Tue Dec  7 12:02:21 2010
Copyright (c) 1987-1999 Texas Instruments Incorporatedc:\lang\tms320c3x\511\bin\asm30.exe -l cf.asm cf.obj -tC:\Users\jds\AppData\Local\Temp\cf.tmp 

cf.asm                                                               PAGE   48

     2539                   ; 402 | m_FileSize = FileList[nTemp1].FileSize;                                
     2540                   ;----------------------------------------------------------------------
     2541 0000040a 50510302         ldiu      *+fp(2),ir0
     2542 0000040b 0af1000d         mpyi      13,ir0
     2543 0000040c 50404000         ldiu      *+ar0(ir0),r0
     2544 0000040d 15200004-        sti       r0,@_m_FileSize+0
     2545                           .line   17
     2546                   ;----------------------------------------------------------------------
     2547                   ; 404 | glTotalClusterCnt = GetUsedCluster(FileList[nTemp1].FileSize,Cluster_On
     2548                   ;     | eFileBuf);                                                             
     2549                   ;----------------------------------------------------------------------
     2550 0000040e 50510302         ldiu      *+fp(2),ir0
     2551 0000040f 0af1000d         mpyi      13,ir0
     2552 00000410 502010da-        ldiu      @CL25,r0
     2553 00000411 50414000         ldiu      *+ar0(ir0),r1
     2554 00000412 0f200000         push      r0
     2555 00000413 0f210000         push      r1
     2556 00000414 620002f4'        call      _GetUsedCluster
     2557                                                           ; Call Occurs
     2558 00000415 15200006-        sti       r0,@_glTotalClusterCnt+0
     2559 00000416 18740002         subi      2,sp
     2560                           .line   18
     2561                   ;----------------------------------------------------------------------
     2562                   ; 405 | j=1;                                                                   
     2563                   ;----------------------------------------------------------------------
     2564 00000417 50600001         ldiu      1,r0
     2565 00000418 15400301         sti       r0,*+fp(1)
     2566 00000419          L130:        
     2567                           .line   20
     2568                   ;----------------------------------------------------------------------
     2569                   ; 407 | return j;                                                              
     2570                   ;----------------------------------------------------------------------
     2571 00000419 50400301         ldiu      *+fp(1),r0
     2572                           .line   21
     2573 0000041a 50530b01         ldiu      *-fp(1),bk
     2574 0000041b 504bc300         ldiu      *fp,fp
     2575 0000041c 18740004         subi      4,sp
     2576 0000041d 68000013         bu        bk
     2577                   ;*      Branch Occurs to bk 
     2578                           .endfunc        408,000000000h,2
     2579                   
     2580                   
     2581 0000041e                  .sect    ".text"
     2582                   
     2583                           .global _Check_Header
     2584                           .sym    _Check_Header,_Check_Header,44,2,0
     2585                           .func   419
     2586                   ;******************************************************************************
     2587                   ;* FUNCTION NAME: _Check_Header                                               *
     2588                   ;*                                                                            *
     2589                   ;*   Architecture       : TMS320C30                                           *
     2590                   ;*   Calling Convention : Stack Parameter Convention                          *
     2591                   ;*   Function Uses Regs : r0,r1,ar0,ar1,fp,ir0,sp,st,rs,re,rc                 *
     2592                   ;*   Regs Saved         :                                                     *
TMS320C3x/4x COFF AssemblerVersion 5.11     Tue Dec  7 12:02:21 2010
Copyright (c) 1987-1999 Texas Instruments Incorporatedc:\lang\tms320c3x\511\bin\asm30.exe -l cf.asm cf.obj -tC:\Users\jds\AppData\Local\Temp\cf.tmp 

cf.asm                                                               PAGE   49

     2593                   ;*   Stack Frame        : Full (w/ debug)                                     *
     2594                   ;*   Total Frame Size   : 2 Call + 3 Parm + 513 Auto + 0 SOE = 518 words      *
     2595                   ;******************************************************************************
     2596 0000041e          _Check_Header:
     2597                           .sym    _nOffset,-2,13,9,32
     2598                           .sym    _pNextCluster,-3,28,9,32
     2599                           .sym    _pData,-4,28,9,32
     2600                           .sym    _SectorOffset,1,4,1,32
     2601                           .sym    _sDAtaBuf,2,60,1,16384,,512
     2602                           .line   1
     2603                   ;----------------------------------------------------------------------
     2604                   ; 419 | UCHAR Check_Header(WORD nOffset,UCHAR *pNextCluster,UCHAR *pData)      
     2605                   ;----------------------------------------------------------------------
     2606 0000041e 0f2b0000         push      fp
     2607 0000041f 500b0014         ldiu      sp,fp
     2608 00000420 02740201         addi      513,sp
     2609                           .line   2
     2610                   ;----------------------------------------------------------------------
     2611                   ; 421 | int SectorOffset;                                                      
     2612                   ; 422 | UCHAR sDAtaBuf[512];                                                   
     2613                   ;----------------------------------------------------------------------
     2614                           .line   6
     2615                   ;----------------------------------------------------------------------
     2616                   ; 424 | SectorOffset = nOffset/512;                                            
     2617                   ;----------------------------------------------------------------------
     2618 00000421 50400b02         ldiu      *-fp(2),r0
     2619 00000422 09a010d9-        lsh       @CL24,r0
     2620 00000423 15400301         sti       r0,*+fp(1)
     2621                           .line   7
     2622                   ;----------------------------------------------------------------------
     2623                   ; 425 | NowSector = m_nDataOffset+(pNextCluster[SectorOffset/m_nSecPerClust]-2)
     2624                   ;     | *m_nSecPerClust;                                                       
     2625                   ;----------------------------------------------------------------------
     2626 00000424 50210eb8-        ldiu      @_m_nSecPerClust+0,r1
     2627 00000425 50400301         ldiu      *+fp(1),r0
     2628 00000426 62000000!        call      DIV_U30
     2629                                                           ; Call Occurs
     2630 00000427 50510b03         ldiu      *-fp(3),ir0
     2631 00000428 50080000         ldiu      r0,ar0
     2632 00000429 50600002         ldiu      2,r0
     2633 0000042a 27204000         subi3     r0,*+ar0(ir0),r0      ; Unsigned
     2634 0000042b 0aa00eb8-        mpyi      @_m_nSecPerClust+0,r0
     2635 0000042c 0220033f-        addi      @_m_nDataOffset+0,r0  ; Unsigned
     2636 0000042d 15200009-        sti       r0,@_NowSector+0
     2637                           .line   8
     2638                   ;----------------------------------------------------------------------
     2639                   ; 426 | NowSector+= SectorOffset%m_nSecPerClust;                               
     2640                   ; 428 | //if(PreSector!=NowSector) SanDisk_ABS_RD(NowSector,pCfData->nNowRdBuff
     2641                   ;     | );                                                                     
     2642                   ; 429 | //PreSector = NowSector;                                               
     2643                   ;----------------------------------------------------------------------
     2644 0000042e 50210eb8-        ldiu      @_m_nSecPerClust+0,r1
     2645 0000042f 50400301         ldiu      *+fp(1),r0
     2646 00000430 62000000!        call      MOD_U30
TMS320C3x/4x COFF AssemblerVersion 5.11     Tue Dec  7 12:02:21 2010
Copyright (c) 1987-1999 Texas Instruments Incorporatedc:\lang\tms320c3x\511\bin\asm30.exe -l cf.asm cf.obj -tC:\Users\jds\AppData\Local\Temp\cf.tmp 

cf.asm                                                               PAGE   50

     2647                                                           ; Call Occurs
     2648 00000431 02200009-        addi      @_NowSector+0,r0      ; Unsigned
     2649 00000432 15200009-        sti       r0,@_NowSector+0
     2650                           .line   13
     2651                   ;----------------------------------------------------------------------
     2652                   ; 431 | if(PreSector!=NowSector) SanDisk_ABS_RD(NowSector,sDAtaBuf);           
     2653                   ;----------------------------------------------------------------------
     2654 00000433 50200008-        ldiu      @_PreSector+0,r0
     2655 00000434 04a00009-        cmpi      @_NowSector+0,r0
     2656 00000435 6a050007         beq       L135
     2657                   ;*      Branch Occurs to L135 
     2658 00000436 5000000b         ldiu      fp,r0
     2659 00000437 02600002         addi      2,r0
     2660 00000438 0f200000         push      r0
     2661 00000439 50200009-        ldiu      @_NowSector+0,r0
     2662 0000043a 0f200000         push      r0
     2663 0000043b 6200007f'        call      _SanDisk_ABS_RD
     2664                                                           ; Call Occurs
     2665 0000043c 18740002         subi      2,sp
     2666 0000043d          L135:        
     2667                           .line   14
     2668                   ;----------------------------------------------------------------------
     2669                   ; 432 | PreSector = NowSector;                                                 
     2670                   ;----------------------------------------------------------------------
     2671 0000043d 50200009-        ldiu      @_NowSector+0,r0
     2672 0000043e 15200008-        sti       r0,@_PreSector+0
     2673                           .line   16
     2674                   ;----------------------------------------------------------------------
     2675                   ; 434 | memcpy(pData,sDAtaBuf,512);                                            
     2676                   ; 436 | //return pCfData->nNowRdBuff[nOffset%512];                             
     2677                   ;----------------------------------------------------------------------
     2678 0000043f 5008000b         ldiu      fp,ar0
     2679 00000440 50490b04         ldiu      *-fp(4),ar1
     2680 00000441 02680002         addi      2,ar0
     2681 00000442 50402001         ldiu      *ar0++(1),r0
     2682 00000443 13fb01fe         rpts      510                   ; Fast MEMCPY(#12)
     2683 00000444 da002120         sti       r0,*ar1++(1)
     2684                   ||      ldi       *ar0++(1),r0
     2685 00000445 15402101         sti       r0,*ar1++(1)
     2686                           .line   19
     2687                   ;----------------------------------------------------------------------
     2688                   ; 437 | return sDAtaBuf[nOffset%512];                                          
     2689                   ;----------------------------------------------------------------------
     2690 00000446 50610200         ldiu      512,r1
     2691 00000447 50400b02         ldiu      *-fp(2),r0
     2692 00000448 62000000!        call      MOD_U30
     2693                                                           ; Call Occurs
     2694 00000449 5008000b         ldiu      fp,ar0
     2695 0000044a 02680002         addi      2,ar0
     2696 0000044b 50110000         ldiu      r0,ir0
     2697 0000044c 50404000         ldiu      *+ar0(ir0),r0
     2698                           .line   21
     2699 0000044d 50530b01         ldiu      *-fp(1),bk
     2700 0000044e 504bc300         ldiu      *fp,fp
TMS320C3x/4x COFF AssemblerVersion 5.11     Tue Dec  7 12:02:21 2010
Copyright (c) 1987-1999 Texas Instruments Incorporatedc:\lang\tms320c3x\511\bin\asm30.exe -l cf.asm cf.obj -tC:\Users\jds\AppData\Local\Temp\cf.tmp 

cf.asm                                                               PAGE   51

     2701 0000044f 18740203         subi      515,sp
     2702 00000450 68000013         bu        bk
     2703                   ;*      Branch Occurs to bk 
     2704                           .endfunc        439,000000000h,513
     2705                   
     2706                   
     2707 00000451                  .sect    ".text"
     2708                   
     2709                           .global _Nvsram_IDC_UpLoad_CK
     2710                           .sym    _Nvsram_IDC_UpLoad_CK,_Nvsram_IDC_UpLoad_CK,44,2,0
     2711                           .func   444
     2712                   ;******************************************************************************
     2713                   ;* FUNCTION NAME: _Nvsram_IDC_UpLoad_CK                                       *
     2714                   ;*                                                                            *
     2715                   ;*   Architecture       : TMS320C30                                           *
     2716                   ;*   Calling Convention : Stack Parameter Convention                          *
     2717                   ;*   Function Uses Regs : r0,r1,r2,ar0,ar1,fp,ir0,sp,st                       *
     2718                   ;*   Regs Saved         :                                                     *
     2719                   ;*   Stack Frame        : Full (w/ debug)                                     *
     2720                   ;*   Total Frame Size   : 2 Call + 2 Parm + 548 Auto + 0 SOE = 552 words      *
     2721                   ;******************************************************************************
     2722 00000451          _Nvsram_IDC_UpLoad_CK:
     2723                           .sym    _pData,-2,28,9,32
     2724                           .sym    _sKIndCode,-3,12,9,32
     2725                           .sym    _i,1,4,1,32
     2726                           .sym    _j,2,4,1,32
     2727                           .sym    _sPoBlk_Ck,3,4,1,32
     2728                           .sym    _sData,4,4,1,32
     2729                           .sym    _sIdc_Ver_Ck,5,52,1,960,,30
     2730                           .sym    _sVerCf,35,4,1,32
     2731                           .sym    _sVerRom,36,4,1,32
     2732                           .sym    _sDataBuf,37,60,1,16384,,512
     2733                           .line   1
     2734                   ;----------------------------------------------------------------------
     2735                   ; 444 | UCHAR Nvsram_IDC_UpLoad_CK(UCHAR *pData,UCHAR sKIndCode)               
     2736                   ;----------------------------------------------------------------------
     2737 00000451 0f2b0000         push      fp
     2738 00000452 500b0014         ldiu      sp,fp
     2739 00000453 02740224         addi      548,sp
     2740                           .line   2
     2741                           .line   3
     2742                   ;----------------------------------------------------------------------
     2743                   ; 446 | int i,j=0;                                                             
     2744                   ;----------------------------------------------------------------------
     2745 00000454 50600000         ldiu      0,r0
     2746 00000455 15400302         sti       r0,*+fp(2)
     2747                           .line   4
     2748                   ;----------------------------------------------------------------------
     2749                   ; 447 | int sPoBlk_Ck = 0;                                                     
     2750                   ;----------------------------------------------------------------------
     2751 00000456 15400303         sti       r0,*+fp(3)
     2752                           .line   5
     2753                   ;----------------------------------------------------------------------
     2754                   ; 448 | int sData = 0;                                                         
TMS320C3x/4x COFF AssemblerVersion 5.11     Tue Dec  7 12:02:21 2010
Copyright (c) 1987-1999 Texas Instruments Incorporatedc:\lang\tms320c3x\511\bin\asm30.exe -l cf.asm cf.obj -tC:\Users\jds\AppData\Local\Temp\cf.tmp 

cf.asm                                                               PAGE   52

     2755                   ; 449 | int sIdc_Ver_Ck[30];                                                   
     2756                   ;----------------------------------------------------------------------
     2757 00000457 15400304         sti       r0,*+fp(4)
     2758                           .line   7
     2759                   ;----------------------------------------------------------------------
     2760                   ; 450 | int sVerCf = 0;                                                        
     2761                   ;----------------------------------------------------------------------
     2762 00000458 15400323         sti       r0,*+fp(35)
     2763                           .line   8
     2764                   ;----------------------------------------------------------------------
     2765                   ; 451 | int sVerRom = 0;                                                       
     2766                   ; 452 | UCHAR sDataBuf[512];                                                   
     2767                   ;----------------------------------------------------------------------
     2768 00000459 15400324         sti       r0,*+fp(36)
     2769                           .line   11
     2770                   ;----------------------------------------------------------------------
     2771                   ; 454 | if(Seek_File_UNIT(sKIndCode) && glTotalClusterCnt)      // Match File 
     2772                   ;     | 인                                                                    
     2773                   ;----------------------------------------------------------------------
     2774 0000045a 50400b03         ldiu      *-fp(3),r0
     2775 0000045b 0f200000         push      r0
     2776 0000045c 620003e4'        call      _Seek_File_UNIT
     2777                                                           ; Call Occurs
     2778 0000045d 04e00000         cmpi      0,r0
     2779 0000045e 18740001         subi      1,sp
     2780 0000045f 6a05006b         beq       L156
     2781                   ;*      Branch Occurs to L156 
     2782 00000460 08200006-        ldi       @_glTotalClusterCnt+0,r0
     2783 00000461 6a050069         beq       L156
     2784                   ;*      Branch Occurs to L156 
     2785                           .line   13
     2786                   ;----------------------------------------------------------------------
     2787                   ; 456 | sPoBlk_Ck+= m_FileSize-32;                                             
     2788                   ;----------------------------------------------------------------------
     2789 00000462 50200004-        ldiu      @_m_FileSize+0,r0
     2790 00000463 02400303         addi      *+fp(3),r0            ; Unsigned
     2791 00000464 18600020         subi      32,r0
     2792 00000465 15400303         sti       r0,*+fp(3)
     2793                           .line   15
     2794                   ;----------------------------------------------------------------------
     2795                   ; 458 | for(i=0;i<32;i++)                                                      
     2796                   ;----------------------------------------------------------------------
     2797 00000466 50600000         ldiu      0,r0
     2798 00000467 15400301         sti       r0,*+fp(1)
     2799 00000468 04e00020         cmpi      32,r0
     2800 00000469 6a0a001c         bge       L144
     2801                   ;*      Branch Occurs to L144 
     2802 0000046a          L141:        
     2803                           .line   17
     2804                   ;----------------------------------------------------------------------
     2805                   ; 460 | sData = WORD_L(Check_Header(sPoBlk_Ck,Cluster_OneFileBuf,sDataBuf));   
     2806                   ;----------------------------------------------------------------------
     2807 0000046a 5001000b         ldiu      fp,r1
     2808 0000046b 50400303         ldiu      *+fp(3),r0
TMS320C3x/4x COFF AssemblerVersion 5.11     Tue Dec  7 12:02:21 2010
Copyright (c) 1987-1999 Texas Instruments Incorporatedc:\lang\tms320c3x\511\bin\asm30.exe -l cf.asm cf.obj -tC:\Users\jds\AppData\Local\Temp\cf.tmp 

cf.asm                                                               PAGE   53

     2809 0000046c 502210da-        ldiu      @CL25,r2
     2810 0000046d 02610025         addi      37,r1
     2811 0000046e 0f210000         push      r1
     2812 0000046f 0f220000         push      r2
     2813 00000470 0f200000         push      r0
     2814 00000471 6200041e'        call      _Check_Header
     2815                                                           ; Call Occurs
     2816 00000472 18740003         subi      3,sp
     2817 00000473 02e000ff         and       255,r0
     2818 00000474 15400304         sti       r0,*+fp(4)
     2819                           .line   18
     2820                   ;----------------------------------------------------------------------
     2821                   ; 461 | if(sData)                                                              
     2822                   ;----------------------------------------------------------------------
     2823 00000475 6a050008         beq       L143
     2824                   ;*      Branch Occurs to L143 
     2825                           .line   20
     2826                   ;----------------------------------------------------------------------
     2827                   ; 463 | sIdc_Ver_Ck[j++] = sData;                                              
     2828                   ;----------------------------------------------------------------------
     2829 00000476 50010000         ldiu      r0,r1
     2830 00000477 5008000b         ldiu      fp,ar0
     2831 00000478 50510302         ldiu      *+fp(2),ir0
     2832 00000479 50600001         ldiu      1,r0
     2833 0000047a 02680005         addi      5,ar0
     2834 0000047b 02000011         addi      ir0,r0
     2835 0000047c 15400302         sti       r0,*+fp(2)
     2836 0000047d 15414000         sti       r1,*+ar0(ir0)
     2837 0000047e          L143:        
     2838                           .line   22
     2839                   ;----------------------------------------------------------------------
     2840                   ; 465 | sPoBlk_Ck++;                                                           
     2841                   ;----------------------------------------------------------------------
     2842 0000047e 50600001         ldiu      1,r0
     2843 0000047f 02400303         addi      *+fp(3),r0
     2844 00000480 15400303         sti       r0,*+fp(3)
     2845                           .line   15
     2846 00000481 50600001         ldiu      1,r0
     2847 00000482 02400301         addi      *+fp(1),r0
     2848 00000483 15400301         sti       r0,*+fp(1)
     2849 00000484 04e00020         cmpi      32,r0
     2850 00000485 6a07ffe4         blt       L141
     2851                   ;*      Branch Occurs to L141 
     2852 00000486          L144:        
     2853                           .line   25
     2854                   ;----------------------------------------------------------------------
     2855                   ; 468 | memcpy(pData,sIdc_Ver_Ck,j);                                           
     2856                   ;----------------------------------------------------------------------
     2857 00000486 5000000b         ldiu      fp,r0
     2858 00000487 50410302         ldiu      *+fp(2),r1
     2859 00000488 02600005         addi      5,r0
     2860 00000489 0f210000         push      r1
     2861 0000048a 0f200000         push      r0
     2862 0000048b 50400b02         ldiu      *-fp(2),r0
TMS320C3x/4x COFF AssemblerVersion 5.11     Tue Dec  7 12:02:21 2010
Copyright (c) 1987-1999 Texas Instruments Incorporatedc:\lang\tms320c3x\511\bin\asm30.exe -l cf.asm cf.obj -tC:\Users\jds\AppData\Local\Temp\cf.tmp 

cf.asm                                                               PAGE   54

     2863 0000048c 0f200000         push      r0
     2864 0000048d 62000000!        call      _memcpy
     2865                                                           ; Call Occurs
     2866 0000048e 18740003         subi      3,sp
     2867                           .line   27
     2868                   ;----------------------------------------------------------------------
     2869                   ; 470 | if(WORD_L(sKIndCode) == 1)                                             
     2870                   ;----------------------------------------------------------------------
     2871 0000048f 506000ff         ldiu      255,r0
     2872 00000490 02c00b03         and       *-fp(3),r0
     2873 00000491 04e00001         cmpi      1,r0
     2874 00000492 6a260032         bned      L154
     2875 00000493 5288000b         ldieq     fp,ar0
     2876 00000494 5289000b         ldieq     fp,ar1
     2877 00000495 52e0000f         ldieq     15,r0
     2878                   ;*      Branch Occurs to L154 
     2879                           .line   29
     2880                   ;----------------------------------------------------------------------
     2881                   ; 472 | sVerCf = MAKE_BYTE( WORD_L(sIdc_Ver_Ck[3])-0x30, WORD_L(sIdc_Ver_Ck[4])
     2882                   ;     |  - 0x30);                                                              
     2883                   ;----------------------------------------------------------------------
     2884 00000496 5061000f         ldiu      15,r1
     2885 00000497 02680008         addi      8,ar0
     2886 00000498 02690009         addi      9,ar1
     2887 00000499 21a0c000         and3      r0,*ar0,r0
     2888 0000049a 21a1c101         and3      r1,*ar1,r1
     2889 0000049b 03e00004         ash       4,r0
     2890 0000049c 25800100         or3       r0,r1,r0
     2891 0000049d 02e000ff         and       255,r0
     2892 0000049e 15400323         sti       r0,*+fp(35)
     2893                           .line   31
     2894                   ;----------------------------------------------------------------------
     2895                   ; 474 | sVerRom = MAKE_BYTE( WORD_L(ROM_VER_S[3])-0x30, WORD_L(ROM_VER_S[4]) -
     2896                   ;     | 0x30);                                                                 
     2897                   ;----------------------------------------------------------------------
     2898 0000049f 502910db-        ldiu      @CL26,ar1
     2899 000004a0 502810db-        ldiu      @CL26,ar0
     2900 000004a1 5061000f         ldiu      15,r1
     2901 000004a2 5060000f         ldiu      15,r0
     2902 000004a3 02c10104         and       *+ar1(4),r1
     2903 000004a4 02c00003         and       *+ar0(3),r0
     2904 000004a5 03e00004         ash       4,r0
     2905 000004a6 25800100         or3       r0,r1,r0
     2906 000004a7 02e000ff         and       255,r0
     2907 000004a8 15400324         sti       r0,*+fp(36)
     2908                           .line   33
     2909                   ;----------------------------------------------------------------------
     2910                   ; 476 | if(!strncmp(sIdc_Ver_Ck,ROM_VER_S,5))   // 같은 버전.                  
     2911                   ;----------------------------------------------------------------------
     2912 000004a9 50620005         ldiu      5,r2
     2913 000004aa 502110db-        ldiu      @CL26,r1
     2914 000004ab 0f220000         push      r2
     2915 000004ac 0f210000         push      r1
     2916 000004ad 5000000b         ldiu      fp,r0
TMS320C3x/4x COFF AssemblerVersion 5.11     Tue Dec  7 12:02:21 2010
Copyright (c) 1987-1999 Texas Instruments Incorporatedc:\lang\tms320c3x\511\bin\asm30.exe -l cf.asm cf.obj -tC:\Users\jds\AppData\Local\Temp\cf.tmp 

cf.asm                                                               PAGE   55

     2917 000004ae 02600005         addi      5,r0
     2918 000004af 0f200000         push      r0
     2919 000004b0 62000000!        call      _strncmp
     2920                                                           ; Call Occurs
     2921 000004b1 04e00000         cmpi      0,r0
     2922 000004b2 6a260005         bned      L148
     2923 000004b3 18740003         subi      3,sp
     2924 000004b4 0c800000         nop
     2925 000004b5 53400323         ldine     *+fp(35),r0
     2926                   ;*      Branch Occurs to L148 
     2927                           .line   35
     2928                   ;----------------------------------------------------------------------
     2929                   ; 478 | return 2;       //업로드 할 필요가 없다.                               
     2930                   ; 480 | else                                                                   
     2931                   ;----------------------------------------------------------------------
     2932 000004b6 6a200013         bud       L157
     2933 000004b7 0c800000         nop
     2934 000004b8 0c800000         nop
     2935 000004b9 50600002         ldiu      2,r0
     2936                   ;*      Branch Occurs to L157 
     2937                           .line   39
     2938                   ;----------------------------------------------------------------------
     2939                   ; 482 | if(sVerCf > sVerRom) {return 1;}        //업로드 필요 한다.            
     2940                   ;----------------------------------------------------------------------
     2941 000004ba          L148:        
     2942 000004ba 04c00324         cmpi      *+fp(36),r0
     2943 000004bb 6a080004         ble       L151
     2944                   ;*      Branch Occurs to L151 
     2945 000004bc 6a20000d         bud       L157
     2946 000004bd 0c800000         nop
     2947 000004be 0c800000         nop
     2948 000004bf 50600001         ldiu      1,r0
     2949                   ;*      Branch Occurs to L157 
     2950 000004c0          L151:        
     2951                           .line   40
     2952                   ;----------------------------------------------------------------------
     2953                   ; 483 | else if(sVerCf < sVerRom) {return 3;}//올드 버전 발견                  
     2954                   ; 486 | else                                                                   
     2955                   ;----------------------------------------------------------------------
     2956 000004c0 50400323         ldiu      *+fp(35),r0
     2957 000004c1 04c00324         cmpi      *+fp(36),r0
     2958 000004c2 6a0a0009         bge       L157
     2959                   ;*      Branch Occurs to L157 
     2960 000004c3 6a200006         bud       L157
     2961 000004c4 0c800000         nop
     2962 000004c5 0c800000         nop
     2963 000004c6 50600003         ldiu      3,r0
     2964                   ;*      Branch Occurs to L157 
     2965 000004c7          L154:        
     2966                           .line   45
     2967                   ;----------------------------------------------------------------------
     2968                   ; 488 | return 1;                                                              
     2969                   ; 491 | else                                                                   
     2970                   ;----------------------------------------------------------------------
TMS320C3x/4x COFF AssemblerVersion 5.11     Tue Dec  7 12:02:21 2010
Copyright (c) 1987-1999 Texas Instruments Incorporatedc:\lang\tms320c3x\511\bin\asm30.exe -l cf.asm cf.obj -tC:\Users\jds\AppData\Local\Temp\cf.tmp 

cf.asm                                                               PAGE   56

     2971 000004c7 6a200002         bud       L157
     2972 000004c8 0c800000         nop
     2973 000004c9 0c800000         nop
     2974 000004ca 50600001         ldiu      1,r0
     2975                   ;*      Branch Occurs to L157 
     2976 000004cb          L156:        
     2977                           .line   50
     2978                   ;----------------------------------------------------------------------
     2979                   ; 493 | return 0;                                                              
     2980                   ;----------------------------------------------------------------------
     2981 000004cb 50600000         ldiu      0,r0
     2982 000004cc          L157:        
     2983                           .line   52
     2984 000004cc 50530b01         ldiu      *-fp(1),bk
     2985 000004cd 504bc300         ldiu      *fp,fp
     2986 000004ce 18740226         subi      550,sp
     2987 000004cf 68000013         bu        bk
     2988                   ;*      Branch Occurs to bk 
     2989                           .endfunc        495,000000000h,548
     2990                   
     2991                   
     2992 000004d0                  .sect    ".text"
     2993                   
     2994                           .global _Nvsram_IDC_UpLoad_Da
     2995                           .sym    _Nvsram_IDC_UpLoad_Da,_Nvsram_IDC_UpLoad_Da,44,2,0
     2996                           .func   499
     2997                   ;******************************************************************************
     2998                   ;* FUNCTION NAME: _Nvsram_IDC_UpLoad_Da                                       *
     2999                   ;*                                                                            *
     3000                   ;*   Architecture       : TMS320C30                                           *
     3001                   ;*   Calling Convention : Stack Parameter Convention                          *
     3002                   ;*   Function Uses Regs : r0,r1,r2,ar0,fp,ir0,sp,st                           *
     3003                   ;*   Regs Saved         :                                                     *
     3004                   ;*   Stack Frame        : Full (w/ debug)                                     *
     3005                   ;*   Total Frame Size   : 2 Call + 0 Parm + 513 Auto + 0 SOE = 515 words      *
     3006                   ;******************************************************************************
     3007 000004d0          _Nvsram_IDC_UpLoad_Da:
     3008                           .sym    _i,1,4,1,32
     3009                           .sym    _sDataBuf,2,60,1,16384,,512
     3010                           .line   1
     3011                   ;----------------------------------------------------------------------
     3012                   ; 499 | UCHAR Nvsram_IDC_UpLoad_Da()                                           
     3013                   ; 501 | int i;                                                                 
     3014                   ; 502 | UCHAR sDataBuf[512];                                                   
     3015                   ;----------------------------------------------------------------------
     3016 000004d0 0f2b0000         push      fp
     3017 000004d1 500b0014         ldiu      sp,fp
     3018 000004d2 02740201         addi      513,sp
     3019                           .line   6
     3020                   ;----------------------------------------------------------------------
     3021                   ; 504 | memset(ADD_NVSRAM_STATION_NAME,0x00,(m_FileSize+512));                 
     3022                   ;----------------------------------------------------------------------
     3023 000004d3 50600200         ldiu      512,r0
     3024 000004d4 50620000         ldiu      0,r2
TMS320C3x/4x COFF AssemblerVersion 5.11     Tue Dec  7 12:02:21 2010
Copyright (c) 1987-1999 Texas Instruments Incorporatedc:\lang\tms320c3x\511\bin\asm30.exe -l cf.asm cf.obj -tC:\Users\jds\AppData\Local\Temp\cf.tmp 

cf.asm                                                               PAGE   57

     3025 000004d5 502110dc-        ldiu      @CL27,r1
     3026 000004d6 02200004-        addi      @_m_FileSize+0,r0     ; Unsigned
     3027 000004d7 0f200000         push      r0
     3028 000004d8 0f220000         push      r2
     3029 000004d9 0f210000         push      r1
     3030 000004da 62000000!        call      _memset
     3031                                                           ; Call Occurs
     3032 000004db 18740003         subi      3,sp
     3033                           .line   8
     3034                   ;----------------------------------------------------------------------
     3035                   ; 506 | for(i=0;i<m_FileSize; )                                                
     3036                   ;----------------------------------------------------------------------
     3037 000004dc 50600000         ldiu      0,r0
     3038 000004dd 15400301         sti       r0,*+fp(1)
     3039 000004de 50400301         ldiu      *+fp(1),r0
     3040 000004df 04a00004-        cmpi      @_m_FileSize+0,r0
     3041 000004e0 6a040036         bhs       L165
     3042                   ;*      Branch Occurs to L165 
     3043 000004e1          L160:        
     3044                           .line   11
     3045                   ;----------------------------------------------------------------------
     3046                   ; 509 | if(!(i%512)&& m_FileSize >=(i+512)) //512바이크씩 저장 한다.           
     3047                   ;----------------------------------------------------------------------
     3048 000004e1 50410301         ldiu      *+fp(1),r1
     3049 000004e2 50000001         ldiu      r1,r0
     3050 000004e3 03e0fff8         ash       -8,r0
     3051 000004e4 09a010dd-        lsh       @CL28,r0
     3052 000004e5 21000100         addi3     r0,r1,r0
     3053 000004e6 036001ff         andn      511,r0
     3054 000004e7 19800001         subri     r1,r0
     3055 000004e8 6a06001c         bne       L163
     3056                   ;*      Branch Occurs to L163 
     3057 000004e9 50600200         ldiu      512,r0
     3058 000004ea 50210004-        ldiu      @_m_FileSize+0,r1
     3059 000004eb 02400301         addi      *+fp(1),r0            ; Unsigned
     3060 000004ec 23800100         cmpi3     r0,r1
     3061 000004ed 6a010017         blo       L163
     3062                   ;*      Branch Occurs to L163 
     3063                           .line   13
     3064                   ;----------------------------------------------------------------------
     3065                   ; 511 | Check_Header(i,Cluster_OneFileBuf,sDataBuf);                           
     3066                   ;----------------------------------------------------------------------
     3067 000004ee 5000000b         ldiu      fp,r0
     3068 000004ef 50420301         ldiu      *+fp(1),r2
     3069 000004f0 502110da-        ldiu      @CL25,r1
     3070 000004f1 02600002         addi      2,r0
     3071 000004f2 0f200000         push      r0
     3072 000004f3 0f210000         push      r1
     3073 000004f4 0f220000         push      r2
     3074 000004f5 6200041e'        call      _Check_Header
     3075                                                           ; Call Occurs
     3076 000004f6 18740003         subi      3,sp
     3077                           .line   15
     3078                   ;----------------------------------------------------------------------
TMS320C3x/4x COFF AssemblerVersion 5.11     Tue Dec  7 12:02:21 2010
Copyright (c) 1987-1999 Texas Instruments Incorporatedc:\lang\tms320c3x\511\bin\asm30.exe -l cf.asm cf.obj -tC:\Users\jds\AppData\Local\Temp\cf.tmp 

cf.asm                                                               PAGE   58

     3079                   ; 513 | NVSRAM_MEMCPY(&NVSRAM(i),sDataBuf,512);                                
     3080                   ;----------------------------------------------------------------------
     3081 000004f7 502110dc-        ldiu      @CL27,r1
     3082 000004f8 50620200         ldiu      512,r2
     3083 000004f9 5000000b         ldiu      fp,r0
     3084 000004fa 02410301         addi      *+fp(1),r1            ; Unsigned
     3085 000004fb 0f220000         push      r2
     3086 000004fc 02600002         addi      2,r0
     3087 000004fd 0f200000         push      r0
     3088 000004fe 0f210000         push      r1
     3089 000004ff 62000c78'        call      _NVSRAM_MEMCPY
     3090                                                           ; Call Occurs
     3091 00000500 18740003         subi      3,sp
     3092                           .line   16
     3093                   ;----------------------------------------------------------------------
     3094                   ; 514 | i = i+512;                                                             
     3095                   ; 516 | else    // 너머지 짜투리 저장한다.                                     
     3096                   ;----------------------------------------------------------------------
     3097 00000501 50600200         ldiu      512,r0
     3098 00000502 02400301         addi      *+fp(1),r0
     3099 00000503 15400301         sti       r0,*+fp(1)
     3100 00000504 6a00000f         bu        L164
     3101                   ;*      Branch Occurs to L164 
     3102 00000505          L163:        
     3103                           .line   20
     3104                   ;----------------------------------------------------------------------
     3105                   ; 518 | NVSRAM(i) = Check_Header(i,Cluster_OneFileBuf,sDataBuf);               
     3106                   ;----------------------------------------------------------------------
     3107 00000505 5000000b         ldiu      fp,r0
     3108 00000506 50420301         ldiu      *+fp(1),r2
     3109 00000507 502110da-        ldiu      @CL25,r1
     3110 00000508 02600002         addi      2,r0
     3111 00000509 0f200000         push      r0
     3112 0000050a 0f210000         push      r1
     3113 0000050b 0f220000         push      r2
     3114 0000050c 6200041e'        call      _Check_Header
     3115                                                           ; Call Occurs
     3116 0000050d 18740003         subi      3,sp
     3117 0000050e 502810dc-        ldiu      @CL27,ar0
     3118 0000050f 50510301         ldiu      *+fp(1),ir0
     3119 00000510 15404000         sti       r0,*+ar0(ir0)
     3120                           .line   21
     3121                   ;----------------------------------------------------------------------
     3122                   ; 519 | i++;                                                                   
     3123                   ;----------------------------------------------------------------------
     3124 00000511 50600001         ldiu      1,r0
     3125 00000512 02400301         addi      *+fp(1),r0
     3126 00000513 15400301         sti       r0,*+fp(1)
     3127 00000514          L164:        
     3128                           .line   8
     3129 00000514 50400301         ldiu      *+fp(1),r0
     3130 00000515 04a00004-        cmpi      @_m_FileSize+0,r0
     3131 00000516 6a01ffca         blo       L160
     3132                   ;*      Branch Occurs to L160 
TMS320C3x/4x COFF AssemblerVersion 5.11     Tue Dec  7 12:02:21 2010
Copyright (c) 1987-1999 Texas Instruments Incorporatedc:\lang\tms320c3x\511\bin\asm30.exe -l cf.asm cf.obj -tC:\Users\jds\AppData\Local\Temp\cf.tmp 

cf.asm                                                               PAGE   59

     3133 00000517          L165:        
     3134                           .line   25
     3135                   ;----------------------------------------------------------------------
     3136                   ; 523 | return m_FileSize;                                                     
     3137                   ;----------------------------------------------------------------------
     3138 00000517 50200004-        ldiu      @_m_FileSize+0,r0
     3139                           .line   26
     3140 00000518 50530b01         ldiu      *-fp(1),bk
     3141 00000519 504bc300         ldiu      *fp,fp
     3142 0000051a 18740203         subi      515,sp
     3143 0000051b 68000013         bu        bk
     3144                   ;*      Branch Occurs to bk 
     3145                           .endfunc        524,000000000h,513
     3146                   
     3147                   
     3148 0000051c                  .sect    ".text"
     3149                   
     3150                           .global _Nvsram_Load
     3151                           .sym    _Nvsram_Load,_Nvsram_Load,32,2,0
     3152                           .func   530
     3153                   ;******************************************************************************
     3154                   ;* FUNCTION NAME: _Nvsram_Load                                                *
     3155                   ;*                                                                            *
     3156                   ;*   Architecture       : TMS320C30                                           *
     3157                   ;*   Calling Convention : Stack Parameter Convention                          *
     3158                   ;*   Function Uses Regs : r0,r1,r2,r3,r4,ar0,fp,ir0,ir1,sp,st,rs              *
     3159                   ;*   Regs Saved         : r4                                                  *
     3160                   ;*   Stack Frame        : Full (w/ debug)                                     *
     3161                   ;*   Total Frame Size   : 2 Call + 0 Parm + 525 Auto + 1 SOE = 528 words      *
     3162                   ;******************************************************************************
     3163 0000051c          _Nvsram_Load:
     3164                           .sym    _i,1,4,1,32
     3165                           .sym    _j,2,4,1,32
     3166                           .sym    _k,3,4,1,32
     3167                           .sym    _dd,4,4,1,32
     3168                           .sym    _sJump_Cnt,5,4,1,32
     3169                           .sym    _Offset1,6,4,1,32
     3170                           .sym    _Offset2,7,4,1,32
     3171                           .sym    _Offset3,8,4,1,32
     3172                           .sym    _Offset4,9,4,1,32
     3173                           .sym    _sDataBuf,10,60,1,16384,,512
     3174                           .sym    _nDATA,522,12,1,32
     3175                           .sym    _Cnt,523,12,1,32
     3176                           .sym    _ReCnt,524,12,1,32
     3177                           .sym    _OffSet,525,12,1,32
     3178                           .line   1
     3179                   ;----------------------------------------------------------------------
     3180                   ; 530 | void Nvsram_Load()                                                     
     3181                   ; 532 | int i,j,k,dd;                                                          
     3182                   ;----------------------------------------------------------------------
     3183 0000051c 0f2b0000         push      fp
     3184 0000051d 500b0014         ldiu      sp,fp
     3185 0000051e 0274020d         addi      525,sp
     3186 0000051f 0f240000         push      r4
TMS320C3x/4x COFF AssemblerVersion 5.11     Tue Dec  7 12:02:21 2010
Copyright (c) 1987-1999 Texas Instruments Incorporatedc:\lang\tms320c3x\511\bin\asm30.exe -l cf.asm cf.obj -tC:\Users\jds\AppData\Local\Temp\cf.tmp 

cf.asm                                                               PAGE   60

     3187                           .line   4
     3188                   ;----------------------------------------------------------------------
     3189                   ; 533 | int sJump_Cnt = 0;                                                     
     3190                   ;----------------------------------------------------------------------
     3191 00000520 50600000         ldiu      0,r0
     3192 00000521 15400305         sti       r0,*+fp(5)
     3193                           .line   5
     3194                   ;----------------------------------------------------------------------
     3195                   ; 534 | int Offset1 =0;                                                        
     3196                   ;----------------------------------------------------------------------
     3197 00000522 15400306         sti       r0,*+fp(6)
     3198                           .line   6
     3199                   ;----------------------------------------------------------------------
     3200                   ; 535 | int Offset2 =0;                                                        
     3201                   ;----------------------------------------------------------------------
     3202 00000523 15400307         sti       r0,*+fp(7)
     3203                           .line   7
     3204                   ;----------------------------------------------------------------------
     3205                   ; 536 | int Offset3 =0;                                                        
     3206                   ;----------------------------------------------------------------------
     3207 00000524 15400308         sti       r0,*+fp(8)
     3208                           .line   8
     3209                   ;----------------------------------------------------------------------
     3210                   ; 537 | int Offset4 =0;                                                        
     3211                   ; 538 | UCHAR sDataBuf[512];                                                   
     3212                   ;----------------------------------------------------------------------
     3213 00000525 15400309         sti       r0,*+fp(9)
     3214                           .line   10
     3215                   ;----------------------------------------------------------------------
     3216                   ; 539 | UCHAR nDATA = 0;                                                       
     3217                   ;----------------------------------------------------------------------
     3218 00000526 5071020a         ldiu      522,ir0
     3219 00000527 15404300         sti       r0,*+fp(ir0)
     3220                           .line   11
     3221                   ;----------------------------------------------------------------------
     3222                   ; 540 | UCHAR Cnt=0;                                                           
     3223                   ;----------------------------------------------------------------------
     3224 00000528 5071020b         ldiu      523,ir0
     3225 00000529 15404300         sti       r0,*+fp(ir0)
     3226                           .line   12
     3227                   ;----------------------------------------------------------------------
     3228                   ; 541 | UCHAR ReCnt=10;                                                        
     3229                   ;----------------------------------------------------------------------
     3230 0000052a 5071020c         ldiu      524,ir0
     3231 0000052b 5060000a         ldiu      10,r0
     3232 0000052c 15404300         sti       r0,*+fp(ir0)
     3233                           .line   13
     3234                   ;----------------------------------------------------------------------
     3235                   ; 542 | UCHAR OffSet=0;                                                        
     3236                   ;----------------------------------------------------------------------
     3237 0000052d 5071020d         ldiu      525,ir0
     3238 0000052e 50600000         ldiu      0,r0
     3239 0000052f 15404300         sti       r0,*+fp(ir0)
     3240                           .line   14
TMS320C3x/4x COFF AssemblerVersion 5.11     Tue Dec  7 12:02:21 2010
Copyright (c) 1987-1999 Texas Instruments Incorporatedc:\lang\tms320c3x\511\bin\asm30.exe -l cf.asm cf.obj -tC:\Users\jds\AppData\Local\Temp\cf.tmp 

cf.asm                                                               PAGE   61

     3241                   ;----------------------------------------------------------------------
     3242                   ; 543 | for(i=0;i<NVSRAM_END_OFFST;i++) NVSRAM(i) = 0x00;// Memory Clear       
     3243                   ;----------------------------------------------------------------------
     3244 00000530 15400301         sti       r0,*+fp(1)
     3245 00000531 04a010de-        cmpi      @CL29,r0
     3246 00000532 50610000         ldiu      0,r1
     3247 00000533 6a0a0008         bge       L170
     3248                   ;*      Branch Occurs to L170 
     3249 00000534          L169:        
     3250 00000534 50510301         ldiu      *+fp(1),ir0
     3251 00000535 502810dc-        ldiu      @CL27,ar0
     3252 00000536 15414000         sti       r1,*+ar0(ir0)
     3253 00000537 50600001         ldiu      1,r0
     3254 00000538 02400301         addi      *+fp(1),r0
     3255 00000539 15400301         sti       r0,*+fp(1)
     3256 0000053a 04a010de-        cmpi      @CL29,r0
     3257 0000053b 6a07fff8         blt       L169
     3258                   ;*      Branch Occurs to L169 
     3259 0000053c          L170:        
     3260                           .line   16
     3261                   ;----------------------------------------------------------------------
     3262                   ; 545 | Cnt=0,ReCnt=10,OffSet=0;                                               
     3263                   ;----------------------------------------------------------------------
     3264 0000053c 5071020b         ldiu      523,ir0
     3265 0000053d 50610000         ldiu      0,r1
     3266 0000053e 5060000a         ldiu      10,r0
     3267 0000053f 5072020d         ldiu      525,ir1
     3268 00000540 15414300         sti       r1,*+fp(ir0)
     3269 00000541 5071020c         ldiu      524,ir0
     3270 00000542 50620000         ldiu      0,r2
     3271 00000543 15404300         sti       r0,*+fp(ir0)
     3272 00000544 15428300         sti       r2,*+fp(ir1)
     3273                           .line   17
     3274                   ;----------------------------------------------------------------------
     3275                   ; 546 | if(Check_Header(DISK_DIA_OFFST,Cluster_OneFileBuf,sDataBuf)==50)       
     3276                   ;----------------------------------------------------------------------
     3277 00000545 5000000b         ldiu      fp,r0
     3278 00000546 502210da-        ldiu      @CL25,r2
     3279 00000547 0260000a         addi      10,r0
     3280 00000548 0f200000         push      r0
     3281 00000549 0f220000         push      r2
     3282 0000054a 0f210000         push      r1
     3283 0000054b 6200041e'        call      _Check_Header
     3284                                                           ; Call Occurs
     3285 0000054c 04e00032         cmpi      50,r0
     3286 0000054d 18740003         subi      3,sp
     3287 0000054e 6a060039         bne       L177
     3288                   ;*      Branch Occurs to L177 
     3289                           .line   19
     3290                   ;----------------------------------------------------------------------
     3291                   ; 548 | for(i=0;i<SIZE_DIA; )                                                  
     3292                   ;----------------------------------------------------------------------
     3293 0000054f 50600000         ldiu      0,r0
     3294 00000550 15400301         sti       r0,*+fp(1)
TMS320C3x/4x COFF AssemblerVersion 5.11     Tue Dec  7 12:02:21 2010
Copyright (c) 1987-1999 Texas Instruments Incorporatedc:\lang\tms320c3x\511\bin\asm30.exe -l cf.asm cf.obj -tC:\Users\jds\AppData\Local\Temp\cf.tmp 

cf.asm                                                               PAGE   62

     3295 00000551 04e004ec         cmpi      1260,r0
     3296 00000552 6a0a0035         bge       L177
     3297                   ;*      Branch Occurs to L177 
     3298 00000553          L172:        
     3299                           .line   21
     3300                   ;----------------------------------------------------------------------
     3301                   ; 550 | Cnt = (DISK_DIA_OFFST+i);                                              
     3302                   ;----------------------------------------------------------------------
     3303 00000553 5071020b         ldiu      523,ir0
     3304 00000554 50400301         ldiu      *+fp(1),r0
     3305 00000555 15404300         sti       r0,*+fp(ir0)
     3306                           .line   23
     3307                   ;----------------------------------------------------------------------
     3308                   ; 552 | if(!(Cnt%512)&& SIZE_DIA >=(i+512))                                    
     3309                   ;----------------------------------------------------------------------
     3310 00000556 506001ff         ldiu      511,r0
     3311 00000557 27c00043         tstb3     *+fp(ir0),r0
     3312 00000558 6a06001c         bne       L175
     3313                   ;*      Branch Occurs to L175 
     3314 00000559 50600200         ldiu      512,r0
     3315 0000055a 506104ec         ldiu      1260,r1
     3316 0000055b 02400301         addi      *+fp(1),r0
     3317 0000055c 23800100         cmpi3     r0,r1
     3318 0000055d 6a070017         blt       L175
     3319                   ;*      Branch Occurs to L175 
     3320                           .line   25
     3321                   ;----------------------------------------------------------------------
     3322                   ; 554 | Check_Header(Cnt,Cluster_OneFileBuf,sDataBuf);                         
     3323                   ; 555 | //memcpy(&NVSRAM(NVSRAM_DIA_OFFST+i),pCfData->nNowRdBuff,512);         
     3324                   ;----------------------------------------------------------------------
     3325 0000055e 5001000b         ldiu      fp,r1
     3326 0000055f 502010da-        ldiu      @CL25,r0
     3327 00000560 0261000a         addi      10,r1
     3328 00000561 0f210000         push      r1
     3329 00000562 0f200000         push      r0
     3330 00000563 50404300         ldiu      *+fp(ir0),r0
     3331 00000564 0f200000         push      r0
     3332 00000565 6200041e'        call      _Check_Header
     3333                                                           ; Call Occurs
     3334 00000566 18740003         subi      3,sp
     3335                           .line   27
     3336                   ;----------------------------------------------------------------------
     3337                   ; 556 | NVSRAM_MEMCPY(&NVSRAM(NVSRAM_DIA_OFFST+i),sDataBuf,512);               
     3338                   ;----------------------------------------------------------------------
     3339 00000567 502110df-        ldiu      @CL30,r1
     3340 00000568 50620200         ldiu      512,r2
     3341 00000569 5000000b         ldiu      fp,r0
     3342 0000056a 02410301         addi      *+fp(1),r1            ; Unsigned
     3343 0000056b 0f220000         push      r2
     3344 0000056c 0260000a         addi      10,r0
     3345 0000056d 0f200000         push      r0
     3346 0000056e 0f210000         push      r1
     3347 0000056f 62000c78'        call      _NVSRAM_MEMCPY
     3348                                                           ; Call Occurs
TMS320C3x/4x COFF AssemblerVersion 5.11     Tue Dec  7 12:02:21 2010
Copyright (c) 1987-1999 Texas Instruments Incorporatedc:\lang\tms320c3x\511\bin\asm30.exe -l cf.asm cf.obj -tC:\Users\jds\AppData\Local\Temp\cf.tmp 

cf.asm                                                               PAGE   63

     3349 00000570 18740003         subi      3,sp
     3350                           .line   28
     3351                   ;----------------------------------------------------------------------
     3352                   ; 557 | i = i+512;                                                             
     3353                   ; 559 | else                                                                   
     3354                   ;----------------------------------------------------------------------
     3355 00000571 50600200         ldiu      512,r0
     3356 00000572 02400301         addi      *+fp(1),r0
     3357 00000573 15400301         sti       r0,*+fp(1)
     3358 00000574 6a000010         bu        L176
     3359                   ;*      Branch Occurs to L176 
     3360 00000575          L175:        
     3361                           .line   32
     3362                   ;----------------------------------------------------------------------
     3363                   ; 561 | NVSRAM(NVSRAM_DIA_OFFST+i) = Check_Header(Cnt,Cluster_OneFileBuf,sDataB
     3364                   ;     | uf);                                                                   
     3365                   ;----------------------------------------------------------------------
     3366 00000575 5000000b         ldiu      fp,r0
     3367 00000576 502110da-        ldiu      @CL25,r1
     3368 00000577 5071020b         ldiu      523,ir0
     3369 00000578 0260000a         addi      10,r0
     3370 00000579 0f200000         push      r0
     3371 0000057a 0f210000         push      r1
     3372 0000057b 50404300         ldiu      *+fp(ir0),r0
     3373 0000057c 0f200000         push      r0
     3374 0000057d 6200041e'        call      _Check_Header
     3375                                                           ; Call Occurs
     3376 0000057e 18740003         subi      3,sp
     3377 0000057f 502810df-        ldiu      @CL30,ar0
     3378 00000580 50510301         ldiu      *+fp(1),ir0
     3379 00000581 15404000         sti       r0,*+ar0(ir0)
     3380                           .line   33
     3381                   ;----------------------------------------------------------------------
     3382                   ; 562 | i++;                                                                   
     3383                   ; 564 | //NVSRAM(NVSRAM_DIA_OFFST+i) = Check_Header(Cnt,Cluster_OneFileBuf);   
     3384                   ;----------------------------------------------------------------------
     3385 00000582 50600001         ldiu      1,r0
     3386 00000583 02400301         addi      *+fp(1),r0
     3387 00000584 15400301         sti       r0,*+fp(1)
     3388 00000585          L176:        
     3389                           .line   19
     3390 00000585 50400301         ldiu      *+fp(1),r0
     3391 00000586 04e004ec         cmpi      1260,r0
     3392 00000587 6a07ffcb         blt       L172
     3393                   ;*      Branch Occurs to L172 
     3394 00000588          L177:        
     3395                           .line   40
     3396                   ;----------------------------------------------------------------------
     3397                   ; 569 | Cnt=0,ReCnt=10,OffSet=0;                                               
     3398                   ;----------------------------------------------------------------------
     3399 00000588 5072020b         ldiu      523,ir1
     3400 00000589 50620000         ldiu      0,r2
     3401 0000058a 5071020c         ldiu      524,ir0
     3402 0000058b 5060000a         ldiu      10,r0
TMS320C3x/4x COFF AssemblerVersion 5.11     Tue Dec  7 12:02:21 2010
Copyright (c) 1987-1999 Texas Instruments Incorporatedc:\lang\tms320c3x\511\bin\asm30.exe -l cf.asm cf.obj -tC:\Users\jds\AppData\Local\Temp\cf.tmp 

cf.asm                                                               PAGE   64

     3403 0000058c 15428300         sti       r2,*+fp(ir1)
     3404 0000058d 15404300         sti       r0,*+fp(ir0)
     3405 0000058e 5071020d         ldiu      525,ir0
     3406 0000058f 50610000         ldiu      0,r1
     3407 00000590 15414300         sti       r1,*+fp(ir0)
     3408                           .line   41
     3409                   ;----------------------------------------------------------------------
     3410                   ; 570 | if(Check_Header(DISK_STATION_NAME_OFFST,Cluster_OneFileBuf,sDataBuf)==8
     3411                   ;     | 0)                                                                     
     3412                   ;----------------------------------------------------------------------
     3413 00000591 5000000b         ldiu      fp,r0
     3414 00000592 502210da-        ldiu      @CL25,r2
     3415 00000593 0260000a         addi      10,r0
     3416 00000594 502110e0-        ldiu      @CL31,r1
     3417 00000595 0f200000         push      r0
     3418 00000596 0f220000         push      r2
     3419 00000597 0f210000         push      r1
     3420 00000598 6200041e'        call      _Check_Header
     3421                                                           ; Call Occurs
     3422 00000599 04e00050         cmpi      80,r0
     3423 0000059a 18740003         subi      3,sp
     3424 0000059b 6a06003a         bne       L184
     3425                   ;*      Branch Occurs to L184 
     3426                           .line   44
     3427                   ;----------------------------------------------------------------------
     3428                   ; 573 | for(i=0;i<SIZE_STATION_NAME; )                                         
     3429                   ;----------------------------------------------------------------------
     3430 0000059c 50600000         ldiu      0,r0
     3431 0000059d 15400301         sti       r0,*+fp(1)
     3432 0000059e 04e011fa         cmpi      4602,r0
     3433 0000059f 6a0a0036         bge       L184
     3434                   ;*      Branch Occurs to L184 
     3435 000005a0          L179:        
     3436                           .line   46
     3437                   ;----------------------------------------------------------------------
     3438                   ; 575 | Cnt = (DISK_STATION_NAME_OFFST+i);                                     
     3439                   ;----------------------------------------------------------------------
     3440 000005a0 502010e1-        ldiu      @CL32,r0
     3441 000005a1 5071020b         ldiu      523,ir0
     3442 000005a2 02400301         addi      *+fp(1),r0            ; Unsigned
     3443 000005a3 15404300         sti       r0,*+fp(ir0)
     3444                           .line   48
     3445                   ;----------------------------------------------------------------------
     3446                   ; 577 | if(!(Cnt%512)&& SIZE_STATION_NAME >=(i+512))                           
     3447                   ;----------------------------------------------------------------------
     3448 000005a4 506001ff         ldiu      511,r0
     3449 000005a5 27c00043         tstb3     *+fp(ir0),r0
     3450 000005a6 6a06001c         bne       L182
     3451                   ;*      Branch Occurs to L182 
     3452 000005a7 50600200         ldiu      512,r0
     3453 000005a8 506111fa         ldiu      4602,r1
     3454 000005a9 02400301         addi      *+fp(1),r0
     3455 000005aa 23800100         cmpi3     r0,r1
     3456 000005ab 6a070017         blt       L182
TMS320C3x/4x COFF AssemblerVersion 5.11     Tue Dec  7 12:02:21 2010
Copyright (c) 1987-1999 Texas Instruments Incorporatedc:\lang\tms320c3x\511\bin\asm30.exe -l cf.asm cf.obj -tC:\Users\jds\AppData\Local\Temp\cf.tmp 

cf.asm                                                               PAGE   65

     3457                   ;*      Branch Occurs to L182 
     3458                           .line   50
     3459                   ;----------------------------------------------------------------------
     3460                   ; 579 | Check_Header(Cnt,Cluster_OneFileBuf,sDataBuf);                         
     3461                   ; 580 | //memcpy(&NVSRAM(NVSRAM_STATION_NAME_OFFST+i),pCfData->nNowRdBuff,512);
     3462                   ;----------------------------------------------------------------------
     3463 000005ac 5000000b         ldiu      fp,r0
     3464 000005ad 502110da-        ldiu      @CL25,r1
     3465 000005ae 0260000a         addi      10,r0
     3466 000005af 0f200000         push      r0
     3467 000005b0 0f210000         push      r1
     3468 000005b1 50404300         ldiu      *+fp(ir0),r0
     3469 000005b2 0f200000         push      r0
     3470 000005b3 6200041e'        call      _Check_Header
     3471                                                           ; Call Occurs
     3472 000005b4 18740003         subi      3,sp
     3473                           .line   52
     3474                   ;----------------------------------------------------------------------
     3475                   ; 581 | NVSRAM_MEMCPY(&NVSRAM(NVSRAM_STATION_NAME_OFFST+i),sDataBuf,512);      
     3476                   ;----------------------------------------------------------------------
     3477 000005b5 502010dc-        ldiu      @CL27,r0
     3478 000005b6 50620200         ldiu      512,r2
     3479 000005b7 5001000b         ldiu      fp,r1
     3480 000005b8 02400301         addi      *+fp(1),r0            ; Unsigned
     3481 000005b9 0f220000         push      r2
     3482 000005ba 0261000a         addi      10,r1
     3483 000005bb 0f210000         push      r1
     3484 000005bc 0f200000         push      r0
     3485 000005bd 62000c78'        call      _NVSRAM_MEMCPY
     3486                                                           ; Call Occurs
     3487 000005be 18740003         subi      3,sp
     3488                           .line   53
     3489                   ;----------------------------------------------------------------------
     3490                   ; 582 | i = i+512;                                                             
     3491                   ; 584 | else                                                                   
     3492                   ;----------------------------------------------------------------------
     3493 000005bf 50600200         ldiu      512,r0
     3494 000005c0 02400301         addi      *+fp(1),r0
     3495 000005c1 15400301         sti       r0,*+fp(1)
     3496 000005c2 6a000010         bu        L183
     3497                   ;*      Branch Occurs to L183 
     3498 000005c3          L182:        
     3499                           .line   57
     3500                   ;----------------------------------------------------------------------
     3501                   ; 586 | NVSRAM(NVSRAM_STATION_NAME_OFFST+i) = Check_Header(Cnt,Cluster_OneFileB
     3502                   ;     | uf,sDataBuf);                                                          
     3503                   ;----------------------------------------------------------------------
     3504 000005c3 5000000b         ldiu      fp,r0
     3505 000005c4 502110da-        ldiu      @CL25,r1
     3506 000005c5 5071020b         ldiu      523,ir0
     3507 000005c6 0260000a         addi      10,r0
     3508 000005c7 0f200000         push      r0
     3509 000005c8 0f210000         push      r1
     3510 000005c9 50404300         ldiu      *+fp(ir0),r0
TMS320C3x/4x COFF AssemblerVersion 5.11     Tue Dec  7 12:02:21 2010
Copyright (c) 1987-1999 Texas Instruments Incorporatedc:\lang\tms320c3x\511\bin\asm30.exe -l cf.asm cf.obj -tC:\Users\jds\AppData\Local\Temp\cf.tmp 

cf.asm                                                               PAGE   66

     3511 000005ca 0f200000         push      r0
     3512 000005cb 6200041e'        call      _Check_Header
     3513                                                           ; Call Occurs
     3514 000005cc 18740003         subi      3,sp
     3515 000005cd 502810dc-        ldiu      @CL27,ar0
     3516 000005ce 50510301         ldiu      *+fp(1),ir0
     3517 000005cf 15404000         sti       r0,*+ar0(ir0)
     3518                           .line   58
     3519                   ;----------------------------------------------------------------------
     3520                   ; 587 | i++;                                                                   
     3521                   ; 590 | //NVSRAM(NVSRAM_STATION_NAME_OFFST+i) = Check_Header(Cnt,Cluster_OneFil
     3522                   ;     | eBuf);                                                                 
     3523                   ;----------------------------------------------------------------------
     3524 000005d0 50600001         ldiu      1,r0
     3525 000005d1 02400301         addi      *+fp(1),r0
     3526 000005d2 15400301         sti       r0,*+fp(1)
     3527 000005d3          L183:        
     3528                           .line   44
     3529 000005d3 50400301         ldiu      *+fp(1),r0
     3530 000005d4 04e011fa         cmpi      4602,r0
     3531 000005d5 6a07ffca         blt       L179
     3532                   ;*      Branch Occurs to L179 
     3533 000005d6          L184:        
     3534                           .line   67
     3535                   ;----------------------------------------------------------------------
     3536                   ; 596 | Cnt=0,ReCnt=10,OffSet=0;                                               
     3537                   ;----------------------------------------------------------------------
     3538 000005d6 5072020b         ldiu      523,ir1
     3539 000005d7 50620000         ldiu      0,r2
     3540 000005d8 5071020c         ldiu      524,ir0
     3541 000005d9 5060000a         ldiu      10,r0
     3542 000005da 15428300         sti       r2,*+fp(ir1)
     3543 000005db 15404300         sti       r0,*+fp(ir0)
     3544 000005dc 5071020d         ldiu      525,ir0
     3545 000005dd 50610000         ldiu      0,r1
     3546 000005de 15414300         sti       r1,*+fp(ir0)
     3547                           .line   68
     3548                   ;----------------------------------------------------------------------
     3549                   ; 597 | if(Check_Header(DISK_STOP_PAT_OFFST,Cluster_OneFileBuf,sDataBuf)==60)  
     3550                   ;----------------------------------------------------------------------
     3551 000005df 5000000b         ldiu      fp,r0
     3552 000005e0 502210da-        ldiu      @CL25,r2
     3553 000005e1 0260000a         addi      10,r0
     3554 000005e2 502110e2-        ldiu      @CL33,r1
     3555 000005e3 0f200000         push      r0
     3556 000005e4 0f220000         push      r2
     3557 000005e5 0f210000         push      r1
     3558 000005e6 6200041e'        call      _Check_Header
     3559                                                           ; Call Occurs
     3560 000005e7 04e0003c         cmpi      60,r0
     3561 000005e8 18740003         subi      3,sp
     3562 000005e9 6a06008d         bne       L196
     3563                   ;*      Branch Occurs to L196 
     3564                           .line   70
TMS320C3x/4x COFF AssemblerVersion 5.11     Tue Dec  7 12:02:21 2010
Copyright (c) 1987-1999 Texas Instruments Incorporatedc:\lang\tms320c3x\511\bin\asm30.exe -l cf.asm cf.obj -tC:\Users\jds\AppData\Local\Temp\cf.tmp 

cf.asm                                                               PAGE   67

     3565                   ;----------------------------------------------------------------------
     3566                   ; 599 | for(i=0;i<2;i++) NVSRAM(NVSRAM_STOP_PAT_OFFST+i)= Check_Header(DISK_STO
     3567                   ;     | P_PAT_OFFST+i,Cluster_OneFileBuf,sDataBuf);                            
     3568                   ;----------------------------------------------------------------------
     3569 000005ea 50600000         ldiu      0,r0
     3570 000005eb 15400301         sti       r0,*+fp(1)
     3571 000005ec 04e00002         cmpi      2,r0
     3572 000005ed 6a0a0012         bge       L187
     3573                   ;*      Branch Occurs to L187 
     3574 000005ee          L186:        
     3575 000005ee 502110e3-        ldiu      @CL34,r1
     3576 000005ef 5000000b         ldiu      fp,r0
     3577 000005f0 502210da-        ldiu      @CL25,r2
     3578 000005f1 02410301         addi      *+fp(1),r1            ; Unsigned
     3579 000005f2 0260000a         addi      10,r0
     3580 000005f3 0f200000         push      r0
     3581 000005f4 0f220000         push      r2
     3582 000005f5 0f210000         push      r1
     3583 000005f6 6200041e'        call      _Check_Header
     3584                                                           ; Call Occurs
     3585 000005f7 18740003         subi      3,sp
     3586 000005f8 502810e4-        ldiu      @CL35,ar0
     3587 000005f9 50510301         ldiu      *+fp(1),ir0
     3588 000005fa 15404000         sti       r0,*+ar0(ir0)
     3589 000005fb 50600001         ldiu      1,r0
     3590 000005fc 02400301         addi      *+fp(1),r0
     3591 000005fd 15400301         sti       r0,*+fp(1)
     3592 000005fe 04e00002         cmpi      2,r0
     3593 000005ff 6a07ffee         blt       L186
     3594                   ;*      Branch Occurs to L186 
     3595 00000600          L187:        
     3596                           .line   72
     3597                   ;----------------------------------------------------------------------
     3598                   ; 601 | Offset1 = NVSRAM_STOP_PAT_OFFST+2;      // Nvsram Offset               
     3599                   ;----------------------------------------------------------------------
     3600 00000600 50601486         ldiu      5254,r0
     3601 00000601 15400306         sti       r0,*+fp(6)
     3602                           .line   73
     3603                   ;----------------------------------------------------------------------
     3604                   ; 602 | Offset2 = DISK_STOP_PAT_OFFST+2;        // SanDisk Offset              
     3605                   ;----------------------------------------------------------------------
     3606 00000602 502010e5-        ldiu      @CL36,r0
     3607 00000603 15400307         sti       r0,*+fp(7)
     3608                           .line   75
     3609                   ;----------------------------------------------------------------------
     3610                   ; 604 | for(i=0;i<MAX_STOP_PAT;i++)                                            
     3611                   ;----------------------------------------------------------------------
     3612 00000604 50600000         ldiu      0,r0
     3613 00000605 15400301         sti       r0,*+fp(1)
     3614 00000606 04e0012c         cmpi      300,r0
     3615 00000607 6a0a006f         bge       L196
     3616                   ;*      Branch Occurs to L196 
     3617 00000608          L188:        
     3618                           .line   77
TMS320C3x/4x COFF AssemblerVersion 5.11     Tue Dec  7 12:02:21 2010
Copyright (c) 1987-1999 Texas Instruments Incorporatedc:\lang\tms320c3x\511\bin\asm30.exe -l cf.asm cf.obj -tC:\Users\jds\AppData\Local\Temp\cf.tmp 

cf.asm                                                               PAGE   68

     3619                   ;----------------------------------------------------------------------
     3620                   ; 606 | Cnt = Check_Header(Offset2+3,Cluster_OneFileBuf,sDataBuf);      // Stat
     3621                   ;     | ion Count Offset                                                       
     3622                   ;----------------------------------------------------------------------
     3623 00000608 50610003         ldiu      3,r1
     3624 00000609 5000000b         ldiu      fp,r0
     3625 0000060a 502210da-        ldiu      @CL25,r2
     3626 0000060b 02410307         addi      *+fp(7),r1            ; Unsigned
     3627 0000060c 0260000a         addi      10,r0
     3628 0000060d 0f200000         push      r0
     3629 0000060e 0f220000         push      r2
     3630 0000060f 0f210000         push      r1
     3631 00000610 6200041e'        call      _Check_Header
     3632                                                           ; Call Occurs
     3633 00000611 5071020b         ldiu      523,ir0
     3634 00000612 18740003         subi      3,sp
     3635 00000613 15404300         sti       r0,*+fp(ir0)
     3636                           .line   79
     3637                   ;----------------------------------------------------------------------
     3638                   ; 608 | if(!Cnt){break;}        // 부하량을 최소화 한다.                       
     3639                   ; 610 | //for(j=0;j<4;j++) NVSRAM(Offset1++)= Check_Header(Offset2++,Cluster_On
     3640                   ;     | eFileBuf);                                                             
     3641                   ;----------------------------------------------------------------------
     3642 00000614 08404300         ldi       *+fp(ir0),r0
     3643 00000615 6a050061         beq       L196
     3644                   ;*      Branch Occurs to L196 
     3645                           .line   82
     3646                   ;----------------------------------------------------------------------
     3647                   ; 611 | for(j=0;j<6;j++) NVSRAM(Offset1++)= Check_Header((Offset2++),Cluster_On
     3648                   ;     | eFileBuf,sDataBuf);       //이란                                       
     3649                   ;----------------------------------------------------------------------
     3650 00000616 50600000         ldiu      0,r0
     3651 00000617 15400302         sti       r0,*+fp(2)
     3652 00000618 04e00006         cmpi      6,r0
     3653 00000619 6a0a0017         bge       L191
     3654                   ;*      Branch Occurs to L191 
     3655 0000061a          L190:        
     3656 0000061a 50630001         ldiu      1,r3
     3657 0000061b 50400307         ldiu      *+fp(7),r0
     3658 0000061c 5002000b         ldiu      fp,r2
     3659 0000061d 502110da-        ldiu      @CL25,r1
     3660 0000061e 02030000         addi      r0,r3
     3661 0000061f 0262000a         addi      10,r2
     3662 00000620 15430307         sti       r3,*+fp(7)
     3663 00000621 0f220000         push      r2
     3664 00000622 0f210000         push      r1
     3665 00000623 0f200000         push      r0
     3666 00000624 6200041e'        call      _Check_Header
     3667                                                           ; Call Occurs
     3668 00000625 18740003         subi      3,sp
     3669 00000626 502810dc-        ldiu      @CL27,ar0
     3670 00000627 50610001         ldiu      1,r1
     3671 00000628 50510306         ldiu      *+fp(6),ir0
     3672 00000629 02010011         addi      ir0,r1
TMS320C3x/4x COFF AssemblerVersion 5.11     Tue Dec  7 12:02:21 2010
Copyright (c) 1987-1999 Texas Instruments Incorporatedc:\lang\tms320c3x\511\bin\asm30.exe -l cf.asm cf.obj -tC:\Users\jds\AppData\Local\Temp\cf.tmp 

cf.asm                                                               PAGE   69

     3673 0000062a 15410306         sti       r1,*+fp(6)
     3674 0000062b 15404000         sti       r0,*+ar0(ir0)
     3675 0000062c 50600001         ldiu      1,r0
     3676 0000062d 02400302         addi      *+fp(2),r0
     3677 0000062e 15400302         sti       r0,*+fp(2)
     3678 0000062f 04e00006         cmpi      6,r0
     3679 00000630 6a07ffe9         blt       L190
     3680                   ;*      Branch Occurs to L190 
     3681 00000631          L191:        
     3682                           .line   85
     3683                   ;----------------------------------------------------------------------
     3684                   ; 614 | for(j=0;j<Cnt;j++)                                                     
     3685                   ;----------------------------------------------------------------------
     3686 00000631 50600000         ldiu      0,r0
     3687 00000632 15400302         sti       r0,*+fp(2)
     3688 00000633 5071020b         ldiu      523,ir0
     3689 00000634 50400302         ldiu      *+fp(2),r0
     3690 00000635 23c00043         cmpi3     *+fp(ir0),r0
     3691 00000636 50640000         ldiu      0,r4
     3692 00000637 6a04001d         bhs       L193
     3693                   ;*      Branch Occurs to L193 
     3694 00000638          L192:        
     3695                           .line   87
     3696                   ;----------------------------------------------------------------------
     3697                   ; 616 | NVSRAM(Offset1++) = Check_Header(Offset2+j*8+0,Cluster_OneFileBuf,sData
     3698                   ;     | Buf);                                                                  
     3699                   ; 617 | //NVSRAM(Offset1++) = Check_Header(Offset2+j*8+7,Cluster_OneFileBuf);  
     3700                   ;----------------------------------------------------------------------
     3701 00000638 50400302         ldiu      *+fp(2),r0
     3702 00000639 5001000b         ldiu      fp,r1
     3703 0000063a 502210da-        ldiu      @CL25,r2
     3704 0000063b 0ae00008         mpyi      8,r0
     3705 0000063c 02400307         addi      *+fp(7),r0            ; Unsigned
     3706 0000063d 0261000a         addi      10,r1
     3707 0000063e 0f210000         push      r1
     3708 0000063f 0f220000         push      r2
     3709 00000640 0f200000         push      r0
     3710 00000641 6200041e'        call      _Check_Header
     3711                                                           ; Call Occurs
     3712 00000642 18740003         subi      3,sp
     3713 00000643 502810dc-        ldiu      @CL27,ar0
     3714 00000644 50610001         ldiu      1,r1
     3715 00000645 50510306         ldiu      *+fp(6),ir0
     3716 00000646 02010011         addi      ir0,r1
     3717 00000647 15410306         sti       r1,*+fp(6)
     3718 00000648 15404000         sti       r0,*+ar0(ir0)
     3719                           .line   89
     3720                   ;----------------------------------------------------------------------
     3721                   ; 618 | NVSRAM(Offset1++) = 0x00;//Check_Header(Offset2+j*8+7,Cluster_OneFileBu
     3722                   ;     | f);                                                                    
     3723                   ;----------------------------------------------------------------------
     3724 00000649 50600001         ldiu      1,r0
     3725 0000064a 50510306         ldiu      *+fp(6),ir0
     3726 0000064b 02000011         addi      ir0,r0
TMS320C3x/4x COFF AssemblerVersion 5.11     Tue Dec  7 12:02:21 2010
Copyright (c) 1987-1999 Texas Instruments Incorporatedc:\lang\tms320c3x\511\bin\asm30.exe -l cf.asm cf.obj -tC:\Users\jds\AppData\Local\Temp\cf.tmp 

cf.asm                                                               PAGE   70

     3727 0000064c 15400306         sti       r0,*+fp(6)
     3728 0000064d 15444000         sti       r4,*+ar0(ir0)
     3729                           .line   85
     3730 0000064e 50600001         ldiu      1,r0
     3731 0000064f 02400302         addi      *+fp(2),r0
     3732 00000650 15400302         sti       r0,*+fp(2)
     3733 00000651 5071020b         ldiu      523,ir0
     3734 00000652 50400302         ldiu      *+fp(2),r0
     3735 00000653 23c00043         cmpi3     *+fp(ir0),r0
     3736 00000654 6a01ffe3         blo       L192
     3737                   ;*      Branch Occurs to L192 
     3738 00000655          L193:        
     3739                           .line   93
     3740                   ;----------------------------------------------------------------------
     3741                   ; 622 | for(j=0;j<(120-(Cnt*2));j++)                                           
     3742                   ;----------------------------------------------------------------------
     3743 00000655 50600000         ldiu      0,r0
     3744 00000656 15400302         sti       r0,*+fp(2)
     3745 00000657 5071020b         ldiu      523,ir0
     3746 00000658 50610002         ldiu      2,r1
     3747 00000659 25214301         mpyi3     r1,*+fp(ir0),r1
     3748 0000065a 50420302         ldiu      *+fp(2),r2
     3749 0000065b 19e10078         subri     120,r1                ; Unsigned
     3750 0000065c 23800201         cmpi3     r1,r2
     3751 0000065d 6a24000f         bhsd      L195
     3752 0000065e 0c800000         nop
     3753 0000065f 50630002         ldiu      2,r3
     3754 00000660 5072020b         ldiu      523,ir1
     3755                   ;*      Branch Occurs to L195 
     3756 00000661          L194:        
     3757                           .line   95
     3758                   ;----------------------------------------------------------------------
     3759                   ; 624 | NVSRAM(Offset1++) = 0x00;                                              
     3760                   ;----------------------------------------------------------------------
     3761 00000661 50610001         ldiu      1,r1
     3762 00000662 50510306         ldiu      *+fp(6),ir0
     3763 00000663 502810dc-        ldiu      @CL27,ar0
     3764 00000664 02010011         addi      ir0,r1
     3765 00000665 15410306         sti       r1,*+fp(6)
     3766 00000666 15404000         sti       r0,*+ar0(ir0)
     3767                           .line   93
     3768 00000667 50610001         ldiu      1,r1
     3769 00000668 02410302         addi      *+fp(2),r1
     3770 00000669 15410302         sti       r1,*+fp(2)
     3771 0000066a 25218303         mpyi3     r3,*+fp(ir1),r1
     3772 0000066b 50420302         ldiu      *+fp(2),r2
     3773 0000066c 19e10078         subri     120,r1                ; Unsigned
     3774 0000066d 23800201         cmpi3     r1,r2
     3775 0000066e 6a01fff2         blo       L194
     3776                   ;*      Branch Occurs to L194 
     3777 0000066f          L195:        
     3778                           .line   97
     3779                   ;----------------------------------------------------------------------
     3780                   ; 626 | Offset2+=60*8;                                                         
TMS320C3x/4x COFF AssemblerVersion 5.11     Tue Dec  7 12:02:21 2010
Copyright (c) 1987-1999 Texas Instruments Incorporatedc:\lang\tms320c3x\511\bin\asm30.exe -l cf.asm cf.obj -tC:\Users\jds\AppData\Local\Temp\cf.tmp 

cf.asm                                                               PAGE   71

     3781                   ;----------------------------------------------------------------------
     3782 0000066f 506001e0         ldiu      480,r0
     3783 00000670 02400307         addi      *+fp(7),r0
     3784 00000671 15400307         sti       r0,*+fp(7)
     3785                           .line   75
     3786 00000672 50600001         ldiu      1,r0
     3787 00000673 02400301         addi      *+fp(1),r0
     3788 00000674 15400301         sti       r0,*+fp(1)
     3789 00000675 04e0012c         cmpi      300,r0
     3790 00000676 6a07ff91         blt       L188
     3791                   ;*      Branch Occurs to L188 
     3792 00000677          L196:        
     3793                           .line   102
     3794                   ;----------------------------------------------------------------------
     3795                   ; 631 | Cnt=0,ReCnt=0,OffSet=0,Offset1 =0,Offset2 =0;                          
     3796                   ;----------------------------------------------------------------------
     3797 00000677 5071020b         ldiu      523,ir0
     3798 00000678 50790000         ldiu      0,rs
     3799 00000679 50620000         ldiu      0,r2
     3800 0000067a 50600000         ldiu      0,r0
     3801 0000067b 5072020d         ldiu      525,ir1
     3802 0000067c 50610000         ldiu      0,r1
     3803 0000067d 50630000         ldiu      0,r3
     3804 0000067e 15594300         sti       rs,*+fp(ir0)
     3805 0000067f 5071020c         ldiu      524,ir0
     3806 00000680 15420306         sti       r2,*+fp(6)
     3807 00000681 15404300         sti       r0,*+fp(ir0)
     3808 00000682 15418300         sti       r1,*+fp(ir1)
     3809 00000683 15430307         sti       r3,*+fp(7)
     3810                           .line   103
     3811                   ;----------------------------------------------------------------------
     3812                   ; 632 | if(Check_Header(DISK_DEST_CODE_OFFST,Cluster_OneFileBuf,sDataBuf)==70) 
     3813                   ;----------------------------------------------------------------------
     3814 00000684 502210da-        ldiu      @CL25,r2
     3815 00000685 5000000b         ldiu      fp,r0
     3816 00000686 0260000a         addi      10,r0
     3817 00000687 502110e6-        ldiu      @CL37,r1
     3818 00000688 0f200000         push      r0
     3819 00000689 0f220000         push      r2
     3820 0000068a 0f210000         push      r1
     3821 0000068b 6200041e'        call      _Check_Header
     3822                                                           ; Call Occurs
     3823 0000068c 04e00046         cmpi      70,r0
     3824 0000068d 18740003         subi      3,sp
     3825 0000068e 6a060044         bne       L201
     3826                   ;*      Branch Occurs to L201 
     3827                           .line   105
     3828                   ;----------------------------------------------------------------------
     3829                   ; 634 | for(i=0;i<2;i++) NVSRAM(NVSRAM_DEST_CODE_OFFST+i)= Check_Header(DISK_DE
     3830                   ;     | ST_CODE_OFFST+i,Cluster_OneFileBuf,sDataBuf);                          
     3831                   ;----------------------------------------------------------------------
     3832 0000068f 50600000         ldiu      0,r0
     3833 00000690 15400301         sti       r0,*+fp(1)
     3834 00000691 04e00002         cmpi      2,r0
TMS320C3x/4x COFF AssemblerVersion 5.11     Tue Dec  7 12:02:21 2010
Copyright (c) 1987-1999 Texas Instruments Incorporatedc:\lang\tms320c3x\511\bin\asm30.exe -l cf.asm cf.obj -tC:\Users\jds\AppData\Local\Temp\cf.tmp 

cf.asm                                                               PAGE   72

     3835 00000692 6a0a0012         bge       L199
     3836                   ;*      Branch Occurs to L199 
     3837 00000693          L198:        
     3838 00000693 502010e7-        ldiu      @CL38,r0
     3839 00000694 5001000b         ldiu      fp,r1
     3840 00000695 502210da-        ldiu      @CL25,r2
     3841 00000696 02400301         addi      *+fp(1),r0            ; Unsigned
     3842 00000697 0261000a         addi      10,r1
     3843 00000698 0f210000         push      r1
     3844 00000699 0f220000         push      r2
     3845 0000069a 0f200000         push      r0
     3846 0000069b 6200041e'        call      _Check_Header
     3847                                                           ; Call Occurs
     3848 0000069c 18740003         subi      3,sp
     3849 0000069d 502810e8-        ldiu      @CL39,ar0
     3850 0000069e 50510301         ldiu      *+fp(1),ir0
     3851 0000069f 15404000         sti       r0,*+ar0(ir0)
     3852 000006a0 50600001         ldiu      1,r0
     3853 000006a1 02400301         addi      *+fp(1),r0
     3854 000006a2 15400301         sti       r0,*+fp(1)
     3855 000006a3 04e00002         cmpi      2,r0
     3856 000006a4 6a07ffee         blt       L198
     3857                   ;*      Branch Occurs to L198 
     3858 000006a5          L199:        
     3859                           .line   107
     3860                   ;----------------------------------------------------------------------
     3861                   ; 636 | Offset3 = NVSRAM_DEST_CODE_OFFST+2; // Nvsram Offset                   
     3862                   ;----------------------------------------------------------------------
     3863 000006a5 502010e9-        ldiu      @CL40,r0
     3864 000006a6 15400308         sti       r0,*+fp(8)
     3865                           .line   108
     3866                   ;----------------------------------------------------------------------
     3867                   ; 637 | Offset4 = DISK_DEST_CODE_OFFST+2;       // SanDisk Offset              
     3868                   ;----------------------------------------------------------------------
     3869 000006a7 502010ea-        ldiu      @CL41,r0
     3870 000006a8 15400309         sti       r0,*+fp(9)
     3871                           .line   110
     3872                   ;----------------------------------------------------------------------
     3873                   ; 639 | for(i=0;i<80;i++)                                                      
     3874                   ;----------------------------------------------------------------------
     3875 000006a9 50600000         ldiu      0,r0
     3876 000006aa 15400301         sti       r0,*+fp(1)
     3877 000006ab 04e00050         cmpi      80,r0
     3878 000006ac 6a0a0026         bge       L201
     3879                   ;*      Branch Occurs to L201 
     3880 000006ad          L200:        
     3881                           .line   112
     3882                   ;----------------------------------------------------------------------
     3883                   ; 641 | NVSRAM(Offset3+(i*2)+0) = Check_Header(Offset4+(i*18)+0,Cluster_OneFile
     3884                   ;     | Buf,sDataBuf);                                                         
     3885                   ;----------------------------------------------------------------------
     3886 000006ad 50400301         ldiu      *+fp(1),r0
     3887 000006ae 5001000b         ldiu      fp,r1
     3888 000006af 502210da-        ldiu      @CL25,r2
TMS320C3x/4x COFF AssemblerVersion 5.11     Tue Dec  7 12:02:21 2010
Copyright (c) 1987-1999 Texas Instruments Incorporatedc:\lang\tms320c3x\511\bin\asm30.exe -l cf.asm cf.obj -tC:\Users\jds\AppData\Local\Temp\cf.tmp 

cf.asm                                                               PAGE   73

     3889 000006b0 0ae00012         mpyi      18,r0
     3890 000006b1 02400309         addi      *+fp(9),r0            ; Unsigned
     3891 000006b2 0261000a         addi      10,r1
     3892 000006b3 0f210000         push      r1
     3893 000006b4 0f220000         push      r2
     3894 000006b5 0f200000         push      r0
     3895 000006b6 6200041e'        call      _Check_Header
     3896                                                           ; Call Occurs
     3897 000006b7 18740003         subi      3,sp
     3898 000006b8 502810dc-        ldiu      @CL27,ar0
     3899 000006b9 50510301         ldiu      *+fp(1),ir0
     3900 000006ba 0af10002         mpyi      2,ir0
     3901 000006bb 02510308         addi      *+fp(8),ir0
     3902 000006bc 15404000         sti       r0,*+ar0(ir0)
     3903                           .line   113
     3904                   ;----------------------------------------------------------------------
     3905                   ; 642 | NVSRAM(Offset3+(i*2)+1) = Check_Header(Offset4+(i*18)+1,Cluster_OneFile
     3906                   ;     | Buf,sDataBuf);                                                         
     3907                   ;----------------------------------------------------------------------
     3908 000006bd 5002000b         ldiu      fp,r2
     3909 000006be 50400301         ldiu      *+fp(1),r0
     3910 000006bf 0ae00012         mpyi      18,r0
     3911 000006c0 02400309         addi      *+fp(9),r0
     3912 000006c1 02600001         addi      1,r0                  ; Unsigned
     3913 000006c2 0262000a         addi      10,r2
     3914 000006c3 502110da-        ldiu      @CL25,r1
     3915 000006c4 0f220000         push      r2
     3916 000006c5 0f210000         push      r1
     3917 000006c6 0f200000         push      r0
     3918 000006c7 6200041e'        call      _Check_Header
     3919                                                           ; Call Occurs
     3920 000006c8 18740003         subi      3,sp
     3921 000006c9 50510301         ldiu      *+fp(1),ir0
     3922 000006ca 0af10002         mpyi      2,ir0
     3923 000006cb 02510308         addi      *+fp(8),ir0
     3924 000006cc 502810eb-        ldiu      @CL42,ar0
     3925 000006cd 15404000         sti       r0,*+ar0(ir0)
     3926                           .line   110
     3927 000006ce 50600001         ldiu      1,r0
     3928 000006cf 02400301         addi      *+fp(1),r0
     3929 000006d0 15400301         sti       r0,*+fp(1)
     3930 000006d1 04e00050         cmpi      80,r0
     3931 000006d2 6a07ffda         blt       L200
     3932                   ;*      Branch Occurs to L200 
     3933 000006d3          L201:        
     3934                           .line   119
     3935                   ;----------------------------------------------------------------------
     3936                   ; 648 | Cnt=0,ReCnt=0,OffSet=0;                                                
     3937                   ;----------------------------------------------------------------------
     3938 000006d3 5071020b         ldiu      523,ir0
     3939 000006d4 50610000         ldiu      0,r1
     3940 000006d5 50620000         ldiu      0,r2
     3941 000006d6 5072020d         ldiu      525,ir1
     3942 000006d7 15414300         sti       r1,*+fp(ir0)
TMS320C3x/4x COFF AssemblerVersion 5.11     Tue Dec  7 12:02:21 2010
Copyright (c) 1987-1999 Texas Instruments Incorporatedc:\lang\tms320c3x\511\bin\asm30.exe -l cf.asm cf.obj -tC:\Users\jds\AppData\Local\Temp\cf.tmp 

cf.asm                                                               PAGE   74

     3943 000006d8 5071020c         ldiu      524,ir0
     3944 000006d9 50600000         ldiu      0,r0
     3945 000006da 15424300         sti       r2,*+fp(ir0)
     3946 000006db 15408300         sti       r0,*+fp(ir1)
     3947                           .line   120
     3948                   ;----------------------------------------------------------------------
     3949                   ; 649 | if(Check_Header(DISK_DISPLAY_DATA_OFFST,Cluster_OneFileBuf,sDataBuf)==1
     3950                   ;     | 00)                                                                    
     3951                   ;----------------------------------------------------------------------
     3952 000006dc 502110ec-        ldiu      @CL43,r1
     3953 000006dd 5000000b         ldiu      fp,r0
     3954 000006de 502210da-        ldiu      @CL25,r2
     3955 000006df 0260000a         addi      10,r0
     3956 000006e0 0f200000         push      r0
     3957 000006e1 0f220000         push      r2
     3958 000006e2 0f210000         push      r1
     3959 000006e3 6200041e'        call      _Check_Header
     3960                                                           ; Call Occurs
     3961 000006e4 04e00064         cmpi      100,r0
     3962 000006e5 18740003         subi      3,sp
     3963 000006e6 6a06003a         bne       L208
     3964                   ;*      Branch Occurs to L208 
     3965                           .line   122
     3966                   ;----------------------------------------------------------------------
     3967                   ; 651 | for(i=0;i<SIZE_DISPLAY_DATA; )                                         
     3968                   ;----------------------------------------------------------------------
     3969 000006e7 50600000         ldiu      0,r0
     3970 000006e8 15400301         sti       r0,*+fp(1)
     3971 000006e9 04e06722         cmpi      26402,r0
     3972 000006ea 6a0a0036         bge       L208
     3973                   ;*      Branch Occurs to L208 
     3974 000006eb          L203:        
     3975                           .line   125
     3976                   ;----------------------------------------------------------------------
     3977                   ; 654 | Cnt = (DISK_DISPLAY_DATA_OFFST+i);                                     
     3978                   ;----------------------------------------------------------------------
     3979 000006eb 502010ed-        ldiu      @CL44,r0
     3980 000006ec 5071020b         ldiu      523,ir0
     3981 000006ed 02400301         addi      *+fp(1),r0            ; Unsigned
     3982 000006ee 15404300         sti       r0,*+fp(ir0)
     3983                           .line   127
     3984                   ;----------------------------------------------------------------------
     3985                   ; 656 | if(!(Cnt%512)&& SIZE_DISPLAY_DATA >=(i+512))                           
     3986                   ;----------------------------------------------------------------------
     3987 000006ef 506001ff         ldiu      511,r0
     3988 000006f0 27c00043         tstb3     *+fp(ir0),r0
     3989 000006f1 6a06001c         bne       L206
     3990                   ;*      Branch Occurs to L206 
     3991 000006f2 50600200         ldiu      512,r0
     3992 000006f3 50616722         ldiu      26402,r1
     3993 000006f4 02400301         addi      *+fp(1),r0
     3994 000006f5 23800100         cmpi3     r0,r1
     3995 000006f6 6a070017         blt       L206
     3996                   ;*      Branch Occurs to L206 
TMS320C3x/4x COFF AssemblerVersion 5.11     Tue Dec  7 12:02:21 2010
Copyright (c) 1987-1999 Texas Instruments Incorporatedc:\lang\tms320c3x\511\bin\asm30.exe -l cf.asm cf.obj -tC:\Users\jds\AppData\Local\Temp\cf.tmp 

cf.asm                                                               PAGE   75

     3997                           .line   130
     3998                   ;----------------------------------------------------------------------
     3999                   ; 659 | Check_Header(Cnt,Cluster_OneFileBuf,sDataBuf);                         
     4000                   ; 660 | //memcpy(&NVSRAM(NVSRAM_DISPLAY_DATA_OFFST+i),pCfData->nNowRdBuff,512);
     4001                   ;----------------------------------------------------------------------
     4002 000006f7 5000000b         ldiu      fp,r0
     4003 000006f8 502110da-        ldiu      @CL25,r1
     4004 000006f9 0260000a         addi      10,r0
     4005 000006fa 0f200000         push      r0
     4006 000006fb 0f210000         push      r1
     4007 000006fc 50404300         ldiu      *+fp(ir0),r0
     4008 000006fd 0f200000         push      r0
     4009 000006fe 6200041e'        call      _Check_Header
     4010                                                           ; Call Occurs
     4011 000006ff 18740003         subi      3,sp
     4012                           .line   132
     4013                   ;----------------------------------------------------------------------
     4014                   ; 661 | NVSRAM_MEMCPY(&NVSRAM(NVSRAM_DISPLAY_DATA_OFFST+i),sDataBuf,512);      
     4015                   ;----------------------------------------------------------------------
     4016 00000700 502010ee-        ldiu      @CL45,r0
     4017 00000701 50620200         ldiu      512,r2
     4018 00000702 5001000b         ldiu      fp,r1
     4019 00000703 02400301         addi      *+fp(1),r0            ; Unsigned
     4020 00000704 0f220000         push      r2
     4021 00000705 0261000a         addi      10,r1
     4022 00000706 0f210000         push      r1
     4023 00000707 0f200000         push      r0
     4024 00000708 62000c78'        call      _NVSRAM_MEMCPY
     4025                                                           ; Call Occurs
     4026 00000709 18740003         subi      3,sp
     4027                           .line   133
     4028                   ;----------------------------------------------------------------------
     4029                   ; 662 | i = i+512;                                                             
     4030                   ; 664 | else                                                                   
     4031                   ;----------------------------------------------------------------------
     4032 0000070a 50600200         ldiu      512,r0
     4033 0000070b 02400301         addi      *+fp(1),r0
     4034 0000070c 15400301         sti       r0,*+fp(1)
     4035 0000070d 6a000010         bu        L207
     4036                   ;*      Branch Occurs to L207 
     4037 0000070e          L206:        
     4038                           .line   137
     4039                   ;----------------------------------------------------------------------
     4040                   ; 666 | NVSRAM(NVSRAM_DISPLAY_DATA_OFFST+i) = Check_Header(Cnt,Cluster_OneFileB
     4041                   ;     | uf,sDataBuf);                                                          
     4042                   ;----------------------------------------------------------------------
     4043 0000070e 5000000b         ldiu      fp,r0
     4044 0000070f 502110da-        ldiu      @CL25,r1
     4045 00000710 5071020b         ldiu      523,ir0
     4046 00000711 0260000a         addi      10,r0
     4047 00000712 0f200000         push      r0
     4048 00000713 0f210000         push      r1
     4049 00000714 50404300         ldiu      *+fp(ir0),r0
     4050 00000715 0f200000         push      r0
TMS320C3x/4x COFF AssemblerVersion 5.11     Tue Dec  7 12:02:21 2010
Copyright (c) 1987-1999 Texas Instruments Incorporatedc:\lang\tms320c3x\511\bin\asm30.exe -l cf.asm cf.obj -tC:\Users\jds\AppData\Local\Temp\cf.tmp 

cf.asm                                                               PAGE   76

     4051 00000716 6200041e'        call      _Check_Header
     4052                                                           ; Call Occurs
     4053 00000717 18740003         subi      3,sp
     4054 00000718 502810ee-        ldiu      @CL45,ar0
     4055 00000719 50510301         ldiu      *+fp(1),ir0
     4056 0000071a 15404000         sti       r0,*+ar0(ir0)
     4057                           .line   138
     4058                   ;----------------------------------------------------------------------
     4059                   ; 667 | i++;                                                                   
     4060                   ; 669 | //NVSRAM(NVSRAM_DISPLAY_DATA_OFFST+i) = Check_Header(Cnt,Cluster_OneFil
     4061                   ;     | eBuf);                                                                 
     4062                   ;----------------------------------------------------------------------
     4063 0000071b 50600001         ldiu      1,r0
     4064 0000071c 02400301         addi      *+fp(1),r0
     4065 0000071d 15400301         sti       r0,*+fp(1)
     4066 0000071e          L207:        
     4067                           .line   122
     4068 0000071e 50400301         ldiu      *+fp(1),r0
     4069 0000071f 04e06722         cmpi      26402,r0
     4070 00000720 6a07ffca         blt       L203
     4071                   ;*      Branch Occurs to L203 
     4072 00000721          L208:        
     4073                           .line   144
     4074                   ;----------------------------------------------------------------------
     4075                   ; 673 | Cnt=0,ReCnt=0,OffSet=0;                                                
     4076                   ;----------------------------------------------------------------------
     4077 00000721 5071020b         ldiu      523,ir0
     4078 00000722 50610000         ldiu      0,r1
     4079 00000723 50620000         ldiu      0,r2
     4080 00000724 5072020d         ldiu      525,ir1
     4081 00000725 15414300         sti       r1,*+fp(ir0)
     4082 00000726 5071020c         ldiu      524,ir0
     4083 00000727 50600000         ldiu      0,r0
     4084 00000728 15424300         sti       r2,*+fp(ir0)
     4085 00000729 15408300         sti       r0,*+fp(ir1)
     4086                           .line   145
     4087                   ;----------------------------------------------------------------------
     4088                   ; 674 | if(Check_Header(DISK_IM_TEXT_OFFST,Cluster_OneFileBuf,sDataBuf)==110)  
     4089                   ;----------------------------------------------------------------------
     4090 0000072a 502110ef-        ldiu      @CL46,r1
     4091 0000072b 5000000b         ldiu      fp,r0
     4092 0000072c 502210da-        ldiu      @CL25,r2
     4093 0000072d 0260000a         addi      10,r0
     4094 0000072e 0f200000         push      r0
     4095 0000072f 0f220000         push      r2
     4096 00000730 0f210000         push      r1
     4097 00000731 6200041e'        call      _Check_Header
     4098                                                           ; Call Occurs
     4099 00000732 04e0006e         cmpi      110,r0
     4100 00000733 18740003         subi      3,sp
     4101 00000734 6a06003a         bne       L215
     4102                   ;*      Branch Occurs to L215 
     4103                           .line   147
     4104                   ;----------------------------------------------------------------------
TMS320C3x/4x COFF AssemblerVersion 5.11     Tue Dec  7 12:02:21 2010
Copyright (c) 1987-1999 Texas Instruments Incorporatedc:\lang\tms320c3x\511\bin\asm30.exe -l cf.asm cf.obj -tC:\Users\jds\AppData\Local\Temp\cf.tmp 

cf.asm                                                               PAGE   77

     4105                   ; 676 | for(i=0;i<SIZE_IM_TEXT; )                                              
     4106                   ;----------------------------------------------------------------------
     4107 00000735 50600000         ldiu      0,r0
     4108 00000736 15400301         sti       r0,*+fp(1)
     4109 00000737 04e07532         cmpi      30002,r0
     4110 00000738 6a0a0036         bge       L215
     4111                   ;*      Branch Occurs to L215 
     4112 00000739          L210:        
     4113                           .line   149
     4114                   ;----------------------------------------------------------------------
     4115                   ; 678 | Cnt = (DISK_IM_TEXT_OFFST+i);                                          
     4116                   ;----------------------------------------------------------------------
     4117 00000739 502010f0-        ldiu      @CL47,r0
     4118 0000073a 5071020b         ldiu      523,ir0
     4119 0000073b 02400301         addi      *+fp(1),r0            ; Unsigned
     4120 0000073c 15404300         sti       r0,*+fp(ir0)
     4121                           .line   151
     4122                   ;----------------------------------------------------------------------
     4123                   ; 680 | if(!(Cnt%512)&& SIZE_IM_TEXT >=(i+512))                                
     4124                   ;----------------------------------------------------------------------
     4125 0000073d 506001ff         ldiu      511,r0
     4126 0000073e 27c00043         tstb3     *+fp(ir0),r0
     4127 0000073f 6a06001c         bne       L213
     4128                   ;*      Branch Occurs to L213 
     4129 00000740 50600200         ldiu      512,r0
     4130 00000741 50617532         ldiu      30002,r1
     4131 00000742 02400301         addi      *+fp(1),r0
     4132 00000743 23800100         cmpi3     r0,r1
     4133 00000744 6a070017         blt       L213
     4134                   ;*      Branch Occurs to L213 
     4135                           .line   153
     4136                   ;----------------------------------------------------------------------
     4137                   ; 682 | Check_Header(Cnt,Cluster_OneFileBuf,sDataBuf);                         
     4138                   ; 683 | //memcpy(&NVSRAM(NVSRAM_IM_TEXT_OFFST+i),pCfData->nNowRdBuff,512);     
     4139                   ;----------------------------------------------------------------------
     4140 00000745 5000000b         ldiu      fp,r0
     4141 00000746 502110da-        ldiu      @CL25,r1
     4142 00000747 0260000a         addi      10,r0
     4143 00000748 0f200000         push      r0
     4144 00000749 0f210000         push      r1
     4145 0000074a 50404300         ldiu      *+fp(ir0),r0
     4146 0000074b 0f200000         push      r0
     4147 0000074c 6200041e'        call      _Check_Header
     4148                                                           ; Call Occurs
     4149 0000074d 18740003         subi      3,sp
     4150                           .line   155
     4151                   ;----------------------------------------------------------------------
     4152                   ; 684 | NVSRAM_MEMCPY(&NVSRAM(NVSRAM_IM_TEXT_OFFST+i),sDataBuf,512);           
     4153                   ;----------------------------------------------------------------------
     4154 0000074e 502010f1-        ldiu      @CL48,r0
     4155 0000074f 50620200         ldiu      512,r2
     4156 00000750 5001000b         ldiu      fp,r1
     4157 00000751 02400301         addi      *+fp(1),r0            ; Unsigned
     4158 00000752 0f220000         push      r2
TMS320C3x/4x COFF AssemblerVersion 5.11     Tue Dec  7 12:02:21 2010
Copyright (c) 1987-1999 Texas Instruments Incorporatedc:\lang\tms320c3x\511\bin\asm30.exe -l cf.asm cf.obj -tC:\Users\jds\AppData\Local\Temp\cf.tmp 

cf.asm                                                               PAGE   78

     4159 00000753 0261000a         addi      10,r1
     4160 00000754 0f210000         push      r1
     4161 00000755 0f200000         push      r0
     4162 00000756 62000c78'        call      _NVSRAM_MEMCPY
     4163                                                           ; Call Occurs
     4164 00000757 18740003         subi      3,sp
     4165                           .line   156
     4166                   ;----------------------------------------------------------------------
     4167                   ; 685 | i = i+512;                                                             
     4168                   ; 687 | else                                                                   
     4169                   ;----------------------------------------------------------------------
     4170 00000758 50600200         ldiu      512,r0
     4171 00000759 02400301         addi      *+fp(1),r0
     4172 0000075a 15400301         sti       r0,*+fp(1)
     4173 0000075b 6a000010         bu        L214
     4174                   ;*      Branch Occurs to L214 
     4175 0000075c          L213:        
     4176                           .line   160
     4177                   ;----------------------------------------------------------------------
     4178                   ; 689 | NVSRAM(NVSRAM_IM_TEXT_OFFST+i) = Check_Header(Cnt,Cluster_OneFileBuf,sD
     4179                   ;     | ataBuf);                                                               
     4180                   ;----------------------------------------------------------------------
     4181 0000075c 5000000b         ldiu      fp,r0
     4182 0000075d 502110da-        ldiu      @CL25,r1
     4183 0000075e 5071020b         ldiu      523,ir0
     4184 0000075f 0260000a         addi      10,r0
     4185 00000760 0f200000         push      r0
     4186 00000761 0f210000         push      r1
     4187 00000762 50404300         ldiu      *+fp(ir0),r0
     4188 00000763 0f200000         push      r0
     4189 00000764 6200041e'        call      _Check_Header
     4190                                                           ; Call Occurs
     4191 00000765 18740003         subi      3,sp
     4192 00000766 502810f1-        ldiu      @CL48,ar0
     4193 00000767 50510301         ldiu      *+fp(1),ir0
     4194 00000768 15404000         sti       r0,*+ar0(ir0)
     4195                           .line   161
     4196                   ;----------------------------------------------------------------------
     4197                   ; 690 | i++;                                                                   
     4198                   ; 693 | //NVSRAM(NVSRAM_IM_TEXT_OFFST+i) = Check_Header(Cnt,Cluster_OneFileBuf)
     4199                   ;     | ;                                                                      
     4200                   ;----------------------------------------------------------------------
     4201 00000769 50600001         ldiu      1,r0
     4202 0000076a 02400301         addi      *+fp(1),r0
     4203 0000076b 15400301         sti       r0,*+fp(1)
     4204 0000076c          L214:        
     4205                           .line   147
     4206 0000076c 50400301         ldiu      *+fp(1),r0
     4207 0000076d 04e07532         cmpi      30002,r0
     4208 0000076e 6a07ffca         blt       L210
     4209                   ;*      Branch Occurs to L210 
     4210 0000076f          L215:        
     4211                           .line   169
     4212                   ;----------------------------------------------------------------------
TMS320C3x/4x COFF AssemblerVersion 5.11     Tue Dec  7 12:02:21 2010
Copyright (c) 1987-1999 Texas Instruments Incorporatedc:\lang\tms320c3x\511\bin\asm30.exe -l cf.asm cf.obj -tC:\Users\jds\AppData\Local\Temp\cf.tmp 

cf.asm                                                               PAGE   79

     4213                   ; 698 | Cnt=0,ReCnt=0,OffSet=0;                                                
     4214                   ;----------------------------------------------------------------------
     4215 0000076f 5071020b         ldiu      523,ir0
     4216 00000770 50610000         ldiu      0,r1
     4217 00000771 50620000         ldiu      0,r2
     4218 00000772 5072020d         ldiu      525,ir1
     4219 00000773 15414300         sti       r1,*+fp(ir0)
     4220 00000774 5071020c         ldiu      524,ir0
     4221 00000775 50600000         ldiu      0,r0
     4222 00000776 15424300         sti       r2,*+fp(ir0)
     4223 00000777 15408300         sti       r0,*+fp(ir1)
     4224                           .line   170
     4225                   ;----------------------------------------------------------------------
     4226                   ; 699 | if(Check_Header(DISK_PR_TEXT_OFFST,Cluster_OneFileBuf,sDataBuf)==120)  
     4227                   ;----------------------------------------------------------------------
     4228 00000778 502110f2-        ldiu      @CL49,r1
     4229 00000779 5000000b         ldiu      fp,r0
     4230 0000077a 502210da-        ldiu      @CL25,r2
     4231 0000077b 0260000a         addi      10,r0
     4232 0000077c 0f200000         push      r0
     4233 0000077d 0f220000         push      r2
     4234 0000077e 0f210000         push      r1
     4235 0000077f 6200041e'        call      _Check_Header
     4236                                                           ; Call Occurs
     4237 00000780 04e00078         cmpi      120,r0
     4238 00000781 18740003         subi      3,sp
     4239 00000782 6a06003c         bne       L222
     4240                   ;*      Branch Occurs to L222 
     4241                           .line   172
     4242                   ;----------------------------------------------------------------------
     4243                   ; 701 | for(i=0;i<SIZE_PR_TEXT;i++)                                            
     4244                   ;----------------------------------------------------------------------
     4245 00000783 50600000         ldiu      0,r0
     4246 00000784 15400301         sti       r0,*+fp(1)
     4247 00000785 04e07532         cmpi      30002,r0
     4248 00000786 6a0a0038         bge       L222
     4249                   ;*      Branch Occurs to L222 
     4250 00000787          L217:        
     4251                           .line   174
     4252                   ;----------------------------------------------------------------------
     4253                   ; 703 | Cnt = (DISK_PR_TEXT_OFFST+i);                                          
     4254                   ;----------------------------------------------------------------------
     4255 00000787 502010f3-        ldiu      @CL50,r0
     4256 00000788 5071020b         ldiu      523,ir0
     4257 00000789 02400301         addi      *+fp(1),r0            ; Unsigned
     4258 0000078a 15404300         sti       r0,*+fp(ir0)
     4259                           .line   176
     4260                   ;----------------------------------------------------------------------
     4261                   ; 705 | if(!(Cnt%512)&& SIZE_PR_TEXT >=(i+512))                                
     4262                   ;----------------------------------------------------------------------
     4263 0000078b 506001ff         ldiu      511,r0
     4264 0000078c 27c00043         tstb3     *+fp(ir0),r0
     4265 0000078d 6a06001c         bne       L220
     4266                   ;*      Branch Occurs to L220 
TMS320C3x/4x COFF AssemblerVersion 5.11     Tue Dec  7 12:02:21 2010
Copyright (c) 1987-1999 Texas Instruments Incorporatedc:\lang\tms320c3x\511\bin\asm30.exe -l cf.asm cf.obj -tC:\Users\jds\AppData\Local\Temp\cf.tmp 

cf.asm                                                               PAGE   80

     4267 0000078e 50600200         ldiu      512,r0
     4268 0000078f 50617532         ldiu      30002,r1
     4269 00000790 02400301         addi      *+fp(1),r0
     4270 00000791 23800100         cmpi3     r0,r1
     4271 00000792 6a070017         blt       L220
     4272                   ;*      Branch Occurs to L220 
     4273                           .line   178
     4274                   ;----------------------------------------------------------------------
     4275                   ; 707 | Check_Header(Cnt,Cluster_OneFileBuf,sDataBuf);                         
     4276                   ; 708 | //memcpy(&NVSRAM(NVSRAM_PR_TEXT_OFFST+i),pCfData->nNowRdBuff,512);     
     4277                   ;----------------------------------------------------------------------
     4278 00000793 5000000b         ldiu      fp,r0
     4279 00000794 502110da-        ldiu      @CL25,r1
     4280 00000795 0260000a         addi      10,r0
     4281 00000796 0f200000         push      r0
     4282 00000797 0f210000         push      r1
     4283 00000798 50404300         ldiu      *+fp(ir0),r0
     4284 00000799 0f200000         push      r0
     4285 0000079a 6200041e'        call      _Check_Header
     4286                                                           ; Call Occurs
     4287 0000079b 18740003         subi      3,sp
     4288                           .line   180
     4289                   ;----------------------------------------------------------------------
     4290                   ; 709 | NVSRAM_MEMCPY(&NVSRAM(NVSRAM_PR_TEXT_OFFST+i),sDataBuf,512);           
     4291                   ;----------------------------------------------------------------------
     4292 0000079c 502010f4-        ldiu      @CL51,r0
     4293 0000079d 50620200         ldiu      512,r2
     4294 0000079e 5001000b         ldiu      fp,r1
     4295 0000079f 02400301         addi      *+fp(1),r0            ; Unsigned
     4296 000007a0 0f220000         push      r2
     4297 000007a1 0261000a         addi      10,r1
     4298 000007a2 0f210000         push      r1
     4299 000007a3 0f200000         push      r0
     4300 000007a4 62000c78'        call      _NVSRAM_MEMCPY
     4301                                                           ; Call Occurs
     4302 000007a5 18740003         subi      3,sp
     4303                           .line   181
     4304                   ;----------------------------------------------------------------------
     4305                   ; 710 | i = i+512;                                                             
     4306                   ; 712 | else                                                                   
     4307                   ;----------------------------------------------------------------------
     4308 000007a6 50600200         ldiu      512,r0
     4309 000007a7 02400301         addi      *+fp(1),r0
     4310 000007a8 15400301         sti       r0,*+fp(1)
     4311 000007a9 6a000010         bu        L221
     4312                   ;*      Branch Occurs to L221 
     4313 000007aa          L220:        
     4314                           .line   185
     4315                   ;----------------------------------------------------------------------
     4316                   ; 714 | NVSRAM(NVSRAM_PR_TEXT_OFFST+i) = Check_Header(Cnt,Cluster_OneFileBuf,sD
     4317                   ;     | ataBuf);                                                               
     4318                   ;----------------------------------------------------------------------
     4319 000007aa 5000000b         ldiu      fp,r0
     4320 000007ab 502110da-        ldiu      @CL25,r1
TMS320C3x/4x COFF AssemblerVersion 5.11     Tue Dec  7 12:02:21 2010
Copyright (c) 1987-1999 Texas Instruments Incorporatedc:\lang\tms320c3x\511\bin\asm30.exe -l cf.asm cf.obj -tC:\Users\jds\AppData\Local\Temp\cf.tmp 

cf.asm                                                               PAGE   81

     4321 000007ac 5071020b         ldiu      523,ir0
     4322 000007ad 0260000a         addi      10,r0
     4323 000007ae 0f200000         push      r0
     4324 000007af 0f210000         push      r1
     4325 000007b0 50404300         ldiu      *+fp(ir0),r0
     4326 000007b1 0f200000         push      r0
     4327 000007b2 6200041e'        call      _Check_Header
     4328                                                           ; Call Occurs
     4329 000007b3 18740003         subi      3,sp
     4330 000007b4 502810f4-        ldiu      @CL51,ar0
     4331 000007b5 50510301         ldiu      *+fp(1),ir0
     4332 000007b6 15404000         sti       r0,*+ar0(ir0)
     4333                           .line   186
     4334                   ;----------------------------------------------------------------------
     4335                   ; 715 | i++;                                                                   
     4336                   ; 719 | //NVSRAM(NVSRAM_PR_TEXT_OFFST+i) = Check_Header(Cnt,Cluster_OneFileBuf)
     4337                   ;     | ;                                                                      
     4338                   ;----------------------------------------------------------------------
     4339 000007b7 50600001         ldiu      1,r0
     4340 000007b8 02400301         addi      *+fp(1),r0
     4341 000007b9 15400301         sti       r0,*+fp(1)
     4342 000007ba          L221:        
     4343                           .line   172
     4344 000007ba 50600001         ldiu      1,r0
     4345 000007bb 02400301         addi      *+fp(1),r0
     4346 000007bc 15400301         sti       r0,*+fp(1)
     4347 000007bd 04e07532         cmpi      30002,r0
     4348 000007be 6a07ffc8         blt       L217
     4349                   ;*      Branch Occurs to L217 
     4350 000007bf          L222:        
     4351                           .line   194
     4352                   ;----------------------------------------------------------------------
     4353                   ; 723 | Cnt=0,ReCnt=0,OffSet=0;                                                
     4354                   ;----------------------------------------------------------------------
     4355 000007bf 5071020b         ldiu      523,ir0
     4356 000007c0 50610000         ldiu      0,r1
     4357 000007c1 50620000         ldiu      0,r2
     4358 000007c2 5072020d         ldiu      525,ir1
     4359 000007c3 15414300         sti       r1,*+fp(ir0)
     4360 000007c4 5071020c         ldiu      524,ir0
     4361 000007c5 50600000         ldiu      0,r0
     4362 000007c6 15424300         sti       r2,*+fp(ir0)
     4363 000007c7 15408300         sti       r0,*+fp(ir1)
     4364                           .line   196
     4365                   ;----------------------------------------------------------------------
     4366                   ; 725 | for(i=0;i<SIZE_VER; )                                                  
     4367                   ;----------------------------------------------------------------------
     4368 000007c8 15400301         sti       r0,*+fp(1)
     4369 000007c9 04e00006         cmpi      6,r0
     4370 000007ca 6a0a0036         bge       L228
     4371                   ;*      Branch Occurs to L228 
     4372 000007cb          L223:        
     4373                           .line   198
     4374                   ;----------------------------------------------------------------------
TMS320C3x/4x COFF AssemblerVersion 5.11     Tue Dec  7 12:02:21 2010
Copyright (c) 1987-1999 Texas Instruments Incorporatedc:\lang\tms320c3x\511\bin\asm30.exe -l cf.asm cf.obj -tC:\Users\jds\AppData\Local\Temp\cf.tmp 

cf.asm                                                               PAGE   82

     4375                   ; 727 | Cnt = (DISK_VER_OFFST+i);                                              
     4376                   ;----------------------------------------------------------------------
     4377 000007cb 502010f5-        ldiu      @CL52,r0
     4378 000007cc 5071020b         ldiu      523,ir0
     4379 000007cd 02400301         addi      *+fp(1),r0            ; Unsigned
     4380 000007ce 15404300         sti       r0,*+fp(ir0)
     4381                           .line   200
     4382                   ;----------------------------------------------------------------------
     4383                   ; 729 | if(!(Cnt%512) && SIZE_VER >=(i+512) )                                  
     4384                   ;----------------------------------------------------------------------
     4385 000007cf 506001ff         ldiu      511,r0
     4386 000007d0 27c00043         tstb3     *+fp(ir0),r0
     4387 000007d1 6a06001c         bne       L226
     4388                   ;*      Branch Occurs to L226 
     4389 000007d2 50600200         ldiu      512,r0
     4390 000007d3 50610006         ldiu      6,r1
     4391 000007d4 02400301         addi      *+fp(1),r0
     4392 000007d5 23800100         cmpi3     r0,r1
     4393 000007d6 6a070017         blt       L226
     4394                   ;*      Branch Occurs to L226 
     4395                           .line   202
     4396                   ;----------------------------------------------------------------------
     4397                   ; 731 | Check_Header(Cnt,Cluster_OneFileBuf,sDataBuf);                         
     4398                   ; 732 | //memcpy(&NVSRAM(NVSRAM_VER_OFFST+i),pCfData->nNowRdBuff,512);         
     4399                   ;----------------------------------------------------------------------
     4400 000007d7 5000000b         ldiu      fp,r0
     4401 000007d8 502110da-        ldiu      @CL25,r1
     4402 000007d9 0260000a         addi      10,r0
     4403 000007da 0f200000         push      r0
     4404 000007db 0f210000         push      r1
     4405 000007dc 50404300         ldiu      *+fp(ir0),r0
     4406 000007dd 0f200000         push      r0
     4407 000007de 6200041e'        call      _Check_Header
     4408                                                           ; Call Occurs
     4409 000007df 18740003         subi      3,sp
     4410                           .line   204
     4411                   ;----------------------------------------------------------------------
     4412                   ; 733 | NVSRAM_MEMCPY(&NVSRAM(NVSRAM_VER_OFFST+i),sDataBuf,512);               
     4413                   ;----------------------------------------------------------------------
     4414 000007e0 502010f6-        ldiu      @CL53,r0
     4415 000007e1 50620200         ldiu      512,r2
     4416 000007e2 5001000b         ldiu      fp,r1
     4417 000007e3 02400301         addi      *+fp(1),r0            ; Unsigned
     4418 000007e4 0f220000         push      r2
     4419 000007e5 0261000a         addi      10,r1
     4420 000007e6 0f210000         push      r1
     4421 000007e7 0f200000         push      r0
     4422 000007e8 62000c78'        call      _NVSRAM_MEMCPY
     4423                                                           ; Call Occurs
     4424 000007e9 18740003         subi      3,sp
     4425                           .line   205
     4426                   ;----------------------------------------------------------------------
     4427                   ; 734 | i = i+512;                                                             
     4428                   ; 736 | else                                                                   
TMS320C3x/4x COFF AssemblerVersion 5.11     Tue Dec  7 12:02:21 2010
Copyright (c) 1987-1999 Texas Instruments Incorporatedc:\lang\tms320c3x\511\bin\asm30.exe -l cf.asm cf.obj -tC:\Users\jds\AppData\Local\Temp\cf.tmp 

cf.asm                                                               PAGE   83

     4429                   ;----------------------------------------------------------------------
     4430 000007ea 50600200         ldiu      512,r0
     4431 000007eb 02400301         addi      *+fp(1),r0
     4432 000007ec 15400301         sti       r0,*+fp(1)
     4433 000007ed 6a000010         bu        L227
     4434                   ;*      Branch Occurs to L227 
     4435 000007ee          L226:        
     4436                           .line   209
     4437                   ;----------------------------------------------------------------------
     4438                   ; 738 | NVSRAM(NVSRAM_VER_OFFST+i) = Check_Header(Cnt,Cluster_OneFileBuf,sDataB
     4439                   ;     | uf);                                                                   
     4440                   ;----------------------------------------------------------------------
     4441 000007ee 5001000b         ldiu      fp,r1
     4442 000007ef 502010da-        ldiu      @CL25,r0
     4443 000007f0 5071020b         ldiu      523,ir0
     4444 000007f1 0261000a         addi      10,r1
     4445 000007f2 0f210000         push      r1
     4446 000007f3 0f200000         push      r0
     4447 000007f4 50404300         ldiu      *+fp(ir0),r0
     4448 000007f5 0f200000         push      r0
     4449 000007f6 6200041e'        call      _Check_Header
     4450                                                           ; Call Occurs
     4451 000007f7 18740003         subi      3,sp
     4452 000007f8 502810f6-        ldiu      @CL53,ar0
     4453 000007f9 50510301         ldiu      *+fp(1),ir0
     4454 000007fa 15404000         sti       r0,*+ar0(ir0)
     4455                           .line   210
     4456                   ;----------------------------------------------------------------------
     4457                   ; 739 | i++;                                                                   
     4458                   ; 742 | //NVSRAM(NVSRAM_VER_OFFST+i) = Check_Header(Cnt,Cluster_OneFileBuf);   
     4459                   ;----------------------------------------------------------------------
     4460 000007fb 50600001         ldiu      1,r0
     4461 000007fc 02400301         addi      *+fp(1),r0
     4462 000007fd 15400301         sti       r0,*+fp(1)
     4463 000007fe          L227:        
     4464                           .line   196
     4465 000007fe 50400301         ldiu      *+fp(1),r0
     4466 000007ff 04e00006         cmpi      6,r0
     4467 00000800 6a07ffca         blt       L223
     4468                   ;*      Branch Occurs to L223 
     4469 00000801          L228:        
     4470                           .line   217
     4471 00000801 50530b01         ldiu      *-fp(1),bk
     4472 00000802 0e240000         pop       r4
     4473 00000803 504bc300         ldiu      *fp,fp
     4474 00000804 1874020f         subi      527,sp
     4475 00000805 68000013         bu        bk
     4476                   ;*      Branch Occurs to bk 
     4477                           .endfunc        746,000000010h,525
     4478                   
     4479                   
     4480 00000806                  .sect    ".text"
     4481                   
     4482                           .global _NVSRAM_Display_Schedule
TMS320C3x/4x COFF AssemblerVersion 5.11     Tue Dec  7 12:02:21 2010
Copyright (c) 1987-1999 Texas Instruments Incorporatedc:\lang\tms320c3x\511\bin\asm30.exe -l cf.asm cf.obj -tC:\Users\jds\AppData\Local\Temp\cf.tmp 

cf.asm                                                               PAGE   84

     4483                           .sym    _NVSRAM_Display_Schedule,_NVSRAM_Display_Schedule,44,2,0
     4484                           .func   753
     4485                   ;******************************************************************************
     4486                   ;* FUNCTION NAME: _NVSRAM_Display_Schedule                                    *
     4487                   ;*                                                                            *
     4488                   ;*   Architecture       : TMS320C30                                           *
     4489                   ;*   Calling Convention : Stack Parameter Convention                          *
     4490                   ;*   Function Uses Regs : r0,r1,r2,r3,ar0,ar1,ar2,ir0,bk,st,rs,re,rc          *
     4491                   ;*   Regs Saved         :                                                     *
     4492                   ;*   Stack Frame        : Full (w/ debug)                                     *
     4493                   ;*   Total Frame Size   : 2 Call + 3 Parm + 5 Auto + 0 SOE = 10 words         *
     4494                   ;******************************************************************************
     4495 00000806          _NVSRAM_Display_Schedule:
     4496                           .sym    _Now,-2,12,9,32
     4497                           .sym    _Next,-3,12,9,32
     4498                           .sym    _Info,-4,12,9,32
     4499                           .sym    _i,1,4,1,32
     4500                           .sym    _l,2,4,1,32
     4501                           .sym    _j,3,4,1,32
     4502                           .sym    _nBreakFlag,4,4,1,32
     4503                           .sym    _pDisp,5,24,1,32,.fake21
     4504                           .line   1
     4505                   ;----------------------------------------------------------------------
     4506                   ; 753 | UCHAR NVSRAM_Display_Schedule(UCHAR Now, UCHAR Next, UCHAR Info)       
     4507                   ;----------------------------------------------------------------------
     4508 00000806 0f2b0000         push      fp
     4509 00000807 500b0014         ldiu      sp,fp
     4510 00000808 02740005         addi      5,sp
     4511                           .line   2
     4512                           .line   3
     4513                   ;----------------------------------------------------------------------
     4514                   ; 755 | int i,l,j=0,nBreakFlag = 0;                                            
     4515                   ;----------------------------------------------------------------------
     4516 00000809 50600000         ldiu      0,r0
     4517 0000080a 15400303         sti       r0,*+fp(3)
     4518 0000080b 15400304         sti       r0,*+fp(4)
     4519                           .line   5
     4520                   ;----------------------------------------------------------------------
     4521                   ; 757 | PDISP pDisp = (DISP *)ADD_NVSRAM_DISPLAY_DATA;                         
     4522                   ;----------------------------------------------------------------------
     4523 0000080c 502010f7-        ldiu      @CL54,r0
     4524 0000080d 15400305         sti       r0,*+fp(5)
     4525                           .line   8
     4526                   ;----------------------------------------------------------------------
     4527                   ; 760 | if(WORD_L(pDisp->nHead.nData_Type) == 100)                             
     4528                   ;----------------------------------------------------------------------
     4529 0000080e 50080000         ldiu      r0,ar0
     4530 0000080f 506000ff         ldiu      255,r0
     4531 00000810 21a0c000         and3      r0,*ar0,r0
     4532 00000811 04e00064         cmpi      100,r0
     4533 00000812 6a0600a2         bne       L249
     4534                   ;*      Branch Occurs to L249 
     4535                           .line   10
     4536                   ;----------------------------------------------------------------------
TMS320C3x/4x COFF AssemblerVersion 5.11     Tue Dec  7 12:02:21 2010
Copyright (c) 1987-1999 Texas Instruments Incorporatedc:\lang\tms320c3x\511\bin\asm30.exe -l cf.asm cf.obj -tC:\Users\jds\AppData\Local\Temp\cf.tmp 

cf.asm                                                               PAGE   85

     4537                   ; 762 | for(i=0;i<MAX_DISPLAY_DATA;i++)                                        
     4538                   ;----------------------------------------------------------------------
     4539 00000813 50600000         ldiu      0,r0
     4540 00000814 15400301         sti       r0,*+fp(1)
     4541 00000815 04e0012c         cmpi      300,r0
     4542 00000816 6a0a009e         bge       L249
     4543                   ;*      Branch Occurs to L249 
     4544 00000817          L232:        
     4545                           .line   12
     4546                   ;----------------------------------------------------------------------
     4547                   ; 764 | if(WORD_L(pDisp->nBody[i].nCurrStation_Code) == WORD_L(Now)            
     4548                   ; 765 | && WORD_L(pDisp->nBody[i].nNextStation_Code) == WORD_L(Next)           
     4549                   ; 766 | && WORD_L(pDisp->nBody[i].nBetween_Code) == WORD_L(Info))              
     4550                   ;----------------------------------------------------------------------
     4551 00000817 50480301         ldiu      *+fp(1),ar0
     4552 00000818 506000ff         ldiu      255,r0
     4553 00000819 03e80007         ash       7,ar0
     4554 0000081a 506100ff         ldiu      255,r1
     4555 0000081b 02480305         addi      *+fp(5),ar0           ; Unsigned
     4556 0000081c 02c00b02         and       *-fp(2),r0
     4557 0000081d 02c10003         and       *+ar0(3),r1
     4558 0000081e 23800100         cmpi3     r0,r1
     4559 0000081f 6a26008c         bned      L247
     4560 00000820 0c800000         nop
     4561 00000821 52c80301         ldieq     *+fp(1),ar0
     4562 00000822 52e000ff         ldieq     255,r0
     4563                   ;*      Branch Occurs to L247 
     4564 00000823 03e80007         ash       7,ar0
     4565 00000824 506100ff         ldiu      255,r1
     4566 00000825 02480305         addi      *+fp(5),ar0           ; Unsigned
     4567 00000826 02c00b03         and       *-fp(3),r0
     4568 00000827 02c10004         and       *+ar0(4),r1
     4569 00000828 23800100         cmpi3     r0,r1
     4570 00000829 6a260082         bned      L247
     4571 0000082a 0c800000         nop
     4572 0000082b 52c80301         ldieq     *+fp(1),ar0
     4573 0000082c 52e000ff         ldieq     255,r0
     4574                   ;*      Branch Occurs to L247 
     4575 0000082d 03e80007         ash       7,ar0
     4576 0000082e 506100ff         ldiu      255,r1
     4577 0000082f 02480305         addi      *+fp(5),ar0           ; Unsigned
     4578 00000830 02c00b04         and       *-fp(4),r0
     4579 00000831 02c10006         and       *+ar0(6),r1
     4580 00000832 23800100         cmpi3     r0,r1
     4581 00000833 6a06007a         bne       L247
     4582                   ;*      Branch Occurs to L247 
     4583                           .line   17
     4584                   ;----------------------------------------------------------------------
     4585                   ; 769 | if(WORD_L(pDisp->nBody[i].nDoor_RL) == 0x10 || WORD_L(pDisp->nBody[i].n
     4586                   ;     | Door_RL) == 0x20 ) {nDisplayIndex.nDoor = 1; }                         
     4587                   ;----------------------------------------------------------------------
     4588 00000834 50480301         ldiu      *+fp(1),ar0
     4589 00000835 03e80007         ash       7,ar0
     4590 00000836 02480305         addi      *+fp(5),ar0           ; Unsigned
TMS320C3x/4x COFF AssemblerVersion 5.11     Tue Dec  7 12:02:21 2010
Copyright (c) 1987-1999 Texas Instruments Incorporatedc:\lang\tms320c3x\511\bin\asm30.exe -l cf.asm cf.obj -tC:\Users\jds\AppData\Local\Temp\cf.tmp 

cf.asm                                                               PAGE   86

     4591 00000837 506000ff         ldiu      255,r0
     4592 00000838 02c00008         and       *+ar0(8),r0
     4593 00000839 04e00010         cmpi      16,r0
     4594 0000083a 6a050007         beq       L237
     4595                   ;*      Branch Occurs to L237 
     4596 0000083b 50480301         ldiu      *+fp(1),ar0
     4597 0000083c 03e80007         ash       7,ar0
     4598 0000083d 02480305         addi      *+fp(5),ar0           ; Unsigned
     4599 0000083e 506000ff         ldiu      255,r0
     4600 0000083f 02c00008         and       *+ar0(8),r0
     4601 00000840 04e00020         cmpi      32,r0
     4602 00000841 6a060003         bne       L238
     4603                   ;*      Branch Occurs to L238 
     4604 00000842          L237:        
     4605 00000842 50600001         ldiu      1,r0
     4606 00000843 15200302-        sti       r0,@_nDisplayIndex+0
     4607 00000844 6a000013         bu        L242
     4608                   ;*      Branch Occurs to L242 
     4609 00000845          L238:        
     4610                           .line   18
     4611                   ;----------------------------------------------------------------------
     4612                   ; 770 | else if(WORD_L(pDisp->nBody[i].nDoor_RL) == 0x11 || WORD_L(pDisp->nBody
     4613                   ;     | [i].nDoor_RL) == 0x21 ) {nDisplayIndex.nDoor = 2; }                    
     4614                   ;----------------------------------------------------------------------
     4615 00000845 50480301         ldiu      *+fp(1),ar0
     4616 00000846 03e80007         ash       7,ar0
     4617 00000847 02480305         addi      *+fp(5),ar0           ; Unsigned
     4618 00000848 506000ff         ldiu      255,r0
     4619 00000849 02c00008         and       *+ar0(8),r0
     4620 0000084a 04e00011         cmpi      17,r0
     4621 0000084b 6a050007         beq       L240
     4622                   ;*      Branch Occurs to L240 
     4623 0000084c 50480301         ldiu      *+fp(1),ar0
     4624 0000084d 03e80007         ash       7,ar0
     4625 0000084e 02480305         addi      *+fp(5),ar0           ; Unsigned
     4626 0000084f 506000ff         ldiu      255,r0
     4627 00000850 02c00008         and       *+ar0(8),r0
     4628 00000851 04e00021         cmpi      33,r0
     4629 00000852 6a060003         bne       L241
     4630                   ;*      Branch Occurs to L241 
     4631 00000853          L240:        
     4632 00000853 50600002         ldiu      2,r0
     4633 00000854 15200302-        sti       r0,@_nDisplayIndex+0
     4634 00000855 6a000002         bu        L242
     4635                   ;*      Branch Occurs to L242 
     4636 00000856          L241:        
     4637                           .line   19
     4638                   ;----------------------------------------------------------------------
     4639                   ; 771 | else {nDisplayIndex.nDoor = 0;}                                        
     4640                   ;----------------------------------------------------------------------
     4641 00000856 50600000         ldiu      0,r0
     4642 00000857 15200302-        sti       r0,@_nDisplayIndex+0
     4643 00000858          L242:        
     4644                           .line   21
TMS320C3x/4x COFF AssemblerVersion 5.11     Tue Dec  7 12:02:21 2010
Copyright (c) 1987-1999 Texas Instruments Incorporatedc:\lang\tms320c3x\511\bin\asm30.exe -l cf.asm cf.obj -tC:\Users\jds\AppData\Local\Temp\cf.tmp 

cf.asm                                                               PAGE   87

     4645                   ;----------------------------------------------------------------------
     4646                   ; 773 | for(j=0;j<20;j++)                                                      
     4647                   ;----------------------------------------------------------------------
     4648 00000858 50600000         ldiu      0,r0
     4649 00000859 15400303         sti       r0,*+fp(3)
     4650 0000085a 04e00014         cmpi      20,r0
     4651 0000085b 6a0a0052         bge       L247
     4652                   ;*      Branch Occurs to L247 
     4653 0000085c          L243:        
     4654                           .line   23
     4655                   ;----------------------------------------------------------------------
     4656                   ; 775 | if(WORD_L(pDisp->nBody[i].nText[j].nTable_Type) == 0x00 ){ nBreakFlag =
     4657                   ;     |  1; break; }                                                           
     4658                   ; 777 | //nDisplayIndex.nDisplay_str[j].nDis_Point = MAKE_WORD(pDisp->nBody[i].
     4659                   ;     | nText[j].nDisPoint[1],pDisp->nBody[i].nText[j].nDisPoint[0]);          
     4660                   ;----------------------------------------------------------------------
     4661 0000085c 50400301         ldiu      *+fp(1),r0
     4662 0000085d 50410303         ldiu      *+fp(3),r1
     4663 0000085e 03e00007         ash       7,r0
     4664 0000085f 0ae10006         mpyi      6,r1
     4665 00000860 02400305         addi      *+fp(5),r0            ; Unsigned
     4666 00000861 21080001         addi3     r1,r0,ar0             ; Unsigned
     4667 00000862 506000ff         ldiu      255,r0
     4668 00000863 1a40000e         tstb      *+ar0(14),r0
     4669 00000864 6a260004         bned      L246
     4670 00000865 53590303         ldine     *+fp(3),rs
     4671 00000866 53420301         ldine     *+fp(1),r2
     4672 00000867 53510303         ldine     *+fp(3),ir0
     4673                   ;*      Branch Occurs to L246 
     4674 00000868 50600001         ldiu      1,r0
     4675 00000869 15400304         sti       r0,*+fp(4)
     4676 0000086a 6a000043         bu        L247
     4677                   ;*      Branch Occurs to L247 
     4678                           .line   27
     4679                   ;----------------------------------------------------------------------
     4680                   ; 779 | nDisplayIndex.nDisplay_str[j].nDis_Point =                             
     4681                   ; 780 | MAKE_DWORD(pDisp->nBody[i].nText[j].nDisPoint[3],pDisp->nBody[i].nText[
     4682                   ;     | j].nDisPoint[2],pDisp->nBody[i].nText[j].nDisPoint[1],pDisp->nBody[i].n
     4683                   ;     | Text[j].nDisPoint[0]);                                                 
     4684                   ;----------------------------------------------------------------------
     4685 0000086b          L246:        
     4686 0000086b 50130019         ldiu      rs,bk
     4687 0000086c 50010002         ldiu      r2,r1
     4688 0000086d 50000002         ldiu      r2,r0
     4689 0000086e 501b0013         ldiu      bk,rc
     4690 0000086f 501a0013         ldiu      bk,re
     4691 00000870 0af90006         mpyi      6,rs
     4692 00000871 03e10007         ash       7,r1
     4693 00000872 50030000         ldiu      r0,r3
     4694 00000873 0af10003         mpyi      3,ir0
     4695 00000874 0afb0006         mpyi      6,rc
     4696 00000875 0af30006         mpyi      6,bk
     4697 00000876 03e20007         ash       7,r2
     4698 00000877 0afa0006         mpyi      6,re
TMS320C3x/4x COFF AssemblerVersion 5.11     Tue Dec  7 12:02:21 2010
Copyright (c) 1987-1999 Texas Instruments Incorporatedc:\lang\tms320c3x\511\bin\asm30.exe -l cf.asm cf.obj -tC:\Users\jds\AppData\Local\Temp\cf.tmp 

cf.asm                                                               PAGE   88

     4699 00000878 02410305         addi      *+fp(5),r1            ; Unsigned
     4700 00000879 03e30007         ash       7,r3
     4701 0000087a 03e00007         ash       7,r0
     4702 0000087b 02420305         addi      *+fp(5),r2            ; Unsigned
     4703 0000087c 21090119         addi3     rs,r1,ar1             ; Unsigned
     4704 0000087d 02430305         addi      *+fp(5),r3            ; Unsigned
     4705 0000087e 21080213         addi3     bk,r2,ar0             ; Unsigned
     4706 0000087f 02400305         addi      *+fp(5),r0            ; Unsigned
     4707 00000880 506100ff         ldiu      255,r1
     4708 00000881 210a031b         addi3     rc,r3,ar2             ; Unsigned
     4709 00000882 507900ff         ldiu      255,rs
     4710 00000883 506200ff         ldiu      255,r2
     4711 00000884 02c1000c         and       *+ar0(12),r1
     4712 00000885 5043010d         ldiu      *+ar1(13),r3
     4713 00000886 2108001a         addi3     re,r0,ar0             ; Unsigned
     4714 00000887 02c2020b         and       *+ar2(11),r2
     4715 00000888 502910f8-        ldiu      @CL55,ar1
     4716 00000889 03e30018         ash       24,r3
     4717 0000088a 03e10010         ash       16,r1
     4718 0000088b 02d9000a         and       *+ar0(10),rs
     4719 0000088c 03e20008         ash       8,r2
     4720 0000088d 25800103         or3       r3,r1,r0
     4721 0000088e 25800200         or3       r0,r2,r0
     4722 0000088f 25801900         or3       r0,rs,r0
     4723 00000890 15404100         sti       r0,*+ar1(ir0)
     4724                           .line   32
     4725                   ;----------------------------------------------------------------------
     4726                   ; 784 | nDisplayIndex.nDisplay_str[j].Type = WORD_L(pDisp->nBody[i].nText[j].nT
     4727                   ;     | able_Type);                                                            
     4728                   ;----------------------------------------------------------------------
     4729 00000891 50420303         ldiu      *+fp(3),r2
     4730 00000892 502810f9-        ldiu      @CL56,ar0
     4731 00000893 50400301         ldiu      *+fp(1),r0
     4732 00000894 0ae20006         mpyi      6,r2
     4733 00000895 03e00007         ash       7,r0
     4734 00000896 506100ff         ldiu      255,r1
     4735 00000897 02400305         addi      *+fp(5),r0            ; Unsigned
     4736 00000898 50510303         ldiu      *+fp(3),ir0
     4737 00000899 21090002         addi3     r2,r0,ar1             ; Unsigned
     4738 0000089a 0af10003         mpyi      3,ir0
     4739 0000089b 02c1010e         and       *+ar1(14),r1
     4740 0000089c 15414000         sti       r1,*+ar0(ir0)
     4741                           .line   33
     4742                   ;----------------------------------------------------------------------
     4743                   ; 785 | nDisplayIndex.nDisplay_str[j].Number = WORD_L(pDisp->nBody[i].nText[j].
     4744                   ;     | nTable_Num);                                                           
     4745                   ;----------------------------------------------------------------------
     4746 0000089d 506100ff         ldiu      255,r1
     4747 0000089e 50400301         ldiu      *+fp(1),r0
     4748 0000089f 50420303         ldiu      *+fp(3),r2
     4749 000008a0 03e00007         ash       7,r0
     4750 000008a1 02400305         addi      *+fp(5),r0            ; Unsigned
     4751 000008a2 0ae20006         mpyi      6,r2
     4752 000008a3 21090002         addi3     r2,r0,ar1             ; Unsigned
TMS320C3x/4x COFF AssemblerVersion 5.11     Tue Dec  7 12:02:21 2010
Copyright (c) 1987-1999 Texas Instruments Incorporatedc:\lang\tms320c3x\511\bin\asm30.exe -l cf.asm cf.obj -tC:\Users\jds\AppData\Local\Temp\cf.tmp 

cf.asm                                                               PAGE   89

     4753 000008a4 50510303         ldiu      *+fp(3),ir0
     4754 000008a5 502810fa-        ldiu      @CL57,ar0
     4755 000008a6 0af10003         mpyi      3,ir0
     4756 000008a7 02c1010f         and       *+ar1(15),r1
     4757 000008a8 15414000         sti       r1,*+ar0(ir0)
     4758                           .line   21
     4759 000008a9 50600001         ldiu      1,r0
     4760 000008aa 02400303         addi      *+fp(3),r0
     4761 000008ab 15400303         sti       r0,*+fp(3)
     4762 000008ac 04e00014         cmpi      20,r0
     4763 000008ad 6a07ffae         blt       L243
     4764                   ;*      Branch Occurs to L243 
     4765 000008ae          L247:        
     4766                           .line   37
     4767                   ;----------------------------------------------------------------------
     4768                   ; 789 | if(nBreakFlag) {break;}                                                
     4769                   ;----------------------------------------------------------------------
     4770 000008ae 08400304         ldi       *+fp(4),r0
     4771 000008af 6a060005         bne       L249
     4772                   ;*      Branch Occurs to L249 
     4773                           .line   10
     4774 000008b0 50600001         ldiu      1,r0
     4775 000008b1 02400301         addi      *+fp(1),r0
     4776 000008b2 15400301         sti       r0,*+fp(1)
     4777 000008b3 04e0012c         cmpi      300,r0
     4778 000008b4 6a07ff62         blt       L232
     4779                   ;*      Branch Occurs to L232 
     4780 000008b5          L249:        
     4781                           .line   41
     4782                   ;----------------------------------------------------------------------
     4783                   ; 793 | return j;                                                              
     4784                   ;----------------------------------------------------------------------
     4785 000008b5 50400303         ldiu      *+fp(3),r0
     4786                           .line   43
     4787 000008b6 50530b01         ldiu      *-fp(1),bk
     4788 000008b7 504bc300         ldiu      *fp,fp
     4789 000008b8 18740007         subi      7,sp
     4790 000008b9 68000013         bu        bk
     4791                   ;*      Branch Occurs to bk 
     4792                           .endfunc        795,000000000h,5
     4793                   
     4794                   
     4795 000008ba                  .sect    ".text"
     4796                   
     4797                           .global _NVSRAM_Find_Schedule_Cnt
     4798                           .sym    _NVSRAM_Find_Schedule_Cnt,_NVSRAM_Find_Schedule_Cnt,44,2,0
     4799                           .func   802
     4800                   ;******************************************************************************
     4801                   ;* FUNCTION NAME: _NVSRAM_Find_Schedule_Cnt                                   *
     4802                   ;*                                                                            *
     4803                   ;*   Architecture       : TMS320C30                                           *
     4804                   ;*   Calling Convention : Stack Parameter Convention                          *
     4805                   ;*   Function Uses Regs : r0,r1,ar0,ir0,st                                    *
     4806                   ;*   Regs Saved         :                                                     *
TMS320C3x/4x COFF AssemblerVersion 5.11     Tue Dec  7 12:02:21 2010
Copyright (c) 1987-1999 Texas Instruments Incorporatedc:\lang\tms320c3x\511\bin\asm30.exe -l cf.asm cf.obj -tC:\Users\jds\AppData\Local\Temp\cf.tmp 

cf.asm                                                               PAGE   90

     4807                   ;*   Stack Frame        : Full (w/ debug)                                     *
     4808                   ;*   Total Frame Size   : 2 Call + 4 Parm + 2 Auto + 0 SOE = 8 words          *
     4809                   ;******************************************************************************
     4810 000008ba          _NVSRAM_Find_Schedule_Cnt:
     4811                           .sym    _pData,-2,28,9,32
     4812                           .sym    _Display_Cnt,-3,12,9,32
     4813                           .sym    _StartDistance,-4,15,9,32
     4814                           .sym    _EndDistance,-5,15,9,32
     4815                           .sym    _i,1,12,1,32
     4816                           .sym    _nCnt,2,12,1,32
     4817                           .line   1
     4818                   ;----------------------------------------------------------------------
     4819                   ; 802 | UCHAR NVSRAM_Find_Schedule_Cnt(UCHAR *pData,UCHAR Display_Cnt,DWORD Sta
     4820                   ;     | rtDistance,DWORD EndDistance)                                          
     4821                   ;----------------------------------------------------------------------
     4822 000008ba 0f2b0000         push      fp
     4823 000008bb 500b0014         ldiu      sp,fp
     4824 000008bc 02740002         addi      2,sp
     4825                           .line   2
     4826                   ;----------------------------------------------------------------------
     4827                   ; 804 | UCHAR i;                                                               
     4828                   ;----------------------------------------------------------------------
     4829                           .line   4
     4830                   ;----------------------------------------------------------------------
     4831                   ; 805 | UCHAR nCnt=0;                                                          
     4832                   ;----------------------------------------------------------------------
     4833 000008bd 50600000         ldiu      0,r0
     4834 000008be 15400302         sti       r0,*+fp(2)
     4835                           .line   6
     4836                   ;----------------------------------------------------------------------
     4837                   ; 807 | for(i=0;i<Display_Cnt;i++)                                             
     4838                   ;----------------------------------------------------------------------
     4839 000008bf 15400301         sti       r0,*+fp(1)
     4840 000008c0 04c00b03         cmpi      *-fp(3),r0
     4841 000008c1 6a040036         bhs       L263
     4842                   ;*      Branch Occurs to L263 
     4843 000008c2          L253:        
     4844                           .line   8
     4845                   ;----------------------------------------------------------------------
     4846                   ; 809 | if((nDisplayIndex.nDisplay_str[i].Type==1)||(nDisplayIndex.nDisplay_str
     4847                   ;     | [i].Type==4)||(nDisplayIndex.nDisplay_str[i].Type==3)) //Point-9_29 시
     4848                   ;     | 傷た【 거리값이 0일경우 계속같은문장 전송하는문재 해결                
     4849                   ;----------------------------------------------------------------------
     4850 000008c2 50510301         ldiu      *+fp(1),ir0
     4851 000008c3 502810f9-        ldiu      @CL56,ar0
     4852 000008c4 0af10003         mpyi      3,ir0
     4853 000008c5 50404000         ldiu      *+ar0(ir0),r0
     4854 000008c6 04e00001         cmpi      1,r0
     4855 000008c7 6a05000a         beq       L256
     4856                   ;*      Branch Occurs to L256 
     4857 000008c8 50510301         ldiu      *+fp(1),ir0
     4858 000008c9 0af10003         mpyi      3,ir0
     4859 000008ca 50404000         ldiu      *+ar0(ir0),r0
     4860 000008cb 04e00004         cmpi      4,r0
TMS320C3x/4x COFF AssemblerVersion 5.11     Tue Dec  7 12:02:21 2010
Copyright (c) 1987-1999 Texas Instruments Incorporatedc:\lang\tms320c3x\511\bin\asm30.exe -l cf.asm cf.obj -tC:\Users\jds\AppData\Local\Temp\cf.tmp 

cf.asm                                                               PAGE   91

     4861 000008cc 6a050005         beq       L256
     4862                   ;*      Branch Occurs to L256 
     4863 000008cd 50510301         ldiu      *+fp(1),ir0
     4864 000008ce 0af10003         mpyi      3,ir0
     4865 000008cf 50404000         ldiu      *+ar0(ir0),r0
     4866 000008d0 04e00003         cmpi      3,r0
     4867 000008d1 6a060021         bne       L262
     4868                   ;*      Branch Occurs to L262 
     4869 000008d2          L256:        
     4870                           .line   10
     4871                   ;----------------------------------------------------------------------
     4872                   ; 811 | if(!DWORD_MASKING(EndDistance) && !DWORD_MASKING(nDisplayIndex.nDisplay
     4873                   ;     | _str[i].nDis_Point))                                                   
     4874                   ;----------------------------------------------------------------------
     4875 000008d2 08400b05         ldi       *-fp(5),r0
     4876 000008d3 6a06000d         bne       L259
     4877                   ;*      Branch Occurs to L259 
     4878 000008d4 50510301         ldiu      *+fp(1),ir0
     4879 000008d5 502810f8-        ldiu      @CL55,ar0
     4880 000008d6 0af10003         mpyi      3,ir0
     4881 000008d7 08404000         ldi       *+ar0(ir0),r0
     4882 000008d8 6a060008         bne       L259
     4883                   ;*      Branch Occurs to L259 
     4884                           .line   12
     4885                   ;----------------------------------------------------------------------
     4886                   ; 813 | pData[nCnt++] = i;                                                     
     4887                   ;----------------------------------------------------------------------
     4888 000008d9 50600001         ldiu      1,r0
     4889 000008da 50480302         ldiu      *+fp(2),ar0
     4890 000008db 50510b02         ldiu      *-fp(2),ir0
     4891 000008dc 50410301         ldiu      *+fp(1),r1
     4892 000008dd 02000008         addi      ar0,r0
     4893 000008de 15400302         sti       r0,*+fp(2)
     4894 000008df 15414000         sti       r1,*+ar0(ir0)
     4895 000008e0 6a000012         bu        L262
     4896                   ;*      Branch Occurs to L262 
     4897 000008e1          L259:        
     4898                           .line   14
     4899                   ;----------------------------------------------------------------------
     4900                   ; 815 | else if((DWORD_MASKING(StartDistance) < DWORD_MASKING(nDisplayIndex.nDi
     4901                   ;     | splay_str[i].nDis_Point))                                              
     4902                   ; 816 |           &&(DWORD_MASKING(nDisplayIndex.nDisplay_str[i].nDis_Point) <=
     4903                   ;     |  DWORD_MASKING(EndDistance)))                                          
     4904                   ;----------------------------------------------------------------------
     4905 000008e1 50510301         ldiu      *+fp(1),ir0
     4906 000008e2 502810f8-        ldiu      @CL55,ar0
     4907 000008e3 0af10003         mpyi      3,ir0
     4908 000008e4 50400b04         ldiu      *-fp(4),r0
     4909 000008e5 23c00040         cmpi3     *+ar0(ir0),r0
     4910 000008e6 6a04000c         bhs       L262
     4911                   ;*      Branch Occurs to L262 
     4912 000008e7 50510301         ldiu      *+fp(1),ir0
     4913 000008e8 0af10003         mpyi      3,ir0
     4914 000008e9 50404000         ldiu      *+ar0(ir0),r0
TMS320C3x/4x COFF AssemblerVersion 5.11     Tue Dec  7 12:02:21 2010
Copyright (c) 1987-1999 Texas Instruments Incorporatedc:\lang\tms320c3x\511\bin\asm30.exe -l cf.asm cf.obj -tC:\Users\jds\AppData\Local\Temp\cf.tmp 

cf.asm                                                               PAGE   92

     4915 000008ea 04c00b05         cmpi      *-fp(5),r0
     4916 000008eb 6a030007         bhi       L262
     4917                   ;*      Branch Occurs to L262 
     4918                           .line   17
     4919                   ;----------------------------------------------------------------------
     4920                   ; 818 | pData[nCnt++] = i;                                                     
     4921                   ;----------------------------------------------------------------------
     4922 000008ec 50610001         ldiu      1,r1
     4923 000008ed 50480302         ldiu      *+fp(2),ar0
     4924 000008ee 50510b02         ldiu      *-fp(2),ir0
     4925 000008ef 50400301         ldiu      *+fp(1),r0
     4926 000008f0 02010008         addi      ar0,r1
     4927 000008f1 15410302         sti       r1,*+fp(2)
     4928 000008f2 15404000         sti       r0,*+ar0(ir0)
     4929 000008f3          L262:        
     4930                           .line   6
     4931 000008f3 50600001         ldiu      1,r0
     4932 000008f4 02400301         addi      *+fp(1),r0            ; Unsigned
     4933 000008f5 15400301         sti       r0,*+fp(1)
     4934 000008f6 04c00b03         cmpi      *-fp(3),r0
     4935 000008f7 6a01ffca         blo       L253
     4936                   ;*      Branch Occurs to L253 
     4937 000008f8          L263:        
     4938                           .line   22
     4939                   ;----------------------------------------------------------------------
     4940                   ; 823 | return nCnt;                                                           
     4941                   ;----------------------------------------------------------------------
     4942 000008f8 50400302         ldiu      *+fp(2),r0
     4943                           .line   23
     4944 000008f9 50510b01         ldiu      *-fp(1),ir0
     4945 000008fa 504bc300         ldiu      *fp,fp
     4946 000008fb 18740004         subi      4,sp
     4947 000008fc 68000011         bu        ir0
     4948                   ;*      Branch Occurs to ir0 
     4949                           .endfunc        824,000000000h,2
     4950                   
     4951                   
     4952 000008fd                  .sect    ".text"
     4953                   
     4954                           .global _NVSRAM_Find_IM
     4955                           .sym    _NVSRAM_Find_IM,_NVSRAM_Find_IM,44,2,0
     4956                           .func   832
     4957                   ;******************************************************************************
     4958                   ;* FUNCTION NAME: _NVSRAM_Find_IM                                             *
     4959                   ;*                                                                            *
     4960                   ;*   Architecture       : TMS320C30                                           *
     4961                   ;*   Calling Convention : Stack Parameter Convention                          *
     4962                   ;*   Function Uses Regs : r0,r1,ar0,ar1,st,rs,re,rc                           *
     4963                   ;*   Regs Saved         :                                                     *
     4964                   ;*   Stack Frame        : Full (w/ debug)                                     *
     4965                   ;*   Total Frame Size   : 2 Call + 2 Parm + 5 Auto + 0 SOE = 9 words          *
     4966                   ;******************************************************************************
     4967 000008fd          _NVSRAM_Find_IM:
     4968                           .sym    _nCnt,-2,12,9,32
TMS320C3x/4x COFF AssemblerVersion 5.11     Tue Dec  7 12:02:21 2010
Copyright (c) 1987-1999 Texas Instruments Incorporatedc:\lang\tms320c3x\511\bin\asm30.exe -l cf.asm cf.obj -tC:\Users\jds\AppData\Local\Temp\cf.tmp 

cf.asm                                                               PAGE   93

     4969                           .sym    _pData,-3,28,9,32
     4970                           .sym    _i,1,4,1,32
     4971                           .sym    _l,2,4,1,32
     4972                           .sym    _j,3,4,1,32
     4973                           .sym    _nReturnFlag,4,4,1,32
     4974                           .sym    _pImText,5,24,1,32,.fake23
     4975                           .line   1
     4976                   ;----------------------------------------------------------------------
     4977                   ; 832 | UCHAR NVSRAM_Find_IM(UCHAR nCnt,UCHAR *pData)                          
     4978                   ;----------------------------------------------------------------------
     4979 000008fd 0f2b0000         push      fp
     4980 000008fe 500b0014         ldiu      sp,fp
     4981 000008ff 02740005         addi      5,sp
     4982                           .line   2
     4983                           .line   4
     4984                   ;----------------------------------------------------------------------
     4985                   ; 835 | int i,l,j=0,nReturnFlag = 0;                                           
     4986                   ;----------------------------------------------------------------------
     4987 00000900 50600000         ldiu      0,r0
     4988 00000901 15400303         sti       r0,*+fp(3)
     4989 00000902 15400304         sti       r0,*+fp(4)
     4990                           .line   6
     4991                   ;----------------------------------------------------------------------
     4992                   ; 837 | PIMTEXT pImText = (IMTEXT *)ADD_NVSRAM_IM_TEXT;                        
     4993                   ;----------------------------------------------------------------------
     4994 00000903 502010fb-        ldiu      @CL58,r0
     4995 00000904 15400305         sti       r0,*+fp(5)
     4996                           .line   8
     4997                   ;----------------------------------------------------------------------
     4998                   ; 839 | if(WORD_L(pImText->nHead.nData_Type)== 110)                            
     4999                   ;----------------------------------------------------------------------
     5000 00000905 50080000         ldiu      r0,ar0
     5001 00000906 506000ff         ldiu      255,r0
     5002 00000907 21a0c000         and3      r0,*ar0,r0
     5003 00000908 04e0006e         cmpi      110,r0
     5004 00000909 6a06001e         bne       L271
     5005                   ;*      Branch Occurs to L271 
     5006                           .line   10
     5007                   ;----------------------------------------------------------------------
     5008                   ; 841 | for(i=0;i<MAX_IM_TEXT;i++)                                             
     5009                   ;----------------------------------------------------------------------
     5010 0000090a 50600000         ldiu      0,r0
     5011 0000090b 15400301         sti       r0,*+fp(1)
     5012 0000090c 04e00064         cmpi      100,r0
     5013 0000090d 6a0a001a         bge       L271
     5014                   ;*      Branch Occurs to L271 
     5015 0000090e          L268:        
     5016                           .line   12
     5017                   ;----------------------------------------------------------------------
     5018                   ; 843 | if(WORD_L(pImText->nBody[i].nImNum) == WORD_L(nCnt))                   
     5019                   ;----------------------------------------------------------------------
     5020 0000090e 50480301         ldiu      *+fp(1),ar0
     5021 0000090f 506100ff         ldiu      255,r1
     5022 00000910 0ae8012c         mpyi      300,ar0
TMS320C3x/4x COFF AssemblerVersion 5.11     Tue Dec  7 12:02:21 2010
Copyright (c) 1987-1999 Texas Instruments Incorporatedc:\lang\tms320c3x\511\bin\asm30.exe -l cf.asm cf.obj -tC:\Users\jds\AppData\Local\Temp\cf.tmp 

cf.asm                                                               PAGE   94

     5023 00000911 506000ff         ldiu      255,r0
     5024 00000912 02480305         addi      *+fp(5),ar0           ; Unsigned
     5025 00000913 02c10b02         and       *-fp(2),r1
     5026 00000914 02c00003         and       *+ar0(3),r0
     5027 00000915 23800001         cmpi3     r1,r0
     5028 00000916 6a06000c         bne       L270
     5029                   ;*      Branch Occurs to L270 
     5030                           .line   14
     5031                   ;----------------------------------------------------------------------
     5032                   ; 845 | memcpy(pData,&pImText->nBody[i].nImCheck,300);                         
     5033                   ;----------------------------------------------------------------------
     5034 00000917 50480301         ldiu      *+fp(1),ar0
     5035 00000918 0ae8012c         mpyi      300,ar0
     5036 00000919 50490b03         ldiu      *-fp(3),ar1
     5037 0000091a 02480305         addi      *+fp(5),ar0           ; Unsigned
     5038 0000091b 02680002         addi      2,ar0                 ; Unsigned
     5039 0000091c 50402001         ldiu      *ar0++(1),r0
     5040 0000091d 13fb012a         rpts      298                   ; Fast MEMCPY(#15)
     5041 0000091e da002120         sti       r0,*ar1++(1)
     5042                   ||      ldi       *ar0++(1),r0
     5043 0000091f 15402101         sti       r0,*ar1++(1)
     5044                           .line   15
     5045                   ;----------------------------------------------------------------------
     5046                   ; 846 | nReturnFlag = TRUE;                                                    
     5047                   ;----------------------------------------------------------------------
     5048 00000920 50600001         ldiu      1,r0
     5049 00000921 15400304         sti       r0,*+fp(4)
     5050                           .line   16
     5051                   ;----------------------------------------------------------------------
     5052                   ; 847 | break;                                                                 
     5053                   ;----------------------------------------------------------------------
     5054 00000922 6a000005         bu        L271
     5055                   ;*      Branch Occurs to L271 
     5056 00000923          L270:        
     5057                           .line   10
     5058 00000923 50600001         ldiu      1,r0
     5059 00000924 02400301         addi      *+fp(1),r0
     5060 00000925 15400301         sti       r0,*+fp(1)
     5061 00000926 04e00064         cmpi      100,r0
     5062 00000927 6a07ffe6         blt       L268
     5063                   ;*      Branch Occurs to L268 
     5064 00000928          L271:        
     5065                           .line   22
     5066                   ;----------------------------------------------------------------------
     5067                   ; 853 | return nReturnFlag;                                                    
     5068                   ;----------------------------------------------------------------------
     5069 00000928 50400304         ldiu      *+fp(4),r0
     5070                           .line   23
     5071 00000929 50490b01         ldiu      *-fp(1),ar1
     5072 0000092a 504bc300         ldiu      *fp,fp
     5073 0000092b 18740007         subi      7,sp
     5074 0000092c 68000009         bu        ar1
     5075                   ;*      Branch Occurs to ar1 
     5076                           .endfunc        854,000000000h,5
TMS320C3x/4x COFF AssemblerVersion 5.11     Tue Dec  7 12:02:21 2010
Copyright (c) 1987-1999 Texas Instruments Incorporatedc:\lang\tms320c3x\511\bin\asm30.exe -l cf.asm cf.obj -tC:\Users\jds\AppData\Local\Temp\cf.tmp 

cf.asm                                                               PAGE   95

     5077                   
     5078                   
     5079 0000092d                  .sect    ".text"
     5080                   
     5081                           .global _NVSRAM_Find_PR
     5082                           .sym    _NVSRAM_Find_PR,_NVSRAM_Find_PR,44,2,0
     5083                           .func   862
     5084                   ;******************************************************************************
     5085                   ;* FUNCTION NAME: _NVSRAM_Find_PR                                             *
     5086                   ;*                                                                            *
     5087                   ;*   Architecture       : TMS320C30                                           *
     5088                   ;*   Calling Convention : Stack Parameter Convention                          *
     5089                   ;*   Function Uses Regs : r0,r1,ar0,ar1,st,rs,re,rc                           *
     5090                   ;*   Regs Saved         :                                                     *
     5091                   ;*   Stack Frame        : Full (w/ debug)                                     *
     5092                   ;*   Total Frame Size   : 2 Call + 2 Parm + 5 Auto + 0 SOE = 9 words          *
     5093                   ;******************************************************************************
     5094 0000092d          _NVSRAM_Find_PR:
     5095                           .sym    _nCnt,-2,12,9,32
     5096                           .sym    _pData,-3,28,9,32
     5097                           .sym    _i,1,4,1,32
     5098                           .sym    _l,2,4,1,32
     5099                           .sym    _j,3,4,1,32
     5100                           .sym    _nReturnFlag,4,4,1,32
     5101                           .sym    _pPrText,5,24,1,32,.fake25
     5102                           .line   1
     5103                   ;----------------------------------------------------------------------
     5104                   ; 862 | UCHAR NVSRAM_Find_PR(UCHAR nCnt,UCHAR *pData)           // No째의 역명
     5105                   ;     | 읽기                                                                   
     5106                   ;----------------------------------------------------------------------
     5107 0000092d 0f2b0000         push      fp
     5108 0000092e 500b0014         ldiu      sp,fp
     5109 0000092f 02740005         addi      5,sp
     5110                           .line   2
     5111                           .line   3
     5112                   ;----------------------------------------------------------------------
     5113                   ; 864 | int i,l,j=0,nReturnFlag = 0;                                           
     5114                   ;----------------------------------------------------------------------
     5115 00000930 50600000         ldiu      0,r0
     5116 00000931 15400303         sti       r0,*+fp(3)
     5117 00000932 15400304         sti       r0,*+fp(4)
     5118                           .line   5
     5119                   ;----------------------------------------------------------------------
     5120                   ; 866 | PPRTEXT pPrText = (PRTEXT *)ADD_NVSRAM_PR_TEXT;                        
     5121                   ;----------------------------------------------------------------------
     5122 00000933 502010fc-        ldiu      @CL59,r0
     5123 00000934 15400305         sti       r0,*+fp(5)
     5124                           .line   7
     5125                   ;----------------------------------------------------------------------
     5126                   ; 868 | if(WORD_L(pPrText->nHead.nData_Type)== 120)                            
     5127                   ;----------------------------------------------------------------------
     5128 00000935 50080000         ldiu      r0,ar0
     5129 00000936 506000ff         ldiu      255,r0
     5130 00000937 21a0c000         and3      r0,*ar0,r0
TMS320C3x/4x COFF AssemblerVersion 5.11     Tue Dec  7 12:02:21 2010
Copyright (c) 1987-1999 Texas Instruments Incorporatedc:\lang\tms320c3x\511\bin\asm30.exe -l cf.asm cf.obj -tC:\Users\jds\AppData\Local\Temp\cf.tmp 

cf.asm                                                               PAGE   96

     5131 00000938 04e00078         cmpi      120,r0
     5132 00000939 6a06001e         bne       L279
     5133                   ;*      Branch Occurs to L279 
     5134                           .line   9
     5135                   ;----------------------------------------------------------------------
     5136                   ; 870 | for(i=0;i<MAX_PR_TEXT;i++)                                             
     5137                   ;----------------------------------------------------------------------
     5138 0000093a 50600000         ldiu      0,r0
     5139 0000093b 15400301         sti       r0,*+fp(1)
     5140 0000093c 04e0003c         cmpi      60,r0
     5141 0000093d 6a0a001a         bge       L279
     5142                   ;*      Branch Occurs to L279 
     5143 0000093e          L276:        
     5144                           .line   11
     5145                   ;----------------------------------------------------------------------
     5146                   ; 872 | if(WORD_L(pPrText->nBody[i].nPrNum) == WORD_L(nCnt))                   
     5147                   ;----------------------------------------------------------------------
     5148 0000093e 50480301         ldiu      *+fp(1),ar0
     5149 0000093f 506100ff         ldiu      255,r1
     5150 00000940 0ae801f4         mpyi      500,ar0
     5151 00000941 506000ff         ldiu      255,r0
     5152 00000942 02480305         addi      *+fp(5),ar0           ; Unsigned
     5153 00000943 02c10b02         and       *-fp(2),r1
     5154 00000944 02c00003         and       *+ar0(3),r0
     5155 00000945 23800001         cmpi3     r1,r0
     5156 00000946 6a06000c         bne       L278
     5157                   ;*      Branch Occurs to L278 
     5158                           .line   13
     5159                   ;----------------------------------------------------------------------
     5160                   ; 874 | memcpy(pData,&pPrText->nBody[i].nPrCheck,500);                         
     5161                   ;----------------------------------------------------------------------
     5162 00000947 50480301         ldiu      *+fp(1),ar0
     5163 00000948 0ae801f4         mpyi      500,ar0
     5164 00000949 50490b03         ldiu      *-fp(3),ar1
     5165 0000094a 02480305         addi      *+fp(5),ar0           ; Unsigned
     5166 0000094b 02680002         addi      2,ar0                 ; Unsigned
     5167 0000094c 50402001         ldiu      *ar0++(1),r0
     5168 0000094d 13fb01f2         rpts      498                   ; Fast MEMCPY(#18)
     5169 0000094e da002120         sti       r0,*ar1++(1)
     5170                   ||      ldi       *ar0++(1),r0
     5171 0000094f 15402101         sti       r0,*ar1++(1)
     5172                           .line   14
     5173                   ;----------------------------------------------------------------------
     5174                   ; 875 | nReturnFlag = TRUE;                                                    
     5175                   ;----------------------------------------------------------------------
     5176 00000950 50600001         ldiu      1,r0
     5177 00000951 15400304         sti       r0,*+fp(4)
     5178                           .line   15
     5179                   ;----------------------------------------------------------------------
     5180                   ; 876 | break;                                                                 
     5181                   ;----------------------------------------------------------------------
     5182 00000952 6a000005         bu        L279
     5183                   ;*      Branch Occurs to L279 
     5184 00000953          L278:        
TMS320C3x/4x COFF AssemblerVersion 5.11     Tue Dec  7 12:02:21 2010
Copyright (c) 1987-1999 Texas Instruments Incorporatedc:\lang\tms320c3x\511\bin\asm30.exe -l cf.asm cf.obj -tC:\Users\jds\AppData\Local\Temp\cf.tmp 

cf.asm                                                               PAGE   97

     5185                           .line   9
     5186 00000953 50600001         ldiu      1,r0
     5187 00000954 02400301         addi      *+fp(1),r0
     5188 00000955 15400301         sti       r0,*+fp(1)
     5189 00000956 04e0003c         cmpi      60,r0
     5190 00000957 6a07ffe6         blt       L276
     5191                   ;*      Branch Occurs to L276 
     5192 00000958          L279:        
     5193                           .line   20
     5194                   ;----------------------------------------------------------------------
     5195                   ; 881 | return nReturnFlag;                                                    
     5196                   ;----------------------------------------------------------------------
     5197 00000958 50400304         ldiu      *+fp(4),r0
     5198                           .line   22
     5199 00000959 50490b01         ldiu      *-fp(1),ar1
     5200 0000095a 504bc300         ldiu      *fp,fp
     5201 0000095b 18740007         subi      7,sp
     5202 0000095c 68000009         bu        ar1
     5203                   ;*      Branch Occurs to ar1 
     5204                           .endfunc        883,000000000h,5
     5205                   
     5206                   
     5207 0000095d                  .sect    ".text"
     5208                   
     5209                           .global _NVSRAM_Get_StopP
     5210                           .sym    _NVSRAM_Get_StopP,_NVSRAM_Get_StopP,45,2,0
     5211                           .func   893
     5212                   ;******************************************************************************
     5213                   ;* FUNCTION NAME: _NVSRAM_Get_StopP                                           *
     5214                   ;*                                                                            *
     5215                   ;*   Architecture       : TMS320C30                                           *
     5216                   ;*   Calling Convention : Stack Parameter Convention                          *
     5217                   ;*   Function Uses Regs : r0,r1,ar0,ar1,ir0,st                                *
     5218                   ;*   Regs Saved         :                                                     *
     5219                   ;*   Stack Frame        : Full (w/ debug)                                     *
     5220                   ;*   Total Frame Size   : 2 Call + 3 Parm + 5 Auto + 0 SOE = 10 words         *
     5221                   ;******************************************************************************
     5222 0000095d          _NVSRAM_Get_StopP:
     5223                           .sym    _Now,-2,13,9,32
     5224                           .sym    _Dest,-3,13,9,32
     5225                           .sym    _pData,-4,28,9,32
     5226                           .sym    _i,1,4,1,32
     5227                           .sym    _l,2,4,1,32
     5228                           .sym    _j,3,4,1,32
     5229                           .sym    _nStopPatReturn,4,4,1,32
     5230                           .sym    _pStopPat,5,24,1,32,.fake16
     5231                           .line   1
     5232                   ;----------------------------------------------------------------------
     5233                   ; 893 | WORD NVSRAM_Get_StopP(WORD Now,WORD Dest,UCHAR *pData)                 
     5234                   ;----------------------------------------------------------------------
     5235 0000095d 0f2b0000         push      fp
     5236 0000095e 500b0014         ldiu      sp,fp
     5237 0000095f 02740005         addi      5,sp
     5238                           .line   2
TMS320C3x/4x COFF AssemblerVersion 5.11     Tue Dec  7 12:02:21 2010
Copyright (c) 1987-1999 Texas Instruments Incorporatedc:\lang\tms320c3x\511\bin\asm30.exe -l cf.asm cf.obj -tC:\Users\jds\AppData\Local\Temp\cf.tmp 

cf.asm                                                               PAGE   98

     5239                           .line   4
     5240                   ;----------------------------------------------------------------------
     5241                   ; 896 | int i,l,j=0,nStopPatReturn = 0;                                        
     5242                   ;----------------------------------------------------------------------
     5243 00000960 50600000         ldiu      0,r0
     5244 00000961 15400303         sti       r0,*+fp(3)
     5245 00000962 15400304         sti       r0,*+fp(4)
     5246                           .line   6
     5247                   ;----------------------------------------------------------------------
     5248                   ; 898 | PSTOPPATTERN pStopPat = (STOPPATTERN *)ADD_NVSRAM_STOP_PAT;            
     5249                   ;----------------------------------------------------------------------
     5250 00000963 502010fd-        ldiu      @CL60,r0
     5251 00000964 15400305         sti       r0,*+fp(5)
     5252                           .line   8
     5253                   ;----------------------------------------------------------------------
     5254                   ; 900 | if(WORD_L(pStopPat->nHead.nData_Type) == 60)                           
     5255                   ;----------------------------------------------------------------------
     5256 00000965 50080000         ldiu      r0,ar0
     5257 00000966 506000ff         ldiu      255,r0
     5258 00000967 21a0c000         and3      r0,*ar0,r0
     5259 00000968 04e0003c         cmpi      60,r0
     5260 00000969 6a060033         bne       L291
     5261                   ;*      Branch Occurs to L291 
     5262                           .line   10
     5263                   ;----------------------------------------------------------------------
     5264                   ; 902 | for(i=0;i<MAX_STOP_PAT;i++)                                            
     5265                   ;----------------------------------------------------------------------
     5266 0000096a 50600000         ldiu      0,r0
     5267 0000096b 15400301         sti       r0,*+fp(1)
     5268 0000096c 04e0012c         cmpi      300,r0
     5269 0000096d 6a0a002f         bge       L291
     5270                   ;*      Branch Occurs to L291 
     5271 0000096e          L284:        
     5272                           .line   12
     5273                   ;----------------------------------------------------------------------
     5274                   ; 904 | if(WORD_L(pStopPat->nBody[i].nDeparture_Code) == Now && WORD_L(pStopPat
     5275                   ;     | ->nBody[i].nArrive_Code) == Dest)                                      
     5276                   ;----------------------------------------------------------------------
     5277 0000096e 50480301         ldiu      *+fp(1),ar0
     5278 0000096f 0ae8007e         mpyi      126,ar0
     5279 00000970 02480305         addi      *+fp(5),ar0           ; Unsigned
     5280 00000971 506000ff         ldiu      255,r0
     5281 00000972 02c00003         and       *+ar0(3),r0
     5282 00000973 04c00b02         cmpi      *-fp(2),r0
     5283 00000974 6a060023         bne       L290
     5284                   ;*      Branch Occurs to L290 
     5285 00000975 50480301         ldiu      *+fp(1),ar0
     5286 00000976 0ae8007e         mpyi      126,ar0
     5287 00000977 02480305         addi      *+fp(5),ar0           ; Unsigned
     5288 00000978 506000ff         ldiu      255,r0
     5289 00000979 02c00004         and       *+ar0(4),r0
     5290 0000097a 04c00b03         cmpi      *-fp(3),r0
     5291 0000097b 6a06001c         bne       L290
     5292                   ;*      Branch Occurs to L290 
TMS320C3x/4x COFF AssemblerVersion 5.11     Tue Dec  7 12:02:21 2010
Copyright (c) 1987-1999 Texas Instruments Incorporatedc:\lang\tms320c3x\511\bin\asm30.exe -l cf.asm cf.obj -tC:\Users\jds\AppData\Local\Temp\cf.tmp 

cf.asm                                                               PAGE   99

     5293                           .line   14
     5294                   ;----------------------------------------------------------------------
     5295                   ; 906 | nNvsram_Variable.nStop_Patten_Num = pStopPat->nBody[i].nStopPatNum;    
     5296                   ;----------------------------------------------------------------------
     5297 0000097c 50480301         ldiu      *+fp(1),ar0
     5298 0000097d 0ae8007e         mpyi      126,ar0
     5299 0000097e 02480305         addi      *+fp(5),ar0           ; Unsigned
     5300 0000097f 50400002         ldiu      *+ar0(2),r0
     5301 00000980 15200ed0-        sti       r0,@_nNvsram_Variable+3
     5302                           .line   16
     5303                   ;----------------------------------------------------------------------
     5304                   ; 908 | for(j=0;j<pStopPat->nBody[i].nStation_Count;j++)                       
     5305                   ;----------------------------------------------------------------------
     5306 00000981 50600000         ldiu      0,r0
     5307 00000982 15400303         sti       r0,*+fp(3)
     5308 00000983 6a00000b         bu        L289
     5309                   ;*      Branch Occurs to L289 
     5310                           .line   18
     5311                   ;----------------------------------------------------------------------
     5312                   ; 910 | pData[j] = pStopPat->nBody[i].nStopPatIndex[j].nStationCode;           
     5313                   ;----------------------------------------------------------------------
     5314 00000984          L288:        
     5315 00000984 50510b04         ldiu      *-fp(4),ir0
     5316 00000985 0ae0007e         mpyi      126,r0
     5317 00000986 03e10001         ash       1,r1
     5318 00000987 02400305         addi      *+fp(5),r0            ; Unsigned
     5319 00000988 21090001         addi3     r1,r0,ar1             ; Unsigned
     5320 00000989 50480303         ldiu      *+fp(3),ar0
     5321 0000098a 50400108         ldiu      *+ar1(8),r0
     5322 0000098b 15404000         sti       r0,*+ar0(ir0)
     5323                           .line   16
     5324 0000098c 50600001         ldiu      1,r0
     5325 0000098d 02400303         addi      *+fp(3),r0
     5326 0000098e 15400303         sti       r0,*+fp(3)
     5327 0000098f          L289:        
     5328 0000098f 50480301         ldiu      *+fp(1),ar0
     5329 00000990 0ae8007e         mpyi      126,ar0
     5330 00000991 02480305         addi      *+fp(5),ar0           ; Unsigned
     5331 00000992 50400303         ldiu      *+fp(3),r0
     5332 00000993 04c00005         cmpi      *+ar0(5),r0
     5333 00000994 6a21ffed         blod      L288
     5334 00000995 0c800000         nop
     5335 00000996 50c00301         ldilo     *+fp(1),r0
     5336 00000997 50c10303         ldilo     *+fp(3),r1
     5337                   ;*      Branch Occurs to L288 
     5338 00000998          L290:        
     5339                           .line   10
     5340 00000998 50600001         ldiu      1,r0
     5341 00000999 02400301         addi      *+fp(1),r0
     5342 0000099a 15400301         sti       r0,*+fp(1)
     5343 0000099b 04e0012c         cmpi      300,r0
     5344 0000099c 6a07ffd1         blt       L284
     5345                   ;*      Branch Occurs to L284 
     5346 0000099d          L291:        
TMS320C3x/4x COFF AssemblerVersion 5.11     Tue Dec  7 12:02:21 2010
Copyright (c) 1987-1999 Texas Instruments Incorporatedc:\lang\tms320c3x\511\bin\asm30.exe -l cf.asm cf.obj -tC:\Users\jds\AppData\Local\Temp\cf.tmp 

cf.asm                                                               PAGE  100

     5347                           .line   25
     5348                   ;----------------------------------------------------------------------
     5349                   ; 917 | return pStopPat->nBody[i].nStation_Count;                              
     5350                   ;----------------------------------------------------------------------
     5351 0000099d 50480301         ldiu      *+fp(1),ar0
     5352 0000099e 0ae8007e         mpyi      126,ar0
     5353 0000099f 02480305         addi      *+fp(5),ar0           ; Unsigned
     5354 000009a0 50400005         ldiu      *+ar0(5),r0
     5355                           .line   26
     5356 000009a1 50510b01         ldiu      *-fp(1),ir0
     5357 000009a2 504bc300         ldiu      *fp,fp
     5358 000009a3 18740007         subi      7,sp
     5359 000009a4 68000011         bu        ir0
     5360                   ;*      Branch Occurs to ir0 
     5361                           .endfunc        918,000000000h,5
     5362                   
     5363                   
     5364 000009a5                  .sect    ".text"
     5365                   
     5366                           .global _NVSRAM_Rd_StationName
     5367                           .sym    _NVSRAM_Rd_StationName,_NVSRAM_Rd_StationName,45,2,0
     5368                           .func   929
     5369                   ;******************************************************************************
     5370                   ;* FUNCTION NAME: _NVSRAM_Rd_StationName                                      *
     5371                   ;*                                                                            *
     5372                   ;*   Architecture       : TMS320C30                                           *
     5373                   ;*   Calling Convention : Stack Parameter Convention                          *
     5374                   ;*   Function Uses Regs : r0,r1,r2,ar0,ar1,ar2,fp,ir0,ir1,sp,st               *
     5375                   ;*   Regs Saved         :                                                     *
     5376                   ;*   Stack Frame        : Full (w/ debug)                                     *
     5377                   ;*   Total Frame Size   : 2 Call + 2 Parm + 4602 Auto + 0 SOE = 4606 words    *
     5378                   ;******************************************************************************
     5379 000009a5          _NVSRAM_Rd_StationName:
     5380                           .sym    _nCnt,-2,13,9,32
     5381                           .sym    _pData,-3,28,9,32
     5382                           .sym    _i,1,4,1,32
     5383                           .sym    _j,2,4,1,32
     5384                           .sym    _sStationNameAll,3,56,1,147200,.fake2,100
     5385                           .line   1
     5386                   ;----------------------------------------------------------------------
     5387                   ; 929 | WORD NVSRAM_Rd_StationName(WORD nCnt,UCHAR *pData)// nCnt개의 역명을 버
     5388                   ;     | 퍼에 저장한다.                                                         
     5389                   ;----------------------------------------------------------------------
     5390 000009a5 0f2b0000         push      fp
     5391 000009a6 500b0014         ldiu      sp,fp
     5392 000009a7 027411fa         addi      4602,sp
     5393                           .line   2
     5394                   ;----------------------------------------------------------------------
     5395                   ; 931 | int i,j;                                                               
     5396                   ; 932 | STATION_NAME_ALL sStationNameAll[100];                                 
     5397                   ;----------------------------------------------------------------------
     5398                           .line   5
     5399                   ;----------------------------------------------------------------------
     5400                   ; 933 | NVSRAM_Rd_StationName_Total(sStationNameAll);                          
TMS320C3x/4x COFF AssemblerVersion 5.11     Tue Dec  7 12:02:21 2010
Copyright (c) 1987-1999 Texas Instruments Incorporatedc:\lang\tms320c3x\511\bin\asm30.exe -l cf.asm cf.obj -tC:\Users\jds\AppData\Local\Temp\cf.tmp 

cf.asm                                                               PAGE  101

     5401                   ;----------------------------------------------------------------------
     5402 000009a8 5000000b         ldiu      fp,r0
     5403 000009a9 02600003         addi      3,r0
     5404 000009aa 0f200000         push      r0
     5405 000009ab 62000a13'        call      _NVSRAM_Rd_StationName_Total
     5406                                                           ; Call Occurs
     5407 000009ac 18740001         subi      1,sp
     5408                           .line   7
     5409                   ;----------------------------------------------------------------------
     5410                   ; 935 | for(i=0;i<WORD_L(nCnt);i++)                                            
     5411                   ;----------------------------------------------------------------------
     5412 000009ad 50600000         ldiu      0,r0
     5413 000009ae 15400301         sti       r0,*+fp(1)
     5414 000009af 506000ff         ldiu      255,r0
     5415 000009b0 50410301         ldiu      *+fp(1),r1
     5416 000009b1 02c00b02         and       *-fp(2),r0
     5417 000009b2 23800100         cmpi3     r0,r1
     5418 000009b3 6a04005b         bhs       L304
     5419                   ;*      Branch Occurs to L304 
     5420 000009b4          L295:        
     5421                           .line   9
     5422                   ;----------------------------------------------------------------------
     5423                   ; 937 | if(WORD_L(sStationNameAll[pData[i]-1].StationCode) == WORD_L(pData[i]))
     5424                   ;----------------------------------------------------------------------
     5425 000009b4 50510b03         ldiu      *-fp(3),ir0
     5426 000009b5 504a0301         ldiu      *+fp(1),ar2
     5427 000009b6 5008000b         ldiu      fp,ar0
     5428 000009b7 50620001         ldiu      1,r2
     5429 000009b8 506100ff         ldiu      255,r1
     5430 000009b9 506000ff         ldiu      255,r0
     5431 000009ba 50120011         ldiu      ir0,ir1
     5432 000009bb 5009000a         ldiu      ar2,ar1
     5433 000009bc 02680003         addi      3,ar0
     5434 000009bd 27314202         subi3     r2,*+ar2(ir0),ir0     ; Unsigned
     5435 000009be 0af1002e         mpyi      46,ir0
     5436 000009bf 21a18101         and3      r1,*+ar1(ir1),r1
     5437 000009c0 21a04000         and3      r0,*+ar0(ir0),r0
     5438 000009c1 23800001         cmpi3     r1,r0
     5439 000009c2 6a260031         bned      L302
     5440 000009c3 53400301         ldine     *+fp(1),r0
     5441 000009c4 5362000f         ldine     15,r2
     5442 000009c5 53610000         ldine     0,r1
     5443                   ;*      Branch Occurs to L302 
     5444                           .line   11
     5445                   ;----------------------------------------------------------------------
     5446                   ; 939 | for(j=0;j<15;j++)                                                      
     5447                   ;----------------------------------------------------------------------
     5448 000009c6 50600000         ldiu      0,r0
     5449 000009c7 15400302         sti       r0,*+fp(2)
     5450 000009c8 04e0000f         cmpi      15,r0
     5451 000009c9 50610001         ldiu      1,r1
     5452 000009ca 6a0a0012         bge       L298
     5453                   ;*      Branch Occurs to L298 
     5454 000009cb          L297:        
TMS320C3x/4x COFF AssemblerVersion 5.11     Tue Dec  7 12:02:21 2010
Copyright (c) 1987-1999 Texas Instruments Incorporatedc:\lang\tms320c3x\511\bin\asm30.exe -l cf.asm cf.obj -tC:\Users\jds\AppData\Local\Temp\cf.tmp 

cf.asm                                                               PAGE  102

     5455                           .line   13
     5456                   ;----------------------------------------------------------------------
     5457                   ; 941 | StationName[i].EngName[j] = sStationNameAll[pData[i]-1].EngName[j];    
     5458                   ;----------------------------------------------------------------------
     5459 000009cb 50490301         ldiu      *+fp(1),ar1
     5460 000009cc 50510b03         ldiu      *-fp(3),ir0
     5461 000009cd 5008000b         ldiu      fp,ar0
     5462 000009ce 502a10fe-        ldiu      @CL61,ar2
     5463 000009cf 50120009         ldiu      ar1,ir1
     5464 000009d0 27314101         subi3     r1,*+ar1(ir0),ir0     ; Unsigned
     5465 000009d1 02680004         addi      4,ar0
     5466 000009d2 0af1002e         mpyi      46,ir0
     5467 000009d3 0af2002e         mpyi      46,ir1
     5468 000009d4 02510302         addi      *+fp(2),ir0           ; Unsigned
     5469 000009d5 02520302         addi      *+fp(2),ir1           ; Unsigned
     5470 000009d6 50404000         ldiu      *+ar0(ir0),r0
     5471 000009d7 15408200         sti       r0,*+ar2(ir1)
     5472                           .line   11
     5473 000009d8 50600001         ldiu      1,r0
     5474 000009d9 02400302         addi      *+fp(2),r0
     5475 000009da 15400302         sti       r0,*+fp(2)
     5476 000009db 04e0000f         cmpi      15,r0
     5477 000009dc 6a07ffee         blt       L297
     5478                   ;*      Branch Occurs to L297 
     5479 000009dd          L298:        
     5480                           .line   15
     5481                   ;----------------------------------------------------------------------
     5482                   ; 943 | for(j=0;j<30;j++)                                                      
     5483                   ;----------------------------------------------------------------------
     5484 000009dd 50600000         ldiu      0,r0
     5485 000009de 15400302         sti       r0,*+fp(2)
     5486 000009df 50010000         ldiu      r0,r1
     5487 000009e0 04e1001e         cmpi      30,r1
     5488 000009e1 50600001         ldiu      1,r0
     5489 000009e2 6a0a0024         bge       L303
     5490                   ;*      Branch Occurs to L303 
     5491 000009e3          L299:        
     5492                           .line   17
     5493                   ;----------------------------------------------------------------------
     5494                   ; 945 | StationName[i].IranName[j] = sStationNameAll[pData[i]-1].IranName[j];  
     5495                   ; 948 | else                                                                   
     5496                   ;----------------------------------------------------------------------
     5497 000009e3 50490301         ldiu      *+fp(1),ar1
     5498 000009e4 50520b03         ldiu      *-fp(3),ir1
     5499 000009e5 5008000b         ldiu      fp,ar0
     5500 000009e6 502a10ff-        ldiu      @CL62,ar2
     5501 000009e7 50110009         ldiu      ar1,ir0
     5502 000009e8 27328100         subi3     r0,*+ar1(ir1),ir1     ; Unsigned
     5503 000009e9 02680013         addi      19,ar0
     5504 000009ea 0af2002e         mpyi      46,ir1
     5505 000009eb 0af1002e         mpyi      46,ir0
     5506 000009ec 02520302         addi      *+fp(2),ir1           ; Unsigned
     5507 000009ed 02510302         addi      *+fp(2),ir0           ; Unsigned
     5508 000009ee 50418000         ldiu      *+ar0(ir1),r1
TMS320C3x/4x COFF AssemblerVersion 5.11     Tue Dec  7 12:02:21 2010
Copyright (c) 1987-1999 Texas Instruments Incorporatedc:\lang\tms320c3x\511\bin\asm30.exe -l cf.asm cf.obj -tC:\Users\jds\AppData\Local\Temp\cf.tmp 

cf.asm                                                               PAGE  103

     5509 000009ef 15414200         sti       r1,*+ar2(ir0)
     5510                           .line   15
     5511 000009f0 50610001         ldiu      1,r1
     5512 000009f1 02410302         addi      *+fp(2),r1
     5513 000009f2 15410302         sti       r1,*+fp(2)
     5514 000009f3 04e1001e         cmpi      30,r1
     5515 000009f4 6a07ffee         blt       L299
     5516                   ;*      Branch Occurs to L299 
     5517 000009f5 6a000011         bu        L303
     5518                   ;*      Branch Occurs to L303 
     5519                           .line   22
     5520                   ;----------------------------------------------------------------------
     5521                   ; 950 | memset(StationName[i].EngName,0,15);                                   
     5522                   ;----------------------------------------------------------------------
     5523 000009f6          L302:        
     5524 000009f6 0ae0002e         mpyi      46,r0
     5525 000009f7 0f220000         push      r2
     5526 000009f8 022010fe-        addi      @CL61,r0              ; Unsigned
     5527 000009f9 0f210000         push      r1
     5528 000009fa 0f200000         push      r0
     5529 000009fb 62000000!        call      _memset
     5530                                                           ; Call Occurs
     5531 000009fc 18740003         subi      3,sp
     5532                           .line   23
     5533                   ;----------------------------------------------------------------------
     5534                   ; 951 | memset(StationName[i].IranName,0,30);                                  
     5535                   ;----------------------------------------------------------------------
     5536 000009fd 5062001e         ldiu      30,r2
     5537 000009fe 50400301         ldiu      *+fp(1),r0
     5538 000009ff 50610000         ldiu      0,r1
     5539 00000a00 0ae0002e         mpyi      46,r0
     5540 00000a01 0f220000         push      r2
     5541 00000a02 022010ff-        addi      @CL62,r0              ; Unsigned
     5542 00000a03 0f210000         push      r1
     5543 00000a04 0f200000         push      r0
     5544 00000a05 62000000!        call      _memset
     5545                                                           ; Call Occurs
     5546 00000a06 18740003         subi      3,sp
     5547 00000a07          L303:        
     5548                           .line   7
     5549 00000a07 50600001         ldiu      1,r0
     5550 00000a08 02400301         addi      *+fp(1),r0
     5551 00000a09 15400301         sti       r0,*+fp(1)
     5552 00000a0a 506000ff         ldiu      255,r0
     5553 00000a0b 50410301         ldiu      *+fp(1),r1
     5554 00000a0c 02c00b02         and       *-fp(2),r0
     5555 00000a0d 23800100         cmpi3     r0,r1
     5556 00000a0e 6a01ffa5         blo       L295
     5557                   ;*      Branch Occurs to L295 
     5558 00000a0f          L304:        
     5559                           .line   26
     5560 00000a0f 50530b01         ldiu      *-fp(1),bk
     5561 00000a10 504bc300         ldiu      *fp,fp
     5562 00000a11 187411fc         subi      4604,sp
TMS320C3x/4x COFF AssemblerVersion 5.11     Tue Dec  7 12:02:21 2010
Copyright (c) 1987-1999 Texas Instruments Incorporatedc:\lang\tms320c3x\511\bin\asm30.exe -l cf.asm cf.obj -tC:\Users\jds\AppData\Local\Temp\cf.tmp 

cf.asm                                                               PAGE  104

     5563 00000a12 68000013         bu        bk
     5564                   ;*      Branch Occurs to bk 
     5565                           .endfunc        954,000000000h,4602
     5566                   
     5567                   
     5568 00000a13                  .sect    ".text"
     5569                   
     5570                           .global _NVSRAM_Rd_StationName_Total
     5571                           .sym    _NVSRAM_Rd_StationName_Total,_NVSRAM_Rd_StationName_Total,45,2,0
     5572                           .func   960
     5573                   ;******************************************************************************
     5574                   ;* FUNCTION NAME: _NVSRAM_Rd_StationName_Total                                *
     5575                   ;*                                                                            *
     5576                   ;*   Architecture       : TMS320C30                                           *
     5577                   ;*   Calling Convention : Stack Parameter Convention                          *
     5578                   ;*   Function Uses Regs : r0,r1,ar0,ar1,ir0,st,rs,re,rc                       *
     5579                   ;*   Regs Saved         :                                                     *
     5580                   ;*   Stack Frame        : Full (w/ debug)                                     *
     5581                   ;*   Total Frame Size   : 2 Call + 1 Parm + 6 Auto + 0 SOE = 9 words          *
     5582                   ;******************************************************************************
     5583 00000a13          _NVSRAM_Rd_StationName_Total:
     5584                           .sym    _pStationNameAll,-2,24,9,32,.fake2
     5585                           .sym    _i,1,4,1,32
     5586                           .sym    _l,2,4,1,32
     5587                           .sym    _j,3,4,1,32
     5588                           .sym    _nData,4,12,1,32
     5589                           .sym    _nCodeData,5,13,1,32
     5590                           .sym    _pStationName,6,24,1,32,.fake13
     5591                           .line   1
     5592                   ;----------------------------------------------------------------------
     5593                   ; 960 | WORD NVSRAM_Rd_StationName_Total(STATION_NAME_ALL *pStationNameAll)    
     5594                   ;----------------------------------------------------------------------
     5595 00000a13 0f2b0000         push      fp
     5596 00000a14 500b0014         ldiu      sp,fp
     5597 00000a15 02740006         addi      6,sp
     5598                           .line   2
     5599                           .line   3
     5600                   ;----------------------------------------------------------------------
     5601                   ; 962 | int i,l,j=0;                                                           
     5602                   ;----------------------------------------------------------------------
     5603 00000a16 50600000         ldiu      0,r0
     5604 00000a17 15400303         sti       r0,*+fp(3)
     5605                           .line   4
     5606                   ;----------------------------------------------------------------------
     5607                   ; 963 | UCHAR nData = 0;                                                       
     5608                   ;----------------------------------------------------------------------
     5609 00000a18 15400304         sti       r0,*+fp(4)
     5610                           .line   5
     5611                   ;----------------------------------------------------------------------
     5612                   ; 964 | WORD nCodeData = 1;                                                    
     5613                   ;----------------------------------------------------------------------
     5614 00000a19 50600001         ldiu      1,r0
     5615 00000a1a 15400305         sti       r0,*+fp(5)
     5616                           .line   7
TMS320C3x/4x COFF AssemblerVersion 5.11     Tue Dec  7 12:02:21 2010
Copyright (c) 1987-1999 Texas Instruments Incorporatedc:\lang\tms320c3x\511\bin\asm30.exe -l cf.asm cf.obj -tC:\Users\jds\AppData\Local\Temp\cf.tmp 

cf.asm                                                               PAGE  105

     5617                   ;----------------------------------------------------------------------
     5618                   ; 966 | PSTATIONNAME pStationName = (STATIONNAME *)ADD_NVSRAM_STATION_NAME;    
     5619                   ;----------------------------------------------------------------------
     5620 00000a1b 50201100-        ldiu      @CL63,r0
     5621 00000a1c 15400306         sti       r0,*+fp(6)
     5622                           .line   9
     5623                   ;----------------------------------------------------------------------
     5624                   ; 968 | if(WORD_L(pStationName->nHead.nData_Type) == 80)                       
     5625                   ;----------------------------------------------------------------------
     5626 00000a1d 50080000         ldiu      r0,ar0
     5627 00000a1e 506000ff         ldiu      255,r0
     5628 00000a1f 21a0c000         and3      r0,*ar0,r0
     5629 00000a20 04e00050         cmpi      80,r0
     5630 00000a21 6a060058         bne       L317
     5631                   ;*      Branch Occurs to L317 
     5632                           .line   11
     5633                   ;----------------------------------------------------------------------
     5634                   ; 970 | for(i=0;i<MAX_STATION_NAME;i++)                                        
     5635                   ;----------------------------------------------------------------------
     5636 00000a22 50600000         ldiu      0,r0
     5637 00000a23 15400301         sti       r0,*+fp(1)
     5638 00000a24 04e00064         cmpi      100,r0
     5639 00000a25 6a0a0054         bge       L317
     5640                   ;*      Branch Occurs to L317 
     5641 00000a26          L308:        
     5642                           .line   13
     5643                   ;----------------------------------------------------------------------
     5644                   ; 972 | if(!WORD_L(pStationName->nBody[i].nStationCode) || WORD_L(pStationName-
     5645                   ;     | >nBody[i].nStationCode) != nCodeData )                                 
     5646                   ;----------------------------------------------------------------------
     5647 00000a26 50480301         ldiu      *+fp(1),ar0
     5648 00000a27 0ae80032         mpyi      50,ar0
     5649 00000a28 02480306         addi      *+fp(6),ar0           ; Unsigned
     5650 00000a29 506000ff         ldiu      255,r0
     5651 00000a2a 1a400002         tstb      *+ar0(2),r0
     5652 00000a2b 6a05004e         beq       L317
     5653                   ;*      Branch Occurs to L317 
     5654 00000a2c 50480301         ldiu      *+fp(1),ar0
     5655 00000a2d 0ae80032         mpyi      50,ar0
     5656 00000a2e 02480306         addi      *+fp(6),ar0           ; Unsigned
     5657 00000a2f 02c00002         and       *+ar0(2),r0
     5658 00000a30 04c00305         cmpi      *+fp(5),r0
     5659 00000a31 6a250002         beqd      L312
     5660 00000a32 0c800000         nop
     5661 00000a33 52c80301         ldieq     *+fp(1),ar0
     5662 00000a34 52e100ff         ldieq     255,r1
     5663                   ;*      Branch Occurs to L312 
     5664 00000a35 6a000044         bu        L317
     5665                   ;*      Branch Occurs to L317 
     5666                           .line   15
     5667                   ;----------------------------------------------------------------------
     5668                   ; 974 | break;                                                                 
     5669                   ;----------------------------------------------------------------------
     5670                           .line   17
TMS320C3x/4x COFF AssemblerVersion 5.11     Tue Dec  7 12:02:21 2010
Copyright (c) 1987-1999 Texas Instruments Incorporatedc:\lang\tms320c3x\511\bin\asm30.exe -l cf.asm cf.obj -tC:\Users\jds\AppData\Local\Temp\cf.tmp 

cf.asm                                                               PAGE  106

     5671                   ;----------------------------------------------------------------------
     5672                   ; 976 | else if(WORD_L(pStationName->nBody[i].nStationCode)==WORD_L(nCodeData))
     5673                   ;----------------------------------------------------------------------
     5674 00000a36          L312:        
     5675 00000a36 0ae80032         mpyi      50,ar0
     5676 00000a37 506000ff         ldiu      255,r0
     5677 00000a38 02480306         addi      *+fp(6),ar0           ; Unsigned
     5678 00000a39 02c10305         and       *+fp(5),r1
     5679 00000a3a 02c00002         and       *+ar0(2),r0
     5680 00000a3b 23800001         cmpi3     r1,r0
     5681 00000a3c 6a060038         bne       L316
     5682                   ;*      Branch Occurs to L316 
     5683                           .line   19
     5684                   ;----------------------------------------------------------------------
     5685                   ; 978 | for(j=0;j<4;j++)                                                       
     5686                   ;----------------------------------------------------------------------
     5687 00000a3d 50600000         ldiu      0,r0
     5688 00000a3e 15400303         sti       r0,*+fp(3)
     5689 00000a3f 04e00004         cmpi      4,r0
     5690 00000a40 6a0a0010         bge       L315
     5691                   ;*      Branch Occurs to L315 
     5692 00000a41          L314:        
     5693                           .line   21
     5694                   ;----------------------------------------------------------------------
     5695                   ; 980 | nData = WORD_L(pStationName->nBody[i].nRxStationCode[j]);              
     5696                   ;----------------------------------------------------------------------
     5697 00000a41 50480301         ldiu      *+fp(1),ar0
     5698 00000a42 0ae80032         mpyi      50,ar0
     5699 00000a43 02480306         addi      *+fp(6),ar0           ; Unsigned
     5700 00000a44 02480303         addi      *+fp(3),ar0           ; Unsigned
     5701 00000a45 506000ff         ldiu      255,r0
     5702 00000a46 02c00030         and       *+ar0(48),r0
     5703 00000a47 15400304         sti       r0,*+fp(4)
     5704                           .line   22
     5705                   ;----------------------------------------------------------------------
     5706                   ; 981 | nNvsram_Variable.nMatchCode[nData] = nCodeData;                        
     5707                   ;----------------------------------------------------------------------
     5708 00000a48 50281101-        ldiu      @CL64,ar0
     5709 00000a49 50510304         ldiu      *+fp(4),ir0
     5710 00000a4a 50400305         ldiu      *+fp(5),r0
     5711 00000a4b 15404000         sti       r0,*+ar0(ir0)
     5712                           .line   19
     5713 00000a4c 50600001         ldiu      1,r0
     5714 00000a4d 02400303         addi      *+fp(3),r0
     5715 00000a4e 15400303         sti       r0,*+fp(3)
     5716 00000a4f 04e00004         cmpi      4,r0
     5717 00000a50 6a07fff0         blt       L314
     5718                   ;*      Branch Occurs to L314 
     5719 00000a51          L315:        
     5720                           .line   25
     5721                   ;----------------------------------------------------------------------
     5722                   ; 984 | pStationNameAll[i].StationCode = WORD_L(pStationName->nBody[i].nStation
     5723                   ;     | Code);                                                                 
     5724                   ;----------------------------------------------------------------------
TMS320C3x/4x COFF AssemblerVersion 5.11     Tue Dec  7 12:02:21 2010
Copyright (c) 1987-1999 Texas Instruments Incorporatedc:\lang\tms320c3x\511\bin\asm30.exe -l cf.asm cf.obj -tC:\Users\jds\AppData\Local\Temp\cf.tmp 

cf.asm                                                               PAGE  107

     5725 00000a51 50480301         ldiu      *+fp(1),ar0
     5726 00000a52 506000ff         ldiu      255,r0
     5727 00000a53 50090008         ldiu      ar0,ar1
     5728 00000a54 50510b02         ldiu      *-fp(2),ir0
     5729 00000a55 0ae80032         mpyi      50,ar0
     5730 00000a56 02480306         addi      *+fp(6),ar0           ; Unsigned
     5731 00000a57 0ae9002e         mpyi      46,ar1
     5732 00000a58 02c00002         and       *+ar0(2),r0
     5733 00000a59 15404100         sti       r0,*+ar1(ir0)
     5734                           .line   26
     5735                   ;----------------------------------------------------------------------
     5736                   ; 985 | memcpy(pStationNameAll[i].EngName, pStationName->nBody[i].nStation_EngN
     5737                   ;     | ame,15);                                                               
     5738                   ;----------------------------------------------------------------------
     5739 00000a5a 50480301         ldiu      *+fp(1),ar0
     5740 00000a5b 50090008         ldiu      ar0,ar1
     5741 00000a5c 0ae9002e         mpyi      46,ar1
     5742 00000a5d 0ae80032         mpyi      50,ar0
     5743 00000a5e 02490b02         addi      *-fp(2),ar1           ; Unsigned
     5744 00000a5f 02480306         addi      *+fp(6),ar0           ; Unsigned
     5745 00000a60 02690001         addi      1,ar1                 ; Unsigned
     5746 00000a61 02680003         addi      3,ar0                 ; Unsigned
     5747 00000a62 50402001         ldiu      *ar0++(1),r0
     5748 00000a63 13fb000d         rpts      13                    ; Fast MEMCPY(#21)
     5749 00000a64 da002120         sti       r0,*ar1++(1)
     5750                   ||      ldi       *ar0++(1),r0
     5751 00000a65 15402101         sti       r0,*ar1++(1)
     5752                           .line   27
     5753                   ;----------------------------------------------------------------------
     5754                   ; 986 | memcpy(pStationNameAll[i].IranName ,pStationName->nBody[i].nStation_Ira
     5755                   ;     | nName,30);                                                             
     5756                   ;----------------------------------------------------------------------
     5757 00000a66 50480301         ldiu      *+fp(1),ar0
     5758 00000a67 50090008         ldiu      ar0,ar1
     5759 00000a68 0ae80032         mpyi      50,ar0
     5760 00000a69 02480306         addi      *+fp(6),ar0           ; Unsigned
     5761 00000a6a 02680012         addi      18,ar0                ; Unsigned
     5762 00000a6b 0ae9002e         mpyi      46,ar1
     5763 00000a6c 02490b02         addi      *-fp(2),ar1           ; Unsigned
     5764 00000a6d 02690010         addi      16,ar1                ; Unsigned
     5765 00000a6e 50402001         ldiu      *ar0++(1),r0
     5766 00000a6f 13fb001c         rpts      28                    ; Fast MEMCPY(#24)
     5767 00000a70 da002120         sti       r0,*ar1++(1)
     5768                   ||      ldi       *ar0++(1),r0
     5769 00000a71 15402101         sti       r0,*ar1++(1)
     5770                           .line   29
     5771                   ;----------------------------------------------------------------------
     5772                   ; 988 | nCodeData++;                                                           
     5773                   ;----------------------------------------------------------------------
     5774 00000a72 50600001         ldiu      1,r0
     5775 00000a73 02400305         addi      *+fp(5),r0            ; Unsigned
     5776 00000a74 15400305         sti       r0,*+fp(5)
     5777 00000a75          L316:        
     5778                           .line   11
TMS320C3x/4x COFF AssemblerVersion 5.11     Tue Dec  7 12:02:21 2010
Copyright (c) 1987-1999 Texas Instruments Incorporatedc:\lang\tms320c3x\511\bin\asm30.exe -l cf.asm cf.obj -tC:\Users\jds\AppData\Local\Temp\cf.tmp 

cf.asm                                                               PAGE  108

     5779 00000a75 50600001         ldiu      1,r0
     5780 00000a76 02400301         addi      *+fp(1),r0
     5781 00000a77 15400301         sti       r0,*+fp(1)
     5782 00000a78 04e00064         cmpi      100,r0
     5783 00000a79 6a07ffac         blt       L308
     5784                   ;*      Branch Occurs to L308 
     5785 00000a7a          L317:        
     5786                           .line   35
     5787                   ;----------------------------------------------------------------------
     5788                   ; 994 | return nCodeData;                                                      
     5789                   ;----------------------------------------------------------------------
     5790 00000a7a 50400305         ldiu      *+fp(5),r0
     5791                           .line   36
     5792 00000a7b 50510b01         ldiu      *-fp(1),ir0
     5793 00000a7c 504bc300         ldiu      *fp,fp
     5794 00000a7d 18740008         subi      8,sp
     5795 00000a7e 68000011         bu        ir0
     5796                   ;*      Branch Occurs to ir0 
     5797                           .endfunc        995,000000000h,6
     5798                   
     5799                   
     5800 00000a7f                  .sect    ".text"
     5801                   
     5802                           .global _StationCode_Definite
     5803                           .sym    _StationCode_Definite,_StationCode_Definite,44,2,0
     5804                           .func   1001
     5805                   ;******************************************************************************
     5806                   ;* FUNCTION NAME: _StationCode_Definite                                       *
     5807                   ;*                                                                            *
     5808                   ;*   Architecture       : TMS320C30                                           *
     5809                   ;*   Calling Convention : Stack Parameter Convention                          *
     5810                   ;*   Function Uses Regs : r0,r1,ar0,ar1,ir0,ir1,st                            *
     5811                   ;*   Regs Saved         :                                                     *
     5812                   ;*   Stack Frame        : Full (w/ debug)                                     *
     5813                   ;*   Total Frame Size   : 2 Call + 2 Parm + 2 Auto + 0 SOE = 6 words          *
     5814                   ;******************************************************************************
     5815 00000a7f          _StationCode_Definite:
     5816                           .sym    _Now,-2,12,9,32
     5817                           .sym    _Next,-3,12,9,32
     5818                           .sym    _Re_Data,1,12,1,32
     5819                           .sym    _Code,2,4,1,32
     5820                           .line   1
     5821                   ;----------------------------------------------------------------------
     5822                   ; 1001 | UCHAR StationCode_Definite(UCHAR Now,UCHAR Next)                       
     5823                   ;----------------------------------------------------------------------
     5824 00000a7f 0f2b0000         push      fp
     5825 00000a80 500b0014         ldiu      sp,fp
     5826 00000a81 02740002         addi      2,sp
     5827                           .line   2
     5828                           .line   3
     5829                   ;----------------------------------------------------------------------
     5830                   ; 1003 | UCHAR Re_Data=0;                                                       
     5831                   ; 1004 | int Code;                                                              
     5832                   ;----------------------------------------------------------------------
TMS320C3x/4x COFF AssemblerVersion 5.11     Tue Dec  7 12:02:21 2010
Copyright (c) 1987-1999 Texas Instruments Incorporatedc:\lang\tms320c3x\511\bin\asm30.exe -l cf.asm cf.obj -tC:\Users\jds\AppData\Local\Temp\cf.tmp 

cf.asm                                                               PAGE  109

     5833 00000a82 50600000         ldiu      0,r0
     5834 00000a83 15400301         sti       r0,*+fp(1)
     5835                           .line   6
     5836                   ;----------------------------------------------------------------------
     5837                   ; 1006 | for(Code=0;Code<256;Code++)                                            
     5838                   ;----------------------------------------------------------------------
     5839 00000a84 15400302         sti       r0,*+fp(2)
     5840 00000a85 04e00100         cmpi      256,r0
     5841 00000a86 6a0a002b         bge       L328
     5842                   ;*      Branch Occurs to L328 
     5843 00000a87          L321:        
     5844                           .line   8
     5845                   ;----------------------------------------------------------------------
     5846                   ; 1008 | if(WORD_L(nNvsram_Variable.nMatchCode[Now])==WORD_L(nNvsram_Variable.nM
     5847                   ;     | atchCode[Code])&&WORD_L(nNvsram_Variable.nMatchCode[Now]!=0x00)) {Re_Da
     5848                   ;     | ta++;}                                                                 
     5849                   ;----------------------------------------------------------------------
     5850 00000a87 506000ff         ldiu      255,r0
     5851 00000a88 50510302         ldiu      *+fp(2),ir0
     5852 00000a89 50281101-        ldiu      @CL64,ar0
     5853 00000a8a 506100ff         ldiu      255,r1
     5854 00000a8b 50520b02         ldiu      *-fp(2),ir1
     5855 00000a8c 50291101-        ldiu      @CL64,ar1
     5856 00000a8d 21a04000         and3      r0,*+ar0(ir0),r0
     5857 00000a8e 21a18101         and3      r1,*+ar1(ir1),r1
     5858 00000a8f 23800100         cmpi3     r0,r1
     5859 00000a90 6a060009         bne       L324
     5860                   ;*      Branch Occurs to L324 
     5861 00000a91 50110012         ldiu      ir1,ir0
     5862 00000a92 08414000         ldi       *+ar0(ir0),r1
     5863 00000a93 50600000         ldiu      0,r0
     5864 00000a94 53600001         ldine     1,r0
     5865 00000a95 1a6000ff         tstb      255,r0
     5866 00000a96 6a050003         beq       L324
     5867                   ;*      Branch Occurs to L324 
     5868 00000a97 50600001         ldiu      1,r0
     5869 00000a98 02400301         addi      *+fp(1),r0            ; Unsigned
     5870 00000a99 15400301         sti       r0,*+fp(1)
     5871 00000a9a          L324:        
     5872                           .line   9
     5873                   ;----------------------------------------------------------------------
     5874                   ; 1009 | if(WORD_L(nNvsram_Variable.nMatchCode[Next])==WORD_L(nNvsram_Variable.n
     5875                   ;     | MatchCode[Code])&&WORD_L(nNvsram_Variable.nMatchCode[Next]!=0x00)){Re_D
     5876                   ;     | ata++;}                                                                
     5877                   ;----------------------------------------------------------------------
     5878 00000a9a 506000ff         ldiu      255,r0
     5879 00000a9b 50510302         ldiu      *+fp(2),ir0
     5880 00000a9c 50281101-        ldiu      @CL64,ar0
     5881 00000a9d 506100ff         ldiu      255,r1
     5882 00000a9e 50520b03         ldiu      *-fp(3),ir1
     5883 00000a9f 50291101-        ldiu      @CL64,ar1
     5884 00000aa0 21a04000         and3      r0,*+ar0(ir0),r0
     5885 00000aa1 21a18101         and3      r1,*+ar1(ir1),r1
     5886 00000aa2 23800100         cmpi3     r0,r1
TMS320C3x/4x COFF AssemblerVersion 5.11     Tue Dec  7 12:02:21 2010
Copyright (c) 1987-1999 Texas Instruments Incorporatedc:\lang\tms320c3x\511\bin\asm30.exe -l cf.asm cf.obj -tC:\Users\jds\AppData\Local\Temp\cf.tmp 

cf.asm                                                               PAGE  110

     5887 00000aa3 6a060009         bne       L327
     5888                   ;*      Branch Occurs to L327 
     5889 00000aa4 50110012         ldiu      ir1,ir0
     5890 00000aa5 08414000         ldi       *+ar0(ir0),r1
     5891 00000aa6 50600000         ldiu      0,r0
     5892 00000aa7 53600001         ldine     1,r0
     5893 00000aa8 1a6000ff         tstb      255,r0
     5894 00000aa9 6a050003         beq       L327
     5895                   ;*      Branch Occurs to L327 
     5896 00000aaa 50600001         ldiu      1,r0
     5897 00000aab 02400301         addi      *+fp(1),r0            ; Unsigned
     5898 00000aac 15400301         sti       r0,*+fp(1)
     5899 00000aad          L327:        
     5900                           .line   6
     5901 00000aad 50600001         ldiu      1,r0
     5902 00000aae 02400302         addi      *+fp(2),r0
     5903 00000aaf 15400302         sti       r0,*+fp(2)
     5904 00000ab0 04e00100         cmpi      256,r0
     5905 00000ab1 6a07ffd5         blt       L321
     5906                   ;*      Branch Occurs to L321 
     5907 00000ab2          L328:        
     5908                           .line   12
     5909                   ;----------------------------------------------------------------------
     5910                   ; 1012 | return Re_Data;                                                        
     5911                   ;----------------------------------------------------------------------
     5912 00000ab2 50400301         ldiu      *+fp(1),r0
     5913                           .line   13
     5914 00000ab3 50520b01         ldiu      *-fp(1),ir1
     5915 00000ab4 504bc300         ldiu      *fp,fp
     5916 00000ab5 18740004         subi      4,sp
     5917 00000ab6 68000012         bu        ir1
     5918                   ;*      Branch Occurs to ir1 
     5919                           .endfunc        1013,000000000h,2
     5920                   
     5921                   
     5922 00000ab7                  .sect    ".text"
     5923                   
     5924                           .global _NVSRAM_Find_RootAllNo
     5925                           .sym    _NVSRAM_Find_RootAllNo,_NVSRAM_Find_RootAllNo,44,2,0
     5926                           .func   1020
     5927                   ;******************************************************************************
     5928                   ;* FUNCTION NAME: _NVSRAM_Find_RootAllNo                                      *
     5929                   ;*                                                                            *
     5930                   ;*   Architecture       : TMS320C30                                           *
     5931                   ;*   Calling Convention : Stack Parameter Convention                          *
     5932                   ;*   Function Uses Regs : r0,ar0,ar1,ir0,st                                   *
     5933                   ;*   Regs Saved         :                                                     *
     5934                   ;*   Stack Frame        : Full (w/ debug)                                     *
     5935                   ;*   Total Frame Size   : 2 Call + 2 Parm + 5 Auto + 0 SOE = 9 words          *
     5936                   ;******************************************************************************
     5937 00000ab7          _NVSRAM_Find_RootAllNo:
     5938                           .sym    _nLen,-2,13,9,32
     5939                           .sym    _pData,-3,28,9,32
     5940                           .sym    _i,1,4,1,32
TMS320C3x/4x COFF AssemblerVersion 5.11     Tue Dec  7 12:02:21 2010
Copyright (c) 1987-1999 Texas Instruments Incorporatedc:\lang\tms320c3x\511\bin\asm30.exe -l cf.asm cf.obj -tC:\Users\jds\AppData\Local\Temp\cf.tmp 

cf.asm                                                               PAGE  111

     5941                           .sym    _l,2,4,1,32
     5942                           .sym    _j,3,4,1,32
     5943                           .sym    _nReturnFlag,4,4,1,32
     5944                           .sym    _pDestCode,5,24,1,32,.fake18
     5945                           .line   1
     5946                   ;----------------------------------------------------------------------
     5947                   ; 1020 | UCHAR NVSRAM_Find_RootAllNo(WORD nLen,UCHAR *pData)                    
     5948                   ;----------------------------------------------------------------------
     5949 00000ab7 0f2b0000         push      fp
     5950 00000ab8 500b0014         ldiu      sp,fp
     5951 00000ab9 02740005         addi      5,sp
     5952                           .line   2
     5953                           .line   4
     5954                   ;----------------------------------------------------------------------
     5955                   ; 1023 | int i,l,j=0,nReturnFlag = 0;                                           
     5956                   ;----------------------------------------------------------------------
     5957 00000aba 50600000         ldiu      0,r0
     5958 00000abb 15400303         sti       r0,*+fp(3)
     5959 00000abc 15400304         sti       r0,*+fp(4)
     5960                           .line   6
     5961                   ;----------------------------------------------------------------------
     5962                   ; 1025 | PDESTCODE pDestCode = (DESTCODE *)ADD_NVSRAM_DEST_CODE;                
     5963                   ;----------------------------------------------------------------------
     5964 00000abd 50201102-        ldiu      @CL65,r0
     5965 00000abe 15400305         sti       r0,*+fp(5)
     5966                           .line   8
     5967                   ;----------------------------------------------------------------------
     5968                   ; 1027 | if(WORD_L(pDestCode->nHead.nData_Type) == 70)                          
     5969                   ;----------------------------------------------------------------------
     5970 00000abf 50080000         ldiu      r0,ar0
     5971 00000ac0 506000ff         ldiu      255,r0
     5972 00000ac1 21a0c000         and3      r0,*ar0,r0
     5973 00000ac2 04e00046         cmpi      70,r0
     5974 00000ac3 6a060019         bne       L337
     5975                   ;*      Branch Occurs to L337 
     5976                           .line   10
     5977                   ;----------------------------------------------------------------------
     5978                   ; 1029 | for(i=0;i<nLen;i++)                                                    
     5979                   ;----------------------------------------------------------------------
     5980 00000ac4 50600000         ldiu      0,r0
     5981 00000ac5 15400301         sti       r0,*+fp(1)
     5982 00000ac6 50400301         ldiu      *+fp(1),r0
     5983 00000ac7 04c00b02         cmpi      *-fp(2),r0
     5984 00000ac8 6a040014         bhs       L337
     5985                   ;*      Branch Occurs to L337 
     5986 00000ac9          L333:        
     5987                           .line   12
     5988                   ;----------------------------------------------------------------------
     5989                   ; 1031 | if(WORD_L(pDestCode->nBody[i].nStation_Code))                          
     5990                   ;----------------------------------------------------------------------
     5991 00000ac9 50480301         ldiu      *+fp(1),ar0
     5992 00000aca 03e80001         ash       1,ar0
     5993 00000acb 02480305         addi      *+fp(5),ar0           ; Unsigned
     5994 00000acc 506000ff         ldiu      255,r0
TMS320C3x/4x COFF AssemblerVersion 5.11     Tue Dec  7 12:02:21 2010
Copyright (c) 1987-1999 Texas Instruments Incorporatedc:\lang\tms320c3x\511\bin\asm30.exe -l cf.asm cf.obj -tC:\Users\jds\AppData\Local\Temp\cf.tmp 

cf.asm                                                               PAGE  112

     5995 00000acd 1a400003         tstb      *+ar0(3),r0
     5996 00000ace 6a05000e         beq       L337
     5997                   ;*      Branch Occurs to L337 
     5998                           .line   14
     5999                   ;----------------------------------------------------------------------
     6000                   ; 1033 | pData[i] = WORD_L(pDestCode->nBody[i].nStation_Code);                  
     6001                   ;----------------------------------------------------------------------
     6002 00000acf 50480301         ldiu      *+fp(1),ar0
     6003 00000ad0 03e80001         ash       1,ar0
     6004 00000ad1 50510b03         ldiu      *-fp(3),ir0
     6005 00000ad2 02480305         addi      *+fp(5),ar0           ; Unsigned
     6006 00000ad3 6a200001         bud       L336
     6007 00000ad4 50490301         ldiu      *+fp(1),ar1
     6008 00000ad5 02c00003         and       *+ar0(3),r0
     6009 00000ad6 15404100         sti       r0,*+ar1(ir0)
     6010                   ;*      Branch Occurs to L336 
     6011                           .line   17
     6012                   ;----------------------------------------------------------------------
     6013                   ; 1036 | else break;                                                            
     6014                   ;----------------------------------------------------------------------
     6015 00000ad7          L336:        
     6016                           .line   10
     6017 00000ad7 50600001         ldiu      1,r0
     6018 00000ad8 02400301         addi      *+fp(1),r0
     6019 00000ad9 15400301         sti       r0,*+fp(1)
     6020 00000ada 50400301         ldiu      *+fp(1),r0
     6021 00000adb 04c00b02         cmpi      *-fp(2),r0
     6022 00000adc 6a01ffec         blo       L333
     6023                   ;*      Branch Occurs to L333 
     6024 00000add          L337:        
     6025                           .line   20
     6026                   ;----------------------------------------------------------------------
     6027                   ; 1039 | return i;                                                              
     6028                   ;----------------------------------------------------------------------
     6029 00000add 50400301         ldiu      *+fp(1),r0
     6030                           .line   21
     6031 00000ade 50510b01         ldiu      *-fp(1),ir0
     6032 00000adf 504bc300         ldiu      *fp,fp
     6033 00000ae0 18740007         subi      7,sp
     6034 00000ae1 68000011         bu        ir0
     6035                   ;*      Branch Occurs to ir0 
     6036                           .endfunc        1040,000000000h,5
     6037                   
     6038                   
     6039 00000ae2                  .sect    ".text"
     6040                   
     6041                           .global _NVSRAM_Rd_StationName_Code
     6042                           .sym    _NVSRAM_Rd_StationName_Code,_NVSRAM_Rd_StationName_Code,45,2,0
     6043                           .func   1051
     6044                   ;******************************************************************************
     6045                   ;* FUNCTION NAME: _NVSRAM_Rd_StationName_Code                                 *
     6046                   ;*                                                                            *
     6047                   ;*   Architecture       : TMS320C30                                           *
     6048                   ;*   Calling Convention : Stack Parameter Convention                          *
TMS320C3x/4x COFF AssemblerVersion 5.11     Tue Dec  7 12:02:21 2010
Copyright (c) 1987-1999 Texas Instruments Incorporatedc:\lang\tms320c3x\511\bin\asm30.exe -l cf.asm cf.obj -tC:\Users\jds\AppData\Local\Temp\cf.tmp 

cf.asm                                                               PAGE  113

     6049                   ;*   Function Uses Regs : r0,r1,ar0,ar1,fp,ir0,ir1,sp,st                      *
     6050                   ;*   Regs Saved         :                                                     *
     6051                   ;*   Stack Frame        : Full (w/ debug)                                     *
     6052                   ;*   Total Frame Size   : 2 Call + 3 Parm + 4603 Auto + 0 SOE = 4608 words    *
     6053                   ;******************************************************************************
     6054 00000ae2          _NVSRAM_Rd_StationName_Code:
     6055                           .sym    _Code,-2,12,9,32
     6056                           .sym    _pData,-3,28,9,32
     6057                           .sym    _pGpData,-4,28,9,32
     6058                           .sym    _i,1,4,1,32
     6059                           .sym    _k,2,4,1,32
     6060                           .sym    _n,3,4,1,32
     6061                           .sym    _sStationNameAll,4,56,1,147200,.fake2,100
     6062                           .line   1
     6063                   ;----------------------------------------------------------------------
     6064                   ; 1051 | WORD NVSRAM_Rd_StationName_Code(UCHAR Code,UCHAR *pData,UCHAR *pGpData)
     6065                   ;     |                                                                        
     6066                   ;----------------------------------------------------------------------
     6067 00000ae2 0f2b0000         push      fp
     6068 00000ae3 500b0014         ldiu      sp,fp
     6069 00000ae4 027411fb         addi      4603,sp
     6070                           .line   2
     6071                           .line   3
     6072                   ;----------------------------------------------------------------------
     6073                   ; 1053 | int i=0,k=0,n=0;                                                       
     6074                   ; 1055 | STATION_NAME_ALL sStationNameAll[100];                                 
     6075                   ;----------------------------------------------------------------------
     6076 00000ae5 50600000         ldiu      0,r0
     6077 00000ae6 15400301         sti       r0,*+fp(1)
     6078 00000ae7 15400302         sti       r0,*+fp(2)
     6079 00000ae8 15400303         sti       r0,*+fp(3)
     6080                           .line   7
     6081                   ;----------------------------------------------------------------------
     6082                   ; 1057 | memset(pData,0,30);
     6083                   ;     |  // 차내 버퍼 영역 초기화                                              
     6084                   ;----------------------------------------------------------------------
     6085 00000ae9 5061001e         ldiu      30,r1
     6086 00000aea 0f210000         push      r1
     6087 00000aeb 0f200000         push      r0
     6088 00000aec 50400b03         ldiu      *-fp(3),r0
     6089 00000aed 0f200000         push      r0
     6090 00000aee 62000000!        call      _memset
     6091                                                           ; Call Occurs
     6092 00000aef 18740003         subi      3,sp
     6093                           .line   8
     6094                   ;----------------------------------------------------------------------
     6095                   ; 1058 | memset(pGpData,0,15);
     6096                   ;     |  // Gp 버터 영역 초기화                                                
     6097                   ;----------------------------------------------------------------------
     6098 00000af0 5061000f         ldiu      15,r1
     6099 00000af1 0f210000         push      r1
     6100 00000af2 50600000         ldiu      0,r0
     6101 00000af3 0f200000         push      r0
     6102 00000af4 50400b04         ldiu      *-fp(4),r0
TMS320C3x/4x COFF AssemblerVersion 5.11     Tue Dec  7 12:02:21 2010
Copyright (c) 1987-1999 Texas Instruments Incorporatedc:\lang\tms320c3x\511\bin\asm30.exe -l cf.asm cf.obj -tC:\Users\jds\AppData\Local\Temp\cf.tmp 

cf.asm                                                               PAGE  114

     6103 00000af5 0f200000         push      r0
     6104 00000af6 62000000!        call      _memset
     6105                                                           ; Call Occurs
     6106 00000af7 18740003         subi      3,sp
     6107                           .line   9
     6108                   ;----------------------------------------------------------------------
     6109                   ; 1059 | NVSRAM_Rd_StationName_Total(sStationNameAll);                          
     6110                   ;----------------------------------------------------------------------
     6111 00000af8 5000000b         ldiu      fp,r0
     6112 00000af9 02600004         addi      4,r0
     6113 00000afa 0f200000         push      r0
     6114 00000afb 62000a13'        call      _NVSRAM_Rd_StationName_Total
     6115                                                           ; Call Occurs
     6116 00000afc 18740001         subi      1,sp
     6117                           .line   11
     6118                   ;----------------------------------------------------------------------
     6119                   ; 1061 | if(Code && WORD_L(Code) == WORD_L(sStationNameAll[Code-1].StationCode))
     6120                   ;----------------------------------------------------------------------
     6121 00000afd 08400b02         ldi       *-fp(2),r0
     6122 00000afe 6a25004b         beqd      L350
     6123 00000aff 53710001         ldine     1,ir0
     6124 00000b00 5308000b         ldine     fp,ar0
     6125 00000b01 536000ff         ldine     255,r0
     6126                   ;*      Branch Occurs to L350 
     6127 00000b02 506100ff         ldiu      255,r1
     6128 00000b03 19d10b02         subri     *-fp(2),ir0           ; Unsigned
     6129 00000b04 02680004         addi      4,ar0
     6130 00000b05 0af1002e         mpyi      46,ir0
     6131 00000b06 02c00b02         and       *-fp(2),r0
     6132 00000b07 21a14001         and3      r1,*+ar0(ir0),r1
     6133 00000b08 23800001         cmpi3     r1,r0
     6134 00000b09 6a060042         bne       L350
     6135                   ;*      Branch Occurs to L350 
     6136                           .line   13
     6137                   ;----------------------------------------------------------------------
     6138                   ; 1063 | for(i=0;i<30;i++)                                                      
     6139                   ;----------------------------------------------------------------------
     6140 00000b0a 50600000         ldiu      0,r0
     6141 00000b0b 15400301         sti       r0,*+fp(1)
     6142 00000b0c 04e0001e         cmpi      30,r0
     6143 00000b0d 6a0a001d         bge       L346
     6144                   ;*      Branch Occurs to L346 
     6145 00000b0e          L343:        
     6146                           .line   15
     6147                   ;----------------------------------------------------------------------
     6148                   ; 1065 | if(WORD_L(sStationNameAll[Code-1].IranName[i]) != 0x20)                
     6149                   ;----------------------------------------------------------------------
     6150 00000b0e 50710001         ldiu      1,ir0
     6151 00000b0f 5008000b         ldiu      fp,ar0
     6152 00000b10 19d10b02         subri     *-fp(2),ir0           ; Unsigned
     6153 00000b11 0af1002e         mpyi      46,ir0
     6154 00000b12 02680014         addi      20,ar0
     6155 00000b13 02510301         addi      *+fp(1),ir0           ; Unsigned
     6156 00000b14 506000ff         ldiu      255,r0
TMS320C3x/4x COFF AssemblerVersion 5.11     Tue Dec  7 12:02:21 2010
Copyright (c) 1987-1999 Texas Instruments Incorporatedc:\lang\tms320c3x\511\bin\asm30.exe -l cf.asm cf.obj -tC:\Users\jds\AppData\Local\Temp\cf.tmp 

cf.asm                                                               PAGE  115

     6157 00000b15 21a04000         and3      r0,*+ar0(ir0),r0
     6158 00000b16 04e00020         cmpi      32,r0
     6159 00000b17 6a05000e         beq       L345
     6160                   ;*      Branch Occurs to L345 
     6161                           .line   17
     6162                   ;----------------------------------------------------------------------
     6163                   ; 1067 | pData[k++] =WORD_L(sStationNameAll[Code-1].IranName[i]);               
     6164                   ;----------------------------------------------------------------------
     6165 00000b18 50710001         ldiu      1,ir0
     6166 00000b19 5008000b         ldiu      fp,ar0
     6167 00000b1a 50600001         ldiu      1,r0
     6168 00000b1b 50490302         ldiu      *+fp(2),ar1
     6169 00000b1c 19d10b02         subri     *-fp(2),ir0           ; Unsigned
     6170 00000b1d 506100ff         ldiu      255,r1
     6171 00000b1e 50520b03         ldiu      *-fp(3),ir1
     6172 00000b1f 0af1002e         mpyi      46,ir0
     6173 00000b20 02680014         addi      20,ar0
     6174 00000b21 02510301         addi      *+fp(1),ir0           ; Unsigned
     6175 00000b22 02000009         addi      ar1,r0
     6176 00000b23 21a14001         and3      r1,*+ar0(ir0),r1
     6177 00000b24 15400302         sti       r0,*+fp(2)
     6178 00000b25 15418100         sti       r1,*+ar1(ir1)
     6179 00000b26          L345:        
     6180                           .line   13
     6181 00000b26 50600001         ldiu      1,r0
     6182 00000b27 02400301         addi      *+fp(1),r0
     6183 00000b28 15400301         sti       r0,*+fp(1)
     6184 00000b29 04e0001e         cmpi      30,r0
     6185 00000b2a 6a07ffe3         blt       L343
     6186                   ;*      Branch Occurs to L343 
     6187 00000b2b          L346:        
     6188                           .line   22
     6189                   ;----------------------------------------------------------------------
     6190                   ; 1072 | for(i=0;i<15;i++)                                                      
     6191                   ;----------------------------------------------------------------------
     6192 00000b2b 50600000         ldiu      0,r0
     6193 00000b2c 15400301         sti       r0,*+fp(1)
     6194 00000b2d 04e0000f         cmpi      15,r0
     6195 00000b2e 6a0a001d         bge       L350
     6196                   ;*      Branch Occurs to L350 
     6197 00000b2f          L347:        
     6198                           .line   24
     6199                   ;----------------------------------------------------------------------
     6200                   ; 1074 | if(WORD_L(sStationNameAll[Code-1].IranName[i]) != 0x20)                
     6201                   ;----------------------------------------------------------------------
     6202 00000b2f 50710001         ldiu      1,ir0
     6203 00000b30 5008000b         ldiu      fp,ar0
     6204 00000b31 19d10b02         subri     *-fp(2),ir0           ; Unsigned
     6205 00000b32 0af1002e         mpyi      46,ir0
     6206 00000b33 02680014         addi      20,ar0
     6207 00000b34 02510301         addi      *+fp(1),ir0           ; Unsigned
     6208 00000b35 506000ff         ldiu      255,r0
     6209 00000b36 21a04000         and3      r0,*+ar0(ir0),r0
     6210 00000b37 04e00020         cmpi      32,r0
TMS320C3x/4x COFF AssemblerVersion 5.11     Tue Dec  7 12:02:21 2010
Copyright (c) 1987-1999 Texas Instruments Incorporatedc:\lang\tms320c3x\511\bin\asm30.exe -l cf.asm cf.obj -tC:\Users\jds\AppData\Local\Temp\cf.tmp 

cf.asm                                                               PAGE  116

     6211 00000b38 6a05000e         beq       L349
     6212                   ;*      Branch Occurs to L349 
     6213                           .line   26
     6214                   ;----------------------------------------------------------------------
     6215                   ; 1076 | pGpData[n++] =WORD_L(sStationNameAll[Code-1].IranName[i]);             
     6216                   ;----------------------------------------------------------------------
     6217 00000b39 50710001         ldiu      1,ir0
     6218 00000b3a 5008000b         ldiu      fp,ar0
     6219 00000b3b 50600001         ldiu      1,r0
     6220 00000b3c 50490303         ldiu      *+fp(3),ar1
     6221 00000b3d 19d10b02         subri     *-fp(2),ir0           ; Unsigned
     6222 00000b3e 506100ff         ldiu      255,r1
     6223 00000b3f 50520b04         ldiu      *-fp(4),ir1
     6224 00000b40 0af1002e         mpyi      46,ir0
     6225 00000b41 02680014         addi      20,ar0
     6226 00000b42 02510301         addi      *+fp(1),ir0           ; Unsigned
     6227 00000b43 02000009         addi      ar1,r0
     6228 00000b44 21a14001         and3      r1,*+ar0(ir0),r1
     6229 00000b45 15400303         sti       r0,*+fp(3)
     6230 00000b46 15418100         sti       r1,*+ar1(ir1)
     6231 00000b47          L349:        
     6232                           .line   22
     6233 00000b47 50600001         ldiu      1,r0
     6234 00000b48 02400301         addi      *+fp(1),r0
     6235 00000b49 15400301         sti       r0,*+fp(1)
     6236 00000b4a 04e0000f         cmpi      15,r0
     6237 00000b4b 6a07ffe3         blt       L347
     6238                   ;*      Branch Occurs to L347 
     6239 00000b4c          L350:        
     6240                           .line   33
     6241 00000b4c 50530b01         ldiu      *-fp(1),bk
     6242 00000b4d 504bc300         ldiu      *fp,fp
     6243 00000b4e 187411fd         subi      4605,sp
     6244 00000b4f 68000013         bu        bk
     6245                   ;*      Branch Occurs to bk 
     6246                           .endfunc        1083,000000000h,4603
     6247                   
     6248                   
     6249 00000b50                  .sect    ".text"
     6250                   
     6251                           .global _NVSRAM_Comp_StopP
     6252                           .sym    _NVSRAM_Comp_StopP,_NVSRAM_Comp_StopP,44,2,0
     6253                           .func   1095
     6254                   ;******************************************************************************
     6255                   ;* FUNCTION NAME: _NVSRAM_Comp_StopP                                          *
     6256                   ;*                                                                            *
     6257                   ;*   Architecture       : TMS320C30                                           *
     6258                   ;*   Calling Convention : Stack Parameter Convention                          *
     6259                   ;*   Function Uses Regs : r0,r1,r2,ar0,ar1,ir0,st                             *
     6260                   ;*   Regs Saved         :                                                     *
     6261                   ;*   Stack Frame        : Full (w/ debug)                                     *
     6262                   ;*   Total Frame Size   : 2 Call + 2 Parm + 5 Auto + 0 SOE = 9 words          *
     6263                   ;******************************************************************************
     6264 00000b50          _NVSRAM_Comp_StopP:
TMS320C3x/4x COFF AssemblerVersion 5.11     Tue Dec  7 12:02:21 2010
Copyright (c) 1987-1999 Texas Instruments Incorporatedc:\lang\tms320c3x\511\bin\asm30.exe -l cf.asm cf.obj -tC:\Users\jds\AppData\Local\Temp\cf.tmp 

cf.asm                                                               PAGE  117

     6265                           .sym    _No,-2,13,9,32
     6266                           .sym    _pData,-3,28,9,32
     6267                           .sym    _i,1,4,1,32
     6268                           .sym    _l,2,4,1,32
     6269                           .sym    _j,3,4,1,32
     6270                           .sym    _nStaNumReturn,4,4,1,32
     6271                           .sym    _pStopPat,5,24,1,32,.fake16
     6272                           .line   1
     6273                   ;----------------------------------------------------------------------
     6274                   ; 1095 | UCHAR NVSRAM_Comp_StopP(WORD No,UCHAR *pData)                          
     6275                   ;----------------------------------------------------------------------
     6276 00000b50 0f2b0000         push      fp
     6277 00000b51 500b0014         ldiu      sp,fp
     6278 00000b52 02740005         addi      5,sp
     6279                           .line   2
     6280                           .line   3
     6281                   ;----------------------------------------------------------------------
     6282                   ; 1097 | int i,l,j=0,nStaNumReturn = 0;                                         
     6283                   ;----------------------------------------------------------------------
     6284 00000b53 50600000         ldiu      0,r0
     6285 00000b54 15400303         sti       r0,*+fp(3)
     6286 00000b55 15400304         sti       r0,*+fp(4)
     6287                           .line   5
     6288                   ;----------------------------------------------------------------------
     6289                   ; 1099 | PSTOPPATTERN pStopPat = (STOPPATTERN *)ADD_NVSRAM_STOP_PAT;            
     6290                   ;----------------------------------------------------------------------
     6291 00000b56 502010fd-        ldiu      @CL60,r0
     6292 00000b57 15400305         sti       r0,*+fp(5)
     6293                           .line   7
     6294                   ;----------------------------------------------------------------------
     6295                   ; 1101 | if(WORD_L(pStopPat->nHead.nData_Type) == 60)                           
     6296                   ;----------------------------------------------------------------------
     6297 00000b58 50080000         ldiu      r0,ar0
     6298 00000b59 506000ff         ldiu      255,r0
     6299 00000b5a 21a0c000         and3      r0,*ar0,r0
     6300 00000b5b 04e0003c         cmpi      60,r0
     6301 00000b5c 6a060032         bne       L361
     6302                   ;*      Branch Occurs to L361 
     6303                           .line   9
     6304                   ;----------------------------------------------------------------------
     6305                   ; 1103 | for(i=0;i<MAX_STOP_PAT;i++)                                            
     6306                   ;----------------------------------------------------------------------
     6307 00000b5d 50600000         ldiu      0,r0
     6308 00000b5e 15400301         sti       r0,*+fp(1)
     6309 00000b5f 04e0012c         cmpi      300,r0
     6310 00000b60 6a0a002e         bge       L361
     6311                   ;*      Branch Occurs to L361 
     6312 00000b61          L354:        
     6313                           .line   11
     6314                   ;----------------------------------------------------------------------
     6315                   ; 1105 | if(WORD_L(No) == WORD_L(pStopPat->nBody[i].nStopPatNum))               
     6316                   ;----------------------------------------------------------------------
     6317 00000b61 50480301         ldiu      *+fp(1),ar0
     6318 00000b62 506100ff         ldiu      255,r1
TMS320C3x/4x COFF AssemblerVersion 5.11     Tue Dec  7 12:02:21 2010
Copyright (c) 1987-1999 Texas Instruments Incorporatedc:\lang\tms320c3x\511\bin\asm30.exe -l cf.asm cf.obj -tC:\Users\jds\AppData\Local\Temp\cf.tmp 

cf.asm                                                               PAGE  118

     6319 00000b63 0ae8007e         mpyi      126,ar0
     6320 00000b64 506000ff         ldiu      255,r0
     6321 00000b65 02480305         addi      *+fp(5),ar0           ; Unsigned
     6322 00000b66 02c10b02         and       *-fp(2),r1
     6323 00000b67 02c00002         and       *+ar0(2),r0
     6324 00000b68 23800100         cmpi3     r0,r1
     6325 00000b69 6a060020         bne       L360
     6326                   ;*      Branch Occurs to L360 
     6327                           .line   13
     6328                   ;----------------------------------------------------------------------
     6329                   ; 1107 | nStaNumReturn = WORD_L(pStopPat->nBody[i].nStation_Count);             
     6330                   ;----------------------------------------------------------------------
     6331 00000b6a 50480301         ldiu      *+fp(1),ar0
     6332 00000b6b 0ae8007e         mpyi      126,ar0
     6333 00000b6c 02480305         addi      *+fp(5),ar0           ; Unsigned
     6334 00000b6d 506000ff         ldiu      255,r0
     6335 00000b6e 02c00005         and       *+ar0(5),r0
     6336 00000b6f 15400304         sti       r0,*+fp(4)
     6337                           .line   14
     6338                   ;----------------------------------------------------------------------
     6339                   ; 1108 | for(j=0;j<WORD_L(pStopPat->nBody[i].nStation_Count);j++)               
     6340                   ;----------------------------------------------------------------------
     6341 00000b70 50600000         ldiu      0,r0
     6342 00000b71 15400303         sti       r0,*+fp(3)
     6343 00000b72 6a00000b         bu        L358
     6344                   ;*      Branch Occurs to L358 
     6345                           .line   16
     6346                   ;----------------------------------------------------------------------
     6347                   ; 1110 | pData[j] = WORD_L(pStopPat->nBody[i].nStopPatIndex[j].nStationCode);   
     6348                   ;----------------------------------------------------------------------
     6349 00000b73          L357:        
     6350 00000b73 50510b03         ldiu      *-fp(3),ir0
     6351 00000b74 0ae0007e         mpyi      126,r0
     6352 00000b75 03e20001         ash       1,r2
     6353 00000b76 02400305         addi      *+fp(5),r0            ; Unsigned
     6354 00000b77 21090002         addi3     r2,r0,ar1             ; Unsigned
     6355 00000b78 50480303         ldiu      *+fp(3),ar0
     6356 00000b79 02c10108         and       *+ar1(8),r1
     6357 00000b7a 15414000         sti       r1,*+ar0(ir0)
     6358                           .line   14
     6359 00000b7b 50600001         ldiu      1,r0
     6360 00000b7c 02400303         addi      *+fp(3),r0
     6361 00000b7d 15400303         sti       r0,*+fp(3)
     6362 00000b7e          L358:        
     6363 00000b7e 50480301         ldiu      *+fp(1),ar0
     6364 00000b7f 0ae8007e         mpyi      126,ar0
     6365 00000b80 506000ff         ldiu      255,r0
     6366 00000b81 02480305         addi      *+fp(5),ar0           ; Unsigned
     6367 00000b82 50410303         ldiu      *+fp(3),r1
     6368 00000b83 02c00005         and       *+ar0(5),r0
     6369 00000b84 23800100         cmpi3     r0,r1
     6370 00000b85 6a21ffeb         blod      L357
     6371 00000b86 50c00301         ldilo     *+fp(1),r0
     6372 00000b87 50c20303         ldilo     *+fp(3),r2
TMS320C3x/4x COFF AssemblerVersion 5.11     Tue Dec  7 12:02:21 2010
Copyright (c) 1987-1999 Texas Instruments Incorporatedc:\lang\tms320c3x\511\bin\asm30.exe -l cf.asm cf.obj -tC:\Users\jds\AppData\Local\Temp\cf.tmp 

cf.asm                                                               PAGE  119

     6373 00000b88 50e100ff         ldilo     255,r1
     6374                   ;*      Branch Occurs to L357 
     6375                           .line   19
     6376                   ;----------------------------------------------------------------------
     6377                   ; 1113 | break;                                                                 
     6378                   ;----------------------------------------------------------------------
     6379 00000b89 6a000005         bu        L361
     6380                   ;*      Branch Occurs to L361 
     6381 00000b8a          L360:        
     6382                           .line   9
     6383 00000b8a 50600001         ldiu      1,r0
     6384 00000b8b 02400301         addi      *+fp(1),r0
     6385 00000b8c 15400301         sti       r0,*+fp(1)
     6386 00000b8d 04e0012c         cmpi      300,r0
     6387 00000b8e 6a07ffd2         blt       L354
     6388                   ;*      Branch Occurs to L354 
     6389 00000b8f          L361:        
     6390                           .line   23
     6391                   ;----------------------------------------------------------------------
     6392                   ; 1117 | return nStaNumReturn;                                                  
     6393                   ;----------------------------------------------------------------------
     6394 00000b8f 50400304         ldiu      *+fp(4),r0
     6395                           .line   24
     6396 00000b90 50510b01         ldiu      *-fp(1),ir0
     6397 00000b91 504bc300         ldiu      *fp,fp
     6398 00000b92 18740007         subi      7,sp
     6399 00000b93 68000011         bu        ir0
     6400                   ;*      Branch Occurs to ir0 
     6401                           .endfunc        1118,000000000h,5
     6402                   
     6403                   
     6404 00000b94                  .sect    ".text"
     6405                   
     6406                           .global _NVSRAM_Comp_TrainNo
     6407                           .sym    _NVSRAM_Comp_TrainNo,_NVSRAM_Comp_TrainNo,45,2,0
     6408                           .func   1130
     6409                   ;******************************************************************************
     6410                   ;* FUNCTION NAME: _NVSRAM_Comp_TrainNo                                        *
     6411                   ;*                                                                            *
     6412                   ;*   Architecture       : TMS320C30                                           *
     6413                   ;*   Calling Convention : Stack Parameter Convention                          *
     6414                   ;*   Function Uses Regs : r0,r1,r2,ar0,ar1,fp,ir0,sp,st                       *
     6415                   ;*   Regs Saved         :                                                     *
     6416                   ;*   Stack Frame        : Full (w/ debug)                                     *
     6417                   ;*   Total Frame Size   : 2 Call + 1 Parm + 12 Auto + 0 SOE = 15 words        *
     6418                   ;******************************************************************************
     6419 00000b94          _NVSRAM_Comp_TrainNo:
     6420                           .sym    _pData,-2,28,9,32
     6421                           .sym    _i,1,4,1,32
     6422                           .sym    _l,2,4,1,32
     6423                           .sym    _j,3,4,1,32
     6424                           .sym    _nStaNumReturn,4,4,1,32
     6425                           .sym    _nData,5,12,1,32
     6426                           .sym    _nTrainNumData,6,60,1,160,,5
TMS320C3x/4x COFF AssemblerVersion 5.11     Tue Dec  7 12:02:21 2010
Copyright (c) 1987-1999 Texas Instruments Incorporatedc:\lang\tms320c3x\511\bin\asm30.exe -l cf.asm cf.obj -tC:\Users\jds\AppData\Local\Temp\cf.tmp 

cf.asm                                                               PAGE  120

     6427                           .sym    _sTrainFlag,11,12,1,32
     6428                           .sym    _pDiaList,12,24,1,32,.fake11
     6429                           .line   1
     6430                   ;----------------------------------------------------------------------
     6431                   ; 1130 | WORD NVSRAM_Comp_TrainNo(UCHAR *pData) // No : 열차번호                
     6432                   ;----------------------------------------------------------------------
     6433 00000b94 0f2b0000         push      fp
     6434 00000b95 500b0014         ldiu      sp,fp
     6435 00000b96 0274000c         addi      12,sp
     6436                           .line   2
     6437                           .line   4
     6438                   ;----------------------------------------------------------------------
     6439                   ; 1133 | int i,l,j=0,nStaNumReturn = 0;                                         
     6440                   ;----------------------------------------------------------------------
     6441 00000b97 50600000         ldiu      0,r0
     6442 00000b98 15400303         sti       r0,*+fp(3)
     6443 00000b99 15400304         sti       r0,*+fp(4)
     6444                           .line   5
     6445                   ;----------------------------------------------------------------------
     6446                   ; 1134 | UCHAR nData = 0;                                                       
     6447                   ; 1135 | UCHAR nTrainNumData[5];                                                
     6448                   ;----------------------------------------------------------------------
     6449 00000b9a 15400305         sti       r0,*+fp(5)
     6450                           .line   7
     6451                   ;----------------------------------------------------------------------
     6452                   ; 1136 | UCHAR sTrainFlag = 0;                                                  
     6453                   ;----------------------------------------------------------------------
     6454 00000b9b 1540030b         sti       r0,*+fp(11)
     6455                           .line   9
     6456                   ;----------------------------------------------------------------------
     6457                   ; 1138 | PDIA_LIST pDiaList = (DIA_LIST *) ADD_NVSRAM_DIA;                      
     6458                   ;----------------------------------------------------------------------
     6459 00000b9c 50201103-        ldiu      @CL66,r0
     6460 00000b9d 1540030c         sti       r0,*+fp(12)
     6461                           .line   11
     6462                   ;----------------------------------------------------------------------
     6463                   ; 1140 | for(l=0;l<10;l++)                                                      
     6464                   ;----------------------------------------------------------------------
     6465 00000b9e 50600000         ldiu      0,r0
     6466 00000b9f 15400302         sti       r0,*+fp(2)
     6467 00000ba0 04e0000a         cmpi      10,r0
     6468 00000ba1 6a0a0057         bge       L376
     6469                   ;*      Branch Occurs to L376 
     6470 00000ba2          L365:        
     6471                           .line   14
     6472                   ;----------------------------------------------------------------------
     6473                   ; 1143 | if(WORD_L(pDiaList->nDiaList[l].nHead.nData_Type) == 50)               
     6474                   ; 1145 |         //nData = MAKE_WORD(pDiaList->nHead.nTrain_Num_Cnt[1],pDiaList-
     6475                   ;     | >nHead.nTrain_Num_Cnt[0]);                                             
     6476                   ;----------------------------------------------------------------------
     6477 00000ba2 50480302         ldiu      *+fp(2),ar0
     6478 00000ba3 5051030c         ldiu      *+fp(12),ir0
     6479 00000ba4 0ae8007d         mpyi      125,ar0
     6480 00000ba5 506000ff         ldiu      255,r0
TMS320C3x/4x COFF AssemblerVersion 5.11     Tue Dec  7 12:02:21 2010
Copyright (c) 1987-1999 Texas Instruments Incorporatedc:\lang\tms320c3x\511\bin\asm30.exe -l cf.asm cf.obj -tC:\Users\jds\AppData\Local\Temp\cf.tmp 

cf.asm                                                               PAGE  121

     6481 00000ba6 21a04000         and3      r0,*+ar0(ir0),r0
     6482 00000ba7 04e00032         cmpi      50,r0
     6483 00000ba8 6a06004b         bne       L375
     6484                   ;*      Branch Occurs to L375 
     6485                           .line   17
     6486                   ;----------------------------------------------------------------------
     6487                   ; 1146 | nData = WORD_L(pDiaList->nDiaList[l].nHead.nTrain_Num_Cnt);            
     6488                   ;----------------------------------------------------------------------
     6489 00000ba9 50480302         ldiu      *+fp(2),ar0
     6490 00000baa 0ae8007d         mpyi      125,ar0
     6491 00000bab 0248030c         addi      *+fp(12),ar0          ; Unsigned
     6492 00000bac 506000ff         ldiu      255,r0
     6493 00000bad 02c00004         and       *+ar0(4),r0
     6494 00000bae 15400305         sti       r0,*+fp(5)
     6495                           .line   18
     6496                   ;----------------------------------------------------------------------
     6497                   ; 1147 | nNvsram_Variable.nStop_Patten_Num = 0;  //확인 하기전에 초기화 한다.   
     6498                   ;----------------------------------------------------------------------
     6499 00000baf 50600000         ldiu      0,r0
     6500 00000bb0 15200ed0-        sti       r0,@_nNvsram_Variable+3
     6501                           .line   19
     6502                   ;----------------------------------------------------------------------
     6503                   ; 1148 | nNvsram_Variable.nTrainClass_Num =0;    //확인 하기전에 초기화 한다.   
     6504                   ;----------------------------------------------------------------------
     6505 00000bb1 15200ed1-        sti       r0,@_nNvsram_Variable+4
     6506                           .line   21
     6507                   ;----------------------------------------------------------------------
     6508                   ; 1150 | for(i=0;i<nData;i++)                                                   
     6509                   ;----------------------------------------------------------------------
     6510 00000bb2 15400301         sti       r0,*+fp(1)
     6511 00000bb3 50400301         ldiu      *+fp(1),r0
     6512 00000bb4 04c00305         cmpi      *+fp(5),r0
     6513 00000bb5 6a04003c         bhs       L373
     6514                   ;*      Branch Occurs to L373 
     6515 00000bb6          L367:        
     6516                           .line   23
     6517                   ;----------------------------------------------------------------------
     6518                   ; 1152 | for(j=0;j<5;j++) { nTrainNumData[j] = WORD_L(pDiaList->nDiaList[l].nBod
     6519                   ;     | y[i].nTrain_Num[j]);}                                                  
     6520                   ;----------------------------------------------------------------------
     6521 00000bb6 50600000         ldiu      0,r0
     6522 00000bb7 15400303         sti       r0,*+fp(3)
     6523 00000bb8 04e00005         cmpi      5,r0
     6524 00000bb9 6a0a0012         bge       L369
     6525                   ;*      Branch Occurs to L369 
     6526 00000bba          L368:        
     6527 00000bba 50410302         ldiu      *+fp(2),r1
     6528 00000bbb 50420301         ldiu      *+fp(1),r2
     6529 00000bbc 5008000b         ldiu      fp,ar0
     6530 00000bbd 506000ff         ldiu      255,r0
     6531 00000bbe 50510303         ldiu      *+fp(3),ir0
     6532 00000bbf 0ae1007d         mpyi      125,r1
     6533 00000bc0 0ae2000c         mpyi      12,r2
     6534 00000bc1 0241030c         addi      *+fp(12),r1           ; Unsigned
TMS320C3x/4x COFF AssemblerVersion 5.11     Tue Dec  7 12:02:21 2010
Copyright (c) 1987-1999 Texas Instruments Incorporatedc:\lang\tms320c3x\511\bin\asm30.exe -l cf.asm cf.obj -tC:\Users\jds\AppData\Local\Temp\cf.tmp 

cf.asm                                                               PAGE  122

     6535 00000bc2 21090102         addi3     r2,r1,ar1             ; Unsigned
     6536 00000bc3 02490303         addi      *+fp(3),ar1           ; Unsigned
     6537 00000bc4 02680006         addi      6,ar0
     6538 00000bc5 02c00105         and       *+ar1(5),r0
     6539 00000bc6 15404000         sti       r0,*+ar0(ir0)
     6540 00000bc7 50600001         ldiu      1,r0
     6541 00000bc8 02400303         addi      *+fp(3),r0
     6542 00000bc9 15400303         sti       r0,*+fp(3)
     6543 00000bca 04e00005         cmpi      5,r0
     6544 00000bcb 6a07ffee         blt       L368
     6545                   ;*      Branch Occurs to L368 
     6546 00000bcc          L369:        
     6547                           .line   25
     6548                   ;----------------------------------------------------------------------
     6549                   ; 1154 | if(!memcmp(nTrainNumData,&pData[1],4))                                 
     6550                   ;----------------------------------------------------------------------
     6551 00000bcc 50600001         ldiu      1,r0
     6552 00000bcd 50620004         ldiu      4,r2
     6553 00000bce 5001000b         ldiu      fp,r1
     6554 00000bcf 02400b02         addi      *-fp(2),r0            ; Unsigned
     6555 00000bd0 0f220000         push      r2
     6556 00000bd1 02610006         addi      6,r1
     6557 00000bd2 0f200000         push      r0
     6558 00000bd3 0f210000         push      r1
     6559 00000bd4 62000000!        call      _memcmp
     6560                                                           ; Call Occurs
     6561 00000bd5 04e00000         cmpi      0,r0
     6562 00000bd6 6a260014         bned      L372
     6563 00000bd7 18740003         subi      3,sp
     6564 00000bd8 0c800000         nop
     6565 00000bd9 53600001         ldine     1,r0
     6566                   ;*      Branch Occurs to L372 
     6567                           .line   27
     6568                   ;----------------------------------------------------------------------
     6569                   ; 1156 | nNvsram_Variable.nStop_Patten_Num = pDiaList->nDiaList[l].nBody[i].nSto
     6570                   ;     | p_Pat_Num;                                                             
     6571                   ;----------------------------------------------------------------------
     6572 00000bda 50400302         ldiu      *+fp(2),r0
     6573 00000bdb 50410301         ldiu      *+fp(1),r1
     6574 00000bdc 0ae0007d         mpyi      125,r0
     6575 00000bdd 0ae1000c         mpyi      12,r1
     6576 00000bde 0240030c         addi      *+fp(12),r0           ; Unsigned
     6577 00000bdf 21080001         addi3     r1,r0,ar0             ; Unsigned
     6578 00000be0 5040000b         ldiu      *+ar0(11),r0
     6579 00000be1 15200ed0-        sti       r0,@_nNvsram_Variable+3
     6580                           .line   28
     6581                   ;----------------------------------------------------------------------
     6582                   ; 1157 | nNvsram_Variable.nTrainClass_Num =  pDiaList->nDiaList[l].nBody[i].nTra
     6583                   ;     | in_Class;                                                              
     6584                   ;----------------------------------------------------------------------
     6585 00000be2 50410301         ldiu      *+fp(1),r1
     6586 00000be3 0ae1000c         mpyi      12,r1
     6587 00000be4 50400302         ldiu      *+fp(2),r0
     6588 00000be5 0ae0007d         mpyi      125,r0
TMS320C3x/4x COFF AssemblerVersion 5.11     Tue Dec  7 12:02:21 2010
Copyright (c) 1987-1999 Texas Instruments Incorporatedc:\lang\tms320c3x\511\bin\asm30.exe -l cf.asm cf.obj -tC:\Users\jds\AppData\Local\Temp\cf.tmp 

cf.asm                                                               PAGE  123

     6589 00000be6 0240030c         addi      *+fp(12),r0           ; Unsigned
     6590 00000be7 21080001         addi3     r1,r0,ar0             ; Unsigned
     6591 00000be8 5040000f         ldiu      *+ar0(15),r0
     6592 00000be9 15200ed1-        sti       r0,@_nNvsram_Variable+4
     6593                           .line   29
     6594                   ;----------------------------------------------------------------------
     6595                   ; 1158 | sTrainFlag = 1;                                                        
     6596                   ;----------------------------------------------------------------------
     6597 00000bea 50600001         ldiu      1,r0
     6598 00000beb 1540030b         sti       r0,*+fp(11)
     6599                           .line   30
     6600                   ;----------------------------------------------------------------------
     6601                   ; 1159 | break;                                                                 
     6602                   ;----------------------------------------------------------------------
     6603 00000bec 6a000005         bu        L373
     6604                   ;*      Branch Occurs to L373 
     6605                           .line   21
     6606 00000bed          L372:        
     6607 00000bed 02400301         addi      *+fp(1),r0
     6608 00000bee 15400301         sti       r0,*+fp(1)
     6609 00000bef 50400301         ldiu      *+fp(1),r0
     6610 00000bf0 04c00305         cmpi      *+fp(5),r0
     6611 00000bf1 6a01ffc4         blo       L367
     6612                   ;*      Branch Occurs to L367 
     6613 00000bf2          L373:        
     6614                           .line   34
     6615                   ;----------------------------------------------------------------------
     6616                   ; 1163 | if(sTrainFlag) {break;}                                                
     6617                   ;----------------------------------------------------------------------
     6618 00000bf2 0840030b         ldi       *+fp(11),r0
     6619 00000bf3 6a060005         bne       L376
     6620                   ;*      Branch Occurs to L376 
     6621 00000bf4          L375:        
     6622                           .line   11
     6623 00000bf4 50600001         ldiu      1,r0
     6624 00000bf5 02400302         addi      *+fp(2),r0
     6625 00000bf6 15400302         sti       r0,*+fp(2)
     6626 00000bf7 04e0000a         cmpi      10,r0
     6627 00000bf8 6a07ffa9         blt       L365
     6628                   ;*      Branch Occurs to L365 
     6629 00000bf9          L376:        
     6630                           .line   39
     6631                   ;----------------------------------------------------------------------
     6632                   ; 1168 | return nNvsram_Variable.nStop_Patten_Num;                              
     6633                   ;----------------------------------------------------------------------
     6634 00000bf9 50200ed0-        ldiu      @_nNvsram_Variable+3,r0
     6635                           .line   40
     6636 00000bfa 50530b01         ldiu      *-fp(1),bk
     6637 00000bfb 504bc300         ldiu      *fp,fp
     6638 00000bfc 1874000e         subi      14,sp
     6639 00000bfd 68000013         bu        bk
     6640                   ;*      Branch Occurs to bk 
     6641                           .endfunc        1169,000000000h,12
     6642                   
TMS320C3x/4x COFF AssemblerVersion 5.11     Tue Dec  7 12:02:21 2010
Copyright (c) 1987-1999 Texas Instruments Incorporatedc:\lang\tms320c3x\511\bin\asm30.exe -l cf.asm cf.obj -tC:\Users\jds\AppData\Local\Temp\cf.tmp 

cf.asm                                                               PAGE  124

     6643                   
     6644 00000bfe                  .sect    ".text"
     6645                   
     6646                           .global _NVSRAM_Find_StationRoot
     6647                           .sym    _NVSRAM_Find_StationRoot,_NVSRAM_Find_StationRoot,44,2,0
     6648                           .func   1173
     6649                   ;******************************************************************************
     6650                   ;* FUNCTION NAME: _NVSRAM_Find_StationRoot                                    *
     6651                   ;*                                                                            *
     6652                   ;*   Architecture       : TMS320C30                                           *
     6653                   ;*   Calling Convention : Stack Parameter Convention                          *
     6654                   ;*   Function Uses Regs : r0,r1,r2,r3,ar0,ar1,fp,ir0,sp,st,rs,re,rc           *
     6655                   ;*   Regs Saved         :                                                     *
     6656                   ;*   Stack Frame        : Full (w/ debug)                                     *
     6657                   ;*   Total Frame Size   : 2 Call + 2 Parm + 4625 Auto + 0 SOE = 4629 words    *
     6658                   ;******************************************************************************
     6659 00000bfe          _NVSRAM_Find_StationRoot:
     6660                           .sym    _ScreenNo,-2,13,9,32
     6661                           .sym    _nLen,-3,13,9,32
     6662                           .sym    _nTemp,1,60,1,640,,20
     6663                           .sym    _i,21,4,1,32
     6664                           .sym    _k,22,4,1,32
     6665                           .sym    _l,23,4,1,32
     6666                           .sym    _j,24,4,1,32
     6667                           .sym    _Data,25,4,1,32
     6668                           .sym    _sStationNameAll,26,56,1,147200,.fake2,100
     6669                           .line   1
     6670                   ;----------------------------------------------------------------------
     6671                   ; 1173 | UCHAR NVSRAM_Find_StationRoot(WORD ScreenNo,WORD nLen)  // No 역명 읽기
     6672                   ;     |                                                                        
     6673                   ;----------------------------------------------------------------------
     6674 00000bfe 0f2b0000         push      fp
     6675 00000bff 500b0014         ldiu      sp,fp
     6676 00000c00 02741211         addi      4625,sp
     6677                           .line   2
     6678                   ;----------------------------------------------------------------------
     6679                   ; 1175 | UCHAR nTemp[20];                                                       
     6680                   ;----------------------------------------------------------------------
     6681                           .line   4
     6682                   ;----------------------------------------------------------------------
     6683                   ; 1176 | int i,k,l,j=0;                                                         
     6684                   ; 1177 | int Data;                                                              
     6685                   ; 1179 | STATION_NAME_ALL sStationNameAll[100];                                 
     6686                   ;----------------------------------------------------------------------
     6687 00000c01 50600000         ldiu      0,r0
     6688 00000c02 15400318         sti       r0,*+fp(24)
     6689                           .line   8
     6690                   ;----------------------------------------------------------------------
     6691                   ; 1180 | NVSRAM_Rd_StationName_Total(sStationNameAll);                          
     6692                   ;----------------------------------------------------------------------
     6693 00000c03 5000000b         ldiu      fp,r0
     6694 00000c04 0260001a         addi      26,r0
     6695 00000c05 0f200000         push      r0
     6696 00000c06 62000a13'        call      _NVSRAM_Rd_StationName_Total
TMS320C3x/4x COFF AssemblerVersion 5.11     Tue Dec  7 12:02:21 2010
Copyright (c) 1987-1999 Texas Instruments Incorporatedc:\lang\tms320c3x\511\bin\asm30.exe -l cf.asm cf.obj -tC:\Users\jds\AppData\Local\Temp\cf.tmp 

cf.asm                                                               PAGE  125

     6697                                                           ; Call Occurs
     6698 00000c07 18740001         subi      1,sp
     6699                           .line   10
     6700                   ;----------------------------------------------------------------------
     6701                   ; 1182 | for(i=ScreenNo*10;i<ScreenNo*10+nLen;i++)                       // i =
     6702                   ;     | 1이상일것                                                              
     6703                   ;----------------------------------------------------------------------
     6704 00000c08 50400b02         ldiu      *-fp(2),r0
     6705 00000c09 0ae0000a         mpyi      10,r0
     6706 00000c0a 15400315         sti       r0,*+fp(21)
     6707 00000c0b 50400b02         ldiu      *-fp(2),r0
     6708 00000c0c 0ae0000a         mpyi      10,r0
     6709 00000c0d 50410315         ldiu      *+fp(21),r1
     6710 00000c0e 02400b03         addi      *-fp(3),r0            ; Unsigned
     6711 00000c0f 23800100         cmpi3     r0,r1
     6712 00000c10 6a040063         bhs       L388
     6713                   ;*      Branch Occurs to L388 
     6714 00000c11          L380:        
     6715                           .line   12
     6716                   ;----------------------------------------------------------------------
     6717                   ; 1184 | Data = WORD_L(nNvsram_Variable.nDestCodeList[i]);                      
     6718                   ;----------------------------------------------------------------------
     6719 00000c11 50510315         ldiu      *+fp(21),ir0
     6720 00000c12 50281104-        ldiu      @CL67,ar0
     6721 00000c13 506000ff         ldiu      255,r0
     6722 00000c14 21a04000         and3      r0,*+ar0(ir0),r0
     6723 00000c15 15400319         sti       r0,*+fp(25)
     6724                           .line   13
     6725                   ;----------------------------------------------------------------------
     6726                   ; 1185 | nNvsram_Variable.nDestScreen[i-ScreenNo*10].nStationCode = Data;       
     6727                   ;----------------------------------------------------------------------
     6728 00000c16 50510b02         ldiu      *-fp(2),ir0
     6729 00000c17 0af1000a         mpyi      10,ir0
     6730 00000c18 19d10315         subri     *+fp(21),ir0          ; Unsigned
     6731 00000c19 50281105-        ldiu      @CL68,ar0
     6732 00000c1a 03f10004         ash       4,ir0
     6733 00000c1b 50400319         ldiu      *+fp(25),r0
     6734 00000c1c 15404000         sti       r0,*+ar0(ir0)
     6735                           .line   15
     6736                   ;----------------------------------------------------------------------
     6737                   ; 1187 | if(WORD_L(Data) == WORD_L(sStationNameAll[Data-1].StationCode))        
     6738                   ;----------------------------------------------------------------------
     6739 00000c1d 506100ff         ldiu      255,r1
     6740 00000c1e 50710001         ldiu      1,ir0
     6741 00000c1f 5008000b         ldiu      fp,ar0
     6742 00000c20 19d10319         subri     *+fp(25),ir0
     6743 00000c21 0268001a         addi      26,ar0
     6744 00000c22 0af1002e         mpyi      46,ir0
     6745 00000c23 506000ff         ldiu      255,r0
     6746 00000c24 21a14001         and3      r1,*+ar0(ir0),r1
     6747 00000c25 02c00319         and       *+fp(25),r0
     6748 00000c26 23800001         cmpi3     r1,r0
     6749 00000c27 6a06002e         bne       L386
     6750                   ;*      Branch Occurs to L386 
TMS320C3x/4x COFF AssemblerVersion 5.11     Tue Dec  7 12:02:21 2010
Copyright (c) 1987-1999 Texas Instruments Incorporatedc:\lang\tms320c3x\511\bin\asm30.exe -l cf.asm cf.obj -tC:\Users\jds\AppData\Local\Temp\cf.tmp 

cf.asm                                                               PAGE  126

     6751                           .line   17
     6752                   ;----------------------------------------------------------------------
     6753                   ; 1189 | l=0;                                                                   
     6754                   ;----------------------------------------------------------------------
     6755 00000c28 50600000         ldiu      0,r0
     6756 00000c29 15400317         sti       r0,*+fp(23)
     6757                           .line   18
     6758                   ;----------------------------------------------------------------------
     6759                   ; 1190 | memcpy(nTemp,sStationNameAll[Data-1].IranName,15);                     
     6760                   ;----------------------------------------------------------------------
     6761 00000c2a 5008000b         ldiu      fp,ar0
     6762 00000c2b 5001000b         ldiu      fp,r1
     6763 00000c2c 02680001         addi      1,ar0
     6764 00000c2d 50600001         ldiu      1,r0
     6765 00000c2e 0261002a         addi      42,r1
     6766 00000c2f 19c00319         subri     *+fp(25),r0
     6767 00000c30 0ae0002e         mpyi      46,r0
     6768 00000c31 21090001         addi3     r1,r0,ar1             ; Unsigned
     6769 00000c32 50402101         ldiu      *ar1++(1),r0
     6770 00000c33 13fb000d         rpts      13                    ; Fast MEMCPY(#27)
     6771 00000c34 da002021         sti       r0,*ar0++(1)
     6772                   ||      ldi       *ar1++(1),r0
     6773 00000c35 15402001         sti       r0,*ar0++(1)
     6774                           .line   19
     6775                   ;----------------------------------------------------------------------
     6776                   ; 1191 | for(k=0;k<15;k++)                                                      
     6777                   ;----------------------------------------------------------------------
     6778 00000c36 50600000         ldiu      0,r0
     6779 00000c37 15400316         sti       r0,*+fp(22)
     6780 00000c38 04e0000f         cmpi      15,r0
     6781 00000c39 6a0a0031         bge       L387
     6782                   ;*      Branch Occurs to L387 
     6783 00000c3a          L382:        
     6784                           .line   21
     6785                   ;----------------------------------------------------------------------
     6786                   ; 1193 | if(WORD_L(nTemp[k])!=0x20)                                             
     6787                   ;----------------------------------------------------------------------
     6788 00000c3a 5008000b         ldiu      fp,ar0
     6789 00000c3b 50510316         ldiu      *+fp(22),ir0
     6790 00000c3c 02680001         addi      1,ar0
     6791 00000c3d 506000ff         ldiu      255,r0
     6792 00000c3e 21a04000         and3      r0,*+ar0(ir0),r0
     6793 00000c3f 04e00020         cmpi      32,r0
     6794 00000c40 6a05000f         beq       L384
     6795                   ;*      Branch Occurs to L384 
     6796                           .line   23
     6797                   ;----------------------------------------------------------------------
     6798                   ; 1195 | nNvsram_Variable.nDestScreen[i-ScreenNo*10].nStationName[l++]=WORD_L(nT
     6799                   ;     | emp[k]);                                                               
     6800                   ; 1199 | else                                                                   
     6801                   ;----------------------------------------------------------------------
     6802 00000c41 50410317         ldiu      *+fp(23),r1
     6803 00000c42 5008000b         ldiu      fp,ar0
     6804 00000c43 50400b02         ldiu      *-fp(2),r0
TMS320C3x/4x COFF AssemblerVersion 5.11     Tue Dec  7 12:02:21 2010
Copyright (c) 1987-1999 Texas Instruments Incorporatedc:\lang\tms320c3x\511\bin\asm30.exe -l cf.asm cf.obj -tC:\Users\jds\AppData\Local\Temp\cf.tmp 

cf.asm                                                               PAGE  127

     6805 00000c44 506200ff         ldiu      255,r2
     6806 00000c45 50630001         ldiu      1,r3
     6807 00000c46 0ae0000a         mpyi      10,r0
     6808 00000c47 02680001         addi      1,ar0
     6809 00000c48 50291106-        ldiu      @CL69,ar1
     6810 00000c49 19c00315         subri     *+fp(21),r0           ; Unsigned
     6811 00000c4a 21a24002         and3      r2,*+ar0(ir0),r2
     6812 00000c4b 02030001         addi      r1,r3
     6813 00000c4c 03e00004         ash       4,r0
     6814 00000c4d 21110001         addi3     r1,r0,ir0             ; Unsigned
     6815 00000c4e 15430317         sti       r3,*+fp(23)
     6816 00000c4f 15424100         sti       r2,*+ar1(ir0)
     6817 00000c50          L384:        
     6818                           .line   19
     6819 00000c50 50600001         ldiu      1,r0
     6820 00000c51 02400316         addi      *+fp(22),r0
     6821 00000c52 15400316         sti       r0,*+fp(22)
     6822 00000c53 04e0000f         cmpi      15,r0
     6823 00000c54 6a07ffe5         blt       L382
     6824                   ;*      Branch Occurs to L382 
     6825 00000c55 6a000015         bu        L387
     6826                   ;*      Branch Occurs to L387 
     6827 00000c56          L386:        
     6828                           .line   29
     6829                   ;----------------------------------------------------------------------
     6830                   ; 1201 | Data=0;                                                                
     6831                   ;----------------------------------------------------------------------
     6832 00000c56 50600000         ldiu      0,r0
     6833 00000c57 15400319         sti       r0,*+fp(25)
     6834                           .line   30
     6835                   ;----------------------------------------------------------------------
     6836                   ; 1202 | nNvsram_Variable.nDestScreen[i-ScreenNo*10].nStationCode = Data;       
     6837                   ;----------------------------------------------------------------------
     6838 00000c58 50510b02         ldiu      *-fp(2),ir0
     6839 00000c59 0af1000a         mpyi      10,ir0
     6840 00000c5a 50281105-        ldiu      @CL68,ar0
     6841 00000c5b 19d10315         subri     *+fp(21),ir0          ; Unsigned
     6842 00000c5c 03f10004         ash       4,ir0
     6843 00000c5d 50400319         ldiu      *+fp(25),r0
     6844 00000c5e 15404000         sti       r0,*+ar0(ir0)
     6845                           .line   31
     6846                   ;----------------------------------------------------------------------
     6847                   ; 1203 | memset(nNvsram_Variable.nDestScreen[i-ScreenNo*10].nStationName,0x20,15
     6848                   ;     | );                                                                     
     6849                   ;----------------------------------------------------------------------
     6850 00000c5f 50610020         ldiu      32,r1
     6851 00000c60 50420b02         ldiu      *-fp(2),r2
     6852 00000c61 0ae2000a         mpyi      10,r2
     6853 00000c62 5060000f         ldiu      15,r0
     6854 00000c63 19c20315         subri     *+fp(21),r2           ; Unsigned
     6855 00000c64 0f200000         push      r0
     6856 00000c65 03e20004         ash       4,r2
     6857 00000c66 0f210000         push      r1
     6858 00000c67 02221106-        addi      @CL69,r2              ; Unsigned
TMS320C3x/4x COFF AssemblerVersion 5.11     Tue Dec  7 12:02:21 2010
Copyright (c) 1987-1999 Texas Instruments Incorporatedc:\lang\tms320c3x\511\bin\asm30.exe -l cf.asm cf.obj -tC:\Users\jds\AppData\Local\Temp\cf.tmp 

cf.asm                                                               PAGE  128

     6859 00000c68 0f220000         push      r2
     6860 00000c69 62000000!        call      _memset
     6861                                                           ; Call Occurs
     6862 00000c6a 18740003         subi      3,sp
     6863 00000c6b          L387:        
     6864                           .line   10
     6865 00000c6b 50600001         ldiu      1,r0
     6866 00000c6c 02400315         addi      *+fp(21),r0
     6867 00000c6d 15400315         sti       r0,*+fp(21)
     6868 00000c6e 50400b02         ldiu      *-fp(2),r0
     6869 00000c6f 50410315         ldiu      *+fp(21),r1
     6870 00000c70 0ae0000a         mpyi      10,r0
     6871 00000c71 02400b03         addi      *-fp(3),r0            ; Unsigned
     6872 00000c72 23800100         cmpi3     r0,r1
     6873 00000c73 6a01ff9d         blo       L380
     6874                   ;*      Branch Occurs to L380 
     6875 00000c74          L388:        
     6876                           .line   34
     6877 00000c74 50530b01         ldiu      *-fp(1),bk
     6878 00000c75 504bc300         ldiu      *fp,fp
     6879 00000c76 18741213         subi      4627,sp
     6880 00000c77 68000013         bu        bk
     6881                   ;*      Branch Occurs to bk 
     6882                           .endfunc        1206,000000000h,4625
     6883                   
     6884                   
     6885 00000c78                  .sect    ".text"
     6886                   
     6887                           .global _NVSRAM_MEMCPY
     6888                           .sym    _NVSRAM_MEMCPY,_NVSRAM_MEMCPY,32,2,0
     6889                           .func   1210
     6890                   ;******************************************************************************
     6891                   ;* FUNCTION NAME: _NVSRAM_MEMCPY                                              *
     6892                   ;*                                                                            *
     6893                   ;*   Architecture       : TMS320C30                                           *
     6894                   ;*   Calling Convention : Stack Parameter Convention                          *
     6895                   ;*   Function Uses Regs : r0,r1,ar0,ar1,ir0,ir1,st                            *
     6896                   ;*   Regs Saved         :                                                     *
     6897                   ;*   Stack Frame        : Full (w/ debug)                                     *
     6898                   ;*   Total Frame Size   : 2 Call + 3 Parm + 1 Auto + 0 SOE = 6 words          *
     6899                   ;******************************************************************************
     6900 00000c78          _NVSRAM_MEMCPY:
     6901                           .sym    _pAData,-2,28,9,32
     6902                           .sym    _pBData,-3,28,9,32
     6903                           .sym    _nLen,-4,12,9,32
     6904                           .sym    _i,1,4,1,32
     6905                           .line   1
     6906                   ;----------------------------------------------------------------------
     6907                   ; 1210 | void NVSRAM_MEMCPY(UCHAR *pAData,UCHAR *pBData,UCHAR nLen)             
     6908                   ;----------------------------------------------------------------------
     6909 00000c78 0f2b0000         push      fp
     6910 00000c79 500b0014         ldiu      sp,fp
     6911 00000c7a 02740001         addi      1,sp
     6912                           .line   2
TMS320C3x/4x COFF AssemblerVersion 5.11     Tue Dec  7 12:02:21 2010
Copyright (c) 1987-1999 Texas Instruments Incorporatedc:\lang\tms320c3x\511\bin\asm30.exe -l cf.asm cf.obj -tC:\Users\jds\AppData\Local\Temp\cf.tmp 

cf.asm                                                               PAGE  129

     6913                   ;----------------------------------------------------------------------
     6914                   ; 1212 | int i;                                                                 
     6915                   ;----------------------------------------------------------------------
     6916                           .line   4
     6917                   ;----------------------------------------------------------------------
     6918                   ; 1213 | for(i=0;i<nLen;i++)                                                    
     6919                   ;----------------------------------------------------------------------
     6920 00000c7b 50600000         ldiu      0,r0
     6921 00000c7c 15400301         sti       r0,*+fp(1)
     6922 00000c7d 50400301         ldiu      *+fp(1),r0
     6923 00000c7e 04c00b04         cmpi      *-fp(4),r0
     6924 00000c7f 506100ff         ldiu      255,r1
     6925 00000c80 6a04000c         bhs       L392
     6926                   ;*      Branch Occurs to L392 
     6927 00000c81          L391:        
     6928                           .line   6
     6929                   ;----------------------------------------------------------------------
     6930                   ; 1215 | pAData[i] = WORD_L(pBData[i]);                                         
     6931                   ;----------------------------------------------------------------------
     6932 00000c81 50480301         ldiu      *+fp(1),ar0
     6933 00000c82 50510b03         ldiu      *-fp(3),ir0
     6934 00000c83 50520b02         ldiu      *-fp(2),ir1
     6935 00000c84 50090008         ldiu      ar0,ar1
     6936 00000c85 21a04001         and3      r1,*+ar0(ir0),r0
     6937 00000c86 15408100         sti       r0,*+ar1(ir1)
     6938                           .line   4
     6939 00000c87 50600001         ldiu      1,r0
     6940 00000c88 02400301         addi      *+fp(1),r0
     6941 00000c89 15400301         sti       r0,*+fp(1)
     6942 00000c8a 50400301         ldiu      *+fp(1),r0
     6943 00000c8b 04c00b04         cmpi      *-fp(4),r0
     6944 00000c8c 6a01fff4         blo       L391
     6945                   ;*      Branch Occurs to L391 
     6946 00000c8d          L392:        
     6947                           .line   8
     6948 00000c8d 50520b01         ldiu      *-fp(1),ir1
     6949 00000c8e 504bc300         ldiu      *fp,fp
     6950 00000c8f 18740003         subi      3,sp
     6951 00000c90 68000012         bu        ir1
     6952                   ;*      Branch Occurs to ir1 
     6953                           .endfunc        1217,000000000h,1
     6954                   
     6955                   
     6956                   
     6957                           .global _Cluster_OneFileBuf
     6958 0000010c                  .bss    _Cluster_OneFileBuf,500
     6959                           .sym    _Cluster_OneFileBuf,_Cluster_OneFileBuf,60,2,16000,,500
     6960                   
     6961                           .global _m_nFat2Offset
     6962 00000300                  .bss    _m_nFat2Offset,1
     6963                           .sym    _m_nFat2Offset,_m_nFat2Offset,13,2,32
     6964                   
     6965                           .global _m_nFatSize
     6966 00000301                  .bss    _m_nFatSize,1
TMS320C3x/4x COFF AssemblerVersion 5.11     Tue Dec  7 12:02:21 2010
Copyright (c) 1987-1999 Texas Instruments Incorporatedc:\lang\tms320c3x\511\bin\asm30.exe -l cf.asm cf.obj -tC:\Users\jds\AppData\Local\Temp\cf.tmp 

cf.asm                                                               PAGE  130

     6967                           .sym    _m_nFatSize,_m_nFatSize,13,2,32
     6968                   
     6969                           .global _nDisplayIndex
     6970 00000302                  .bss    _nDisplayIndex,61
     6971                           .sym    _nDisplayIndex,_nDisplayIndex,8,2,1952,.fake4
     6972                   
     6973                           .global _m_nDataOffset
     6974 0000033f                  .bss    _m_nDataOffset,1
     6975                           .sym    _m_nDataOffset,_m_nDataOffset,13,2,32
     6976                   
     6977                           .global _FileList
     6978 00000340                  .bss    _FileList,130
     6979                           .sym    _FileList,_FileList,56,2,4160,.fake0,10
     6980                   
     6981                           .global _StationName
     6982 000003c2                  .bss    _StationName,2806
     6983                           .sym    _StationName,_StationName,56,2,89792,.fake1,61
     6984                   
     6985                           .global _m_nSecPerClust
     6986 00000eb8                  .bss    _m_nSecPerClust,1
     6987                           .sym    _m_nSecPerClust,_m_nSecPerClust,13,2,32
     6988                   
     6989                           .global _m_nFat
     6990 00000eb9                  .bss    _m_nFat,1
     6991                           .sym    _m_nFat,_m_nFat,13,2,32
     6992                   
     6993                           .global _m_nFat1Offset
     6994 00000eba                  .bss    _m_nFat1Offset,1
     6995                           .sym    _m_nFat1Offset,_m_nFat1Offset,13,2,32
     6996                   
     6997                           .global _m_wTotalSec
     6998 00000ebb                  .bss    _m_wTotalSec,1
     6999                           .sym    _m_wTotalSec,_m_wTotalSec,13,2,32
     7000                   
     7001                           .global _m_szVolume
     7002 00000ebc                  .bss    _m_szVolume,12
     7003                           .sym    _m_szVolume,_m_szVolume,61,2,384,,12
     7004                   
     7005                           .global _m_VolumeID
     7006 00000ec8                  .bss    _m_VolumeID,4
     7007                           .sym    _m_VolumeID,_m_VolumeID,61,2,128,,4
     7008                   
     7009                           .global _m_nRootOffset
     7010 00000ecc                  .bss    _m_nRootOffset,1
     7011                           .sym    _m_nRootOffset,_m_nRootOffset,13,2,32
     7012                   
     7013                           .global _nNvsram_Variable
     7014 00000ecd                  .bss    _nNvsram_Variable,501
     7015                           .sym    _nNvsram_Variable,_nNvsram_Variable,8,2,16032,.fake6
     7016                   ;******************************************************************************
     7017                   ;* STRINGS                                                                    *
     7018                   ;******************************************************************************
     7019 00000000                  .sect   ".const"
     7020 00000000 00000046 SL1:    .byte   "FAT12   ",0
TMS320C3x/4x COFF AssemblerVersion 5.11     Tue Dec  7 12:02:21 2010
Copyright (c) 1987-1999 Texas Instruments Incorporatedc:\lang\tms320c3x\511\bin\asm30.exe -l cf.asm cf.obj -tC:\Users\jds\AppData\Local\Temp\cf.tmp 

cf.asm                                                               PAGE  131

          00000001 00000041 
          00000002 00000054 
          00000003 00000031 
          00000004 00000032 
          00000005 00000020 
          00000006 00000020 
          00000007 00000020 
          00000008 00000000 
     7021 00000009 00000046 SL2:    .byte   "FAT16   ",0
          0000000a 00000041 
          0000000b 00000054 
          0000000c 00000031 
          0000000d 00000036 
          0000000e 00000020 
          0000000f 00000020 
          00000010 00000020 
          00000011 00000000 
     7022 00000012 00000050 SL3:    .byte   "PATTERN ",0
          00000013 00000041 
          00000014 00000054 
          00000015 00000054 
          00000016 00000045 
          00000017 00000052 
          00000018 0000004e 
          00000019 00000020 
          0000001a 00000000 
     7023 0000001b 00000042 SL4:    .byte   "BIN",0
          0000001c 00000049 
          0000001d 0000004e 
          0000001e 00000000 
     7024 0000001f 00000049 SL5:    .byte   "IDC_SW",0
          00000020 00000044 
          00000021 00000043 
          00000022 0000005f 
          00000023 00000053 
          00000024 00000057 
          00000025 00000000 
     7025 00000026 00000053 SL6:    .byte   "SDD_SW",0
          00000027 00000044 
          00000028 00000044 
          00000029 0000005f 
          0000002a 00000053 
          0000002b 00000057 
          0000002c 00000000 
     7026 0000002d 00000046 SL7:    .byte   "FDD_SW",0
          0000002e 00000044 
          0000002f 00000044 
          00000030 0000005f 
          00000031 00000053 
          00000032 00000057 
          00000033 00000000 
     7027 00000034 00000049 SL8:    .byte   "IDC47",0
          00000035 00000044 
          00000036 00000043 
TMS320C3x/4x COFF AssemblerVersion 5.11     Tue Dec  7 12:02:21 2010
Copyright (c) 1987-1999 Texas Instruments Incorporatedc:\lang\tms320c3x\511\bin\asm30.exe -l cf.asm cf.obj -tC:\Users\jds\AppData\Local\Temp\cf.tmp 

cf.asm                                                               PAGE  132

          00000037 00000034 
          00000038 00000037 
          00000039 00000000 
     7028                   ;******************************************************************************
     7029                   ;* CONSTANT TABLE                                                             *
     7030                   ;******************************************************************************
     7031 0000003a                  .sect   ".const"
     7032 000010c2                  .bss    CL1,1
     7033 000010c3                  .bss    CL2,1
     7034 000010c4                  .bss    CL3,1
     7035 000010c5                  .bss    CL4,1
     7036 000010c6                  .bss    CL5,1
     7037 000010c7                  .bss    CL6,1
     7038 000010c8                  .bss    CL7,1
     7039 000010c9                  .bss    CL8,1
     7040 000010ca                  .bss    CL9,1
     7041 000010cb                  .bss    CL10,1
     7042 000010cc                  .bss    CL11,1
     7043 000010cd                  .bss    CL12,1
     7044 000010ce                  .bss    CL13,1
     7045 000010cf                  .bss    CL14,1
     7046 000010d0                  .bss    CL15,1
     7047 000010d1                  .bss    CL16,1
     7048 000010d2                  .bss    CL17,1
     7049 000010d3                  .bss    CL18,1
     7050 000010d4                  .bss    CL19,1
     7051 000010d5                  .bss    CL20,1
     7052 000010d6                  .bss    CL21,1
     7053 000010d7                  .bss    CL22,1
     7054 000010d8                  .bss    CL23,1
     7055 000010d9                  .bss    CL24,1
     7056 000010da                  .bss    CL25,1
     7057 000010db                  .bss    CL26,1
     7058 000010dc                  .bss    CL27,1
     7059 000010dd                  .bss    CL28,1
     7060 000010de                  .bss    CL29,1
     7061 000010df                  .bss    CL30,1
     7062 000010e0                  .bss    CL31,1
     7063 000010e1                  .bss    CL32,1
     7064 000010e2                  .bss    CL33,1
     7065 000010e3                  .bss    CL34,1
     7066 000010e4                  .bss    CL35,1
     7067 000010e5                  .bss    CL36,1
     7068 000010e6                  .bss    CL37,1
     7069 000010e7                  .bss    CL38,1
     7070 000010e8                  .bss    CL39,1
     7071 000010e9                  .bss    CL40,1
     7072 000010ea                  .bss    CL41,1
     7073 000010eb                  .bss    CL42,1
     7074 000010ec                  .bss    CL43,1
     7075 000010ed                  .bss    CL44,1
     7076 000010ee                  .bss    CL45,1
     7077 000010ef                  .bss    CL46,1
     7078 000010f0                  .bss    CL47,1
TMS320C3x/4x COFF AssemblerVersion 5.11     Tue Dec  7 12:02:21 2010
Copyright (c) 1987-1999 Texas Instruments Incorporatedc:\lang\tms320c3x\511\bin\asm30.exe -l cf.asm cf.obj -tC:\Users\jds\AppData\Local\Temp\cf.tmp 

cf.asm                                                               PAGE  133

     7079 000010f1                  .bss    CL48,1
     7080 000010f2                  .bss    CL49,1
     7081 000010f3                  .bss    CL50,1
     7082 000010f4                  .bss    CL51,1
     7083 000010f5                  .bss    CL52,1
     7084 000010f6                  .bss    CL53,1
     7085 000010f7                  .bss    CL54,1
     7086 000010f8                  .bss    CL55,1
     7087 000010f9                  .bss    CL56,1
     7088 000010fa                  .bss    CL57,1
     7089 000010fb                  .bss    CL58,1
     7090 000010fc                  .bss    CL59,1
     7091 000010fd                  .bss    CL60,1
     7092 000010fe                  .bss    CL61,1
     7093 000010ff                  .bss    CL62,1
     7094 00001100                  .bss    CL63,1
     7095 00001101                  .bss    CL64,1
     7096 00001102                  .bss    CL65,1
     7097 00001103                  .bss    CL66,1
     7098 00001104                  .bss    CL67,1
     7099 00001105                  .bss    CL68,1
     7100 00001106                  .bss    CL69,1
     7101                   
     7102 00000028                  .sect   ".cinit"
     7103 00000028 00000045         .field          69,32
     7104 00000029 000010c2-        .field          CL1+0,32
     7105 0000002a 00b00007         .field          11534343,32
     7106 0000002b 0000000a-        .field          .init0$1,32
     7107 0000002c 00b00000         .field          11534336,32
     7108 0000002d 00b00002         .field          11534338,32
     7109 0000002e 00b00003         .field          11534339,32
     7110 0000002f 00b00004         .field          11534340,32
     7111 00000030 00b00005         .field          11534341,32
     7112 00000031 00b00006         .field          11534342,32
     7113 00000032 00000ec8-        .field          _m_VolumeID,32
     7114 00000033 00000ebc-        .field          _m_szVolume,32
     7115 00000034 00000000+        .field          SL1,32
     7116 00000035 00000009+        .field          SL2,32
     7117 00000036 00000340-        .field          _FileList,32
     7118 00000037 00000348-        .field          _FileList+8,32
     7119 00000038 0000034b-        .field          _FileList+11,32
     7120 00000039 0000034c-        .field          _FileList+12,32
     7121 0000003a 00000012+        .field          SL3,32
     7122 0000003b 0000001b+        .field          SL4,32
     7123 0000003c 0000001f+        .field          SL5,32
     7124 0000003d 00000026+        .field          SL6,32
     7125 0000003e 0000002d+        .field          SL7,32
     7126 0000003f ffffffff         .field          -1,32
     7127 00000040 0000fff8         .field          65528,32
     7128 00000041 fffffff7         .field          -9,32
     7129 00000042 0000010c-        .field          _Cluster_OneFileBuf,32
     7130 00000043 00000034+        .field          SL8,32
     7131 00000044 00c00000         .field          12582912,32
     7132 00000045 ffffffe9         .field          -23,32
TMS320C3x/4x COFF AssemblerVersion 5.11     Tue Dec  7 12:02:21 2010
Copyright (c) 1987-1999 Texas Instruments Incorporatedc:\lang\tms320c3x\511\bin\asm30.exe -l cf.asm cf.obj -tC:\Users\jds\AppData\Local\Temp\cf.tmp 

cf.asm                                                               PAGE  134

     7133 00000046 0001fcf0         .field          130288,32
     7134 00000047 00c1f804         .field          12711940,32
     7135 00000048 00080000         .field          524288,32
     7136 00000049 00080000         .field          524288,32
     7137 0000004a 00090000         .field          589824,32
     7138 0000004b 00090000         .field          589824,32
     7139 0000004c 00c01484         .field          12588164,32
     7140 0000004d 00090002         .field          589826,32
     7141 0000004e 000c0000         .field          786432,32
     7142 0000004f 000c0000         .field          786432,32
     7143 00000050 00c0a5d6         .field          12625366,32
     7144 00000051 0000a5d8         .field          42456,32
     7145 00000052 000c0002         .field          786434,32
     7146 00000053 00c00001         .field          12582913,32
     7147 00000054 000e0000         .field          917504,32
     7148 00000055 000e0000         .field          917504,32
     7149 00000056 00c0a678         .field          12625528,32
     7150 00000057 000f0000         .field          983040,32
     7151 00000058 000f0000         .field          983040,32
     7152 00000059 00c10d9a         .field          12651930,32
     7153 0000005a 00100000         .field          1048576,32
     7154 0000005b 00100000         .field          1048576,32
     7155 0000005c 00c182cc         .field          12681932,32
     7156 0000005d 00110005         .field          1114117,32
     7157 0000005e 00c1f7fe         .field          12711934,32
     7158 0000005f 00c0a678         .field          12625528,32
     7159 00000060 00000303-        .field          _nDisplayIndex+1,32
     7160 00000061 00000304-        .field          _nDisplayIndex+2,32
     7161 00000062 00000305-        .field          _nDisplayIndex+3,32
     7162 00000063 00c10d9a         .field          12651930,32
     7163 00000064 00c182cc         .field          12681932,32
     7164 00000065 00c01484         .field          12588164,32
     7165 00000066 000003c3-        .field          _StationName+1,32
     7166 00000067 000003d2-        .field          _StationName+16,32
     7167 00000068 00c00000         .field          12582912,32
     7168 00000069 00000ed2-        .field          _nNvsram_Variable+5,32
     7169 0000006a 00c0a5d6         .field          12625366,32
     7170 0000006b 00c1f804         .field          12711940,32
     7171 0000006c 00000fd2-        .field          _nNvsram_Variable+261,32
     7172 0000006d 00001022-        .field          _nNvsram_Variable+341,32
     7173 0000006e 00001023-        .field          _nNvsram_Variable+342,32
     7174                   
     7175 00000c91                  .sect   ".text"
     7176                   ;******************************************************************************
     7177                   ;* UNDEFINED EXTERNAL REFERENCES                                              *
     7178                   ;******************************************************************************
     7179                           .global _strncmp
     7180                           .global DIV_U30
     7181                           .global MPY_K30
     7182                           .global MOD_U30
     7183                           .global _memcpy
     7184                           .global _memset
     7185                           .global _memcmp

 No Errors,  No Warnings
