TMS320C3x/4x COFF AssemblerVersion 5.11     Mon Apr 29 17:36:37 2013
Copyright (c) 1987-1999 Texas Instruments Incorporatedc:\lang\tms320c3x\511\bin\asm30.exe -l gpproface.asm gpproface.obj -tC:\Users\JDS\AppData\Local\Temp\gpproface.tmp 

gpproface.asm                                                        PAGE    1

        1                   ;******************************************************************************
        2                   ;* TMS320C3x/4x ANSI C Code Generator                            Version 5.11 *
        3                   ;* Date/Time created: Mon Apr 29 17:36:37 2013                                *
        4                   ;******************************************************************************
        5                           .regalias       ; enable floating point register aliases
        6          0000000b fp      .set    ar3
        7          0000000b FP      .set    ar3
        8                   ;******************************************************************************
        9                   ;* GLOBAL FILE PARAMETERS                                                     *
       10                   ;*                                                                            *
       11                   ;*   Optimization       : Always Choose Smaller Code Size                     *
       12                   ;*   Memory             : Small Memory Model                                  *
       13                   ;*   Float-to-Int       : Normal Conversions (round toward zero)              *
       14                   ;*   Multiply           : in Hardware (24 bits max)                           *
       15                   ;*   Memory Info        : Unmapped Memory Exists                              *
       16                   ;*   Repeat Loops       : Use RPTS and/or RPTB                                *
       17                   ;*   Calls              : Normal Library ASM calls                            *
       18                   ;*   Debug Info         : Optimized TI Debug Information                      *
       19                   ;******************************************************************************
       20                   ;       c:\lang\tms320c3x\511\bin\ac30.exe gpproface.c C:\Users\JDS\AppData\Local\Temp\gpproface.if 
       21                           .file   "gpproface.c"
       22                           .file   "def.h"
       23                           .sym    _WORD,0,13,13,32
       24                           .sym    _USHORT,0,13,13,32
       25                           .sym    _BYTE,0,12,13,32
       26                           .sym    _UCHAR,0,12,13,32
       27                           .sym    _UINT,0,14,13,32
       28                           .sym    _BOOL,0,4,13,32
       29                           .sym    _DWORD,0,15,13,32
       30                           .file   "main.h"
       31                           .file   "saf82532.h"
       32                           .stag   .fake0,2048
       33                           .member _XFIFO,0,60,8,1024,,32
       34                           .member _STA_CMD,1024,12,8,32
       35                           .member _MODE,1088,12,8,32
       36                           .member _TIMR,1120,12,8,32
       37                           .member _XON,1152,12,8,32
       38                           .member _XOFF,1184,12,8,32
       39                           .member _TCR,1216,12,8,32
       40                           .member _DAFO,1248,12,8,32
       41                           .member _RFC,1280,12,8,32
       42                           .member _RBCL_XBCL,1344,12,8,32
       43                           .member _RBCH_XBCH,1376,12,8,32
       44                           .member _CCR0,1408,12,8,32
       45                           .member _CCR1,1440,12,8,32
       46                           .member _CCR2,1472,12,8,32
       47                           .member _CCR3,1504,12,8,32
       48                           .member _TSAX,1536,12,8,32
       49                           .member _TSAR,1568,12,8,32
       50                           .member _XCCR,1600,12,8,32
       51                           .member _RCCR,1632,12,8,32
       52                           .member _VSTR_BGR,1664,12,8,32
       53                           .member _TIC,1696,12,8,32
       54                           .member _MXN,1728,12,8,32
TMS320C3x/4x COFF AssemblerVersion 5.11     Mon Apr 29 17:36:37 2013
Copyright (c) 1987-1999 Texas Instruments Incorporatedc:\lang\tms320c3x\511\bin\asm30.exe -l gpproface.asm gpproface.obj -tC:\Users\JDS\AppData\Local\Temp\gpproface.tmp 

gpproface.asm                                                        PAGE    2

       55                           .member _MXF,1760,12,8,32
       56                           .member _GIS_IVA,1792,12,8,32
       57                           .member _IPC,1824,12,8,32
       58                           .member _ISR0_IMR0,1856,12,8,32
       59                           .member _ISR1_IMR1,1888,12,8,32
       60                           .member _PVR,1920,12,8,32
       61                           .member _PIS_PIM,1952,12,8,32
       62                           .member _PCR,1984,12,8,32
       63                           .member _CCR4,2016,12,8,32
       64                           .eos
       65                           .sym    _SAF82532ASYNCREG1CH,0,8,13,2048,.fake0
       66                           .sym    _PSAF82532ASYNCREG1CH,0,24,13,32,.fake0
       67                           .stag   .fake1,4096
       68                           .member _ACHREG,0,8,8,2048,.fake0
       69                           .member _BCHREG,2048,8,8,2048,.fake0
       70                           .eos
       71                           .sym    _SAF82532ASYNCREG,0,8,13,4096,.fake1
       72                           .sym    _PSAF82532ASYNCREG,0,24,13,32,.fake1
       73                           .stag   .fake2,416
       74                           .member _nRxOkFlag,0,4,8,32
       75                           .member _nRxRear,32,4,8,32
       76                           .member _nRxFront,64,4,8,32
       77                           .member _nRxPos,96,4,8,32
       78                           .member _nRxCnt,128,4,8,32
       79                           .member _nRxBuffer,160,28,8,32
       80                           .member _nGetRxBuf,192,28,8,32
       81                           .member _nRxBackUp,224,28,8,32
       82                           .member _nIs485,256,4,8,32
       83                           .member _nUsPer1Byte,288,4,8,32
       84                           .member _nTxDisable1msCnt,320,4,8,32
       85                           .member _nTxLedOnDly,352,4,8,32
       86                           .member _nTxCnt,384,4,8,32
       87                           .eos
       88                           .sym    _SAF82532_SCC,0,8,13,416,.fake2
       89                           .file   "PA_Pro.h"
       90                           .stag   .fake4,32
       91                           .member _n1EM1_1,0,14,18,1
       92                           .member _n2EM2_1,1,14,18,1
       93                           .member _n3EM3_1,2,14,18,1
       94                           .member _n4EM4_1,3,14,18,1
       95                           .member _n5EMSW,4,14,18,1
       96                           .member _n6TCRCallFinish,5,14,18,1
       97                           .member _n7EMCallFinish,6,14,18,1
       98                           .member _n8sp,7,14,18,1
       99                           .eos
      100                           .stag   .fake5,32
      101                           .member _n1EM1_2,0,14,18,1
      102                           .member _n2EM2_2,1,14,18,1
      103                           .member _n3EM3_2,2,14,18,1
      104                           .member _n4EM4_2,3,14,18,1
      105                           .member _n5sp,4,14,18,1
      106                           .member _n6sp,5,14,18,1
      107                           .member _n7sp,6,14,18,1
      108                           .member _n8sp,7,14,18,1
TMS320C3x/4x COFF AssemblerVersion 5.11     Mon Apr 29 17:36:37 2013
Copyright (c) 1987-1999 Texas Instruments Incorporatedc:\lang\tms320c3x\511\bin\asm30.exe -l gpproface.asm gpproface.obj -tC:\Users\JDS\AppData\Local\Temp\gpproface.tmp 

gpproface.asm                                                        PAGE    3

      109                           .eos
      110                           .stag   .fake3,64
      111                           .member _nTCR_DATA_1,0,8,8,32,.fake4
      112                           .member _nTCR_DATA_2,32,8,8,32,.fake5
      113                           .eos
      114                           .sym    _PA_ICR_INFO,0,8,13,64,.fake3
      115                           .stag   .fake7,32
      116                           .member _n1Mster_Active,0,14,18,1
      117                           .member _n2sp,1,14,18,1
      118                           .member _n3EM_Call_End,2,14,18,1
      119                           .member _n4Fire,3,14,18,1
      120                           .member _n5ICR_DI,4,14,18,1
      121                           .member _n6ICR_Flag,5,14,18,1
      122                           .member _n7sp1,6,14,18,1
      123                           .member _n8sp2,7,14,18,1
      124                           .eos
      125                           .stag   .fake8,32
      126                           .member _n1Door_LR,0,14,18,1
      127                           .member _n2DCW,1,14,18,1
      128                           .member _n3DOW,2,14,18,1
      129                           .member _n4BR_Start,3,14,18,1
      130                           .member _n5BR_Finish,4,14,18,1
      131                           .member _n6INFO,5,14,18,1
      132                           .member _n7RM,6,14,18,1
      133                           .member _n8sp,7,14,18,1
      134                           .eos
      135                           .stag   .fake9,32
      136                           .member _n1PDT1,0,14,18,1
      137                           .member _n2PDT2,1,14,18,1
      138                           .member _n3SNDChk,2,14,18,1
      139                           .member _n4sp,3,14,18,1
      140                           .member _n5StarST_PA,4,14,18,1
      141                           .member _n6sp,5,14,18,1
      142                           .member _n7sp,6,14,18,1
      143                           .member _n8sp,7,14,18,1
      144                           .eos
      145                           .stag   .fake6,608
      146                           .member _nSTX,0,12,8,32
      147                           .member _nPA_ADD,32,12,8,32
      148                           .member _nPIC_ADD,64,12,8,32
      149                           .member _nSDR_Code,96,12,8,32
      150                           .member _TEXT_03,128,8,8,32,.fake7
      151                           .member _nLine_Num,160,12,8,32
      152                           .member _nNow_ST,192,12,8,32
      153                           .member _nPR_Num,224,12,8,32
      154                           .member _nNext_ST,256,12,8,32
      155                           .member _nDest_ST,288,12,8,32
      156                           .member _TEXT_09,320,8,8,32,.fake8
      157                           .member _TEST_10,352,8,8,32,.fake9
      158                           .member _nTramNum,384,60,8,64,,2
      159                           .member _nDistNUM,448,60,8,64,,2
      160                           .member _nTCR_DATA,512,8,8,64,.fake3
      161                           .member _nETX,576,12,8,32
      162                           .eos
TMS320C3x/4x COFF AssemblerVersion 5.11     Mon Apr 29 17:36:37 2013
Copyright (c) 1987-1999 Texas Instruments Incorporatedc:\lang\tms320c3x\511\bin\asm30.exe -l gpproface.asm gpproface.obj -tC:\Users\JDS\AppData\Local\Temp\gpproface.tmp 

gpproface.asm                                                        PAGE    4

      163                           .sym    _PIS_PA_TXDATA,0,8,13,608,.fake6
      164                           .sym    _PPIS_PA_TXDATA,0,24,13,32,.fake6
      165                           .stag   .fake11,32
      166                           .member _n1PAVC_1,0,14,18,1
      167                           .member _n2COB_1,1,14,18,1
      168                           .member _n3SOBL_1,2,14,18,1
      169                           .member _n4SOBR_1,3,14,18,1
      170                           .member _n5PAVC_2,4,14,18,1
      171                           .member _n6COB_2,5,14,18,1
      172                           .member _n7SOBL_2,6,14,18,1
      173                           .member _n8SOBR_2,7,14,18,1
      174                           .eos
      175                           .stag   .fake12,32
      176                           .member _n1EI1_1,0,14,18,1
      177                           .member _n2EI2_1,1,14,18,1
      178                           .member _n3EI3_1,2,14,18,1
      179                           .member _n4EI4_1,3,14,18,1
      180                           .member _n5sp,4,14,18,1
      181                           .member _n6sp,5,14,18,1
      182                           .member _n7sp,6,14,18,1
      183                           .member _n8sp,7,14,18,1
      184                           .eos
      185                           .stag   .fake13,32
      186                           .member _n1EI1_2,0,14,18,1
      187                           .member _n2EI2_2,1,14,18,1
      188                           .member _n3EI3_2,2,14,18,1
      189                           .member _n4EI4_2,3,14,18,1
      190                           .member _n5sp,4,14,18,1
      191                           .member _n6sp,5,14,18,1
      192                           .member _n7sp,6,14,18,1
      193                           .member _n8sp,7,14,18,1
      194                           .eos
      195                           .stag   .fake14,32
      196                           .member _n1AMP1,0,14,18,1
      197                           .member _n2AMP2,1,14,18,1
      198                           .member _n3AMP3,2,14,18,1
      199                           .member _n4AMP4,3,14,18,1
      200                           .member _n5sp,4,14,18,1
      201                           .member _n6sp,5,14,18,1
      202                           .member _n7sp,6,14,18,1
      203                           .member _n8sp,7,14,18,1
      204                           .eos
      205                           .stag   .fake15,32
      206                           .member _n1ACK,0,14,18,1
      207                           .member _n2ACK_KingCh,1,14,18,1
      208                           .member _n3Speaking,2,14,18,1
      209                           .member _n4sp,3,14,18,1
      210                           .member _n5sp,4,14,18,1
      211                           .member _n6sp,5,14,18,1
      212                           .member _n7sp,6,14,18,1
      213                           .member _n8sp,7,14,18,1
      214                           .eos
      215                           .stag   .fake16,32
      216                           .member _n1EI1_1_Call,0,14,18,1
TMS320C3x/4x COFF AssemblerVersion 5.11     Mon Apr 29 17:36:37 2013
Copyright (c) 1987-1999 Texas Instruments Incorporatedc:\lang\tms320c3x\511\bin\asm30.exe -l gpproface.asm gpproface.obj -tC:\Users\JDS\AppData\Local\Temp\gpproface.tmp 

gpproface.asm                                                        PAGE    5

      217                           .member _n2EI2_1_Call,1,14,18,1
      218                           .member _n3EI3_1_Call,2,14,18,1
      219                           .member _n4EI4_1_Call,3,14,18,1
      220                           .member _n5sp,4,14,18,1
      221                           .member _n6sp,5,14,18,1
      222                           .member _n7sp,6,14,18,1
      223                           .member _n8sp,7,14,18,1
      224                           .eos
      225                           .stag   .fake17,32
      226                           .member _n1EI1_2_Call,0,14,18,1
      227                           .member _n2EI2_2_Call,1,14,18,1
      228                           .member _n3EI3_2_Call,2,14,18,1
      229                           .member _n4EI4_2_Call,3,14,18,1
      230                           .member _n5sp,4,14,18,1
      231                           .member _n6sp,5,14,18,1
      232                           .member _n7sp,6,14,18,1
      233                           .member _n8sp,7,14,18,1
      234                           .eos
      235                           .stag   .fake18,32
      236                           .member _n1IFV1_1,0,14,18,1
      237                           .member _n2IFV1_2,1,14,18,1
      238                           .member _n3IFV1_3,2,14,18,1
      239                           .member _n4IFV1_4,3,14,18,1
      240                           .member _n5IFV2_1,4,14,18,1
      241                           .member _n6IFV2_2,5,14,18,1
      242                           .member _n7IFV2_3,6,14,18,1
      243                           .member _n8IFV2_4,7,14,18,1
      244                           .eos
      245                           .stag   .fake19,32
      246                           .member _n1sp,0,14,18,1
      247                           .member _n2IFV3_2,1,14,18,1
      248                           .member _n3IFV3_3,2,14,18,1
      249                           .member _n4sp,3,14,18,1
      250                           .member _n5sp,4,14,18,1
      251                           .member _n6IFV4_2,5,14,18,1
      252                           .member _n7IFV4_3,6,14,18,1
      253                           .member _n8sp,7,14,18,1
      254                           .eos
      255                           .stag   .fake10,608
      256                           .member _nSTX,0,12,8,32
      257                           .member _nPIC_ADD,32,12,8,32
      258                           .member _nPA_ADD,64,12,8,32
      259                           .member _nSD_Code,96,12,8,32
      260                           .member _TEST_03_Falt,128,8,8,32,.fake11
      261                           .member _TEST_04_Falt,160,8,8,32,.fake12
      262                           .member _TEST_05_Falt,192,8,8,32,.fake13
      263                           .member _TEST_06_Falt,224,8,8,32,.fake14
      264                           .member _TEST_07,256,8,8,32,.fake15
      265                           .member _TEST_08,288,8,8,32,.fake16
      266                           .member _TEST_09,320,8,8,32,.fake17
      267                           .member _TEST_10_Falt,352,8,8,32,.fake18
      268                           .member _TEST_11_Falt,384,8,8,32,.fake19
      269                           .member _nSound_Level,416,12,8,32
      270                           .member _nRomVer,448,12,8,32
TMS320C3x/4x COFF AssemblerVersion 5.11     Mon Apr 29 17:36:37 2013
Copyright (c) 1987-1999 Texas Instruments Incorporatedc:\lang\tms320c3x\511\bin\asm30.exe -l gpproface.asm gpproface.obj -tC:\Users\JDS\AppData\Local\Temp\gpproface.tmp 

gpproface.asm                                                        PAGE    6

      271                           .member _nTCR_DATA,480,8,8,64,.fake3
      272                           .member _nTEXT16sp,544,12,8,32
      273                           .member _nETX,576,12,8,32
      274                           .eos
      275                           .sym    _PA_PIS_TXDATA,0,8,13,608,.fake10
      276                           .sym    _PPA_PIS_TXDATA,0,24,13,32,.fake10
      277                           .file   "user.h"
      278                           .stag   .fake20,128
      279                           .member _nTotalDestCnt,0,12,8,32
      280                           .member _nCheakSt,32,12,8,32
      281                           .member _nDiskInputCheckFlag,64,12,8,32
      282                           .member _nDiskUpChekFlag,96,12,8,32
      283                           .eos
      284                           .sym    _SANDISK_VARI,0,8,13,128,.fake20
      285                           .stag   .fake21,1472
      286                           .member _nCode,0,12,8,32
      287                           .member _nEnNameBuf,32,60,8,480,,15
      288                           .member _nIRNameBuf,512,60,8,960,,30
      289                           .eos
      290                           .sym    _STATION_INFO,0,8,13,1472,.fake21
      291                           .stag   .fake22,1920
      292                           .member _nPre,0,60,8,480,,15
      293                           .member _nNow,480,60,8,480,,15
      294                           .member _nNext,960,60,8,480,,15
      295                           .member _nDest,1440,60,8,480,,15
      296                           .eos
      297                           .sym    _GP_ST_NAME,0,8,13,1920,.fake22
      298                           .stag   .fake23,128
      299                           .member _nFlag_DI_INPUT,0,12,8,32
      300                           .member _nFlag_Simu,32,12,8,32
      301                           .member _nFlag_SelfTest,64,12,8,32
      302                           .member _nAutoPlay_Flag,96,12,8,32
      303                           .eos
      304                           .sym    _TIME_FLAG,0,8,13,128,.fake23
      305                           .stag   .fake24,2112
      306                           .member _nSELF_ADDDATA_BUF,0,60,8,960,,30
      307                           .member _nSELF_RXDATA_Buf,960,60,8,480,,15
      308                           .member _nSELF_RXDATA_Buf_2R,1440,60,8,480,,15
      309                           .member _nSELF_TX_Cnt,1920,12,8,32
      310                           .member _nSELF_All_Cnt,1952,12,8,32
      311                           .member _nSELF_ICR_CNT,1984,12,8,32
      312                           .member _nSELF_ICR_SELECT,2016,12,8,32
      313                           .member _nPA_PrintCnt,2048,12,8,32
      314                           .member _nPA_SCREEN_SET,2080,12,8,32
      315                           .eos
      316                           .sym    _SELF_TEST,0,8,13,2112,.fake24
      317                           .stag   .fake26,32
      318                           .member _nFirCode,0,14,18,1
      319                           .member _B1,1,14,18,1
      320                           .member _B2,2,14,18,1
      321                           .member _B3,3,14,18,1
      322                           .member _B4,4,14,18,1
      323                           .member _B5,5,14,18,1
      324                           .member _B6,6,14,18,1
TMS320C3x/4x COFF AssemblerVersion 5.11     Mon Apr 29 17:36:37 2013
Copyright (c) 1987-1999 Texas Instruments Incorporatedc:\lang\tms320c3x\511\bin\asm30.exe -l gpproface.asm gpproface.obj -tC:\Users\JDS\AppData\Local\Temp\gpproface.tmp 

gpproface.asm                                                        PAGE    7

      325                           .member _nAutoTest,7,14,18,1
      326                           .eos
      327                           .stag   .fake25,17024
      328                           .member _nStopPatNum,0,12,8,32
      329                           .member _nStation_MaxCnt,32,12,8,32
      330                           .member _nStation_StartPointCnt,64,12,8,32
      331                           .member _nStation_PointCnt,96,12,8,32
      332                           .member _nStation_PointCntRe,128,12,8,32
      333                           .member _nStation_List,160,60,8,6400,,200
      334                           .member _nPIBPatFlag,6560,12,8,32
      335                           .member _nDISFPatFlag,6592,12,8,32
      336                           .member _nSimulationFlag,6624,12,8,32
      337                           .member _nSimulationCnt,6656,12,8,32
      338                           .member _nAutoDoorFlag,6688,12,8,32
      339                           .member _nSpeed,6720,12,8,32
      340                           .member _nDoor,6752,12,8,32
      341                           .member _nDoorOPenCnt,6784,12,8,32
      342                           .member _nDistance,6816,12,8,32
      343                           .member _nSinmuScrCnt,6848,12,8,32
      344                           .member _nTcmsRxNGCnt,6880,12,8,32
      345                           .member _nStart,6912,8,8,1472,.fake21
      346                           .member _nPre,8384,8,8,1472,.fake21
      347                           .member _nNow,9856,8,8,1472,.fake21
      348                           .member _nNext,11328,8,8,1472,.fake21
      349                           .member _nDest,12800,8,8,1472,.fake21
      350                           .member _nGpStName,14272,8,8,1920,.fake22
      351                           .member _nSelf_Test_Flag,16192,12,8,32
      352                           .member _nClean_Flag,16224,12,8,32
      353                           .member _nSendTextEnd,16256,12,8,32
      354                           .member _nPaTxDataBuf,16288,60,8,704,,22
      355                           .member _nFirAuto,16992,8,8,32,.fake26
      356                           .eos
      357                           .sym    _TRAN_STATION_INFO,0,8,13,17024,.fake25
      358                           .stag   .fake27,128
      359                           .member _nFlag,0,12,8,32
      360                           .member _nTime,32,12,8,32
      361                           .member _nTimeCnt,64,12,8,32
      362                           .member _nFlagCnt,96,12,8,32
      363                           .eos
      364                           .sym    _ONTD_CHECK,0,8,13,128,.fake27
      365                           .stag   .fake28,768
      366                           .member _nHcr,0,8,8,128,.fake27
      367                           .member _nIcr,128,8,8,128,.fake27
      368                           .member _nTcr,256,8,8,128,.fake27
      369                           .member _nDoor,384,8,8,128,.fake27
      370                           .member _nDoLeft,512,8,8,128,.fake27
      371                           .member _nDoRight,640,8,8,128,.fake27
      372                           .eos
      373                           .sym    _DI_CHECK,0,8,13,768,.fake28
      374                           .stag   .fake29,864
      375                           .member _nIndexBuf,0,60,8,640,,20
      376                           .member _nIndexST_STAllCnt,640,12,8,32
      377                           .member _nAllCnt_Cnt,672,12,8,32
      378                           .member _nIndexDI_DICnt,704,12,8,32
TMS320C3x/4x COFF AssemblerVersion 5.11     Mon Apr 29 17:36:37 2013
Copyright (c) 1987-1999 Texas Instruments Incorporatedc:\lang\tms320c3x\511\bin\asm30.exe -l gpproface.asm gpproface.obj -tC:\Users\JDS\AppData\Local\Temp\gpproface.tmp 

gpproface.asm                                                        PAGE    8

      379                           .member _nIndexCnt,736,12,8,32
      380                           .member _nDistanRe,768,15,8,32
      381                           .member _nDistanNew,800,15,8,32
      382                           .member _nBetweenFlag,832,12,8,32
      383                           .eos
      384                           .sym    _INDEX_FLAG,0,8,13,864,.fake29
      385                           .stag   .fake30,384
      386                           .member _nDataDefin,0,12,8,32
      387                           .member _nCarNum,32,12,8,32
      388                           .member _nDist,64,12,8,32
      389                           .member _nDist_10,96,4,8,32
      390                           .member _nStaCod,128,12,8,32
      391                           .member _nNowCod,160,12,8,32
      392                           .member _nNowCod_Re,192,12,8,32
      393                           .member _nNexCod,224,12,8,32
      394                           .member _nNexCod_Re,256,12,8,32
      395                           .member _nDetCod,288,12,8,32
      396                           .member _nDetCod_Re,320,12,8,32
      397                           .member _nMasterFlag,352,12,8,32
      398                           .eos
      399                           .sym    _TMS_RX_DATA_PR,0,8,13,384,.fake30
      400                           .stag   .fake31,64
      401                           .member _nTxNum,0,12,8,32
      402                           .member _nTxFlag,32,12,8,32
      403                           .eos
      404                           .sym    _IM_PR_SEND,0,8,13,64,.fake31
      405                           .stag   .fake32,608
      406                           .member _nTrNumSet,0,12,8,32
      407                           .member _nDeSTCodeSet,32,12,8,32
      408                           .member _nSddCodeSet,64,12,8,32
      409                           .member _nClean,96,12,8,32
      410                           .member _nPIBPaten,128,12,8,32
      411                           .member _nS_FDIPaten,160,12,8,32
      412                           .member _nIM_Text,192,8,8,64,.fake31
      413                           .member _nPR_Text,256,8,8,64,.fake31
      414                           .member _nAddSet,320,12,8,32
      415                           .member _nSDI_Clean,352,12,8,32
      416                           .member _nManualSet,384,12,8,32
      417                           .member _nDeadheadFlag,416,12,8,32
      418                           .member _nDest9999Flag,448,12,8,32
      419                           .member _nSddAddCntUp,480,12,8,32
      420                           .member _nPaSendTxCnt,512,12,8,32
      421                           .member _nPaSendStartFlag,544,12,8,32
      422                           .member _nPaSendEndFlag,576,12,8,32
      423                           .eos
      424                           .sym    _SCC_SEND_FLAG,0,8,13,608,.fake32
      425                           .stag   .fake33,64
      426                           .member _nCh,0,12,8,32
      427                           .member _nLen,32,12,8,32
      428                           .eos
      429                           .sym    _RING_FALG,0,8,13,64,.fake33
      430                           .stag   .fake34,704
      431                           .member _nPush_Cnt,0,12,8,32
      432                           .member _nPop_Cnt,32,12,8,32
TMS320C3x/4x COFF AssemblerVersion 5.11     Mon Apr 29 17:36:37 2013
Copyright (c) 1987-1999 Texas Instruments Incorporatedc:\lang\tms320c3x\511\bin\asm30.exe -l gpproface.asm gpproface.obj -tC:\Users\JDS\AppData\Local\Temp\gpproface.tmp 

gpproface.asm                                                        PAGE    9

      433                           .member _nRingFlagBuf,64,56,8,640,.fake33,10
      434                           .eos
      435                           .sym    _RING_BUF_FALG,0,8,13,704,.fake34
      436                           .stag   .fake35,17600
      437                           .member _nDataBuf,0,60,8,17600,,550
      438                           .eos
      439                           .sym    _RING_DATA,0,8,13,17600,.fake35
      440                           .stag   .fake36,176000
      441                           .member _nRingDataBuf,0,56,8,176000,.fake35,10
      442                           .eos
      443                           .sym    _RING_BUF_DATA,0,8,13,176000,.fake36
      444                           .sym    _PRING_BUF_DATA,0,24,13,32,.fake36
      445                           .stag   .fake37,224
      446                           .member _nIDC_ROM_Flag,0,12,8,32
      447                           .member _nErCnt,32,12,8,32
      448                           .member _nErFlag,64,12,8,32
      449                           .member _nDataNvsrLoad,96,12,8,32
      450                           .member _nDataNvsrWait,128,12,8,32
      451                           .member _nRomWriteCnt,160,12,8,32
      452                           .member _nKO_Flag,192,12,8,32
      453                           .eos
      454                           .sym    _IDC_ROM_WRITE,0,8,13,224,.fake37
      455                           .stag   .fake38,224
      456                           .member _nAA,0,12,8,32
      457                           .member _nBB,32,12,8,32
      458                           .member _nCC,64,12,8,32
      459                           .member _nLen_H,96,12,8,32
      460                           .member _nLen_L,128,12,8,32
      461                           .member _nLenCom_H,160,12,8,32
      462                           .member _nLenCom_L,192,12,8,32
      463                           .eos
      464                           .sym    _SCC_HEAD,0,8,13,224,.fake38
      465                           .stag   .fake39,320
      466                           .member _nToAdd,0,12,8,32
      467                           .member _nFromAdd,32,12,8,32
      468                           .member _nCode,64,12,8,32
      469                           .member _nSp3,96,12,8,32
      470                           .member _nSp4,128,12,8,32
      471                           .member _nErBlk,160,12,8,32
      472                           .member _nSp6,192,12,8,32
      473                           .member _nSp7,224,12,8,32
      474                           .member _nSp8,256,12,8,32
      475                           .member _nSp9,288,12,8,32
      476                           .eos
      477                           .sym    _SCC_TEST,0,8,13,320,.fake39
      478                           .stag   .fake40,640
      479                           .member _nHead,0,8,8,224,.fake38
      480                           .member _nTest,224,8,8,320,.fake39
      481                           .member _Etx,544,12,8,32
      482                           .member _CRC_H,576,12,8,32
      483                           .member _CRC_L,608,12,8,32
      484                           .eos
      485                           .sym    _SCC_TX_DATA,0,8,13,640,.fake40
      486                           .sym    _PSCC_TX_DATA,0,24,13,32,.fake40
TMS320C3x/4x COFF AssemblerVersion 5.11     Mon Apr 29 17:36:37 2013
Copyright (c) 1987-1999 Texas Instruments Incorporatedc:\lang\tms320c3x\511\bin\asm30.exe -l gpproface.asm gpproface.obj -tC:\Users\JDS\AppData\Local\Temp\gpproface.tmp 

gpproface.asm                                                        PAGE   10

      487                           .stag   .fake41,17696
      488                           .member _nToAdd,0,12,8,32
      489                           .member _nFromAdd,32,12,8,32
      490                           .member _nCode,64,12,8,32
      491                           .member _nTEXT,96,60,8,17600,,550
      492                           .eos
      493                           .sym    _SCC_TEXT,0,8,13,17696,.fake41
      494                           .stag   .fake42,17920
      495                           .member _nHead,0,8,8,224,.fake38
      496                           .member _nText,224,8,8,17696,.fake41
      497                           .eos
      498                           .sym    _SCC_PIB_TEXT,0,8,13,17920,.fake42
      499                           .sym    _PSCC_PIB_TEXT,0,24,13,32,.fake42
      500                           .stag   .fake44,32
      501                           .member _nFirCode,0,14,18,1
      502                           .member _B1,1,14,18,1
      503                           .member _B2,2,14,18,1
      504                           .member _B3,3,14,18,1
      505                           .member _nMc2Flag,4,14,18,1
      506                           .member _nMc1Flag,5,14,18,1
      507                           .member _nIDCFlag,6,14,18,1
      508                           .member _nAutoTest,7,14,18,1
      509                           .eos
      510                           .stag   .fake45,32
      511                           .member _n1PA_1,0,14,18,1
      512                           .member _n2PA_4,1,14,18,1
      513                           .member _n3COB_1,2,14,18,1
      514                           .member _n4COB_4,3,14,18,1
      515                           .member _n5SOBL_1,4,14,18,1
      516                           .member _n6SOBL_4,5,14,18,1
      517                           .member _n7SOBR_1,6,14,18,1
      518                           .member _n8SOBR_4,7,14,18,1
      519                           .eos
      520                           .stag   .fake46,32
      521                           .member _n1Pow_Amp_1,0,14,18,1
      522                           .member _n2Pow_Amp_2,1,14,18,1
      523                           .member _n3Pow_Amp_3,2,14,18,1
      524                           .member _n4Pow_Amp_4,3,14,18,1
      525                           .member _n5sp,4,14,18,1
      526                           .member _n6sp,5,14,18,1
      527                           .member _n7sp,6,14,18,1
      528                           .member _n8sp,7,14,18,1
      529                           .eos
      530                           .stag   .fake47,32
      531                           .member _n1EM_Phon_1,0,14,18,1
      532                           .member _n2EM_Phon_2,1,14,18,1
      533                           .member _n3EM_Phon_3,2,14,18,1
      534                           .member _n4EM_Phon_4,3,14,18,1
      535                           .member _n5sp,4,14,18,1
      536                           .member _n6sp,5,14,18,1
      537                           .member _n7sp,6,14,18,1
      538                           .member _n8sp,7,14,18,1
      539                           .eos
      540                           .stag   .fake43,704
TMS320C3x/4x COFF AssemblerVersion 5.11     Mon Apr 29 17:36:37 2013
Copyright (c) 1987-1999 Texas Instruments Incorporatedc:\lang\tms320c3x\511\bin\asm30.exe -l gpproface.asm gpproface.obj -tC:\Users\JDS\AppData\Local\Temp\gpproface.tmp 

gpproface.asm                                                        PAGE   11

      541                           .member _nSTX,0,12,8,32
      542                           .member _nST_Code,32,12,8,32
      543                           .member _nSp1,64,12,8,32
      544                           .member _nStaCod,96,12,8,32
      545                           .member _nNowCod,128,12,8,32
      546                           .member _nNexCod,160,12,8,32
      547                           .member _nDetCod,192,12,8,32
      548                           .member _nSp2,224,12,8,32
      549                           .member _BIT,256,8,8,32,.fake44
      550                           .member _nTrnBuf,288,60,8,128,,4
      551                           .member _PA_IDC_Falt_1,416,8,8,32,.fake45
      552                           .member _PA_IDC_Falt_2,448,8,8,32,.fake46
      553                           .member _PA_IDC_Falt_3,480,8,8,32,.fake47
      554                           .member _nTCR_DATA,512,8,8,64,.fake3
      555                           .member _nSp3Buf,576,60,8,96,,3
      556                           .member _nETX,672,12,8,32
      557                           .eos
      558                           .sym    _SCC_TCMS,0,8,13,704,.fake43
      559                           .sym    _TCMS_PSS,0,24,13,32,.fake43
      560                           .stag   .fake50,32
      561                           .member _n1PA_1,0,14,18,1
      562                           .member _n2PA_4,1,14,18,1
      563                           .member _n3COB_1,2,14,18,1
      564                           .member _n4COB_4,3,14,18,1
      565                           .member _n5SOBL_1,4,14,18,1
      566                           .member _n6SOBL_4,5,14,18,1
      567                           .member _n7SOBR_1,6,14,18,1
      568                           .member _n8SOBR_4,7,14,18,1
      569                           .eos
      570                           .utag   .fake49,32
      571                           .member _BYTE,0,14,11,32
      572                           .member _BIT,0,8,11,32,.fake50
      573                           .eos
      574                           .stag   .fake52,32
      575                           .member _n1Pow_Amp_1,0,14,18,1
      576                           .member _n2Pow_Amp_2,1,14,18,1
      577                           .member _n3Pow_Amp_3,2,14,18,1
      578                           .member _n4Pow_Amp_4,3,14,18,1
      579                           .member _n5sp,4,14,18,1
      580                           .member _n6sp,5,14,18,1
      581                           .member _n7sp,6,14,18,1
      582                           .member _n8sp,7,14,18,1
      583                           .eos
      584                           .utag   .fake51,32
      585                           .member _BYTE,0,14,11,32
      586                           .member _BIT,0,8,11,32,.fake52
      587                           .eos
      588                           .stag   .fake54,32
      589                           .member _n1EM_Phon_1,0,14,18,1
      590                           .member _n2EM_Phon_2,1,14,18,1
      591                           .member _n3EM_Phon_3,2,14,18,1
      592                           .member _n4EM_Phon_4,3,14,18,1
      593                           .member _n5sp,4,14,18,1
      594                           .member _n6sp,5,14,18,1
TMS320C3x/4x COFF AssemblerVersion 5.11     Mon Apr 29 17:36:37 2013
Copyright (c) 1987-1999 Texas Instruments Incorporatedc:\lang\tms320c3x\511\bin\asm30.exe -l gpproface.asm gpproface.obj -tC:\Users\JDS\AppData\Local\Temp\gpproface.tmp 

gpproface.asm                                                        PAGE   12

      595                           .member _n7sp,6,14,18,1
      596                           .member _n8sp,7,14,18,1
      597                           .eos
      598                           .utag   .fake53,32
      599                           .member _BYTE,0,14,11,32
      600                           .member _BIT,0,8,11,32,.fake54
      601                           .eos
      602                           .stag   .fake55,32
      603                           .member _n1FDD_1,0,14,18,1
      604                           .member _n2FDD_4,1,14,18,1
      605                           .member _n3sp,2,14,18,1
      606                           .member _n4sp,3,14,18,1
      607                           .member _n5FDD_5,4,14,18,1
      608                           .member _n6FDD_8,5,14,18,1
      609                           .member _n7sp,6,14,18,1
      610                           .member _n8Self_Info,7,14,18,1
      611                           .eos
      612                           .stag   .fake56,32
      613                           .member _n1SDD1_1,0,14,18,1
      614                           .member _n2SDD2_1,1,14,18,1
      615                           .member _n3SDD3_1,2,14,18,1
      616                           .member _n4SDD4_1,3,14,18,1
      617                           .member _n5SDD5_1,4,14,18,1
      618                           .member _n6SDD6_1,5,14,18,1
      619                           .member _n7SDD7_1,6,14,18,1
      620                           .member _n8SDD8_1,7,14,18,1
      621                           .eos
      622                           .stag   .fake57,32
      623                           .member _n1SDD1_2,0,14,18,1
      624                           .member _n2SDD2_2,1,14,18,1
      625                           .member _n3SDD3_2,2,14,18,1
      626                           .member _n4SDD4_2,3,14,18,1
      627                           .member _n5SDD5_2,4,14,18,1
      628                           .member _n6SDD6_2,5,14,18,1
      629                           .member _n7SDD7_2,6,14,18,1
      630                           .member _n8SDD8_2,7,14,18,1
      631                           .eos
      632                           .stag   .fake48,704
      633                           .member _nSTX,0,12,8,32
      634                           .member _nST_Code,32,12,8,32
      635                           .member _nSp1,64,12,8,32
      636                           .member _nStaCod,96,12,8,32
      637                           .member _nNowCod,128,12,8,32
      638                           .member _nNexCod,160,12,8,32
      639                           .member _nDetCod,192,12,8,32
      640                           .member _PA_IDC_Falt_1,224,9,8,32,.fake49
      641                           .member _PA_IDC_Falt_2,256,9,8,32,.fake51
      642                           .member _PA_IDC_Falt_3,288,9,8,32,.fake53
      643                           .member _nTCR_DATA,320,8,8,64,.fake3
      644                           .member _PID_Falt_1,384,8,8,32,.fake55
      645                           .member _PID_Falt_2,416,8,8,32,.fake56
      646                           .member _PID_Falt_3,448,8,8,32,.fake57
      647                           .member _nSpBuf,480,60,8,192,,6
      648                           .member _nETX,672,12,8,32
TMS320C3x/4x COFF AssemblerVersion 5.11     Mon Apr 29 17:36:37 2013
Copyright (c) 1987-1999 Texas Instruments Incorporatedc:\lang\tms320c3x\511\bin\asm30.exe -l gpproface.asm gpproface.obj -tC:\Users\JDS\AppData\Local\Temp\gpproface.tmp 

gpproface.asm                                                        PAGE   13

      649                           .eos
      650                           .sym    _PSS_TCMS_SD,0,8,13,704,.fake48
      651                           .sym    _PPSS_TCMS_SD,0,24,13,32,.fake48
      652                           .stag   .fake58,96
      653                           .member _nIDCFlag,0,12,8,32
      654                           .member _nMc1Flag,32,12,8,32
      655                           .member _nMc2Flag,64,12,8,32
      656                           .eos
      657                           .sym    _TCMS_IDC_INFO,0,8,13,96,.fake58
      658                           .stag   .fake59,160
      659                           .member _nTimeTranNum,0,14,8,32
      660                           .member _nStartHour,32,60,8,64,,2
      661                           .member _nStartMin,96,60,8,64,,2
      662                           .eos
      663                           .sym    _TRANNUMTIME,0,8,13,160,.fake59
      664                           .sym    _PTRANNUMTIME,0,24,13,32,.fake59
      665                           .stag   .fake60,4000
      666                           .member _nTIMEBUF,0,56,8,4000,.fake59,25
      667                           .eos
      668                           .sym    _TIMEBUF,0,8,13,4000,.fake60
      669                           .sym    _PTIMEBUF,0,24,13,32,.fake60
      670                           .file   "Disk.h"
      671                           .stag   .fake61,416
      672                           .member _FileName,0,60,8,256,,8
      673                           .member _ExtName,256,60,8,96,,3
      674                           .member _StartCluster,352,13,8,32
      675                           .member _FileSize,384,13,8,32
      676                           .eos
      677                           .sym    _OPEN_FILE,0,8,13,416,.fake61
      678                           .stag   .fake62,1472
      679                           .member _StationCode,0,12,8,32
      680                           .member _EngName,32,60,8,480,,15
      681                           .member _IranName,512,60,8,960,,30
      682                           .eos
      683                           .sym    _STATION_BUF,0,8,13,1472,.fake62
      684                           .stag   .fake63,147200
      685                           .member _StaName,0,56,8,147200,.fake62,100
      686                           .eos
      687                           .sym    _STATION_NAME,0,8,13,147200,.fake63
      688                           .sym    _PSTATION_NAME,0,24,13,32,.fake63
      689                           .stag   .fake64,147200
      690                           .member _StaName,0,56,8,147200,.fake62,100
      691                           .eos
      692                           .sym    _STATION_NAME_ALL,0,8,13,147200,.fake64
      693                           .sym    _PSTATION_NAME_ALL,0,24,13,32,.fake64
      694                           .stag   .fake65,96
      695                           .member _nDis_Point,0,15,8,32
      696                           .member _Type,32,12,8,32
      697                           .member _Number,64,12,8,32
      698                           .eos
      699                           .sym    _DISPLAY_INDEX,0,8,13,96,.fake65
      700                           .stag   .fake66,14560
      701                           .member _nCnt,0,12,8,32
      702                           .member _nDoor,32,12,8,32
TMS320C3x/4x COFF AssemblerVersion 5.11     Mon Apr 29 17:36:37 2013
Copyright (c) 1987-1999 Texas Instruments Incorporatedc:\lang\tms320c3x\511\bin\asm30.exe -l gpproface.asm gpproface.obj -tC:\Users\JDS\AppData\Local\Temp\gpproface.tmp 

gpproface.asm                                                        PAGE   14

      703                           .member _nStart_Time_H,64,12,8,32
      704                           .member _nStart_Time_M,96,12,8,32
      705                           .member _nStart_Time_S,128,12,8,32
      706                           .member _nDisplay_str,160,56,8,14400,.fake65,150
      707                           .eos
      708                           .sym    _DISPLAY_INDEX_NAME,0,8,13,14560,.fake66
      709                           .sym    _PDISPLAY_INDEX_NAME,0,24,13,32,.fake66
      710                           .stag   .fake67,512
      711                           .member _nStationCode,0,12,8,32
      712                           .member _nStationName,32,60,8,480,,15
      713                           .eos
      714                           .sym    _DEST_SET_SCREEN,0,8,13,512,.fake67
      715                           .stag   .fake68,16032
      716                           .member _nScreenNum,0,12,8,32
      717                           .member _nDestSetNum,32,12,8,32
      718                           .member _nDestSetNumRe,64,12,8,32
      719                           .member _nStop_Patten_Num,96,12,8,32
      720                           .member _nTrainClass_Num,128,12,8,32
      721                           .member _nMatchCode,160,60,8,8192,,256
      722                           .member _nDestCodeList,8352,60,8,2560,,80
      723                           .member _nDestScreen,10912,56,8,5120,.fake67,10
      724                           .eos
      725                           .sym    _NVSRAM_VARIABLE,0,8,13,16032,.fake68
      726                           .sym    _PNVSRAM_VARIABLE,0,24,13,32,.fake68
      727                           .stag   .fake69,64
      728                           .member _nData_Type,0,12,8,32
      729                           .eos
      730                           .sym    _DATA_TYPE,0,8,13,64,.fake69
      731                           .sym    _PDATA_TYPE,0,24,13,32,.fake69
      732                           .stag   .fake70,192
      733                           .member _nYy,0,12,8,32
      734                           .member _nMm,32,12,8,32
      735                           .member _nDd,64,12,8,32
      736                           .member _nhh,96,12,8,32
      737                           .member _nmm,128,12,8,32
      738                           .member _nss,160,12,8,32
      739                           .eos
      740                           .sym    _DATE,0,8,13,192,.fake70
      741                           .stag   .fake71,1536
      742                           .member _nDataHead_b,0,60,8,832,,26
      743                           .member _nSp1,832,12,8,32
      744                           .member _nEEE_b,864,60,8,128,,4
      745                           .member _nSp2_b,992,60,8,96,,3
      746                           .member _nDD_b,1088,60,8,64,,2
      747                           .member _nSp3_b,1152,60,8,96,,3
      748                           .member _nDate,1248,8,8,192,.fake70
      749                           .member _nSp4_b,1440,60,8,96,,3
      750                           .eos
      751                           .sym    _PISC_HEAD,0,8,13,1536,.fake71
      752                           .sym    _pPISC_HEAD,0,24,13,32,.fake71
      753                           .stag   .fake72,2816
      754                           .member _nHead_h,0,8,8,1536,.fake71
      755                           .member _nAdd1_St_Name_b,1536,60,8,128,,4
      756                           .member _nAdd2_St_Info_b,1664,60,8,128,,4
TMS320C3x/4x COFF AssemblerVersion 5.11     Mon Apr 29 17:36:37 2013
Copyright (c) 1987-1999 Texas Instruments Incorporatedc:\lang\tms320c3x\511\bin\asm30.exe -l gpproface.asm gpproface.obj -tC:\Users\JDS\AppData\Local\Temp\gpproface.tmp 

gpproface.asm                                                        PAGE   15

      757                           .member _nAdd3_Dest_Info_b,1792,60,8,128,,4
      758                           .member _nAdd4_Stop_Pt_I_b,1920,60,8,128,,4
      759                           .member _nAdd5_Stop_Pt_G_b,2048,60,8,128,,4
      760                           .member _nAdd6_Display_I_b,2176,60,8,128,,4
      761                           .member _nAdd7_Display_G_b,2304,60,8,128,,4
      762                           .member _nAdd8_Dia_I_b,2432,60,8,128,,4
      763                           .member _nAdd9_Dia_G_b,2560,60,8,128,,4
      764                           .member _nAdd10_Text_Info_b,2688,60,8,128,,4
      765                           .eos
      766                           .sym    _PISC_DATA_ADD,0,8,13,2816,.fake72
      767                           .sym    _pPISC_DATA_ADD,0,24,13,32,.fake72
      768                           .stag   .fake73,64
      769                           .member _nNum_b,0,60,8,64,,2
      770                           .eos
      771                           .sym    _HEADER,0,8,13,64,.fake73
      772                           .sym    _pHEADER,0,24,13,32,.fake73
      773                           .stag   .fake74,1504
      774                           .member _nCode_b,0,60,8,64,,2
      775                           .member _nKorName_b,64,60,8,480,,15
      776                           .member _nEngName_b,544,60,8,960,,30
      777                           .eos
      778                           .sym    _ST_NAME_B,0,8,13,1504,.fake74
      779                           .sym    _pST_NAME_B,0,24,13,32,.fake74
      780                           .stag   .fake75,225664
      781                           .member _nCnt,0,8,8,64,.fake73
      782                           .member _pBody,64,56,8,225600,.fake74,150
      783                           .eos
      784                           .sym    _ST_NAME,0,8,13,225664,.fake75
      785                           .sym    _pST_NAME,0,24,13,32,.fake75
      786                           .stag   .fake76,608
      787                           .member _nCode_b,0,60,8,64,,2
      788                           .member _nName_Index_b,64,60,8,64,,2
      789                           .member _nST_Name_b,128,60,8,480,,15
      790                           .eos
      791                           .sym    _DEST_INFO_B,0,8,13,608,.fake76
      792                           .sym    _pDEST_INFO_B,0,24,13,32,.fake76
      793                           .stag   .fake77,91264
      794                           .member _nCnt,0,8,8,64,.fake73
      795                           .member _pBody,64,56,8,91200,.fake76,150
      796                           .eos
      797                           .sym    _DEST_INFO,0,8,13,91264,.fake77
      798                           .sym    _pDEST_INFO,0,24,13,32,.fake77
      799                           .stag   .fake78,224
      800                           .member _nCode_b,0,60,8,64,,2
      801                           .member _nType,64,12,8,32
      802                           .member _nAddress_b,96,60,8,128,,4
      803                           .eos
      804                           .sym    _DIA_GROUP_B,0,8,13,224,.fake78
      805                           .sym    _pDIA_GROUP_B,0,24,13,32,.fake78
      806                           .stag   .fake79,33664
      807                           .member _nCnt,0,8,8,64,.fake73
      808                           .member _pBody,64,56,8,33600,.fake78,150
      809                           .eos
      810                           .sym    _DIA_GROUP,0,8,13,33664,.fake79
TMS320C3x/4x COFF AssemblerVersion 5.11     Mon Apr 29 17:36:37 2013
Copyright (c) 1987-1999 Texas Instruments Incorporatedc:\lang\tms320c3x\511\bin\asm30.exe -l gpproface.asm gpproface.obj -tC:\Users\JDS\AppData\Local\Temp\gpproface.tmp 

gpproface.asm                                                        PAGE   16

      811                           .sym    _pDIA_GROUP,0,24,13,32,.fake79
      812                           .stag   .fake80,480
      813                           .member _nCode_b,0,60,8,64,,2
      814                           .member _nSt_Time_H,64,12,8,32
      815                           .member _nSt_Time_M,96,12,8,32
      816                           .member _nSt_Time_S,128,12,8,32
      817                           .member _nStopPtG_Addres_b,160,60,8,128,,4
      818                           .member _nDispG_Addres_b,288,60,8,128,,4
      819                           .member _nDest_Index_b,416,60,8,64,,2
      820                           .eos
      821                           .sym    _DIA_G_ITEM_B,0,8,13,480,.fake80
      822                           .sym    _pDIA_G_ITEM_B,0,24,13,32,.fake80
      823                           .stag   .fake81,72064
      824                           .member _nCnt,0,8,8,64,.fake73
      825                           .member _pBody,64,56,8,72000,.fake80,150
      826                           .eos
      827                           .sym    _DIA_G_ITEM,0,8,13,72064,.fake81
      828                           .sym    _pDIA_G_ITEM,0,24,13,32,.fake81
      829                           .stag   .fake82,192
      830                           .member _nSt_Cnt_b,0,60,8,64,,2
      831                           .member _nGuri_b,64,60,8,64,,2
      832                           .member _nItem_Index_b,128,60,8,64,,2
      833                           .eos
      834                           .sym    _DISPLAY_G_B,0,8,13,192,.fake82
      835                           .sym    _pDISPLAY_G_B,0,24,13,32,.fake82
      836                           .stag   .fake83,28864
      837                           .member _nCnt,0,8,8,64,.fake73
      838                           .member _pBody,64,56,8,28800,.fake82,150
      839                           .eos
      840                           .sym    _DISPLAY_GROUP,0,8,13,28864,.fake83
      841                           .sym    _pDISPLAY_GROUP,0,24,13,32,.fake83
      842                           .stag   .fake84,128
      843                           .member _nText_Kind_b,0,60,8,64,,2
      844                           .member _nText_Index,64,60,8,64,,2
      845                           .eos
      846                           .sym    _DISPLAY_ITEM_B,0,8,13,128,.fake84
      847                           .sym    _pDISPLAY_ITEM_B,0,24,13,32,.fake84
      848                           .stag   .fake85,19264
      849                           .member _nCnt,0,8,8,64,.fake73
      850                           .member _pBody,64,56,8,19200,.fake84,150
      851                           .eos
      852                           .sym    _DISPLAY_ITEM,0,8,13,19264,.fake85
      853                           .sym    _pDISPLAY_ITEM,0,24,13,32,.fake85
      854                           .stag   .fake86,256
      855                           .member _nSt_Cnt_b,0,60,8,64,,2
      856                           .member _nGuri_b,64,60,8,64,,2
      857                           .member _nItem_Index_Flag,128,8,8,128,.fake84
      858                           .eos
      859                           .sym    _DISPLAY_G_I_B,0,8,13,256,.fake86
      860                           .sym    _pDISPLAY_G_I_B,0,24,13,32,.fake86
      861                           .stag   .fake87,128064
      862                           .member _nCnt,0,8,8,64,.fake73
      863                           .member _pBody,64,56,8,128000,.fake86,500
      864                           .eos
TMS320C3x/4x COFF AssemblerVersion 5.11     Mon Apr 29 17:36:37 2013
Copyright (c) 1987-1999 Texas Instruments Incorporatedc:\lang\tms320c3x\511\bin\asm30.exe -l gpproface.asm gpproface.obj -tC:\Users\JDS\AppData\Local\Temp\gpproface.tmp 

gpproface.asm                                                        PAGE   17

      865                           .sym    _DISPLAY_G_I_H,0,8,13,128064,.fake87
      866                           .sym    _pDISPLAY_G_I_H,0,24,13,32,.fake87
      867                           .stag   .fake88,192
      868                           .member _nSt_Index_b,0,60,8,64,,2
      869                           .member _nEn_Index_b,64,60,8,64,,2
      870                           .member _nSt_P_G_Cnt_b,128,60,8,64,,2
      871                           .eos
      872                           .sym    _STOP_PT_G_B_H,0,8,13,192,.fake88
      873                           .sym    _pSTOP_PT_G_B_H,0,24,13,32,.fake88
      874                           .stag   .fake89,64
      875                           .member _nSt_P_Item_Index_b,0,60,8,64,,2
      876                           .eos
      877                           .sym    _STOP_PT_G_B_B,0,8,13,64,.fake89
      878                           .sym    _pSTOP_PT_G_B_B,0,24,13,32,.fake89
      879                           .stag   .fake90,9792
      880                           .member _nHeader,0,8,8,192,.fake88
      881                           .member _pBody,192,56,8,9600,.fake89,150
      882                           .eos
      883                           .sym    _STOP_PT_G_B,0,8,13,9792,.fake90
      884                           .sym    _pSTOP_PT_G_B,0,24,13,32,.fake90
      885                           .stag   .fake91,1468864
      886                           .member _nCnt,0,8,8,64,.fake73
      887                           .member _pBody,64,56,8,1468800,.fake90,150
      888                           .eos
      889                           .sym    _STOP_PT_GROUP,0,8,13,1468864,.fake91
      890                           .sym    _pSTOP_PT_GROUP,0,24,13,32,.fake91
      891                           .stag   .fake92,288
      892                           .member _nSt_Info_b,0,60,8,64,,2
      893                           .member _nDoor_Info,64,12,8,32
      894                           .member _nSt_Time_b,96,60,8,96,,3
      895                           .member _nStop_Time_b,192,60,8,96,,3
      896                           .eos
      897                           .sym    _STOP_PT_ITEM_B,0,8,13,288,.fake92
      898                           .sym    _pSTOP_PT_ITEM_B,0,24,13,32,.fake92
      899                           .stag   .fake93,43264
      900                           .member _nCnt,0,8,8,64,.fake73
      901                           .member _pBody,64,56,8,43200,.fake92,150
      902                           .eos
      903                           .sym    _STOP_PT_ITEM,0,8,13,43264,.fake93
      904                           .sym    _pSTOP_PT_ITEM,0,24,13,32,.fake93
      905                           .stag   .fake94,192
      906                           .member _nSt_Index_b,0,60,8,64,,2
      907                           .member _nArr_Index_b,64,60,8,64,,2
      908                           .member _nSt_Dist_b,128,60,8,64,,2
      909                           .eos
      910                           .sym    _ST_INFO_B,0,8,13,192,.fake94
      911                           .sym    _pST_INFO_B,0,24,13,32,.fake94
      912                           .stag   .fake95,28864
      913                           .member _nCnt,0,8,8,64,.fake73
      914                           .member _pBody,64,56,8,28800,.fake94,150
      915                           .eos
      916                           .sym    _ST_INFO,0,8,13,28864,.fake95
      917                           .sym    _pST_INFO,0,24,13,32,.fake95
      918                           .stag   .fake96,416
TMS320C3x/4x COFF AssemblerVersion 5.11     Mon Apr 29 17:36:37 2013
Copyright (c) 1987-1999 Texas Instruments Incorporatedc:\lang\tms320c3x\511\bin\asm30.exe -l gpproface.asm gpproface.obj -tC:\Users\JDS\AppData\Local\Temp\gpproface.tmp 

gpproface.asm                                                        PAGE   18

      919                           .member _nSt_Info_flag,0,8,8,192,.fake94
      920                           .member _nDoor_Info,192,12,8,32
      921                           .member _nSt_Time_b,224,60,8,96,,3
      922                           .member _nStop_Time_b,320,60,8,96,,3
      923                           .eos
      924                           .sym    _STOP_PT_INFO_ITEM_B,0,8,13,416,.fake96
      925                           .sym    _pSTOP_PT_INFO_ITEM_B,0,24,13,32,.fake96
      926                           .stag   .fake97,62464
      927                           .member _nCnt,0,8,8,64,.fake73
      928                           .member _pBody,64,56,8,62400,.fake96,150
      929                           .eos
      930                           .sym    _STOP_PT_INFO_ITEM,0,8,13,62464,.fake97
      931                           .sym    _pSTOP_PT_INFO_ITEM,0,24,13,32,.fake97
      932                           .stag   .fake98,62592
      933                           .member _nHeader,0,8,8,192,.fake88
      934                           .member _nSt_Pt_G_I_Flage,192,56,8,62400,.fake96,150
      935                           .eos
      936                           .sym    _STOP_PT_G_I_HAP,0,8,13,62592,.fake98
      937                           .sym    _pSTOP_PT_G_I_HAP,0,24,13,32,.fake98
      938                           .stag   .fake99,9600
      939                           .member _nImCheck,0,12,8,32
      940                           .member _nImNum,32,12,8,32
      941                           .member _nImText,64,60,8,9536,,298
      942                           .eos
      943                           .sym    _IMTEXTBODY,0,8,13,9600,.fake99
      944                           .sym    _PIMTEXTBODY,0,24,13,32,.fake99
      945                           .stag   .fake100,960000
      946                           .member _nBody,0,56,8,960000,.fake99,100
      947                           .eos
      948                           .sym    _IMTEXT,0,8,13,960000,.fake100
      949                           .sym    _PIMTEXT,0,24,13,32,.fake100
      950                           .stag   .fake101,16000
      951                           .member _nPrCheck,0,12,8,32
      952                           .member _nPrNum,32,12,8,32
      953                           .member _nPrText,64,60,8,15936,,498
      954                           .eos
      955                           .sym    _PRTEXTBODY,0,8,13,16000,.fake101
      956                           .sym    _PPRTEXTBODY,0,24,13,32,.fake101
      957                           .stag   .fake102,960000
      958                           .member _nBody,0,56,8,960000,.fake101,60
      959                           .eos
      960                           .sym    _PRTEXT,0,8,13,960000,.fake102
      961                           .sym    _PPRTEXT,0,24,13,32,.fake102
      962                           .stag   .fake103,1920128
      963                           .member _nBlockSize_b,0,60,8,128,,4
      964                           .member _nImBlock,128,8,8,960000,.fake100
      965                           .member _nPrBlock,960128,8,8,960000,.fake102
      966                           .eos
      967                           .sym    _TEXT_BLOCK,0,8,13,1920128,.fake103
      968                           .sym    _pTEXT_BLOCK,0,24,13,32,.fake103
      969                           .stag   .fake104,64
      970                           .member _nSt_Pt_G_Address,0,15,8,32
      971                           .member _nDisp_G_Address,32,15,8,32
      972                           .eos
TMS320C3x/4x COFF AssemblerVersion 5.11     Mon Apr 29 17:36:37 2013
Copyright (c) 1987-1999 Texas Instruments Incorporatedc:\lang\tms320c3x\511\bin\asm30.exe -l gpproface.asm gpproface.obj -tC:\Users\JDS\AppData\Local\Temp\gpproface.tmp 

gpproface.asm                                                        PAGE   19

      973                           .sym    _START_NV_ADDRESS,0,8,13,64,.fake104
      974                           .file   "xr16788.h"
      975                           .stag   .fake107,32
      976                           .member _B0,0,14,18,1
      977                           .member _B1,1,14,18,1
      978                           .member _B2,2,14,18,1
      979                           .member _B3,3,14,18,1
      980                           .member _B4,4,14,18,1
      981                           .member _B5,5,14,18,1
      982                           .member _B6,6,14,18,1
      983                           .member _B7,7,14,18,1
      984                           .eos
      985                           .utag   .fake106,32
      986                           .member _BYTE,0,14,11,32
      987                           .member _BIT,0,8,11,32,.fake107
      988                           .eos
      989                           .stag   .fake105,32
      990                           .member _DR,0,9,8,32,.fake106
      991                           .eos
      992                           .sym    _TMS_SEND_DATA,0,8,13,32,.fake105
      993                           .sym    _PTMS_SEND_DATA,0,24,13,32,.fake105
      994                           .utag   .fake109,32
      995                           .member _btRxd,0,12,11,32
      996                           .member _btTxd,0,12,11,32
      997                           .member _btDll,0,12,11,32
      998                           .eos
      999                           .utag   .fake110,32
     1000                           .member _btDlm,0,12,11,32
     1001                           .member _btIer,0,12,11,32
     1002                           .eos
     1003                           .utag   .fake111,32
     1004                           .member _btIir,0,12,11,32
     1005                           .member _btFcr,0,12,11,32
     1006                           .eos
     1007                           .stag   .fake108,512
     1008                           .member _CREG1,0,9,8,32,.fake109
     1009                           .member _CREG2,32,9,8,32,.fake110
     1010                           .member _CREG3,64,9,8,32,.fake111
     1011                           .member _btLcr,96,12,8,32
     1012                           .member _btMcr,128,12,8,32
     1013                           .member _btLsr,160,12,8,32
     1014                           .member _btMsr_U,192,12,8,32
     1015                           .member _btScr,224,12,8,32
     1016                           .member _btSp,256,60,8,256,,8
     1017                           .eos
     1018                           .sym    _XR16L788ST,0,8,13,512,.fake108
     1019                           .sym    _PXR16L788ST,0,24,13,32,.fake108
     1020                           .stag   .fake112,4096
     1021                           .member _xr16Reg,0,56,8,4096,.fake108,8
     1022                           .eos
     1023                           .sym    _XR16L788BDY,0,8,13,4096,.fake112
     1024                           .sym    _PXR16L788BDY,0,24,13,32,.fake112
     1025                           .stag   .fake113,608
     1026                           .member _nTxPos,0,12,8,32
TMS320C3x/4x COFF AssemblerVersion 5.11     Mon Apr 29 17:36:37 2013
Copyright (c) 1987-1999 Texas Instruments Incorporatedc:\lang\tms320c3x\511\bin\asm30.exe -l gpproface.asm gpproface.obj -tC:\Users\JDS\AppData\Local\Temp\gpproface.tmp 

gpproface.asm                                                        PAGE   20

     1027                           .member _nTxLen,32,12,8,32
     1028                           .member _nTxOK,64,12,8,32
     1029                           .member _nTxOK_Cnt,96,12,8,32
     1030                           .member _nTx_Rts_Off,128,12,8,32
     1031                           .member _nTxBuffer,160,28,8,32
     1032                           .member _nTxTimeOut,192,12,8,32
     1033                           .member _nRxOK,224,12,8,32
     1034                           .member _nRxOK_Cnt,256,12,8,32
     1035                           .member _nRxRearPos,288,12,8,32
     1036                           .member _nRxFrontPos,320,12,8,32
     1037                           .member _nRxPos,352,12,8,32
     1038                           .member _nRxDlyTm,384,12,8,32
     1039                           .member _nRxLen,416,12,8,32
     1040                           .member _nRxBuffer,448,28,8,32
     1041                           .member _nGetRxBuf,480,28,8,32
     1042                           .member _nRxBuf_BackUp,512,28,8,32
     1043                           .member _nRxTimeOut,544,12,8,32
     1044                           .member _nBPS,576,12,8,32
     1045                           .eos
     1046                           .sym    _XR16788_INIT_SHAPE,0,8,13,608,.fake113
     1047                           .sym    _pXR16788_INIT_SHAPE,0,24,13,32,.fake113
     1048                           .file   "GpProface.h"
     1049                           .stag   .fake114,320
     1050                           .member _nFlag,0,12,8,32
     1051                           .member _nNum,32,13,8,32
     1052                           .member _nRemNum,64,13,8,32
     1053                           .member _nNowSt_Re,96,12,8,32
     1054                           .member _nNextSt_Re,128,12,8,32
     1055                           .member _nASC_NumBuf,160,60,8,160,,5
     1056                           .eos
     1057                           .sym    _TRANNUM_INPUT,0,8,13,320,.fake114
     1058                           .stag   .fake115,448
     1059                           .member _nGPTranNumInput,0,8,8,320,.fake114
     1060                           .member _nScreenSetNum,320,12,8,32
     1061                           .member _nScreenRxTime,352,12,8,32
     1062                           .member _nScreenSafe,384,12,8,32
     1063                           .member _nScreen_Send_Delay_Time,416,12,8,32
     1064                           .eos
     1065                           .sym    _SELETC_BUTTON,0,8,13,448,.fake115
     1066                           .file   "LED_DOWNLOAD.h"
     1067                           .stag   .fake116,160
     1068                           .member _nST_1,0,12,8,32
     1069                           .member _nST_2,32,12,8,32
     1070                           .member _nTXCnt,64,12,8,32
     1071                           .member _nRepCnt,96,12,8,32
     1072                           .member _nErassOk,128,12,8,32
     1073                           .eos
     1074                           .sym    _DOWN_STEP,0,8,13,160,.fake116
     1075                           .stag   .fake117,576
     1076                           .member _nSDDSelt,0,12,8,32
     1077                           .member _nFDDSelt,32,12,8,32
     1078                           .member _nSFKindCode,64,12,8,32
     1079                           .member _nWaitSDR,96,12,8,32
     1080                           .member _nSelfTestFlag,128,12,8,32
TMS320C3x/4x COFF AssemblerVersion 5.11     Mon Apr 29 17:36:37 2013
Copyright (c) 1987-1999 Texas Instruments Incorporatedc:\lang\tms320c3x\511\bin\asm30.exe -l gpproface.asm gpproface.obj -tC:\Users\JDS\AppData\Local\Temp\gpproface.tmp 

gpproface.asm                                                        PAGE   21

     1081                           .member _nSDR_RxCnt,160,12,8,32
     1082                           .member _nErassFlag,192,8,8,160,.fake116
     1083                           .member _nDataDownFlag,352,12,8,32
     1084                           .member _nDataRepetFlag,384,12,8,32
     1085                           .member _nDataRepetNum,416,12,8,32
     1086                           .member _nDataRepetCnt,448,12,8,32
     1087                           .member _nDataSDRFlag,480,12,8,32
     1088                           .member _nDataSize,512,12,8,32
     1089                           .member _nDataTxCnt,544,12,8,32
     1090                           .eos
     1091                           .sym    _LED_DATA_DOWNLOAD,0,8,13,576,.fake117
     1092                           .file   "gpproface.c"
     1093                   
     1094 00000000                  .sect   ".cinit"
     1095 00000000 00000001         .field          1,32
     1096 00000001 00000000-        .field          _m_GpTxDataCnt+0,32
     1097 00000002 00000000         .field          0,32            ; _m_GpTxDataCnt @ 0
     1098                   
     1099 00000000                  .sect   ".text"
     1100                   
     1101                           .global _m_GpTxDataCnt
     1102 00000000                  .bss    _m_GpTxDataCnt,1
     1103                           .sym    _m_GpTxDataCnt,_m_GpTxDataCnt,12,2,32
     1104                   
     1105 00000003                  .sect   ".cinit"
     1106 00000003 00000001         .field          1,32
     1107 00000004 00000001-        .field          _m_GpTimeCnt+0,32
     1108 00000005 00000000         .field          0,32            ; _m_GpTimeCnt @ 0
     1109                   
     1110 00000000                  .sect   ".text"
     1111                   
     1112                           .global _m_GpTimeCnt
     1113 00000001                  .bss    _m_GpTimeCnt,1
     1114                           .sym    _m_GpTimeCnt,_m_GpTimeCnt,12,2,32
     1115                   
     1116 00000006                  .sect   ".cinit"
     1117 00000006 00000001         .field          1,32
     1118 00000007 00000002-        .field          _m_nGpScreenNum+0,32
     1119 00000008 00000000         .field          0,32            ; _m_nGpScreenNum @ 0
     1120                   
     1121 00000000                  .sect   ".text"
     1122                   
     1123                           .global _m_nGpScreenNum
     1124 00000002                  .bss    _m_nGpScreenNum,1
     1125                           .sym    _m_nGpScreenNum,_m_nGpScreenNum,12,2,32
     1126 00000000                  .sect    ".text"
     1127                   
     1128                           .global _gp_WritingDWord
     1129                           .sym    _gp_WritingDWord,_gp_WritingDWord,32,2,0
     1130                           .func   67
     1131                   ;******************************************************************************
     1132                   ;* FUNCTION NAME: _gp_WritingDWord                                            *
     1133                   ;*                                                                            *
     1134                   ;*   Architecture       : TMS320C30                                           *
TMS320C3x/4x COFF AssemblerVersion 5.11     Mon Apr 29 17:36:37 2013
Copyright (c) 1987-1999 Texas Instruments Incorporatedc:\lang\tms320c3x\511\bin\asm30.exe -l gpproface.asm gpproface.obj -tC:\Users\JDS\AppData\Local\Temp\gpproface.tmp 

gpproface.asm                                                        PAGE   22

     1135                   ;*   Calling Convention : Stack Parameter Convention                          *
     1136                   ;*   Function Uses Regs : r0,r1,ar0,ir0                                       *
     1137                   ;*   Regs Saved         :                                                     *
     1138                   ;*   Stack Frame        : Full (w/ debug)                                     *
     1139                   ;*   Total Frame Size   : 2 Call + 2 Parm + 0 Auto + 0 SOE = 4 words          *
     1140                   ;******************************************************************************
     1141 00000000          _gp_WritingDWord:
     1142                           .sym    _Addr,-2,13,9,32
     1143                           .sym    _nData,-3,13,9,32
     1144                           .line   1
     1145                   ;----------------------------------------------------------------------
     1146                   ;  67 | void gp_WritingDWord(WORD Addr,WORD nData)                             
     1147                   ;----------------------------------------------------------------------
     1148 00000000 0f2b0000         push      fp
     1149 00000001 500b0014         ldiu      sp,fp
     1150                           .line   2
     1151                           .line   3
     1152                   ;----------------------------------------------------------------------
     1153                   ;  69 | m_GPTxDataBuf[m_GpTxDataCnt++] = ESC;                                  
     1154                   ;----------------------------------------------------------------------
     1155 00000002 50610001         ldiu      1,r1
     1156 00000003 50280209-        ldiu      @CL1,ar0
     1157 00000004 50310000-        ldiu      @_m_GpTxDataCnt+0,ir0
     1158 00000005 5060001b         ldiu      27,r0
     1159 00000006 02010011         addi      ir0,r1
     1160 00000007 15210000-        sti       r1,@_m_GpTxDataCnt+0
     1161 00000008 15404000         sti       r0,*+ar0(ir0)
     1162                           .line   4
     1163                   ;----------------------------------------------------------------------
     1164                   ;  70 | m_GPTxDataBuf[m_GpTxDataCnt++] = 'W';                                  
     1165                   ;----------------------------------------------------------------------
     1166 00000009 50610001         ldiu      1,r1
     1167 0000000a 50310000-        ldiu      @_m_GpTxDataCnt+0,ir0
     1168 0000000b 50600057         ldiu      87,r0
     1169 0000000c 02010011         addi      ir0,r1
     1170 0000000d 15210000-        sti       r1,@_m_GpTxDataCnt+0
     1171 0000000e 15404000         sti       r0,*+ar0(ir0)
     1172                           .line   5
     1173                   ;----------------------------------------------------------------------
     1174                   ;  71 | m_GPTxDataBuf[m_GpTxDataCnt++] = (Addr>>8)&0xff;                       
     1175                   ;----------------------------------------------------------------------
     1176 0000000f 50610001         ldiu      1,r1
     1177 00000010 50400b02         ldiu      *-fp(2),r0
     1178 00000011 50310000-        ldiu      @_m_GpTxDataCnt+0,ir0
     1179 00000012 09e0fff8         lsh       -8,r0
     1180 00000013 02010011         addi      ir0,r1
     1181 00000014 02e000ff         and       255,r0
     1182 00000015 15210000-        sti       r1,@_m_GpTxDataCnt+0
     1183 00000016 15404000         sti       r0,*+ar0(ir0)
     1184                           .line   6
     1185                   ;----------------------------------------------------------------------
     1186                   ;  72 | m_GPTxDataBuf[m_GpTxDataCnt++] = Addr&0xff;                            
     1187                   ;----------------------------------------------------------------------
     1188 00000017 506000ff         ldiu      255,r0
TMS320C3x/4x COFF AssemblerVersion 5.11     Mon Apr 29 17:36:37 2013
Copyright (c) 1987-1999 Texas Instruments Incorporatedc:\lang\tms320c3x\511\bin\asm30.exe -l gpproface.asm gpproface.obj -tC:\Users\JDS\AppData\Local\Temp\gpproface.tmp 

gpproface.asm                                                        PAGE   23

     1189 00000018 50310000-        ldiu      @_m_GpTxDataCnt+0,ir0
     1190 00000019 50610001         ldiu      1,r1
     1191 0000001a 02010011         addi      ir0,r1
     1192 0000001b 15210000-        sti       r1,@_m_GpTxDataCnt+0
     1193 0000001c 02c00b02         and       *-fp(2),r0
     1194 0000001d 15404000         sti       r0,*+ar0(ir0)
     1195                           .line   7
     1196                   ;----------------------------------------------------------------------
     1197                   ;  73 | m_GPTxDataBuf[m_GpTxDataCnt++] = 0x00;                                 
     1198                   ;----------------------------------------------------------------------
     1199 0000001e 50600001         ldiu      1,r0
     1200 0000001f 50310000-        ldiu      @_m_GpTxDataCnt+0,ir0
     1201 00000020 02000011         addi      ir0,r0
     1202 00000021 50610000         ldiu      0,r1
     1203 00000022 15200000-        sti       r0,@_m_GpTxDataCnt+0
     1204 00000023 15414000         sti       r1,*+ar0(ir0)
     1205                           .line   8
     1206                   ;----------------------------------------------------------------------
     1207                   ;  74 | m_GPTxDataBuf[m_GpTxDataCnt++] = 0x02;                                 
     1208                   ;----------------------------------------------------------------------
     1209 00000024 50310000-        ldiu      @_m_GpTxDataCnt+0,ir0
     1210 00000025 50600001         ldiu      1,r0
     1211 00000026 02000011         addi      ir0,r0
     1212 00000027 50610002         ldiu      2,r1
     1213 00000028 15200000-        sti       r0,@_m_GpTxDataCnt+0
     1214 00000029 15414000         sti       r1,*+ar0(ir0)
     1215                           .line   9
     1216                   ;----------------------------------------------------------------------
     1217                   ;  75 | m_GPTxDataBuf[m_GpTxDataCnt++] = (nData >> 24) & 0xff;                 
     1218                   ;----------------------------------------------------------------------
     1219 0000002a 50310000-        ldiu      @_m_GpTxDataCnt+0,ir0
     1220 0000002b 50600001         ldiu      1,r0
     1221 0000002c 02000011         addi      ir0,r0
     1222 0000002d 15200000-        sti       r0,@_m_GpTxDataCnt+0
     1223 0000002e 50400b03         ldiu      *-fp(3),r0
     1224 0000002f 09e0ffe8         lsh       -24,r0
     1225 00000030 02e000ff         and       255,r0
     1226 00000031 15404000         sti       r0,*+ar0(ir0)
     1227                           .line   10
     1228                   ;----------------------------------------------------------------------
     1229                   ;  76 | m_GPTxDataBuf[m_GpTxDataCnt++] = (nData >> 16) & 0xff;                 
     1230                   ;----------------------------------------------------------------------
     1231 00000032 50400b03         ldiu      *-fp(3),r0
     1232 00000033 50610001         ldiu      1,r1
     1233 00000034 50310000-        ldiu      @_m_GpTxDataCnt+0,ir0
     1234 00000035 09e0fff0         lsh       -16,r0
     1235 00000036 02010011         addi      ir0,r1
     1236 00000037 02e000ff         and       255,r0
     1237 00000038 15210000-        sti       r1,@_m_GpTxDataCnt+0
     1238 00000039 15404000         sti       r0,*+ar0(ir0)
     1239                           .line   11
     1240                   ;----------------------------------------------------------------------
     1241                   ;  77 | m_GPTxDataBuf[m_GpTxDataCnt++] = (nData >> 8) & 0xff;                  
     1242                   ;----------------------------------------------------------------------
TMS320C3x/4x COFF AssemblerVersion 5.11     Mon Apr 29 17:36:37 2013
Copyright (c) 1987-1999 Texas Instruments Incorporatedc:\lang\tms320c3x\511\bin\asm30.exe -l gpproface.asm gpproface.obj -tC:\Users\JDS\AppData\Local\Temp\gpproface.tmp 

gpproface.asm                                                        PAGE   24

     1243 0000003a 50400b03         ldiu      *-fp(3),r0
     1244 0000003b 09e0fff8         lsh       -8,r0
     1245 0000003c 02e000ff         and       255,r0
     1246 0000003d 50310000-        ldiu      @_m_GpTxDataCnt+0,ir0
     1247 0000003e 50610001         ldiu      1,r1
     1248 0000003f 02010011         addi      ir0,r1
     1249 00000040 15210000-        sti       r1,@_m_GpTxDataCnt+0
     1250 00000041 15404000         sti       r0,*+ar0(ir0)
     1251                           .line   12
     1252                   ;----------------------------------------------------------------------
     1253                   ;  78 | m_GPTxDataBuf[m_GpTxDataCnt++] = nData&0xff;                           
     1254                   ;----------------------------------------------------------------------
     1255 00000042 506000ff         ldiu      255,r0
     1256 00000043 50610001         ldiu      1,r1
     1257 00000044 50310000-        ldiu      @_m_GpTxDataCnt+0,ir0
     1258 00000045 02010011         addi      ir0,r1
     1259 00000046 02c00b03         and       *-fp(3),r0
     1260 00000047 15210000-        sti       r1,@_m_GpTxDataCnt+0
     1261 00000048 15404000         sti       r0,*+ar0(ir0)
     1262                           .line   13
     1263 00000049 50510b01         ldiu      *-fp(1),ir0
     1264 0000004a 504bc300         ldiu      *fp,fp
     1265 0000004b 18740002         subi      2,sp
     1266 0000004c 68000011         bu        ir0
     1267                   ;*      Branch Occurs to ir0 
     1268                           .endfunc        79,000000000h,0
     1269                   
     1270                   
     1271 0000004d                  .sect    ".text"
     1272                   
     1273                           .global _gp_WritingWord
     1274                           .sym    _gp_WritingWord,_gp_WritingWord,32,2,0
     1275                           .func   81
     1276                   ;******************************************************************************
     1277                   ;* FUNCTION NAME: _gp_WritingWord                                             *
     1278                   ;*                                                                            *
     1279                   ;*   Architecture       : TMS320C30                                           *
     1280                   ;*   Calling Convention : Stack Parameter Convention                          *
     1281                   ;*   Function Uses Regs : r0,r1,ar0,ir0                                       *
     1282                   ;*   Regs Saved         :                                                     *
     1283                   ;*   Stack Frame        : Full (w/ debug)                                     *
     1284                   ;*   Total Frame Size   : 2 Call + 2 Parm + 0 Auto + 0 SOE = 4 words          *
     1285                   ;******************************************************************************
     1286 0000004d          _gp_WritingWord:
     1287                           .sym    _Addr,-2,13,9,32
     1288                           .sym    _nData,-3,13,9,32
     1289                           .line   1
     1290                   ;----------------------------------------------------------------------
     1291                   ;  81 | void gp_WritingWord(WORD Addr,WORD nData)                              
     1292                   ;----------------------------------------------------------------------
     1293 0000004d 0f2b0000         push      fp
     1294 0000004e 500b0014         ldiu      sp,fp
     1295                           .line   2
     1296                           .line   3
TMS320C3x/4x COFF AssemblerVersion 5.11     Mon Apr 29 17:36:37 2013
Copyright (c) 1987-1999 Texas Instruments Incorporatedc:\lang\tms320c3x\511\bin\asm30.exe -l gpproface.asm gpproface.obj -tC:\Users\JDS\AppData\Local\Temp\gpproface.tmp 

gpproface.asm                                                        PAGE   25

     1297                   ;----------------------------------------------------------------------
     1298                   ;  83 | m_GPTxDataBuf[m_GpTxDataCnt++] = ESC;                                  
     1299                   ;----------------------------------------------------------------------
     1300 0000004f 50610001         ldiu      1,r1
     1301 00000050 50280209-        ldiu      @CL1,ar0
     1302 00000051 50310000-        ldiu      @_m_GpTxDataCnt+0,ir0
     1303 00000052 5060001b         ldiu      27,r0
     1304 00000053 02010011         addi      ir0,r1
     1305 00000054 15210000-        sti       r1,@_m_GpTxDataCnt+0
     1306 00000055 15404000         sti       r0,*+ar0(ir0)
     1307                           .line   4
     1308                   ;----------------------------------------------------------------------
     1309                   ;  84 | m_GPTxDataBuf[m_GpTxDataCnt++] = 'W';                                  
     1310                   ;----------------------------------------------------------------------
     1311 00000056 50610001         ldiu      1,r1
     1312 00000057 50310000-        ldiu      @_m_GpTxDataCnt+0,ir0
     1313 00000058 50600057         ldiu      87,r0
     1314 00000059 02010011         addi      ir0,r1
     1315 0000005a 15210000-        sti       r1,@_m_GpTxDataCnt+0
     1316 0000005b 15404000         sti       r0,*+ar0(ir0)
     1317                           .line   5
     1318                   ;----------------------------------------------------------------------
     1319                   ;  85 | m_GPTxDataBuf[m_GpTxDataCnt++] = (Addr>>8)&0xff;                       
     1320                   ;----------------------------------------------------------------------
     1321 0000005c 50610001         ldiu      1,r1
     1322 0000005d 50400b02         ldiu      *-fp(2),r0
     1323 0000005e 50310000-        ldiu      @_m_GpTxDataCnt+0,ir0
     1324 0000005f 09e0fff8         lsh       -8,r0
     1325 00000060 02010011         addi      ir0,r1
     1326 00000061 02e000ff         and       255,r0
     1327 00000062 15210000-        sti       r1,@_m_GpTxDataCnt+0
     1328 00000063 15404000         sti       r0,*+ar0(ir0)
     1329                           .line   6
     1330                   ;----------------------------------------------------------------------
     1331                   ;  86 | m_GPTxDataBuf[m_GpTxDataCnt++] = Addr&0xff;                            
     1332                   ;----------------------------------------------------------------------
     1333 00000064 506000ff         ldiu      255,r0
     1334 00000065 50310000-        ldiu      @_m_GpTxDataCnt+0,ir0
     1335 00000066 50610001         ldiu      1,r1
     1336 00000067 02010011         addi      ir0,r1
     1337 00000068 15210000-        sti       r1,@_m_GpTxDataCnt+0
     1338 00000069 02c00b02         and       *-fp(2),r0
     1339 0000006a 15404000         sti       r0,*+ar0(ir0)
     1340                           .line   7
     1341                   ;----------------------------------------------------------------------
     1342                   ;  87 | m_GPTxDataBuf[m_GpTxDataCnt++] = 0x00;                                 
     1343                   ;----------------------------------------------------------------------
     1344 0000006b 50600001         ldiu      1,r0
     1345 0000006c 50310000-        ldiu      @_m_GpTxDataCnt+0,ir0
     1346 0000006d 02000011         addi      ir0,r0
     1347 0000006e 50610000         ldiu      0,r1
     1348 0000006f 15200000-        sti       r0,@_m_GpTxDataCnt+0
     1349 00000070 15414000         sti       r1,*+ar0(ir0)
     1350                           .line   8
TMS320C3x/4x COFF AssemblerVersion 5.11     Mon Apr 29 17:36:37 2013
Copyright (c) 1987-1999 Texas Instruments Incorporatedc:\lang\tms320c3x\511\bin\asm30.exe -l gpproface.asm gpproface.obj -tC:\Users\JDS\AppData\Local\Temp\gpproface.tmp 

gpproface.asm                                                        PAGE   26

     1351                   ;----------------------------------------------------------------------
     1352                   ;  88 | m_GPTxDataBuf[m_GpTxDataCnt++] = 0x01;                                 
     1353                   ;----------------------------------------------------------------------
     1354 00000071 50310000-        ldiu      @_m_GpTxDataCnt+0,ir0
     1355 00000072 50600001         ldiu      1,r0
     1356 00000073 02000011         addi      ir0,r0
     1357 00000074 50610001         ldiu      1,r1
     1358 00000075 15200000-        sti       r0,@_m_GpTxDataCnt+0
     1359 00000076 15414000         sti       r1,*+ar0(ir0)
     1360                           .line   9
     1361                   ;----------------------------------------------------------------------
     1362                   ;  89 | m_GPTxDataBuf[m_GpTxDataCnt++] = (nData >> 8) & 0xff;                  
     1363                   ;----------------------------------------------------------------------
     1364 00000077 50310000-        ldiu      @_m_GpTxDataCnt+0,ir0
     1365 00000078 50600001         ldiu      1,r0
     1366 00000079 02000011         addi      ir0,r0
     1367 0000007a 15200000-        sti       r0,@_m_GpTxDataCnt+0
     1368 0000007b 50400b03         ldiu      *-fp(3),r0
     1369 0000007c 09e0fff8         lsh       -8,r0
     1370 0000007d 02e000ff         and       255,r0
     1371 0000007e 15404000         sti       r0,*+ar0(ir0)
     1372                           .line   10
     1373                   ;----------------------------------------------------------------------
     1374                   ;  90 | m_GPTxDataBuf[m_GpTxDataCnt++] = nData&0xff;                           
     1375                   ;----------------------------------------------------------------------
     1376 0000007f 506000ff         ldiu      255,r0
     1377 00000080 50310000-        ldiu      @_m_GpTxDataCnt+0,ir0
     1378 00000081 02010011         addi      ir0,r1
     1379 00000082 02c00b03         and       *-fp(3),r0
     1380 00000083 15210000-        sti       r1,@_m_GpTxDataCnt+0
     1381 00000084 15404000         sti       r0,*+ar0(ir0)
     1382                           .line   11
     1383 00000085 50510b01         ldiu      *-fp(1),ir0
     1384 00000086 504bc300         ldiu      *fp,fp
     1385 00000087 18740002         subi      2,sp
     1386 00000088 68000011         bu        ir0
     1387                   ;*      Branch Occurs to ir0 
     1388                           .endfunc        91,000000000h,0
     1389                   
     1390                   
     1391 00000089                  .sect    ".text"
     1392                   
     1393                           .global _gp_ReadingWord
     1394                           .sym    _gp_ReadingWord,_gp_ReadingWord,32,2,0
     1395                           .func   93
     1396                   ;******************************************************************************
     1397                   ;* FUNCTION NAME: _gp_ReadingWord                                             *
     1398                   ;*                                                                            *
     1399                   ;*   Architecture       : TMS320C30                                           *
     1400                   ;*   Calling Convention : Stack Parameter Convention                          *
     1401                   ;*   Function Uses Regs : r0,r1,ar0,ir0                                       *
     1402                   ;*   Regs Saved         :                                                     *
     1403                   ;*   Stack Frame        : Full (w/ debug)                                     *
     1404                   ;*   Total Frame Size   : 2 Call + 2 Parm + 0 Auto + 0 SOE = 4 words          *
TMS320C3x/4x COFF AssemblerVersion 5.11     Mon Apr 29 17:36:37 2013
Copyright (c) 1987-1999 Texas Instruments Incorporatedc:\lang\tms320c3x\511\bin\asm30.exe -l gpproface.asm gpproface.obj -tC:\Users\JDS\AppData\Local\Temp\gpproface.tmp 

gpproface.asm                                                        PAGE   27

     1405                   ;******************************************************************************
     1406 00000089          _gp_ReadingWord:
     1407                           .sym    _Addr,-2,13,9,32
     1408                           .sym    _nCnt,-3,13,9,32
     1409                           .line   1
     1410                   ;----------------------------------------------------------------------
     1411                   ;  93 | void gp_ReadingWord(WORD Addr,WORD nCnt)                               
     1412                   ;----------------------------------------------------------------------
     1413 00000089 0f2b0000         push      fp
     1414 0000008a 500b0014         ldiu      sp,fp
     1415                           .line   2
     1416                           .line   3
     1417                   ;----------------------------------------------------------------------
     1418                   ;  95 | m_GPTxDataBuf[m_GpTxDataCnt++] = ESC;                                  
     1419                   ;----------------------------------------------------------------------
     1420 0000008b 50610001         ldiu      1,r1
     1421 0000008c 50280209-        ldiu      @CL1,ar0
     1422 0000008d 50310000-        ldiu      @_m_GpTxDataCnt+0,ir0
     1423 0000008e 5060001b         ldiu      27,r0
     1424 0000008f 02010011         addi      ir0,r1
     1425 00000090 15210000-        sti       r1,@_m_GpTxDataCnt+0
     1426 00000091 15404000         sti       r0,*+ar0(ir0)
     1427                           .line   4
     1428                   ;----------------------------------------------------------------------
     1429                   ;  96 | m_GPTxDataBuf[m_GpTxDataCnt++] = 'R';                                  
     1430                   ;----------------------------------------------------------------------
     1431 00000092 50610001         ldiu      1,r1
     1432 00000093 50310000-        ldiu      @_m_GpTxDataCnt+0,ir0
     1433 00000094 50600052         ldiu      82,r0
     1434 00000095 02010011         addi      ir0,r1
     1435 00000096 15210000-        sti       r1,@_m_GpTxDataCnt+0
     1436 00000097 15404000         sti       r0,*+ar0(ir0)
     1437                           .line   5
     1438                   ;----------------------------------------------------------------------
     1439                   ;  97 | m_GPTxDataBuf[m_GpTxDataCnt++] = (Addr>>8)&0xff;                       
     1440                   ;----------------------------------------------------------------------
     1441 00000098 50610001         ldiu      1,r1
     1442 00000099 50400b02         ldiu      *-fp(2),r0
     1443 0000009a 50310000-        ldiu      @_m_GpTxDataCnt+0,ir0
     1444 0000009b 09e0fff8         lsh       -8,r0
     1445 0000009c 02010011         addi      ir0,r1
     1446 0000009d 02e000ff         and       255,r0
     1447 0000009e 15210000-        sti       r1,@_m_GpTxDataCnt+0
     1448 0000009f 15404000         sti       r0,*+ar0(ir0)
     1449                           .line   6
     1450                   ;----------------------------------------------------------------------
     1451                   ;  98 | m_GPTxDataBuf[m_GpTxDataCnt++] = Addr&0xff;                            
     1452                   ;----------------------------------------------------------------------
     1453 000000a0 506000ff         ldiu      255,r0
     1454 000000a1 50310000-        ldiu      @_m_GpTxDataCnt+0,ir0
     1455 000000a2 50610001         ldiu      1,r1
     1456 000000a3 02010011         addi      ir0,r1
     1457 000000a4 15210000-        sti       r1,@_m_GpTxDataCnt+0
     1458 000000a5 02c00b02         and       *-fp(2),r0
TMS320C3x/4x COFF AssemblerVersion 5.11     Mon Apr 29 17:36:37 2013
Copyright (c) 1987-1999 Texas Instruments Incorporatedc:\lang\tms320c3x\511\bin\asm30.exe -l gpproface.asm gpproface.obj -tC:\Users\JDS\AppData\Local\Temp\gpproface.tmp 

gpproface.asm                                                        PAGE   28

     1459 000000a6 15404000         sti       r0,*+ar0(ir0)
     1460                           .line   7
     1461                   ;----------------------------------------------------------------------
     1462                   ;  99 | m_GPTxDataBuf[m_GpTxDataCnt++] = (nCnt >> 8) & 0xff;                   
     1463                   ;----------------------------------------------------------------------
     1464 000000a7 50600001         ldiu      1,r0
     1465 000000a8 50310000-        ldiu      @_m_GpTxDataCnt+0,ir0
     1466 000000a9 02000011         addi      ir0,r0
     1467 000000aa 15200000-        sti       r0,@_m_GpTxDataCnt+0
     1468 000000ab 50400b03         ldiu      *-fp(3),r0
     1469 000000ac 09e0fff8         lsh       -8,r0
     1470 000000ad 02e000ff         and       255,r0
     1471 000000ae 15404000         sti       r0,*+ar0(ir0)
     1472                           .line   8
     1473                   ;----------------------------------------------------------------------
     1474                   ; 100 | m_GPTxDataBuf[m_GpTxDataCnt++] = nCnt&0xff;                            
     1475                   ;----------------------------------------------------------------------
     1476 000000af 506000ff         ldiu      255,r0
     1477 000000b0 02c00b03         and       *-fp(3),r0
     1478 000000b1 50310000-        ldiu      @_m_GpTxDataCnt+0,ir0
     1479 000000b2 50610001         ldiu      1,r1
     1480 000000b3 02010011         addi      ir0,r1
     1481 000000b4 15210000-        sti       r1,@_m_GpTxDataCnt+0
     1482 000000b5 15404000         sti       r0,*+ar0(ir0)
     1483                           .line   9
     1484 000000b6 50510b01         ldiu      *-fp(1),ir0
     1485 000000b7 504bc300         ldiu      *fp,fp
     1486 000000b8 18740002         subi      2,sp
     1487 000000b9 68000011         bu        ir0
     1488                   ;*      Branch Occurs to ir0 
     1489                           .endfunc        101,000000000h,0
     1490                   
     1491                   
     1492 000000ba                  .sect    ".text"
     1493                   
     1494                           .global _gp_WritingStr
     1495                           .sym    _gp_WritingStr,_gp_WritingStr,32,2,0
     1496                           .func   103
     1497                   ;******************************************************************************
     1498                   ;* FUNCTION NAME: _gp_WritingStr                                              *
     1499                   ;*                                                                            *
     1500                   ;*   Architecture       : TMS320C30                                           *
     1501                   ;*   Calling Convention : Stack Parameter Convention                          *
     1502                   ;*   Function Uses Regs : r0,r1,r2,ar0,ar1,ir0,ir1,st                         *
     1503                   ;*   Regs Saved         :                                                     *
     1504                   ;*   Stack Frame        : Full (w/ debug)                                     *
     1505                   ;*   Total Frame Size   : 2 Call + 3 Parm + 1 Auto + 0 SOE = 6 words          *
     1506                   ;******************************************************************************
     1507 000000ba          _gp_WritingStr:
     1508                           .sym    _Addr,-2,13,9,32
     1509                           .sym    _Len,-3,13,9,32
     1510                           .sym    _pData,-4,28,9,32
     1511                           .sym    _i,1,4,1,32
     1512                           .line   1
TMS320C3x/4x COFF AssemblerVersion 5.11     Mon Apr 29 17:36:37 2013
Copyright (c) 1987-1999 Texas Instruments Incorporatedc:\lang\tms320c3x\511\bin\asm30.exe -l gpproface.asm gpproface.obj -tC:\Users\JDS\AppData\Local\Temp\gpproface.tmp 

gpproface.asm                                                        PAGE   29

     1513                   ;----------------------------------------------------------------------
     1514                   ; 103 | void gp_WritingStr(WORD Addr,WORD Len, UCHAR *pData)                   
     1515                   ;----------------------------------------------------------------------
     1516 000000ba 0f2b0000         push      fp
     1517 000000bb 500b0014         ldiu      sp,fp
     1518 000000bc 02740001         addi      1,sp
     1519                           .line   2
     1520                   ;----------------------------------------------------------------------
     1521                   ; 105 | int i;                                                                 
     1522                   ;----------------------------------------------------------------------
     1523                           .line   5
     1524                   ;----------------------------------------------------------------------
     1525                   ; 107 | m_GPTxDataBuf[m_GpTxDataCnt++] = ESC;                                  
     1526                   ;----------------------------------------------------------------------
     1527 000000bd 50610001         ldiu      1,r1
     1528 000000be 50280209-        ldiu      @CL1,ar0
     1529 000000bf 50310000-        ldiu      @_m_GpTxDataCnt+0,ir0
     1530 000000c0 5060001b         ldiu      27,r0
     1531 000000c1 02010011         addi      ir0,r1
     1532 000000c2 15210000-        sti       r1,@_m_GpTxDataCnt+0
     1533 000000c3 15404000         sti       r0,*+ar0(ir0)
     1534                           .line   6
     1535                   ;----------------------------------------------------------------------
     1536                   ; 108 | m_GPTxDataBuf[m_GpTxDataCnt++] = 'W';                                  
     1537                   ;----------------------------------------------------------------------
     1538 000000c4 50610001         ldiu      1,r1
     1539 000000c5 50310000-        ldiu      @_m_GpTxDataCnt+0,ir0
     1540 000000c6 50600057         ldiu      87,r0
     1541 000000c7 02010011         addi      ir0,r1
     1542 000000c8 15210000-        sti       r1,@_m_GpTxDataCnt+0
     1543 000000c9 15404000         sti       r0,*+ar0(ir0)
     1544                           .line   7
     1545                   ;----------------------------------------------------------------------
     1546                   ; 109 | m_GPTxDataBuf[m_GpTxDataCnt++] = (Addr>>8)&0xff;                       
     1547                   ;----------------------------------------------------------------------
     1548 000000ca 50610001         ldiu      1,r1
     1549 000000cb 50400b02         ldiu      *-fp(2),r0
     1550 000000cc 50310000-        ldiu      @_m_GpTxDataCnt+0,ir0
     1551 000000cd 09e0fff8         lsh       -8,r0
     1552 000000ce 02010011         addi      ir0,r1
     1553 000000cf 02e000ff         and       255,r0
     1554 000000d0 15210000-        sti       r1,@_m_GpTxDataCnt+0
     1555 000000d1 15404000         sti       r0,*+ar0(ir0)
     1556                           .line   8
     1557                   ;----------------------------------------------------------------------
     1558                   ; 110 | m_GPTxDataBuf[m_GpTxDataCnt++] = Addr&0xff;                            
     1559                   ;----------------------------------------------------------------------
     1560 000000d2 506000ff         ldiu      255,r0
     1561 000000d3 50310000-        ldiu      @_m_GpTxDataCnt+0,ir0
     1562 000000d4 50610001         ldiu      1,r1
     1563 000000d5 02010011         addi      ir0,r1
     1564 000000d6 15210000-        sti       r1,@_m_GpTxDataCnt+0
     1565 000000d7 02c00b02         and       *-fp(2),r0
     1566 000000d8 15404000         sti       r0,*+ar0(ir0)
TMS320C3x/4x COFF AssemblerVersion 5.11     Mon Apr 29 17:36:37 2013
Copyright (c) 1987-1999 Texas Instruments Incorporatedc:\lang\tms320c3x\511\bin\asm30.exe -l gpproface.asm gpproface.obj -tC:\Users\JDS\AppData\Local\Temp\gpproface.tmp 

gpproface.asm                                                        PAGE   30

     1567                           .line   9
     1568                   ;----------------------------------------------------------------------
     1569                   ; 111 | m_GPTxDataBuf[m_GpTxDataCnt++] = (Len>>8)&0xff;                        
     1570                   ;----------------------------------------------------------------------
     1571 000000d9 50600001         ldiu      1,r0
     1572 000000da 50310000-        ldiu      @_m_GpTxDataCnt+0,ir0
     1573 000000db 02000011         addi      ir0,r0
     1574 000000dc 15200000-        sti       r0,@_m_GpTxDataCnt+0
     1575 000000dd 50400b03         ldiu      *-fp(3),r0
     1576 000000de 09e0fff8         lsh       -8,r0
     1577 000000df 02e000ff         and       255,r0
     1578 000000e0 15404000         sti       r0,*+ar0(ir0)
     1579                           .line   10
     1580                   ;----------------------------------------------------------------------
     1581                   ; 112 | m_GPTxDataBuf[m_GpTxDataCnt++] = Len&0xff;                             
     1582                   ;----------------------------------------------------------------------
     1583 000000e1 506000ff         ldiu      255,r0
     1584 000000e2 02c00b03         and       *-fp(3),r0
     1585 000000e3 50610001         ldiu      1,r1
     1586 000000e4 50310000-        ldiu      @_m_GpTxDataCnt+0,ir0
     1587 000000e5 02010011         addi      ir0,r1
     1588 000000e6 15210000-        sti       r1,@_m_GpTxDataCnt+0
     1589 000000e7 15404000         sti       r0,*+ar0(ir0)
     1590                           .line   12
     1591                   ;----------------------------------------------------------------------
     1592                   ; 114 | for(i=0;i<Len*2;i++)                                                   
     1593                   ;----------------------------------------------------------------------
     1594 000000e8 50600000         ldiu      0,r0
     1595 000000e9 15400301         sti       r0,*+fp(1)
     1596 000000ea 50400b03         ldiu      *-fp(3),r0
     1597 000000eb 0ae00002         mpyi      2,r0
     1598 000000ec 50420301         ldiu      *+fp(1),r2
     1599 000000ed 23800200         cmpi3     r0,r2
     1600 000000ee 506100ff         ldiu      255,r1
     1601 000000ef 6a040011         bhs       L12
     1602                   ;*      Branch Occurs to L12 
     1603 000000f0          L11:        
     1604                           .line   14
     1605                   ;----------------------------------------------------------------------
     1606                   ; 116 | m_GPTxDataBuf[m_GpTxDataCnt++] = WORD_L(pData[i]);                     
     1607                   ;----------------------------------------------------------------------
     1608 000000f0 50620001         ldiu      1,r2
     1609 000000f1 50310000-        ldiu      @_m_GpTxDataCnt+0,ir0
     1610 000000f2 50520b04         ldiu      *-fp(4),ir1
     1611 000000f3 50490301         ldiu      *+fp(1),ar1
     1612 000000f4 50280209-        ldiu      @CL1,ar0
     1613 000000f5 02020011         addi      ir0,r2
     1614 000000f6 21a08101         and3      r1,*+ar1(ir1),r0
     1615 000000f7 15220000-        sti       r2,@_m_GpTxDataCnt+0
     1616 000000f8 15404000         sti       r0,*+ar0(ir0)
     1617                           .line   12
     1618 000000f9 50600001         ldiu      1,r0
     1619 000000fa 02400301         addi      *+fp(1),r0
     1620 000000fb 15400301         sti       r0,*+fp(1)
TMS320C3x/4x COFF AssemblerVersion 5.11     Mon Apr 29 17:36:37 2013
Copyright (c) 1987-1999 Texas Instruments Incorporatedc:\lang\tms320c3x\511\bin\asm30.exe -l gpproface.asm gpproface.obj -tC:\Users\JDS\AppData\Local\Temp\gpproface.tmp 

gpproface.asm                                                        PAGE   31

     1621 000000fc 50400b03         ldiu      *-fp(3),r0
     1622 000000fd 50420301         ldiu      *+fp(1),r2
     1623 000000fe 0ae00002         mpyi      2,r0
     1624 000000ff 23800200         cmpi3     r0,r2
     1625 00000100 6a01ffef         blo       L11
     1626                   ;*      Branch Occurs to L11 
     1627 00000101          L12:        
     1628                           .line   16
     1629 00000101 50520b01         ldiu      *-fp(1),ir1
     1630 00000102 504bc300         ldiu      *fp,fp
     1631 00000103 18740003         subi      3,sp
     1632 00000104 68000012         bu        ir1
     1633                   ;*      Branch Occurs to ir1 
     1634                           .endfunc        118,000000000h,1
     1635                   
     1636                   
     1637 00000105                  .sect    ".text"
     1638                   
     1639                           .global _Hex2ASCIIW
     1640                           .sym    _Hex2ASCIIW,_Hex2ASCIIW,32,2,0
     1641                           .func   128
     1642                   ;******************************************************************************
     1643                   ;* FUNCTION NAME: _Hex2ASCIIW                                                 *
     1644                   ;*                                                                            *
     1645                   ;*   Architecture       : TMS320C30                                           *
     1646                   ;*   Calling Convention : Stack Parameter Convention                          *
     1647                   ;*   Function Uses Regs : r0,r1,ar0                                           *
     1648                   ;*   Regs Saved         :                                                     *
     1649                   ;*   Stack Frame        : Full (w/ debug)                                     *
     1650                   ;*   Total Frame Size   : 2 Call + 2 Parm + 0 Auto + 0 SOE = 4 words          *
     1651                   ;******************************************************************************
     1652 00000105          _Hex2ASCIIW:
     1653                           .sym    _nInput,-2,13,9,32
     1654                           .sym    _pOutput,-3,28,9,32
     1655                           .line   1
     1656                   ;----------------------------------------------------------------------
     1657                   ; 128 | void Hex2ASCIIW(WORD nInput, UCHAR *pOutput)                           
     1658                   ;----------------------------------------------------------------------
     1659 00000105 0f2b0000         push      fp
     1660 00000106 500b0014         ldiu      sp,fp
     1661                           .line   2
     1662                           .line   3
     1663                   ;----------------------------------------------------------------------
     1664                   ; 130 | pOutput[0] = 0x30;                                                     
     1665                   ;----------------------------------------------------------------------
     1666 00000107 50480b03         ldiu      *-fp(3),ar0
     1667 00000108 50600030         ldiu      48,r0
     1668 00000109 1540c000         sti       r0,*ar0
     1669                           .line   4
     1670                   ;----------------------------------------------------------------------
     1671                   ; 131 | pOutput[1] = ((nInput>>12)&0xf)%10 +0x30;                              
     1672                   ;----------------------------------------------------------------------
     1673 0000010a 50400b02         ldiu      *-fp(2),r0
     1674 0000010b 09e0fff4         lsh       -12,r0
TMS320C3x/4x COFF AssemblerVersion 5.11     Mon Apr 29 17:36:37 2013
Copyright (c) 1987-1999 Texas Instruments Incorporatedc:\lang\tms320c3x\511\bin\asm30.exe -l gpproface.asm gpproface.obj -tC:\Users\JDS\AppData\Local\Temp\gpproface.tmp 

gpproface.asm                                                        PAGE   32

     1675 0000010c 02e0000f         and       15,r0
     1676 0000010d 5061000a         ldiu      10,r1
     1677 0000010e 62000000!        call      MOD_U30
     1678                                                           ; Call Occurs
     1679 0000010f 50480b03         ldiu      *-fp(3),ar0
     1680 00000110 02600030         addi      48,r0                 ; Unsigned
     1681 00000111 15400001         sti       r0,*+ar0(1)
     1682                           .line   5
     1683                   ;----------------------------------------------------------------------
     1684                   ; 132 | pOutput[2] = ((nInput>>8 )&0xf)%10 +0x30;                              
     1685                   ;----------------------------------------------------------------------
     1686 00000112 50400b02         ldiu      *-fp(2),r0
     1687 00000113 09e0fff8         lsh       -8,r0
     1688 00000114 02e0000f         and       15,r0
     1689 00000115 5061000a         ldiu      10,r1
     1690 00000116 62000000!        call      MOD_U30
     1691                                                           ; Call Occurs
     1692 00000117 50480b03         ldiu      *-fp(3),ar0
     1693 00000118 02600030         addi      48,r0                 ; Unsigned
     1694 00000119 15400002         sti       r0,*+ar0(2)
     1695                           .line   6
     1696                   ;----------------------------------------------------------------------
     1697                   ; 133 | pOutput[3] = ((nInput>>4 )&0xf)%10 +0x30;                              
     1698                   ;----------------------------------------------------------------------
     1699 0000011a 50400b02         ldiu      *-fp(2),r0
     1700 0000011b 09e0fffc         lsh       -4,r0
     1701 0000011c 02e0000f         and       15,r0
     1702 0000011d 5061000a         ldiu      10,r1
     1703 0000011e 62000000!        call      MOD_U30
     1704                                                           ; Call Occurs
     1705 0000011f 50480b03         ldiu      *-fp(3),ar0
     1706 00000120 02600030         addi      48,r0                 ; Unsigned
     1707 00000121 15400003         sti       r0,*+ar0(3)
     1708                           .line   7
     1709                   ;----------------------------------------------------------------------
     1710                   ; 134 | pOutput[4] = (nInput&0xf)%10 +0x30;                                    
     1711                   ;----------------------------------------------------------------------
     1712 00000122 5060000f         ldiu      15,r0
     1713 00000123 02c00b02         and       *-fp(2),r0
     1714 00000124 5061000a         ldiu      10,r1
     1715 00000125 62000000!        call      MOD_U30
     1716                                                           ; Call Occurs
     1717 00000126 50480b03         ldiu      *-fp(3),ar0
     1718 00000127 02600030         addi      48,r0                 ; Unsigned
     1719 00000128 15400004         sti       r0,*+ar0(4)
     1720                           .line   8
     1721 00000129 50490b01         ldiu      *-fp(1),ar1
     1722 0000012a 504bc300         ldiu      *fp,fp
     1723 0000012b 18740002         subi      2,sp
     1724 0000012c 68000009         bu        ar1
     1725                   ;*      Branch Occurs to ar1 
     1726                           .endfunc        135,000000000h,0
     1727                   
     1728                   
TMS320C3x/4x COFF AssemblerVersion 5.11     Mon Apr 29 17:36:37 2013
Copyright (c) 1987-1999 Texas Instruments Incorporatedc:\lang\tms320c3x\511\bin\asm30.exe -l gpproface.asm gpproface.obj -tC:\Users\JDS\AppData\Local\Temp\gpproface.tmp 

gpproface.asm                                                        PAGE   33

     1729 0000012d                  .sect    ".text"
     1730                   
     1731                           .global _BCD_BIN
     1732                           .sym    _BCD_BIN,_BCD_BIN,45,2,0
     1733                           .func   139
     1734                   ;******************************************************************************
     1735                   ;* FUNCTION NAME: _BCD_BIN                                                    *
     1736                   ;*                                                                            *
     1737                   ;*   Architecture       : TMS320C30                                           *
     1738                   ;*   Calling Convention : Stack Parameter Convention                          *
     1739                   ;*   Function Uses Regs : r0                                                  *
     1740                   ;*   Regs Saved         :                                                     *
     1741                   ;*   Stack Frame        : Full (w/ debug)                                     *
     1742                   ;*   Total Frame Size   : 2 Call + 1 Parm + 1 Auto + 0 SOE = 4 words          *
     1743                   ;******************************************************************************
     1744 0000012d          _BCD_BIN:
     1745                           .sym    _nInput,-2,13,9,32
     1746                           .sym    _sNum,1,13,1,32
     1747                           .line   1
     1748                   ;----------------------------------------------------------------------
     1749                   ; 139 | WORD BCD_BIN(WORD nInput)                                              
     1750                   ;----------------------------------------------------------------------
     1751 0000012d 0f2b0000         push      fp
     1752 0000012e 500b0014         ldiu      sp,fp
     1753 0000012f 02740001         addi      1,sp
     1754                           .line   2
     1755                           .line   3
     1756                   ;----------------------------------------------------------------------
     1757                   ; 141 | WORD sNum = 0;                                                         
     1758                   ;----------------------------------------------------------------------
     1759 00000130 50600000         ldiu      0,r0
     1760 00000131 15400301         sti       r0,*+fp(1)
     1761                           .line   5
     1762                   ;----------------------------------------------------------------------
     1763                   ; 143 | sNum += ((nInput>>12)&0xf) * 1000;                                     
     1764                   ;----------------------------------------------------------------------
     1765 00000132 50400b02         ldiu      *-fp(2),r0
     1766 00000133 09e0fff4         lsh       -12,r0
     1767 00000134 02e0000f         and       15,r0
     1768 00000135 0ae003e8         mpyi      1000,r0
     1769 00000136 02400301         addi      *+fp(1),r0            ; Unsigned
     1770 00000137 15400301         sti       r0,*+fp(1)
     1771                           .line   6
     1772                   ;----------------------------------------------------------------------
     1773                   ; 144 | sNum += ((nInput>>8)&0xf) * 100;                                       
     1774                   ;----------------------------------------------------------------------
     1775 00000138 50400b02         ldiu      *-fp(2),r0
     1776 00000139 09e0fff8         lsh       -8,r0
     1777 0000013a 02e0000f         and       15,r0
     1778 0000013b 0ae00064         mpyi      100,r0
     1779 0000013c 02400301         addi      *+fp(1),r0            ; Unsigned
     1780 0000013d 15400301         sti       r0,*+fp(1)
     1781                           .line   7
     1782                   ;----------------------------------------------------------------------
TMS320C3x/4x COFF AssemblerVersion 5.11     Mon Apr 29 17:36:37 2013
Copyright (c) 1987-1999 Texas Instruments Incorporatedc:\lang\tms320c3x\511\bin\asm30.exe -l gpproface.asm gpproface.obj -tC:\Users\JDS\AppData\Local\Temp\gpproface.tmp 

gpproface.asm                                                        PAGE   34

     1783                   ; 145 | sNum += ((nInput>>4)&0xf) * 10;                                        
     1784                   ;----------------------------------------------------------------------
     1785 0000013e 50400b02         ldiu      *-fp(2),r0
     1786 0000013f 09e0fffc         lsh       -4,r0
     1787 00000140 02e0000f         and       15,r0
     1788 00000141 0ae0000a         mpyi      10,r0
     1789 00000142 02400301         addi      *+fp(1),r0            ; Unsigned
     1790 00000143 15400301         sti       r0,*+fp(1)
     1791                           .line   8
     1792                   ;----------------------------------------------------------------------
     1793                   ; 146 | sNum += ((nInput)&0xf) * 1;                                            
     1794                   ;----------------------------------------------------------------------
     1795 00000144 5060000f         ldiu      15,r0
     1796 00000145 02c00b02         and       *-fp(2),r0
     1797 00000146 02400301         addi      *+fp(1),r0            ; Unsigned
     1798 00000147 15400301         sti       r0,*+fp(1)
     1799                           .line   9
     1800                   ;----------------------------------------------------------------------
     1801                   ; 147 | return sNum;                                                           
     1802                   ;----------------------------------------------------------------------
     1803                           .line   10
     1804 00000148 50410b01         ldiu      *-fp(1),r1
     1805 00000149 504bc300         ldiu      *fp,fp
     1806 0000014a 18740003         subi      3,sp
     1807 0000014b 68000001         bu        r1
     1808                   ;*      Branch Occurs to r1 
     1809                           .endfunc        148,000000000h,1
     1810                   
     1811                   
     1812 0000014c                  .sect    ".text"
     1813                   
     1814                           .global _BIN_BCD
     1815                           .sym    _BIN_BCD,_BIN_BCD,45,2,0
     1816                           .func   150
     1817                   ;******************************************************************************
     1818                   ;* FUNCTION NAME: _BIN_BCD                                                    *
     1819                   ;*                                                                            *
     1820                   ;*   Architecture       : TMS320C30                                           *
     1821                   ;*   Calling Convention : Stack Parameter Convention                          *
     1822                   ;*   Function Uses Regs : r0,r1                                               *
     1823                   ;*   Regs Saved         :                                                     *
     1824                   ;*   Stack Frame        : Full (w/ debug)                                     *
     1825                   ;*   Total Frame Size   : 2 Call + 1 Parm + 1 Auto + 0 SOE = 4 words          *
     1826                   ;******************************************************************************
     1827 0000014c          _BIN_BCD:
     1828                           .sym    _nInput,-2,13,9,32
     1829                           .sym    _sNum,1,13,1,32
     1830                           .line   1
     1831                   ;----------------------------------------------------------------------
     1832                   ; 150 | WORD BIN_BCD(WORD nInput)                                              
     1833                   ;----------------------------------------------------------------------
     1834 0000014c 0f2b0000         push      fp
     1835 0000014d 500b0014         ldiu      sp,fp
     1836 0000014e 02740001         addi      1,sp
TMS320C3x/4x COFF AssemblerVersion 5.11     Mon Apr 29 17:36:37 2013
Copyright (c) 1987-1999 Texas Instruments Incorporatedc:\lang\tms320c3x\511\bin\asm30.exe -l gpproface.asm gpproface.obj -tC:\Users\JDS\AppData\Local\Temp\gpproface.tmp 

gpproface.asm                                                        PAGE   35

     1837                           .line   2
     1838                           .line   3
     1839                   ;----------------------------------------------------------------------
     1840                   ; 152 | WORD sNum = 0;                                                         
     1841                   ;----------------------------------------------------------------------
     1842 0000014f 50600000         ldiu      0,r0
     1843 00000150 15400301         sti       r0,*+fp(1)
     1844                           .line   5
     1845                   ;----------------------------------------------------------------------
     1846                   ; 154 | sNum = (((nInput/1000)%10)<<12)&0xf000;                                
     1847                   ;----------------------------------------------------------------------
     1848 00000151 506103e8         ldiu      1000,r1
     1849 00000152 50400b02         ldiu      *-fp(2),r0
     1850 00000153 62000000!        call      DIV_U30
     1851                                                           ; Call Occurs
     1852 00000154 5061000a         ldiu      10,r1
     1853 00000155 62000000!        call      MOD_U30
     1854                                                           ; Call Occurs
     1855 00000156 03e0000c         ash       12,r0
     1856 00000157 02e0f000         and       61440,r0
     1857 00000158 15400301         sti       r0,*+fp(1)
     1858                           .line   6
     1859                   ;----------------------------------------------------------------------
     1860                   ; 155 | sNum |= (((nInput/100)%10)<<8)&0xf00;                                  
     1861                   ;----------------------------------------------------------------------
     1862 00000159 50400b02         ldiu      *-fp(2),r0
     1863 0000015a 50610064         ldiu      100,r1
     1864 0000015b 62000000!        call      DIV_U30
     1865                                                           ; Call Occurs
     1866 0000015c 5061000a         ldiu      10,r1
     1867 0000015d 62000000!        call      MOD_U30
     1868                                                           ; Call Occurs
     1869 0000015e 03e00008         ash       8,r0
     1870 0000015f 02e00f00         and       3840,r0
     1871 00000160 10400301         or        *+fp(1),r0
     1872 00000161 15400301         sti       r0,*+fp(1)
     1873                           .line   7
     1874                   ;----------------------------------------------------------------------
     1875                   ; 156 | sNum |= (((nInput/10)%10)<<4)&0xf0;                                    
     1876                   ;----------------------------------------------------------------------
     1877 00000162 50400b02         ldiu      *-fp(2),r0
     1878 00000163 5061000a         ldiu      10,r1
     1879 00000164 62000000!        call      DIV_U30
     1880                                                           ; Call Occurs
     1881 00000165 5061000a         ldiu      10,r1
     1882 00000166 62000000!        call      MOD_U30
     1883                                                           ; Call Occurs
     1884 00000167 03e00004         ash       4,r0
     1885 00000168 02e000f0         and       240,r0
     1886 00000169 10400301         or        *+fp(1),r0
     1887 0000016a 15400301         sti       r0,*+fp(1)
     1888                           .line   8
     1889                   ;----------------------------------------------------------------------
     1890                   ; 157 | sNum |= ((nInput%10)&0xf);                                             
TMS320C3x/4x COFF AssemblerVersion 5.11     Mon Apr 29 17:36:37 2013
Copyright (c) 1987-1999 Texas Instruments Incorporatedc:\lang\tms320c3x\511\bin\asm30.exe -l gpproface.asm gpproface.obj -tC:\Users\JDS\AppData\Local\Temp\gpproface.tmp 

gpproface.asm                                                        PAGE   36

     1891                   ;----------------------------------------------------------------------
     1892 0000016b 50400b02         ldiu      *-fp(2),r0
     1893 0000016c 5061000a         ldiu      10,r1
     1894 0000016d 62000000!        call      MOD_U30
     1895                                                           ; Call Occurs
     1896 0000016e 02e0000f         and       15,r0
     1897 0000016f 10400301         or        *+fp(1),r0
     1898 00000170 15400301         sti       r0,*+fp(1)
     1899                           .line   9
     1900                   ;----------------------------------------------------------------------
     1901                   ; 158 | return sNum;                                                           
     1902                   ;----------------------------------------------------------------------
     1903                           .line   11
     1904 00000171 50490b01         ldiu      *-fp(1),ar1
     1905 00000172 504bc300         ldiu      *fp,fp
     1906 00000173 18740003         subi      3,sp
     1907 00000174 68000009         bu        ar1
     1908                   ;*      Branch Occurs to ar1 
     1909                           .endfunc        160,000000000h,1
     1910                   
     1911                   
     1912 00000175                  .sect    ".text"
     1913                   
     1914                           .global _GpProface_Init
     1915                           .sym    _GpProface_Init,_GpProface_Init,32,2,0
     1916                           .func   163
     1917                   ;******************************************************************************
     1918                   ;* FUNCTION NAME: _GpProface_Init                                             *
     1919                   ;*                                                                            *
     1920                   ;*   Architecture       : TMS320C30                                           *
     1921                   ;*   Calling Convention : Stack Parameter Convention                          *
     1922                   ;*   Function Uses Regs : r0,r1,fp,sp                                         *
     1923                   ;*   Regs Saved         :                                                     *
     1924                   ;*   Stack Frame        : Full (w/ debug)                                     *
     1925                   ;*   Total Frame Size   : 2 Call + 0 Parm + 0 Auto + 0 SOE = 2 words          *
     1926                   ;******************************************************************************
     1927 00000175          _GpProface_Init:
     1928                           .line   1
     1929                   ;----------------------------------------------------------------------
     1930                   ; 163 | void GpProface_Init()                                                  
     1931                   ;----------------------------------------------------------------------
     1932 00000175 0f2b0000         push      fp
     1933 00000176 500b0014         ldiu      sp,fp
     1934                           .line   3
     1935                   ;----------------------------------------------------------------------
     1936                   ; 165 | nSelect_Button.nGPTranNumInput.nFlag = 0;                              
     1937                   ;----------------------------------------------------------------------
     1938 00000177 50600000         ldiu      0,r0
     1939 00000178 152001fb-        sti       r0,@_nSelect_Button+0
     1940                           .line   4
     1941                   ;----------------------------------------------------------------------
     1942                   ; 166 | nSelect_Button.nScreenRxTime = 100;                                    
     1943                   ;----------------------------------------------------------------------
     1944 00000179 50600064         ldiu      100,r0
TMS320C3x/4x COFF AssemblerVersion 5.11     Mon Apr 29 17:36:37 2013
Copyright (c) 1987-1999 Texas Instruments Incorporatedc:\lang\tms320c3x\511\bin\asm30.exe -l gpproface.asm gpproface.obj -tC:\Users\JDS\AppData\Local\Temp\gpproface.tmp 

gpproface.asm                                                        PAGE   37

     1945 0000017a 15200206-        sti       r0,@_nSelect_Button+11
     1946                           .line   5
     1947                   ;----------------------------------------------------------------------
     1948                   ; 167 | nSelect_Button.nScreenSafe = 60000;                                    
     1949                   ;----------------------------------------------------------------------
     1950 0000017b 5020020a-        ldiu      @CL2,r0
     1951 0000017c 15200207-        sti       r0,@_nSelect_Button+12
     1952                           .line   6
     1953                   ;----------------------------------------------------------------------
     1954                   ; 168 | nSelect_Button.nScreenSetNum = 1;                                      
     1955                   ;----------------------------------------------------------------------
     1956 0000017d 50600001         ldiu      1,r0
     1957 0000017e 15200205-        sti       r0,@_nSelect_Button+10
     1958                           .line   7
     1959                   ;----------------------------------------------------------------------
     1960                   ; 169 | nSelect_Button.nScreen_Send_Delay_Time = 0;                            
     1961                   ; 171 | //   .                                               
     1962                   ;----------------------------------------------------------------------
     1963 0000017f 50600000         ldiu      0,r0
     1964 00000180 15200208-        sti       r0,@_nSelect_Button+13
     1965                           .line   10
     1966                   ;----------------------------------------------------------------------
     1967                   ; 172 | nTr_St_Info.nAutoDoorFlag = 0;                                         
     1968                   ;----------------------------------------------------------------------
     1969 00000181 152000d1!        sti       r0,@_nTr_St_Info+209
     1970                           .line   11
     1971                   ;----------------------------------------------------------------------
     1972                   ; 173 | nTr_St_Info.nSimulationFlag = 0;                                       
     1973                   ;----------------------------------------------------------------------
     1974 00000182 152000cf!        sti       r0,@_nTr_St_Info+207
     1975                           .line   12
     1976                   ;----------------------------------------------------------------------
     1977                   ; 174 | nTr_St_Info.nDISFPatFlag  = 0;                                         
     1978                   ;----------------------------------------------------------------------
     1979 00000183 152000ce!        sti       r0,@_nTr_St_Info+206
     1980                           .line   13
     1981                   ;----------------------------------------------------------------------
     1982                   ; 175 | nTr_St_Info.nPIBPatFlag = 0;                                           
     1983                   ;----------------------------------------------------------------------
     1984 00000184 152000cd!        sti       r0,@_nTr_St_Info+205
     1985                           .line   14
     1986                   ;----------------------------------------------------------------------
     1987                   ; 176 | gp_WritingWord(0x41,0);                                                
     1988                   ;----------------------------------------------------------------------
     1989 00000185 50610000         ldiu      0,r1
     1990 00000186 0f210000         push      r1
     1991 00000187 50600041         ldiu      65,r0
     1992 00000188 0f200000         push      r0
     1993 00000189 6200004d'        call      _gp_WritingWord
     1994                                                           ; Call Occurs
     1995 0000018a 18740002         subi      2,sp
     1996                           .line   16
     1997                   ;----------------------------------------------------------------------
     1998                   ; 178 | nTr_St_Info.nDest.nCode = 1;                                           
TMS320C3x/4x COFF AssemblerVersion 5.11     Mon Apr 29 17:36:37 2013
Copyright (c) 1987-1999 Texas Instruments Incorporatedc:\lang\tms320c3x\511\bin\asm30.exe -l gpproface.asm gpproface.obj -tC:\Users\JDS\AppData\Local\Temp\gpproface.tmp 

gpproface.asm                                                        PAGE   38

     1999                   ;----------------------------------------------------------------------
     2000 0000018b 50600001         ldiu      1,r0
     2001 0000018c 15200190!        sti       r0,@_nTr_St_Info+400
     2002                           .line   18
     2003                   ;----------------------------------------------------------------------
     2004                   ; 180 | gpTURNOFFINIT;                                                         
     2005                   ;----------------------------------------------------------------------
     2006 0000018d 5060000b         ldiu      11,r0
     2007 0000018e 50610040         ldiu      64,r1
     2008 0000018f 0f210000         push      r1
     2009 00000190 0f200000         push      r0
     2010 00000191 6200004d'        call      _gp_WritingWord
     2011                                                           ; Call Occurs
     2012 00000192 18740002         subi      2,sp
     2013                           .line   20
     2014                   ;----------------------------------------------------------------------
     2015                   ; 182 | gpSTATE; //                                        
     2016                   ;----------------------------------------------------------------------
     2017 00000193 5060003c         ldiu      60,r0
     2018 00000194 0f200000         push      r0
     2019 00000195 5061000f         ldiu      15,r1
     2020 00000196 0f210000         push      r1
     2021 00000197 6200004d'        call      _gp_WritingWord
     2022                                                           ; Call Occurs
     2023 00000198 18740002         subi      2,sp
     2024                           .line   22
     2025 00000199 50530b01         ldiu      *-fp(1),bk
     2026 0000019a 504bc300         ldiu      *fp,fp
     2027 0000019b 18740002         subi      2,sp
     2028 0000019c 68000013         bu        bk
     2029                   ;*      Branch Occurs to bk 
     2030                           .endfunc        184,000000000h,0
     2031                   
     2032                   
     2033                   
     2034 00000009                  .sect   ".cinit"
     2035 00000009 00000001         .field          1,32
     2036 0000000a 00000003-        .field          _d_gpTxCnt+0,32
     2037 0000000b 00000000         .field          0,32            ; _d_gpTxCnt @ 0
     2038                   
     2039 0000019d                  .sect   ".text"
     2040                   
     2041                           .global _d_gpTxCnt
     2042 00000003                  .bss    _d_gpTxCnt,1
     2043                           .sym    _d_gpTxCnt,_d_gpTxCnt,12,2,32
     2044 0000019d                  .sect    ".text"
     2045                   
     2046                           .global _Gp_Pro_Main
     2047                           .sym    _Gp_Pro_Main,_Gp_Pro_Main,32,2,0
     2048                           .func   189
     2049                   ;******************************************************************************
     2050                   ;* FUNCTION NAME: _Gp_Pro_Main                                                *
     2051                   ;*                                                                            *
     2052                   ;*   Architecture       : TMS320C30                                           *
TMS320C3x/4x COFF AssemblerVersion 5.11     Mon Apr 29 17:36:37 2013
Copyright (c) 1987-1999 Texas Instruments Incorporatedc:\lang\tms320c3x\511\bin\asm30.exe -l gpproface.asm gpproface.obj -tC:\Users\JDS\AppData\Local\Temp\gpproface.tmp 

gpproface.asm                                                        PAGE   39

     2053                   ;*   Calling Convention : Stack Parameter Convention                          *
     2054                   ;*   Function Uses Regs : r0,r1,r2,fp,sp,st                                   *
     2055                   ;*   Regs Saved         :                                                     *
     2056                   ;*   Stack Frame        : Full (w/ debug)                                     *
     2057                   ;*   Total Frame Size   : 2 Call + 0 Parm + 1 Auto + 0 SOE = 3 words          *
     2058                   ;******************************************************************************
     2059 0000019d          _Gp_Pro_Main:
     2060                           .sym    _sGpTxLen,1,4,1,32
     2061                           .line   1
     2062                   ;----------------------------------------------------------------------
     2063                   ; 189 | void Gp_Pro_Main()                                                     
     2064                   ;----------------------------------------------------------------------
     2065 0000019d 0f2b0000         push      fp
     2066 0000019e 500b0014         ldiu      sp,fp
     2067 0000019f 02740001         addi      1,sp
     2068                           .line   4
     2069                   ;----------------------------------------------------------------------
     2070                   ; 192 | int sGpTxLen = 0;                                                      
     2071                   ; 194 | //GP       .                     
     2072                   ;----------------------------------------------------------------------
     2073 000001a0 50600000         ldiu      0,r0
     2074 000001a1 15400301         sti       r0,*+fp(1)
     2075                           .line   7
     2076                   ;----------------------------------------------------------------------
     2077                   ; 195 | if(!(m_GpTimeCnt%300))                                                 
     2078                   ;----------------------------------------------------------------------
     2079 000001a2 5061012c         ldiu      300,r1
     2080 000001a3 50200001-        ldiu      @_m_GpTimeCnt+0,r0
     2081 000001a4 62000000!        call      MOD_U30
     2082                                                           ; Call Occurs
     2083 000001a5 04e00000         cmpi      0,r0
     2084 000001a6 6a060014         bne       L30
     2085                   ;*      Branch Occurs to L30 
     2086                           .line   9
     2087                   ;----------------------------------------------------------------------
     2088                   ; 197 | if(m_GpTxDataCnt && !Saf82532_Bch.nTxDisable1msCnt)                    
     2089                   ;----------------------------------------------------------------------
     2090 000001a7 08200000-        ldi       @_m_GpTxDataCnt+0,r0
     2091 000001a8 6a050012         beq       L30
     2092                   ;*      Branch Occurs to L30 
     2093 000001a9 0820000a!        ldi       @_Saf82532_Bch+10,r0
     2094 000001aa 6a060010         bne       L30
     2095                   ;*      Branch Occurs to L30 
     2096                           .line   11
     2097                   ;----------------------------------------------------------------------
     2098                   ; 199 | d_gpTxCnt++;                                                           
     2099                   ;----------------------------------------------------------------------
     2100 000001ab 50600001         ldiu      1,r0
     2101 000001ac 02200003-        addi      @_d_gpTxCnt+0,r0      ; Unsigned
     2102 000001ad 15200003-        sti       r0,@_d_gpTxCnt+0
     2103                           .line   12
     2104                   ;----------------------------------------------------------------------
     2105                   ; 200 | sGpTxLen = WORD_L(m_GpTxDataCnt);                                      
     2106                   ;----------------------------------------------------------------------
TMS320C3x/4x COFF AssemblerVersion 5.11     Mon Apr 29 17:36:37 2013
Copyright (c) 1987-1999 Texas Instruments Incorporatedc:\lang\tms320c3x\511\bin\asm30.exe -l gpproface.asm gpproface.obj -tC:\Users\JDS\AppData\Local\Temp\gpproface.tmp 

gpproface.asm                                                        PAGE   40

     2107 000001ae 506000ff         ldiu      255,r0
     2108 000001af 02a00000-        and       @_m_GpTxDataCnt+0,r0
     2109 000001b0 15400301         sti       r0,*+fp(1)
     2110                           .line   13
     2111                   ;----------------------------------------------------------------------
     2112                   ; 201 | m_GpTxDataCnt = 0;                                                     
     2113                   ;----------------------------------------------------------------------
     2114 000001b1 50600000         ldiu      0,r0
     2115 000001b2 15200000-        sti       r0,@_m_GpTxDataCnt+0
     2116                           .line   14
     2117                   ;----------------------------------------------------------------------
     2118                   ; 202 | saf82532_Send(SAB82532_BCH,m_GPTxDataBuf,sGpTxLen);                    
     2119                   ; 206 | //        .                
     2120                   ;----------------------------------------------------------------------
     2121 000001b3 50610040         ldiu      64,r1
     2122 000001b4 50420301         ldiu      *+fp(1),r2
     2123 000001b5 50200209-        ldiu      @CL1,r0
     2124 000001b6 0f220000         push      r2
     2125 000001b7 0f200000         push      r0
     2126 000001b8 0f210000         push      r1
     2127 000001b9 62000000!        call      _saf82532_Send
     2128                                                           ; Call Occurs
     2129 000001ba 18740003         subi      3,sp
     2130 000001bb          L30:        
     2131                           .line   19
     2132                   ;----------------------------------------------------------------------
     2133                   ; 207 | if(!(m_GpTimeCnt%300) && !(nSelect_Button.nScreenRxTime) && !Saf82532_B
     2134                   ;     | ch.nTxDisable1msCnt)  //&& SCC2_INIT_A.TxOK)                           
     2135                   ;----------------------------------------------------------------------
     2136 000001bb 50200001-        ldiu      @_m_GpTimeCnt+0,r0
     2137 000001bc 5061012c         ldiu      300,r1
     2138 000001bd 62000000!        call      MOD_U30
     2139                                                           ; Call Occurs
     2140 000001be 04e00000         cmpi      0,r0
     2141 000001bf 6a06000d         bne       L35
     2142                   ;*      Branch Occurs to L35 
     2143 000001c0 08200206-        ldi       @_nSelect_Button+11,r0
     2144 000001c1 6a06000b         bne       L35
     2145                   ;*      Branch Occurs to L35 
     2146 000001c2 0820000a!        ldi       @_Saf82532_Bch+10,r0
     2147 000001c3 6a060009         bne       L35
     2148                   ;*      Branch Occurs to L35 
     2149                           .line   21
     2150                   ;----------------------------------------------------------------------
     2151                   ; 209 | nSelect_Button.nScreenRxTime = 100;                                    
     2152                   ;----------------------------------------------------------------------
     2153 000001c4 50600064         ldiu      100,r0
     2154 000001c5 15200206-        sti       r0,@_nSelect_Button+11
     2155                           .line   23
     2156                   ;----------------------------------------------------------------------
     2157                   ; 211 | if(nSelect_Button.nScreenSafe >= 5)                                    
     2158                   ;----------------------------------------------------------------------
     2159 000001c6 50200207-        ldiu      @_nSelect_Button+12,r0
     2160 000001c7 04e00005         cmpi      5,r0
TMS320C3x/4x COFF AssemblerVersion 5.11     Mon Apr 29 17:36:37 2013
Copyright (c) 1987-1999 Texas Instruments Incorporatedc:\lang\tms320c3x\511\bin\asm30.exe -l gpproface.asm gpproface.obj -tC:\Users\JDS\AppData\Local\Temp\gpproface.tmp 

gpproface.asm                                                        PAGE   41

     2161 000001c8 6a010004         blo       L35
     2162                   ;*      Branch Occurs to L35 
     2163                           .line   25
     2164                   ;----------------------------------------------------------------------
     2165                   ; 213 | GP_SEND_SCREEN(nSelect_Button.nScreenSetNum);                          
     2166                   ;----------------------------------------------------------------------
     2167 000001c9 50200205-        ldiu      @_nSelect_Button+10,r0
     2168 000001ca 0f200000         push      r0
     2169 000001cb 62000263'        call      _GP_SEND_SCREEN
     2170                                                           ; Call Occurs
     2171 000001cc 18740001         subi      1,sp
     2172 000001cd          L35:        
     2173                           .line   29
     2174 000001cd 50530b01         ldiu      *-fp(1),bk
     2175 000001ce 504bc300         ldiu      *fp,fp
     2176 000001cf 18740003         subi      3,sp
     2177 000001d0 68000013         bu        bk
     2178                   ;*      Branch Occurs to bk 
     2179                           .endfunc        217,000000000h,1
     2180                   
     2181                   
     2182 000001d1                  .sect    ".text"
     2183                   
     2184                           .global _GP_1msTime
     2185                           .sym    _GP_1msTime,_GP_1msTime,32,2,0
     2186                           .func   224
     2187                   ;******************************************************************************
     2188                   ;* FUNCTION NAME: _GP_1msTime                                                 *
     2189                   ;*                                                                            *
     2190                   ;*   Architecture       : TMS320C30                                           *
     2191                   ;*   Calling Convention : Stack Parameter Convention                          *
     2192                   ;*   Function Uses Regs : r0,r1,fp,sp,st                                      *
     2193                   ;*   Regs Saved         :                                                     *
     2194                   ;*   Stack Frame        : Full (w/ debug)                                     *
     2195                   ;*   Total Frame Size   : 2 Call + 0 Parm + 0 Auto + 0 SOE = 2 words          *
     2196                   ;******************************************************************************
     2197 000001d1          _GP_1msTime:
     2198                           .line   1
     2199                   ;----------------------------------------------------------------------
     2200                   ; 224 | void GP_1msTime()                                                      
     2201                   ;----------------------------------------------------------------------
     2202 000001d1 0f2b0000         push      fp
     2203 000001d2 500b0014         ldiu      sp,fp
     2204                           .line   4
     2205                   ;----------------------------------------------------------------------
     2206                   ; 227 | m_GpTimeCnt++;                                                         
     2207                   ; 228 | //  . .                                              
     2208                   ;----------------------------------------------------------------------
     2209 000001d3 50600001         ldiu      1,r0
     2210 000001d4 02200001-        addi      @_m_GpTimeCnt+0,r0    ; Unsigned
     2211 000001d5 15200001-        sti       r0,@_m_GpTimeCnt+0
     2212                           .line   7
     2213                   ;----------------------------------------------------------------------
     2214                   ; 230 | if(nSelect_Button.nScreenSafe == 1)                                    
TMS320C3x/4x COFF AssemblerVersion 5.11     Mon Apr 29 17:36:37 2013
Copyright (c) 1987-1999 Texas Instruments Incorporatedc:\lang\tms320c3x\511\bin\asm30.exe -l gpproface.asm gpproface.obj -tC:\Users\JDS\AppData\Local\Temp\gpproface.tmp 

gpproface.asm                                                        PAGE   42

     2215                   ;----------------------------------------------------------------------
     2216 000001d6 50200207-        ldiu      @_nSelect_Button+12,r0
     2217 000001d7 04e00001         cmpi      1,r0
     2218 000001d8 6a060008         bne       L39
     2219                   ;*      Branch Occurs to L39 
     2220                           .line   9
     2221                   ;----------------------------------------------------------------------
     2222                   ; 232 | nSelect_Button.nScreenSafe = 0;                                        
     2223                   ;----------------------------------------------------------------------
     2224 000001d9 50600000         ldiu      0,r0
     2225 000001da 15200207-        sti       r0,@_nSelect_Button+12
     2226                           .line   10
     2227                   ;----------------------------------------------------------------------
     2228                   ; 233 | gpTURNOFF;                                                             
     2229                   ;----------------------------------------------------------------------
     2230 000001db 5021020b-        ldiu      @CL3,r1
     2231 000001dc 0f210000         push      r1
     2232 000001dd 5060000c         ldiu      12,r0
     2233 000001de 0f200000         push      r0
     2234 000001df 6200004d'        call      _gp_WritingWord
     2235                                                           ; Call Occurs
     2236 000001e0 18740002         subi      2,sp
     2237 000001e1          L39:        
     2238                           .line   13
     2239                   ;----------------------------------------------------------------------
     2240                   ; 236 | if(nSelect_Button.nScreenRxTime) {nSelect_Button.nScreenRxTime--;}     
     2241                   ;----------------------------------------------------------------------
     2242 000001e1 08200206-        ldi       @_nSelect_Button+11,r0
     2243 000001e2 6a050003         beq       L41
     2244                   ;*      Branch Occurs to L41 
     2245 000001e3 50600001         ldiu      1,r0
     2246 000001e4 19a00206-        subri     @_nSelect_Button+11,r0 ; Unsigned
     2247 000001e5 15200206-        sti       r0,@_nSelect_Button+11
     2248 000001e6          L41:        
     2249                           .line   14
     2250                   ;----------------------------------------------------------------------
     2251                   ; 237 | if(nSelect_Button.nScreenSafe){nSelect_Button.nScreenSafe--;}          
     2252                   ;----------------------------------------------------------------------
     2253 000001e6 08200207-        ldi       @_nSelect_Button+12,r0
     2254 000001e7 6a050003         beq       L43
     2255                   ;*      Branch Occurs to L43 
     2256 000001e8 50600001         ldiu      1,r0
     2257 000001e9 19a00207-        subri     @_nSelect_Button+12,r0 ; Unsigned
     2258 000001ea 15200207-        sti       r0,@_nSelect_Button+12
     2259 000001eb          L43:        
     2260                           .line   16
     2261 000001eb 50530b01         ldiu      *-fp(1),bk
     2262 000001ec 504bc300         ldiu      *fp,fp
     2263 000001ed 18740002         subi      2,sp
     2264 000001ee 68000013         bu        bk
     2265                   ;*      Branch Occurs to bk 
     2266                           .endfunc        239,000000000h,0
     2267                   
     2268                   
TMS320C3x/4x COFF AssemblerVersion 5.11     Mon Apr 29 17:36:37 2013
Copyright (c) 1987-1999 Texas Instruments Incorporatedc:\lang\tms320c3x\511\bin\asm30.exe -l gpproface.asm gpproface.obj -tC:\Users\JDS\AppData\Local\Temp\gpproface.tmp 

gpproface.asm                                                        PAGE   43

     2269                   
     2270 0000000c                  .sect   ".cinit"
     2271 0000000c 00000001         .field          1,32
     2272 0000000d 00000004-        .field          _d_gpReceive+0,32
     2273 0000000e 00000000         .field          0,32            ; _d_gpReceive @ 0
     2274                   
     2275 000001ef                  .sect   ".text"
     2276                   
     2277                           .global _d_gpReceive
     2278 00000004                  .bss    _d_gpReceive,1
     2279                           .sym    _d_gpReceive,_d_gpReceive,12,2,32
     2280 000001ef                  .sect    ".text"
     2281                   
     2282                           .global _gp_Receive
     2283                           .sym    _gp_Receive,_gp_Receive,32,2,0
     2284                           .func   245
     2285                   ;******************************************************************************
     2286                   ;* FUNCTION NAME: _gp_Receive                                                 *
     2287                   ;*                                                                            *
     2288                   ;*   Architecture       : TMS320C30                                           *
     2289                   ;*   Calling Convention : Stack Parameter Convention                          *
     2290                   ;*   Function Uses Regs : r0,r1,ar0,ar1,fp,sp,st                              *
     2291                   ;*   Regs Saved         :                                                     *
     2292                   ;*   Stack Frame        : Full (w/ debug)                                     *
     2293                   ;*   Total Frame Size   : 2 Call + 1 Parm + 0 Auto + 0 SOE = 3 words          *
     2294                   ;******************************************************************************
     2295 000001ef          _gp_Receive:
     2296                           .sym    _pGpRxData,-2,28,9,32
     2297                           .line   1
     2298                   ;----------------------------------------------------------------------
     2299                   ; 245 | void gp_Receive(UCHAR *pGpRxData)                                      
     2300                   ;----------------------------------------------------------------------
     2301 000001ef 0f2b0000         push      fp
     2302 000001f0 500b0014         ldiu      sp,fp
     2303                           .line   2
     2304                           .line   3
     2305                   ;----------------------------------------------------------------------
     2306                   ; 247 | nSelect_Button.nScreenSafe = 60000;                                    
     2307                   ;----------------------------------------------------------------------
     2308 000001f1 5020020a-        ldiu      @CL2,r0
     2309 000001f2 15200207-        sti       r0,@_nSelect_Button+12
     2310                           .line   5
     2311                   ;----------------------------------------------------------------------
     2312                   ; 249 | d_gpReceive++;                                                         
     2313                   ;----------------------------------------------------------------------
     2314 000001f3 50600001         ldiu      1,r0
     2315 000001f4 02200004-        addi      @_d_gpReceive+0,r0    ; Unsigned
     2316 000001f5 15200004-        sti       r0,@_d_gpReceive+0
     2317                           .line   7
     2318                   ;----------------------------------------------------------------------
     2319                   ; 251 | if(WORD_L(pGpRxData[1]) == 0x41)        //GP     
     2320                   ;     | .                                                                      
     2321                   ;----------------------------------------------------------------------
     2322 000001f6 50480b02         ldiu      *-fp(2),ar0
TMS320C3x/4x COFF AssemblerVersion 5.11     Mon Apr 29 17:36:37 2013
Copyright (c) 1987-1999 Texas Instruments Incorporatedc:\lang\tms320c3x\511\bin\asm30.exe -l gpproface.asm gpproface.obj -tC:\Users\JDS\AppData\Local\Temp\gpproface.tmp 

gpproface.asm                                                        PAGE   44

     2323 000001f7 506000ff         ldiu      255,r0
     2324 000001f8 02c00001         and       *+ar0(1),r0
     2325 000001f9 04e00041         cmpi      65,r0
     2326 000001fa 6a060010         bne       L47
     2327                   ;*      Branch Occurs to L47 
     2328                           .line   11
     2329                   ;----------------------------------------------------------------------
     2330                   ; 255 | nSelect_Button.nScreenRxTime = 100;                                    
     2331                   ;----------------------------------------------------------------------
     2332 000001fb 50600064         ldiu      100,r0
     2333 000001fc 15200206-        sti       r0,@_nSelect_Button+11
     2334                           .line   13
     2335                   ;----------------------------------------------------------------------
     2336                   ; 257 | nSelect_Button.nGPTranNumInput.nNum = BCD_BIN(MAKE_WORD(pGpRxData[2],pG
     2337                   ;     | pRxData[3]));                                                          
     2338                   ; 258 | //Hex2ASCIIW(nSelect_Button.nGPTranNumInput.nNum,nSelect_Button.nGPTran
     2339                   ;     | NumInput.nASC_NumBuf);                                                 
     2340                   ;----------------------------------------------------------------------
     2341 000001fd 50090008         ldiu      ar0,ar1
     2342 000001fe 506000ff         ldiu      255,r0
     2343 000001ff 50410102         ldiu      *+ar1(2),r1
     2344 00000200 02c00003         and       *+ar0(3),r0
     2345 00000201 03e10008         ash       8,r1
     2346 00000202 25800001         or3       r1,r0,r0
     2347 00000203 02e0ffff         and       65535,r0
     2348 00000204 0f200000         push      r0
     2349 00000205 6200012d'        call      _BCD_BIN
     2350                                                           ; Call Occurs
     2351 00000206 152001fc-        sti       r0,@_nSelect_Button+1
     2352 00000207 18740001         subi      1,sp
     2353                           .line   16
     2354                   ;----------------------------------------------------------------------
     2355                   ; 260 | nSelect_Button.nGPTranNumInput.nFlag = TRUE;                           
     2356                   ;----------------------------------------------------------------------
     2357 00000208 50600001         ldiu      1,r0
     2358 00000209 152001fb-        sti       r0,@_nSelect_Button+0
     2359 0000020a 6a000054         bu        L50
     2360                   ;*      Branch Occurs to L50 
     2361 0000020b          L47:        
     2362                           .line   18
     2363                   ;----------------------------------------------------------------------
     2364                   ; 262 | else if(WORD_L(pGpRxData[1]) == 0x49)                                  
     2365                   ;----------------------------------------------------------------------
     2366 0000020b 50480b02         ldiu      *-fp(2),ar0
     2367 0000020c 506000ff         ldiu      255,r0
     2368 0000020d 02c00001         and       *+ar0(1),r0
     2369 0000020e 04e00049         cmpi      73,r0
     2370 0000020f 6a06004f         bne       L50
     2371                   ;*      Branch Occurs to L50 
     2372                           .line   20
     2373                   ;----------------------------------------------------------------------
     2374                   ; 264 | nSelect_Button.nScreenRxTime = 100;                                    
     2375                   ;----------------------------------------------------------------------
     2376 00000210 50600064         ldiu      100,r0
TMS320C3x/4x COFF AssemblerVersion 5.11     Mon Apr 29 17:36:37 2013
Copyright (c) 1987-1999 Texas Instruments Incorporatedc:\lang\tms320c3x\511\bin\asm30.exe -l gpproface.asm gpproface.obj -tC:\Users\JDS\AppData\Local\Temp\gpproface.tmp 

gpproface.asm                                                        PAGE   45

     2377 00000211 15200206-        sti       r0,@_nSelect_Button+11
     2378                           .line   22
     2379                   ;----------------------------------------------------------------------
     2380                   ; 266 | GP_STATE_SCREEN(WORD_L(pGpRxData[3]));          // .   
     2381                   ;----------------------------------------------------------------------
     2382 00000212 506000ff         ldiu      255,r0
     2383 00000213 02c00003         and       *+ar0(3),r0
     2384 00000214 0f200000         push      r0
     2385 00000215 6200080e'        call      _GP_STATE_SCREEN
     2386                                                           ; Call Occurs
     2387 00000216 18740001         subi      1,sp
     2388                           .line   23
     2389                   ;----------------------------------------------------------------------
     2390                   ; 267 | GP_MANUAL_SCREEN(WORD_L(pGpRxData[3]));         //   . 
     2391                   ;----------------------------------------------------------------------
     2392 00000217 50480b02         ldiu      *-fp(2),ar0
     2393 00000218 506000ff         ldiu      255,r0
     2394 00000219 02c00003         and       *+ar0(3),r0
     2395 0000021a 0f200000         push      r0
     2396 0000021b 62000838'        call      _GP_MANUAL_SCREEN
     2397                                                           ; Call Occurs
     2398 0000021c 18740001         subi      1,sp
     2399                           .line   24
     2400                   ;----------------------------------------------------------------------
     2401                   ; 268 | GP_MENU_SCREEN(WORD_L(pGpRxData[3]));           //         
     2402                   ;----------------------------------------------------------------------
     2403 0000021d 50480b02         ldiu      *-fp(2),ar0
     2404 0000021e 506000ff         ldiu      255,r0
     2405 0000021f 02c00003         and       *+ar0(3),r0
     2406 00000220 0f200000         push      r0
     2407 00000221 620008dd'        call      _GP_MENU_SCREEN
     2408                                                           ; Call Occurs
     2409 00000222 18740001         subi      1,sp
     2410                           .line   25
     2411                   ;----------------------------------------------------------------------
     2412                   ; 269 | GP_DEST_SCREEN(WORD_L(pGpRxData[3]));           //             
     2413                   ;----------------------------------------------------------------------
     2414 00000223 50480b02         ldiu      *-fp(2),ar0
     2415 00000224 506000ff         ldiu      255,r0
     2416 00000225 02c00003         and       *+ar0(3),r0
     2417 00000226 0f200000         push      r0
     2418 00000227 62000a25'        call      _GP_DEST_SCREEN
     2419                                                           ; Call Occurs
     2420 00000228 18740001         subi      1,sp
     2421                           .line   26
     2422                   ;----------------------------------------------------------------------
     2423                   ; 270 | GP_SIMU_SCREEN(WORD_L(pGpRxData[3]));           //   . 
     2424                   ;----------------------------------------------------------------------
     2425 00000229 50480b02         ldiu      *-fp(2),ar0
     2426 0000022a 506000ff         ldiu      255,r0
     2427 0000022b 02c00003         and       *+ar0(3),r0
     2428 0000022c 0f200000         push      r0
     2429 0000022d 62000cc6'        call      _GP_SIMU_SCREEN
     2430                                                           ; Call Occurs
TMS320C3x/4x COFF AssemblerVersion 5.11     Mon Apr 29 17:36:37 2013
Copyright (c) 1987-1999 Texas Instruments Incorporatedc:\lang\tms320c3x\511\bin\asm30.exe -l gpproface.asm gpproface.obj -tC:\Users\JDS\AppData\Local\Temp\gpproface.tmp 

gpproface.asm                                                        PAGE   46

     2431 0000022e 18740001         subi      1,sp
     2432                           .line   27
     2433                   ;----------------------------------------------------------------------
     2434                   ; 271 | GP_POINT_SCREEN(WORD_L(pGpRxData[3]));          //     
     2435                   ;----------------------------------------------------------------------
     2436 0000022f 50480b02         ldiu      *-fp(2),ar0
     2437 00000230 506000ff         ldiu      255,r0
     2438 00000231 02c00003         and       *+ar0(3),r0
     2439 00000232 0f200000         push      r0
     2440 00000233 62000d89'        call      _GP_POINT_SCREEN
     2441                                                           ; Call Occurs
     2442 00000234 18740001         subi      1,sp
     2443                           .line   28
     2444                   ;----------------------------------------------------------------------
     2445                   ; 272 | GP_SELFTEST_SCREEN(WORD_L(pGpRxData[3]));       //.            
     2446                   ;----------------------------------------------------------------------
     2447 00000235 50480b02         ldiu      *-fp(2),ar0
     2448 00000236 506000ff         ldiu      255,r0
     2449 00000237 02c00003         and       *+ar0(3),r0
     2450 00000238 0f200000         push      r0
     2451 00000239 62000e24'        call      _GP_SELFTEST_SCREEN
     2452                                                           ; Call Occurs
     2453 0000023a 18740001         subi      1,sp
     2454                           .line   29
     2455                   ;----------------------------------------------------------------------
     2456                   ; 273 | GP_TRAIN_SCREEN(WORD_L(pGpRxData[3]));          //     
     2457                   ;----------------------------------------------------------------------
     2458 0000023b 50480b02         ldiu      *-fp(2),ar0
     2459 0000023c 506000ff         ldiu      255,r0
     2460 0000023d 02c00003         and       *+ar0(3),r0
     2461 0000023e 0f200000         push      r0
     2462 0000023f 62000f67'        call      _GP_TRAIN_SCREEN
     2463                                                           ; Call Occurs
     2464 00000240 18740001         subi      1,sp
     2465                           .line   30
     2466                   ;----------------------------------------------------------------------
     2467                   ; 274 | GP_CLEAN(WORD_L(pGpRxData[3]));                         // . 
     2468                   ;----------------------------------------------------------------------
     2469 00000241 50480b02         ldiu      *-fp(2),ar0
     2470 00000242 506000ff         ldiu      255,r0
     2471 00000243 02c00003         and       *+ar0(3),r0
     2472 00000244 0f200000         push      r0
     2473 00000245 62000801'        call      _GP_CLEAN
     2474                                                           ; Call Occurs
     2475 00000246 18740001         subi      1,sp
     2476                           .line   31
     2477                   ;----------------------------------------------------------------------
     2478                   ; 275 | GP_DISPLAY_SAFETY(WORD_L(pGpRxData[3]));        //  .      
     2479                   ;----------------------------------------------------------------------
     2480 00000247 50480b02         ldiu      *-fp(2),ar0
     2481 00000248 506000ff         ldiu      255,r0
     2482 00000249 02c00003         and       *+ar0(3),r0
     2483 0000024a 0f200000         push      r0
     2484 0000024b 620007ee'        call      _GP_DISPLAY_SAFETY
TMS320C3x/4x COFF AssemblerVersion 5.11     Mon Apr 29 17:36:37 2013
Copyright (c) 1987-1999 Texas Instruments Incorporatedc:\lang\tms320c3x\511\bin\asm30.exe -l gpproface.asm gpproface.obj -tC:\Users\JDS\AppData\Local\Temp\gpproface.tmp 

gpproface.asm                                                        PAGE   47

     2485                                                           ; Call Occurs
     2486 0000024c 18740001         subi      1,sp
     2487                           .line   32
     2488                   ;----------------------------------------------------------------------
     2489                   ; 276 | GP_SDR_SCREEN(WORD_L(pGpRxData[3]));            //           
     2490                   ;----------------------------------------------------------------------
     2491 0000024d 50480b02         ldiu      *-fp(2),ar0
     2492 0000024e 506000ff         ldiu      255,r0
     2493 0000024f 02c00003         and       *+ar0(3),r0
     2494 00000250 0f200000         push      r0
     2495 00000251 620008f0'        call      _GP_SDR_SCREEN
     2496                                                           ; Call Occurs
     2497 00000252 18740001         subi      1,sp
     2498                           .line   33
     2499                   ;----------------------------------------------------------------------
     2500                   ; 277 | GP_IDC_SW_UPLOAD(WORD_L(pGpRxData[3]));         //SW UPLOAD        
     2501                   ;----------------------------------------------------------------------
     2502 00000253 50480b02         ldiu      *-fp(2),ar0
     2503 00000254 506000ff         ldiu      255,r0
     2504 00000255 02c00003         and       *+ar0(3),r0
     2505 00000256 0f200000         push      r0
     2506 00000257 6200112c'        call      _GP_IDC_SW_UPLOAD
     2507                                                           ; Call Occurs
     2508 00000258 18740001         subi      1,sp
     2509                           .line   34
     2510                   ;----------------------------------------------------------------------
     2511                   ; 278 | GP_SFDD_SW_UPLOAD(WORD_L(pGpRxData[3]));        //LED   
     2512                   ;     | .                                                                     
     2513                   ;----------------------------------------------------------------------
     2514 00000259 50480b02         ldiu      *-fp(2),ar0
     2515 0000025a 506000ff         ldiu      255,r0
     2516 0000025b 02c00003         and       *+ar0(3),r0
     2517 0000025c 0f200000         push      r0
     2518 0000025d 62001211'        call      _GP_SFDD_SW_UPLOAD
     2519                                                           ; Call Occurs
     2520 0000025e 18740001         subi      1,sp
     2521 0000025f          L50:        
     2522                           .line   37
     2523 0000025f 50530b01         ldiu      *-fp(1),bk
     2524 00000260 504bc300         ldiu      *fp,fp
     2525 00000261 18740002         subi      2,sp
     2526 00000262 68000013         bu        bk
     2527                   ;*      Branch Occurs to bk 
     2528                           .endfunc        281,000000000h,0
     2529                   
     2530                   
     2531 00000263                  .sect    ".text"
     2532                   
     2533                           .global _GP_SEND_SCREEN
     2534                           .sym    _GP_SEND_SCREEN,_GP_SEND_SCREEN,32,2,0
     2535                           .func   286
     2536                   ;******************************************************************************
     2537                   ;* FUNCTION NAME: _GP_SEND_SCREEN                                             *
     2538                   ;*                                                                            *
TMS320C3x/4x COFF AssemblerVersion 5.11     Mon Apr 29 17:36:37 2013
Copyright (c) 1987-1999 Texas Instruments Incorporatedc:\lang\tms320c3x\511\bin\asm30.exe -l gpproface.asm gpproface.obj -tC:\Users\JDS\AppData\Local\Temp\gpproface.tmp 

gpproface.asm                                                        PAGE   48

     2539                   ;*   Architecture       : TMS320C30                                           *
     2540                   ;*   Calling Convention : Stack Parameter Convention                          *
     2541                   ;*   Function Uses Regs : r0,r1,r2,r3,ar0,ar1,fp,ir0,ir1,sp,st,rs,re,rc       *
     2542                   ;*   Regs Saved         :                                                     *
     2543                   ;*   Stack Frame        : Full (w/ debug)                                     *
     2544                   ;*   Total Frame Size   : 2 Call + 1 Parm + 126 Auto + 0 SOE = 129 words      *
     2545                   ;******************************************************************************
     2546 00000263          _GP_SEND_SCREEN:
     2547                           .sym    _nScreenNum,-2,12,9,32
     2548                           .sym    _sTemp,1,12,1,32
     2549                           .sym    _sCharBuf,2,60,1,320,,10
     2550                           .sym    _glVer,12,60,1,320,,10
     2551                           .sym    _sSelfTestBuf,22,60,1,1920,,60
     2552                           .sym    _sClean_Buf,82,60,1,640,,20
     2553                           .sym    _sDataBuf,102,60,1,320,,10
     2554                           .sym    _sDowRep,112,60,1,480,,15
     2555                           .line   1
     2556                   ;----------------------------------------------------------------------
     2557                   ; 286 | void GP_SEND_SCREEN(UCHAR nScreenNum)                                  
     2558                   ;----------------------------------------------------------------------
     2559                           .line   2
     2560                   ;----------------------------------------------------------------------
     2561                   ; 288 | UCHAR sTemp;                                                           
     2562                   ; 289 | UCHAR sCharBuf[10];                                                    
     2563                   ; 290 | UCHAR glVer[10];                                                       
     2564                   ; 291 | UCHAR sSelfTestBuf[60];                                                
     2565                   ; 292 | UCHAR sClean_Buf[20];                                                  
     2566                   ; 293 | UCHAR sDataBuf[10];                                                    
     2567                   ; 294 | UCHAR sDowRep[15];                                                     
     2568                   ; 297 | switch(WORD_L(nScreenNum))                                             
     2569                   ; 299 | case 1: //                                                     
     2570                   ;----------------------------------------------------------------------
     2571 00000263 6a20056b         bud       L176
     2572 00000264 0f2b0000         push      fp
     2573 00000265 500b0014         ldiu      sp,fp
     2574 00000266 0274007e         addi      126,sp
     2575                   ;*      Branch Occurs to L176 
     2576 00000267          L53:        
     2577                           .line   16
     2578                   ;----------------------------------------------------------------------
     2579                   ; 301 | if(nDi_Check.nHcr.nFlag) {gpHCR;}                                      
     2580                   ;----------------------------------------------------------------------
     2581 00000267 08200000!        ldi       @_nDi_Check+0,r0
     2582 00000268 6a250006         beqd      L55
     2583 00000269 0c800000         nop
     2584 0000026a 53610002         ldine     2,r1
     2585 0000026b 53600035         ldine     53,r0
     2586                   ;*      Branch Occurs to L55 
     2587 0000026c 0f210000         push      r1
     2588 0000026d 0f200000         push      r0
     2589 0000026e 6200004d'        call      _gp_WritingWord
     2590                                                           ; Call Occurs
     2591 0000026f 18740002         subi      2,sp
     2592 00000270 6a00001a         bu        L61
TMS320C3x/4x COFF AssemblerVersion 5.11     Mon Apr 29 17:36:37 2013
Copyright (c) 1987-1999 Texas Instruments Incorporatedc:\lang\tms320c3x\511\bin\asm30.exe -l gpproface.asm gpproface.obj -tC:\Users\JDS\AppData\Local\Temp\gpproface.tmp 

gpproface.asm                                                        PAGE   49

     2593                   ;*      Branch Occurs to L61 
     2594 00000271          L55:        
     2595                           .line   17
     2596                   ;----------------------------------------------------------------------
     2597                   ; 302 | else if(nDi_Check.nIcr.nFlag){gpICR;}                                  
     2598                   ;----------------------------------------------------------------------
     2599 00000271 08200004!        ldi       @_nDi_Check+4,r0
     2600 00000272 6a250006         beqd      L57
     2601 00000273 0c800000         nop
     2602 00000274 53610004         ldine     4,r1
     2603 00000275 53600035         ldine     53,r0
     2604                   ;*      Branch Occurs to L57 
     2605 00000276 0f210000         push      r1
     2606 00000277 0f200000         push      r0
     2607 00000278 6200004d'        call      _gp_WritingWord
     2608                                                           ; Call Occurs
     2609 00000279 18740002         subi      2,sp
     2610 0000027a 6a000010         bu        L61
     2611                   ;*      Branch Occurs to L61 
     2612 0000027b          L57:        
     2613                           .line   18
     2614                   ;----------------------------------------------------------------------
     2615                   ; 303 | else if(nDi_Check.nTcr.nFlag){gpTCR;}                                  
     2616                   ;----------------------------------------------------------------------
     2617 0000027b 08200008!        ldi       @_nDi_Check+8,r0
     2618 0000027c 6a250008         beqd      L60
     2619 0000027d 0c800000         nop
     2620 0000027e 52e10010         ldieq     16,r1
     2621 0000027f 52e00035         ldieq     53,r0
     2622                   ;*      Branch Occurs to L60 
     2623 00000280 50610008         ldiu      8,r1
     2624 00000281 50600035         ldiu      53,r0
     2625 00000282 0f210000         push      r1
     2626 00000283 0f200000         push      r0
     2627 00000284 6200004d'        call      _gp_WritingWord
     2628                                                           ; Call Occurs
     2629 00000285 18740002         subi      2,sp
     2630 00000286 6a000004         bu        L61
     2631                   ;*      Branch Occurs to L61 
     2632                           .line   19
     2633                   ;----------------------------------------------------------------------
     2634                   ; 304 | else {gpDI_CHECK;}                                                     
     2635                   ;----------------------------------------------------------------------
     2636 00000287          L60:        
     2637 00000287 0f210000         push      r1
     2638 00000288 0f200000         push      r0
     2639 00000289 6200004d'        call      _gp_WritingWord
     2640                                                           ; Call Occurs
     2641 0000028a 18740002         subi      2,sp
     2642 0000028b          L61:        
     2643                           .line   21
     2644                   ;----------------------------------------------------------------------
     2645                   ; 306 | if(SanDisk_Vari.nDiskInputCheckFlag){gpCARDOK;}                        
     2646                   ;----------------------------------------------------------------------
TMS320C3x/4x COFF AssemblerVersion 5.11     Mon Apr 29 17:36:37 2013
Copyright (c) 1987-1999 Texas Instruments Incorporatedc:\lang\tms320c3x\511\bin\asm30.exe -l gpproface.asm gpproface.obj -tC:\Users\JDS\AppData\Local\Temp\gpproface.tmp 

gpproface.asm                                                        PAGE   50

     2647 0000028b 08200002!        ldi       @_SanDisk_Vari+2,r0
     2648 0000028c 6a250008         beqd      L64
     2649 0000028d 0c800000         nop
     2650 0000028e 52e00001         ldieq     1,r0
     2651 0000028f 52e10034         ldieq     52,r1
     2652                   ;*      Branch Occurs to L64 
     2653 00000290 50600000         ldiu      0,r0
     2654 00000291 50610034         ldiu      52,r1
     2655 00000292 0f200000         push      r0
     2656 00000293 0f210000         push      r1
     2657 00000294 6200004d'        call      _gp_WritingWord
     2658                                                           ; Call Occurs
     2659 00000295 18740002         subi      2,sp
     2660 00000296 6a000004         bu        L65
     2661                   ;*      Branch Occurs to L65 
     2662                           .line   22
     2663                   ;----------------------------------------------------------------------
     2664                   ; 307 | else {gpCARDERR; }                                                     
     2665                   ;----------------------------------------------------------------------
     2666 00000297          L64:        
     2667 00000297 0f200000         push      r0
     2668 00000298 0f210000         push      r1
     2669 00000299 6200004d'        call      _gp_WritingWord
     2670                                                           ; Call Occurs
     2671 0000029a 18740002         subi      2,sp
     2672 0000029b          L65:        
     2673                           .line   24
     2674                   ;----------------------------------------------------------------------
     2675                   ; 309 | if(nTr_St_Info.nTcmsRxNGCnt>5) {gpCOMERR; } //TCMS    .
     2676                   ;----------------------------------------------------------------------
     2677 0000029b 502000d7!        ldiu      @_nTr_St_Info+215,r0
     2678 0000029c 04e00005         cmpi      5,r0
     2679 0000029d 6a220008         blsd      L68
     2680 0000029e 0c800000         nop
     2681 0000029f 51600000         ldils     0,r0
     2682 000002a0 5161005d         ldils     93,r1
     2683                   ;*      Branch Occurs to L68 
     2684 000002a1 50600001         ldiu      1,r0
     2685 000002a2 5061005d         ldiu      93,r1
     2686 000002a3 0f200000         push      r0
     2687 000002a4 0f210000         push      r1
     2688 000002a5 6200004d'        call      _gp_WritingWord
     2689                                                           ; Call Occurs
     2690 000002a6 18740002         subi      2,sp
     2691 000002a7 6a000004         bu        L69
     2692                   ;*      Branch Occurs to L69 
     2693                           .line   25
     2694                   ;----------------------------------------------------------------------
     2695                   ; 310 | else {gpCOMCLR;}                                                       
     2696                   ;----------------------------------------------------------------------
     2697 000002a8          L68:        
     2698 000002a8 0f200000         push      r0
     2699 000002a9 0f210000         push      r1
     2700 000002aa 6200004d'        call      _gp_WritingWord
TMS320C3x/4x COFF AssemblerVersion 5.11     Mon Apr 29 17:36:37 2013
Copyright (c) 1987-1999 Texas Instruments Incorporatedc:\lang\tms320c3x\511\bin\asm30.exe -l gpproface.asm gpproface.obj -tC:\Users\JDS\AppData\Local\Temp\gpproface.tmp 

gpproface.asm                                                        PAGE   51

     2701                                                           ; Call Occurs
     2702 000002ab 18740002         subi      2,sp
     2703 000002ac          L69:        
     2704                           .line   27
     2705                   ;----------------------------------------------------------------------
     2706                   ; 312 | gpSTATE;                                                               
     2707                   ;----------------------------------------------------------------------
     2708 000002ac 5060003c         ldiu      60,r0
     2709 000002ad 5061000f         ldiu      15,r1
     2710 000002ae 0f200000         push      r0
     2711 000002af 0f210000         push      r1
     2712 000002b0 6200004d'        call      _gp_WritingWord
     2713                                                           ; Call Occurs
     2714 000002b1 18740002         subi      2,sp
     2715                           .line   28
     2716                   ;----------------------------------------------------------------------
     2717                   ; 313 | gpTURNOFFINIT;                                                         
     2718                   ;----------------------------------------------------------------------
     2719 000002b2 50600040         ldiu      64,r0
     2720 000002b3 5061000b         ldiu      11,r1
     2721 000002b4 0f200000         push      r0
     2722 000002b5 0f210000         push      r1
     2723 000002b6 6200004d'        call      _gp_WritingWord
     2724                                                           ; Call Occurs
     2725 000002b7 18740002         subi      2,sp
     2726                           .line   29
     2727                   ;----------------------------------------------------------------------
     2728                   ; 314 | gpTURNON;                                                              
     2729                   ;----------------------------------------------------------------------
     2730 000002b8 50600000         ldiu      0,r0
     2731 000002b9 5061000c         ldiu      12,r1
     2732 000002ba 0f200000         push      r0
     2733 000002bb 0f210000         push      r1
     2734 000002bc 6200004d'        call      _gp_WritingWord
     2735                                                           ; Call Occurs
     2736 000002bd 18740002         subi      2,sp
     2737                           .line   31
     2738                   ;----------------------------------------------------------------------
     2739                   ; 316 | gpDISTANCE(nTr_St_Info.nDistance); //nTmsRxData.nDist                  
     2740                   ; 317 | //gpDISTANCE(nTmsRxData.nDist); //nTmsRxData.nDist                     
     2741                   ;----------------------------------------------------------------------
     2742 000002be 502000d5!        ldiu      @_nTr_St_Info+213,r0
     2743 000002bf 0f200000         push      r0
     2744 000002c0 50610067         ldiu      103,r1
     2745 000002c1 0f210000         push      r1
     2746 000002c2 62000000'        call      _gp_WritingDWord
     2747                                                           ; Call Occurs
     2748 000002c3 18740002         subi      2,sp
     2749                           .line   34
     2750                   ;----------------------------------------------------------------------
     2751                   ; 319 | gp_WritingWord(100,BIN_BCD(nSelect_Button.nGPTranNumInput.nNum));      
     2752                   ;----------------------------------------------------------------------
     2753 000002c4 502001fc-        ldiu      @_nSelect_Button+1,r0
     2754 000002c5 0f200000         push      r0
TMS320C3x/4x COFF AssemblerVersion 5.11     Mon Apr 29 17:36:37 2013
Copyright (c) 1987-1999 Texas Instruments Incorporatedc:\lang\tms320c3x\511\bin\asm30.exe -l gpproface.asm gpproface.obj -tC:\Users\JDS\AppData\Local\Temp\gpproface.tmp 

gpproface.asm                                                        PAGE   52

     2755 000002c6 6200014c'        call      _BIN_BCD
     2756                                                           ; Call Occurs
     2757 000002c7 50610064         ldiu      100,r1
     2758 000002c8 18740001         subi      1,sp
     2759 000002c9 0f200000         push      r0
     2760 000002ca 0f210000         push      r1
     2761 000002cb 6200004d'        call      _gp_WritingWord
     2762                                                           ; Call Occurs
     2763 000002cc 18740002         subi      2,sp
     2764                           .line   36
     2765                   ;----------------------------------------------------------------------
     2766                   ; 321 | memset(sClean_Buf,0x20,20);                                            
     2767                   ;----------------------------------------------------------------------
     2768 000002cd 50600014         ldiu      20,r0
     2769 000002ce 0f200000         push      r0
     2770 000002cf 50610020         ldiu      32,r1
     2771 000002d0 5000000b         ldiu      fp,r0
     2772 000002d1 02600052         addi      82,r0
     2773 000002d2 0f210000         push      r1
     2774 000002d3 0f200000         push      r0
     2775 000002d4 62000000!        call      _memset
     2776                                                           ; Call Occurs
     2777 000002d5 18740003         subi      3,sp
     2778                           .line   38
     2779                   ;----------------------------------------------------------------------
     2780                   ; 323 | if(nDi_Check.nDoor.nFlag)// .                                
     2781                   ;----------------------------------------------------------------------
     2782 000002d6 0820000c!        ldi       @_nDi_Check+12,r0
     2783 000002d7 6a25002c         beqd      L75
     2784 000002d8 0c800000         nop
     2785 000002d9 52e00002         ldieq     2,r0
     2786 000002da 52e1005e         ldieq     94,r1
     2787                   ;*      Branch Occurs to L75 
     2788                           .line   40
     2789                   ;----------------------------------------------------------------------
     2790                   ; 325 | gpSTATEOPEN;                                                           
     2791                   ;----------------------------------------------------------------------
     2792 000002db 50600001         ldiu      1,r0
     2793 000002dc 5061005e         ldiu      94,r1
     2794 000002dd 0f200000         push      r0
     2795 000002de 0f210000         push      r1
     2796 000002df 6200004d'        call      _gp_WritingWord
     2797                                                           ; Call Occurs
     2798 000002e0 18740002         subi      2,sp
     2799                           .line   41
     2800                   ;----------------------------------------------------------------------
     2801                   ; 326 | gpNOWSTATION;                                                          
     2802                   ;----------------------------------------------------------------------
     2803 000002e1 50600001         ldiu      1,r0
     2804 000002e2 5061004e         ldiu      78,r1
     2805 000002e3 0f200000         push      r0
     2806 000002e4 0f210000         push      r1
     2807 000002e5 6200004d'        call      _gp_WritingWord
     2808                                                           ; Call Occurs
TMS320C3x/4x COFF AssemblerVersion 5.11     Mon Apr 29 17:36:37 2013
Copyright (c) 1987-1999 Texas Instruments Incorporatedc:\lang\tms320c3x\511\bin\asm30.exe -l gpproface.asm gpproface.obj -tC:\Users\JDS\AppData\Local\Temp\gpproface.tmp 

gpproface.asm                                                        PAGE   53

     2809 000002e6 18740002         subi      2,sp
     2810                           .line   42
     2811                   ;----------------------------------------------------------------------
     2812                   ; 327 | if(WORD_L(nTr_St_Info.nNow.nCode) != 0xFF)                             
     2813                   ;----------------------------------------------------------------------
     2814 000002e7 506000ff         ldiu      255,r0
     2815 000002e8 02a00134!        and       @_nTr_St_Info+308,r0
     2816 000002e9 04e000ff         cmpi      255,r0
     2817 000002ea 6a250012         beqd      L73
     2818 000002eb 5280000b         ldieq     fp,r0
     2819 000002ec 52e10005         ldieq     5,r1
     2820 000002ed 52e20082         ldieq     130,r2
     2821                   ;*      Branch Occurs to L73 
     2822                           .line   44
     2823                   ;----------------------------------------------------------------------
     2824                   ; 329 | NVSRAM_Rd_StationName_Code(nTr_St_Info.nNow.nCode,nTr_St_Info.nNow.nEnN
     2825                   ;     | ameBuf,nTr_St_Info.nGpStName.nNow);                                    
     2826                   ;----------------------------------------------------------------------
     2827 000002ee 5021020c-        ldiu      @CL4,r1
     2828 000002ef 5020020d-        ldiu      @CL5,r0
     2829 000002f0 0f210000         push      r1
     2830 000002f1 0f200000         push      r0
     2831 000002f2 50200134!        ldiu      @_nTr_St_Info+308,r0
     2832 000002f3 0f200000         push      r0
     2833 000002f4 62000000!        call      _NVSRAM_Rd_StationName_Code
     2834                                                           ; Call Occurs
     2835 000002f5 18740003         subi      3,sp
     2836                           .line   45
     2837                   ;----------------------------------------------------------------------
     2838                   ; 330 | gp_WritingStr(0x82,5,nTr_St_Info.nGpStName.nNow);       //       
     2839                   ; 332 | else                                                                   
     2840                   ;----------------------------------------------------------------------
     2841 000002f6 5020020c-        ldiu      @CL4,r0
     2842 000002f7 50610005         ldiu      5,r1
     2843 000002f8 50620082         ldiu      130,r2
     2844 000002f9 0f200000         push      r0
     2845 000002fa 0f210000         push      r1
     2846 000002fb 0f220000         push      r2
     2847 000002fc 620000ba'        call      _gp_WritingStr
     2848                                                           ; Call Occurs
     2849 000002fd 18740003         subi      3,sp
     2850 000002fe 6a00002f         bu        L79
     2851                   ;*      Branch Occurs to L79 
     2852                           .line   49
     2853                   ;----------------------------------------------------------------------
     2854                   ; 334 | gp_WritingStr(0x82,5,sClean_Buf);       //                       
     2855                   ; 337 | else                                                                   
     2856                   ;----------------------------------------------------------------------
     2857 000002ff          L73:        
     2858 000002ff 02600052         addi      82,r0
     2859 00000300 0f200000         push      r0
     2860 00000301 0f210000         push      r1
     2861 00000302 0f220000         push      r2
     2862 00000303 620000ba'        call      _gp_WritingStr
TMS320C3x/4x COFF AssemblerVersion 5.11     Mon Apr 29 17:36:37 2013
Copyright (c) 1987-1999 Texas Instruments Incorporatedc:\lang\tms320c3x\511\bin\asm30.exe -l gpproface.asm gpproface.obj -tC:\Users\JDS\AppData\Local\Temp\gpproface.tmp 

gpproface.asm                                                        PAGE   54

     2863                                                           ; Call Occurs
     2864 00000304 18740003         subi      3,sp
     2865 00000305 6a000028         bu        L79
     2866                   ;*      Branch Occurs to L79 
     2867                           .line   54
     2868                   ;----------------------------------------------------------------------
     2869                   ; 339 | gpSTATECLOSE ;                                                         
     2870                   ;----------------------------------------------------------------------
     2871 00000306          L75:        
     2872 00000306 0f200000         push      r0
     2873 00000307 0f210000         push      r1
     2874 00000308 6200004d'        call      _gp_WritingWord
     2875                                                           ; Call Occurs
     2876 00000309 18740002         subi      2,sp
     2877                           .line   55
     2878                   ;----------------------------------------------------------------------
     2879                   ; 340 | gpAFTERSTATION;                                                        
     2880                   ;----------------------------------------------------------------------
     2881 0000030a 50600002         ldiu      2,r0
     2882 0000030b 5061004e         ldiu      78,r1
     2883 0000030c 0f200000         push      r0
     2884 0000030d 0f210000         push      r1
     2885 0000030e 6200004d'        call      _gp_WritingWord
     2886                                                           ; Call Occurs
     2887 0000030f 18740002         subi      2,sp
     2888                           .line   56
     2889                   ;----------------------------------------------------------------------
     2890                   ; 341 | if(WORD_L(nTr_St_Info.nNext.nCode) != 0xFF)                            
     2891                   ;----------------------------------------------------------------------
     2892 00000310 506000ff         ldiu      255,r0
     2893 00000311 02a00162!        and       @_nTr_St_Info+354,r0
     2894 00000312 04e000ff         cmpi      255,r0
     2895 00000313 6a250012         beqd      L78
     2896 00000314 5280000b         ldieq     fp,r0
     2897 00000315 52e10005         ldieq     5,r1
     2898 00000316 52e20082         ldieq     130,r2
     2899                   ;*      Branch Occurs to L78 
     2900                           .line   58
     2901                   ;----------------------------------------------------------------------
     2902                   ; 343 | NVSRAM_Rd_StationName_Code(nTr_St_Info.nNext.nCode,nTr_St_Info.nNext.nE
     2903                   ;     | nNameBuf,nTr_St_Info.nGpStName.nNext);                                 
     2904                   ;----------------------------------------------------------------------
     2905 00000317 5021020e-        ldiu      @CL6,r1
     2906 00000318 5020020f-        ldiu      @CL7,r0
     2907 00000319 0f210000         push      r1
     2908 0000031a 0f200000         push      r0
     2909 0000031b 50200162!        ldiu      @_nTr_St_Info+354,r0
     2910 0000031c 0f200000         push      r0
     2911 0000031d 62000000!        call      _NVSRAM_Rd_StationName_Code
     2912                                                           ; Call Occurs
     2913 0000031e 18740003         subi      3,sp
     2914                           .line   59
     2915                   ;----------------------------------------------------------------------
     2916                   ; 344 | gp_WritingStr(0x82,5,nTr_St_Info.nGpStName.nNext);      //   
TMS320C3x/4x COFF AssemblerVersion 5.11     Mon Apr 29 17:36:37 2013
Copyright (c) 1987-1999 Texas Instruments Incorporatedc:\lang\tms320c3x\511\bin\asm30.exe -l gpproface.asm gpproface.obj -tC:\Users\JDS\AppData\Local\Temp\gpproface.tmp 

gpproface.asm                                                        PAGE   55

     2917                   ; 346 | else                                                                   
     2918                   ;----------------------------------------------------------------------
     2919 0000031f 5022020e-        ldiu      @CL6,r2
     2920 00000320 50610005         ldiu      5,r1
     2921 00000321 50600082         ldiu      130,r0
     2922 00000322 0f220000         push      r2
     2923 00000323 0f210000         push      r1
     2924 00000324 0f200000         push      r0
     2925 00000325 620000ba'        call      _gp_WritingStr
     2926                                                           ; Call Occurs
     2927 00000326 18740003         subi      3,sp
     2928 00000327 6a000006         bu        L79
     2929                   ;*      Branch Occurs to L79 
     2930                           .line   63
     2931                   ;----------------------------------------------------------------------
     2932                   ; 348 | gp_WritingStr(0x82,5,sClean_Buf);       //                       
     2933                   ;----------------------------------------------------------------------
     2934 00000328          L78:        
     2935 00000328 02600052         addi      82,r0
     2936 00000329 0f200000         push      r0
     2937 0000032a 0f210000         push      r1
     2938 0000032b 0f220000         push      r2
     2939 0000032c 620000ba'        call      _gp_WritingStr
     2940                                                           ; Call Occurs
     2941 0000032d 18740003         subi      3,sp
     2942 0000032e          L79:        
     2943                           .line   68
     2944                   ;----------------------------------------------------------------------
     2945                   ; 353 | if(WORD_L(nTr_St_Info.nDest.nCode) != 0xFF)                            
     2946                   ;----------------------------------------------------------------------
     2947 0000032e 506000ff         ldiu      255,r0
     2948 0000032f 02a00190!        and       @_nTr_St_Info+400,r0
     2949 00000330 04e000ff         cmpi      255,r0
     2950 00000331 6a250012         beqd      L82
     2951 00000332 5280000b         ldieq     fp,r0
     2952 00000333 52e10005         ldieq     5,r1
     2953 00000334 52e20096         ldieq     150,r2
     2954                   ;*      Branch Occurs to L82 
     2955                           .line   70
     2956                   ;----------------------------------------------------------------------
     2957                   ; 355 | NVSRAM_Rd_StationName_Code(nTr_St_Info.nDest.nCode,nTr_St_Info.nDest.nE
     2958                   ;     | nNameBuf,nTr_St_Info.nGpStName.nDest);                                 
     2959                   ;----------------------------------------------------------------------
     2960 00000335 50210210-        ldiu      @CL8,r1
     2961 00000336 50200211-        ldiu      @CL9,r0
     2962 00000337 0f210000         push      r1
     2963 00000338 0f200000         push      r0
     2964 00000339 50200190!        ldiu      @_nTr_St_Info+400,r0
     2965 0000033a 0f200000         push      r0
     2966 0000033b 62000000!        call      _NVSRAM_Rd_StationName_Code
     2967                                                           ; Call Occurs
     2968 0000033c 18740003         subi      3,sp
     2969                           .line   71
     2970                   ;----------------------------------------------------------------------
TMS320C3x/4x COFF AssemblerVersion 5.11     Mon Apr 29 17:36:37 2013
Copyright (c) 1987-1999 Texas Instruments Incorporatedc:\lang\tms320c3x\511\bin\asm30.exe -l gpproface.asm gpproface.obj -tC:\Users\JDS\AppData\Local\Temp\gpproface.tmp 

gpproface.asm                                                        PAGE   56

     2971                   ; 356 | gp_WritingStr(0x96,5,nTr_St_Info.nGpStName.nDest);      //     
     2972                   ; 358 | else                                                                   
     2973                   ;----------------------------------------------------------------------
     2974 0000033d 50220210-        ldiu      @CL8,r2
     2975 0000033e 50600005         ldiu      5,r0
     2976 0000033f 50610096         ldiu      150,r1
     2977 00000340 0f220000         push      r2
     2978 00000341 0f200000         push      r0
     2979 00000342 0f210000         push      r1
     2980 00000343 620000ba'        call      _gp_WritingStr
     2981                                                           ; Call Occurs
     2982 00000344 18740003         subi      3,sp
     2983 00000345 6a000006         bu        L83
     2984                   ;*      Branch Occurs to L83 
     2985                           .line   75
     2986                   ;----------------------------------------------------------------------
     2987                   ; 360 | gp_WritingStr(0x96,5,sClean_Buf);       //                     
     2988                   ;----------------------------------------------------------------------
     2989 00000346          L82:        
     2990 00000346 02600052         addi      82,r0
     2991 00000347 0f200000         push      r0
     2992 00000348 0f210000         push      r1
     2993 00000349 0f220000         push      r2
     2994 0000034a 620000ba'        call      _gp_WritingStr
     2995                                                           ; Call Occurs
     2996 0000034b 18740003         subi      3,sp
     2997 0000034c          L83:        
     2998                           .line   78
     2999                   ;----------------------------------------------------------------------
     3000                   ; 363 | glVer[0] = BYTE_H(nTmsRxData.nDataDefin)%10+0x30;                      
     3001                   ;----------------------------------------------------------------------
     3002 0000034c 50200000!        ldiu      @_nTmsRxData+0,r0
     3003 0000034d 09e0fffc         lsh       -4,r0
     3004 0000034e 02e0000f         and       15,r0
     3005 0000034f 5061000a         ldiu      10,r1
     3006 00000350 62000000!        call      MOD_U30
     3007                                                           ; Call Occurs
     3008 00000351 5008000b         ldiu      fp,ar0
     3009 00000352 0268000c         addi      12,ar0
     3010 00000353 02600030         addi      48,r0                 ; Unsigned
     3011 00000354 1540c000         sti       r0,*ar0
     3012                           .line   79
     3013                   ;----------------------------------------------------------------------
     3014                   ; 364 | glVer[1] = BYTE_L(nTmsRxData.nDataDefin)%10+0x30;                      
     3015                   ;----------------------------------------------------------------------
     3016 00000355 5060000f         ldiu      15,r0
     3017 00000356 02a00000!        and       @_nTmsRxData+0,r0
     3018 00000357 5061000a         ldiu      10,r1
     3019 00000358 62000000!        call      MOD_U30
     3020                                                           ; Call Occurs
     3021 00000359 5008000b         ldiu      fp,ar0
     3022 0000035a 0268000d         addi      13,ar0
     3023 0000035b 02600030         addi      48,r0                 ; Unsigned
     3024 0000035c 1540c000         sti       r0,*ar0
TMS320C3x/4x COFF AssemblerVersion 5.11     Mon Apr 29 17:36:37 2013
Copyright (c) 1987-1999 Texas Instruments Incorporatedc:\lang\tms320c3x\511\bin\asm30.exe -l gpproface.asm gpproface.obj -tC:\Users\JDS\AppData\Local\Temp\gpproface.tmp 

gpproface.asm                                                        PAGE   57

     3025                           .line   80
     3026                   ;----------------------------------------------------------------------
     3027                   ; 365 | glVer[2] = ((ROM_VER /100)+0x30);                                      
     3028                   ;----------------------------------------------------------------------
     3029 0000035d 5008000b         ldiu      fp,ar0
     3030 0000035e 0268000e         addi      14,ar0
     3031 0000035f 50600030         ldiu      48,r0
     3032 00000360 1540c000         sti       r0,*ar0
     3033                           .line   81
     3034                   ;----------------------------------------------------------------------
     3035                   ; 366 | glVer[3] = (ROM_VER %100)/10+0x30;                                     
     3036                   ;----------------------------------------------------------------------
     3037 00000361 5008000b         ldiu      fp,ar0
     3038 00000362 0268000f         addi      15,ar0
     3039 00000363 50600036         ldiu      54,r0
     3040 00000364 1540c000         sti       r0,*ar0
     3041                           .line   82
     3042                   ;----------------------------------------------------------------------
     3043                   ; 367 | glVer[4] = '.';                                                        
     3044                   ;----------------------------------------------------------------------
     3045 00000365 5008000b         ldiu      fp,ar0
     3046 00000366 02680010         addi      16,ar0
     3047 00000367 5060002e         ldiu      46,r0
     3048 00000368 1540c000         sti       r0,*ar0
     3049                           .line   83
     3050                   ;----------------------------------------------------------------------
     3051                   ; 368 | glVer[5] = (ROM_VER %100)%10+0x30;                                     
     3052                   ; 370 | //nTemp = Check_Header?EDIT_VER_OFFST);                                
     3053                   ;----------------------------------------------------------------------
     3054 00000369 5008000b         ldiu      fp,ar0
     3055 0000036a 02680011         addi      17,ar0
     3056 0000036b 50600030         ldiu      48,r0
     3057 0000036c 1540c000         sti       r0,*ar0
     3058                           .line   87
     3059                   ;----------------------------------------------------------------------
     3060                   ; 372 | sTemp = MAKE_WORD(WORD_L(NVSRAM(m_FileSize-4)),WORD_L(NVSRAM(m_FileSize
     3061                   ;     | -3)));                                                                 
     3062                   ;----------------------------------------------------------------------
     3063 0000036d 506000ff         ldiu      255,r0
     3064 0000036e 50310000!        ldiu      @_m_FileSize+0,ir0
     3065 0000036f 50280213-        ldiu      @CL11,ar0
     3066 00000370 50290212-        ldiu      @CL10,ar1
     3067 00000371 21a04000         and3      r0,*+ar0(ir0),r0
     3068 00000372 506100ff         ldiu      255,r1
     3069 00000373 50120011         ldiu      ir0,ir1
     3070 00000374 03e00008         ash       8,r0
     3071 00000375 21a18101         and3      r1,*+ar1(ir1),r1
     3072 00000376 25800100         or3       r0,r1,r0
     3073 00000377 02e0ffff         and       65535,r0
     3074 00000378 15400301         sti       r0,*+fp(1)
     3075                           .line   88
     3076                   ;----------------------------------------------------------------------
     3077                   ; 373 | if(!sTemp){ sTemp = MAKE_WORD(WORD_L(NVSRAM(m_FileSize-8)),WORD_L(NVSRA
     3078                   ;     | M(m_FileSize-7)));}                                                    
TMS320C3x/4x COFF AssemblerVersion 5.11     Mon Apr 29 17:36:37 2013
Copyright (c) 1987-1999 Texas Instruments Incorporatedc:\lang\tms320c3x\511\bin\asm30.exe -l gpproface.asm gpproface.obj -tC:\Users\JDS\AppData\Local\Temp\gpproface.tmp 

gpproface.asm                                                        PAGE   58

     3079                   ;----------------------------------------------------------------------
     3080 00000379 6a06000a         bne       L85
     3081                   ;*      Branch Occurs to L85 
     3082 0000037a 506100ff         ldiu      255,r1
     3083 0000037b 506000ff         ldiu      255,r0
     3084 0000037c 50280215-        ldiu      @CL13,ar0
     3085 0000037d 50290214-        ldiu      @CL12,ar1
     3086 0000037e 21a18001         and3      r1,*+ar0(ir1),r1
     3087 0000037f 21a04100         and3      r0,*+ar1(ir0),r0
     3088 00000380 03e10008         ash       8,r1
     3089 00000381 25800001         or3       r1,r0,r0
     3090 00000382 02e0ffff         and       65535,r0
     3091 00000383 15400301         sti       r0,*+fp(1)
     3092 00000384          L85:        
     3093                           .line   90
     3094                   ;----------------------------------------------------------------------
     3095                   ; 375 | glVer[6] = DP_ConvHex2Asc(BYTE_H(WORD_H(sTemp)));                      
     3096                   ;----------------------------------------------------------------------
     3097 00000384 50400301         ldiu      *+fp(1),r0
     3098 00000385 09e0fff8         lsh       -8,r0
     3099 00000386 02e000ff         and       255,r0
     3100 00000387 09e0fffc         lsh       -4,r0
     3101 00000388 02e0000f         and       15,r0
     3102 00000389 0f200000         push      r0
     3103 0000038a 62000000!        call      _DP_ConvHex2Asc
     3104                                                           ; Call Occurs
     3105 0000038b 18740001         subi      1,sp
     3106 0000038c 5008000b         ldiu      fp,ar0
     3107 0000038d 02680012         addi      18,ar0
     3108 0000038e 1540c000         sti       r0,*ar0
     3109                           .line   91
     3110                   ;----------------------------------------------------------------------
     3111                   ; 376 | glVer[7] = DP_ConvHex2Asc(BYTE_L(WORD_H(sTemp)));                      
     3112                   ;----------------------------------------------------------------------
     3113 0000038f 50400301         ldiu      *+fp(1),r0
     3114 00000390 09e0fff8         lsh       -8,r0
     3115 00000391 02e0000f         and       15,r0
     3116 00000392 0f200000         push      r0
     3117 00000393 62000000!        call      _DP_ConvHex2Asc
     3118                                                           ; Call Occurs
     3119 00000394 18740001         subi      1,sp
     3120 00000395 5008000b         ldiu      fp,ar0
     3121 00000396 02680013         addi      19,ar0
     3122 00000397 1540c000         sti       r0,*ar0
     3123                           .line   92
     3124                   ;----------------------------------------------------------------------
     3125                   ; 377 | glVer[8] =  DP_ConvHex2Asc(BYTE_H(WORD_L(sTemp)));                     
     3126                   ;----------------------------------------------------------------------
     3127 00000398 506000ff         ldiu      255,r0
     3128 00000399 02c00301         and       *+fp(1),r0
     3129 0000039a 09e0fffc         lsh       -4,r0
     3130 0000039b 02e0000f         and       15,r0
     3131 0000039c 0f200000         push      r0
     3132 0000039d 62000000!        call      _DP_ConvHex2Asc
TMS320C3x/4x COFF AssemblerVersion 5.11     Mon Apr 29 17:36:37 2013
Copyright (c) 1987-1999 Texas Instruments Incorporatedc:\lang\tms320c3x\511\bin\asm30.exe -l gpproface.asm gpproface.obj -tC:\Users\JDS\AppData\Local\Temp\gpproface.tmp 

gpproface.asm                                                        PAGE   59

     3133                                                           ; Call Occurs
     3134 0000039e 18740001         subi      1,sp
     3135 0000039f 5008000b         ldiu      fp,ar0
     3136 000003a0 02680014         addi      20,ar0
     3137 000003a1 1540c000         sti       r0,*ar0
     3138                           .line   93
     3139                   ;----------------------------------------------------------------------
     3140                   ; 378 | glVer[9] = DP_ConvHex2Asc(BYTE_L(WORD_L(sTemp)));                      
     3141                   ;----------------------------------------------------------------------
     3142 000003a2 5060000f         ldiu      15,r0
     3143 000003a3 02c00301         and       *+fp(1),r0
     3144 000003a4 0f200000         push      r0
     3145 000003a5 62000000!        call      _DP_ConvHex2Asc
     3146                                                           ; Call Occurs
     3147 000003a6 18740001         subi      1,sp
     3148 000003a7 5008000b         ldiu      fp,ar0
     3149 000003a8 02680015         addi      21,ar0
     3150 000003a9 1540c000         sti       r0,*ar0
     3151                           .line   95
     3152                   ;----------------------------------------------------------------------
     3153                   ; 380 | gp_WritingStr(0xc8,5,glVer);                                           
     3154                   ;----------------------------------------------------------------------
     3155 000003aa 5000000b         ldiu      fp,r0
     3156 000003ab 0260000c         addi      12,r0
     3157 000003ac 50620005         ldiu      5,r2
     3158 000003ad 506100c8         ldiu      200,r1
     3159 000003ae 0f200000         push      r0
     3160 000003af 0f220000         push      r2
     3161 000003b0 0f210000         push      r1
     3162 000003b1 620000ba'        call      _gp_WritingStr
     3163                                                           ; Call Occurs
     3164 000003b2 18740003         subi      3,sp
     3165                           .line   97
     3166                   ;----------------------------------------------------------------------
     3167                   ; 382 | break;                                                                 
     3168                   ; 384 | case 2: // .                                                   
     3169                   ;----------------------------------------------------------------------
     3170 000003b3 6a000436         bu        L178
     3171                   ;*      Branch Occurs to L178 
     3172 000003b4          L86:        
     3173                           .line   101
     3174                   ;----------------------------------------------------------------------
     3175                   ; 386 | gp_WritingWord(100,BIN_BCD(nSelect_Button.nGPTranNumInput.nNum));      
     3176                   ;----------------------------------------------------------------------
     3177 000003b4 502001fc-        ldiu      @_nSelect_Button+1,r0
     3178 000003b5 0f200000         push      r0
     3179 000003b6 6200014c'        call      _BIN_BCD
     3180                                                           ; Call Occurs
     3181 000003b7 50610064         ldiu      100,r1
     3182 000003b8 18740001         subi      1,sp
     3183 000003b9 0f200000         push      r0
     3184 000003ba 0f210000         push      r1
     3185 000003bb 6200004d'        call      _gp_WritingWord
     3186                                                           ; Call Occurs
TMS320C3x/4x COFF AssemblerVersion 5.11     Mon Apr 29 17:36:37 2013
Copyright (c) 1987-1999 Texas Instruments Incorporatedc:\lang\tms320c3x\511\bin\asm30.exe -l gpproface.asm gpproface.obj -tC:\Users\JDS\AppData\Local\Temp\gpproface.tmp 

gpproface.asm                                                        PAGE   60

     3187 000003bc 18740002         subi      2,sp
     3188                           .line   104
     3189                   ;----------------------------------------------------------------------
     3190                   ; 389 | if(nTr_St_Info.nDistance > 100)                                        
     3191                   ;----------------------------------------------------------------------
     3192 000003bd 502000d5!        ldiu      @_nTr_St_Info+213,r0
     3193 000003be 04e00064         cmpi      100,r0
     3194 000003bf 6a220014         blsd      L89
     3195 000003c0 0c800000         nop
     3196 000003c1 51600001         ldils     1,r0
     3197 000003c2 5161004e         ldils     78,r1
     3198                   ;*      Branch Occurs to L89 
     3199                           .line   106
     3200                   ;----------------------------------------------------------------------
     3201                   ; 391 | gpAFTERSTATION;                                                        
     3202                   ;----------------------------------------------------------------------
     3203 000003c3 50610002         ldiu      2,r1
     3204 000003c4 5060004e         ldiu      78,r0
     3205 000003c5 0f210000         push      r1
     3206 000003c6 0f200000         push      r0
     3207 000003c7 6200004d'        call      _gp_WritingWord
     3208                                                           ; Call Occurs
     3209 000003c8 18740002         subi      2,sp
     3210                           .line   107
     3211                   ;----------------------------------------------------------------------
     3212                   ; 392 | gpMANUINIT;                                                            
     3213                   ; 394 | else                                                                   
     3214                   ;----------------------------------------------------------------------
     3215 000003c9 50610000         ldiu      0,r1
     3216 000003ca 50600055         ldiu      85,r0
     3217 000003cb 0f210000         push      r1
     3218 000003cc 0f200000         push      r0
     3219 000003cd 6200004d'        call      _gp_WritingWord
     3220                                                           ; Call Occurs
     3221 000003ce 18740002         subi      2,sp
     3222 000003cf 50610000         ldiu      0,r1
     3223 000003d0 50600056         ldiu      86,r0
     3224 000003d1 0f210000         push      r1
     3225 000003d2 0f200000         push      r0
     3226 000003d3 6200004d'        call      _gp_WritingWord
     3227                                                           ; Call Occurs
     3228 000003d4 18740002         subi      2,sp
     3229 000003d5 6a000010         bu        L90
     3230                   ;*      Branch Occurs to L90 
     3231                           .line   111
     3232                   ;----------------------------------------------------------------------
     3233                   ; 396 | gpNOWSTATION;                                                          
     3234                   ;----------------------------------------------------------------------
     3235 000003d6          L89:        
     3236 000003d6 0f200000         push      r0
     3237 000003d7 0f210000         push      r1
     3238 000003d8 6200004d'        call      _gp_WritingWord
     3239                                                           ; Call Occurs
     3240 000003d9 18740002         subi      2,sp
TMS320C3x/4x COFF AssemblerVersion 5.11     Mon Apr 29 17:36:37 2013
Copyright (c) 1987-1999 Texas Instruments Incorporatedc:\lang\tms320c3x\511\bin\asm30.exe -l gpproface.asm gpproface.obj -tC:\Users\JDS\AppData\Local\Temp\gpproface.tmp 

gpproface.asm                                                        PAGE   61

     3241                           .line   112
     3242                   ;----------------------------------------------------------------------
     3243                   ; 397 | gpMANUINIT;                                                            
     3244                   ;----------------------------------------------------------------------
     3245 000003da 50600000         ldiu      0,r0
     3246 000003db 50610055         ldiu      85,r1
     3247 000003dc 0f200000         push      r0
     3248 000003dd 0f210000         push      r1
     3249 000003de 6200004d'        call      _gp_WritingWord
     3250                                                           ; Call Occurs
     3251 000003df 18740002         subi      2,sp
     3252 000003e0 50600000         ldiu      0,r0
     3253 000003e1 50610056         ldiu      86,r1
     3254 000003e2 0f200000         push      r0
     3255 000003e3 0f210000         push      r1
     3256 000003e4 6200004d'        call      _gp_WritingWord
     3257                                                           ; Call Occurs
     3258 000003e5 18740002         subi      2,sp
     3259 000003e6          L90:        
     3260                           .line   115
     3261                   ;----------------------------------------------------------------------
     3262                   ; 400 | nSelect_Button.nScreenSetNum = 0;                                      
     3263                   ;----------------------------------------------------------------------
     3264 000003e6 50600000         ldiu      0,r0
     3265 000003e7 15200205-        sti       r0,@_nSelect_Button+10
     3266                           .line   117
     3267                   ;----------------------------------------------------------------------
     3268                   ; 402 | break;                                                                 
     3269                   ; 403 | case 3: // .                                                   
     3270                   ;----------------------------------------------------------------------
     3271 000003e8 6a000401         bu        L178
     3272                   ;*      Branch Occurs to L178 
     3273 000003e9          L91:        
     3274                           .line   120
     3275                   ;----------------------------------------------------------------------
     3276                   ; 405 | if(WORD_L(nTr_St_Info.nSelf_Test_Flag)) //               
     3277                   ;----------------------------------------------------------------------
     3278 000003e9 506000ff         ldiu      255,r0
     3279 000003ea 1a2001fa!        tstb      @_nTr_St_Info+506,r0
     3280 000003eb 6a250008         beqd      L94
     3281 000003ec 0c800000         nop
     3282 000003ed 52e00000         ldieq     0,r0
     3283 000003ee 52e10052         ldieq     82,r1
     3284                   ;*      Branch Occurs to L94 
     3285                           .line   122
     3286                   ;----------------------------------------------------------------------
     3287                   ; 407 | gpSDRCHK;                                                              
     3288                   ; 409 | else    //  .                                          
     3289                   ;----------------------------------------------------------------------
     3290 000003ef 50600008         ldiu      8,r0
     3291 000003f0 50610052         ldiu      82,r1
     3292 000003f1 0f200000         push      r0
     3293 000003f2 0f210000         push      r1
     3294 000003f3 6200004d'        call      _gp_WritingWord
TMS320C3x/4x COFF AssemblerVersion 5.11     Mon Apr 29 17:36:37 2013
Copyright (c) 1987-1999 Texas Instruments Incorporatedc:\lang\tms320c3x\511\bin\asm30.exe -l gpproface.asm gpproface.obj -tC:\Users\JDS\AppData\Local\Temp\gpproface.tmp 

gpproface.asm                                                        PAGE   62

     3295                                                           ; Call Occurs
     3296 000003f4 18740002         subi      2,sp
     3297 000003f5 6a0003f4         bu        L178
     3298                   ;*      Branch Occurs to L178 
     3299                           .line   126
     3300                   ;----------------------------------------------------------------------
     3301                   ; 411 | gpSETCLR;                                                              
     3302                   ;----------------------------------------------------------------------
     3303 000003f6          L94:        
     3304 000003f6 0f200000         push      r0
     3305 000003f7 0f210000         push      r1
     3306 000003f8 6200004d'        call      _gp_WritingWord
     3307                                                           ; Call Occurs
     3308 000003f9 18740002         subi      2,sp
     3309                           .line   127
     3310                   ;----------------------------------------------------------------------
     3311                   ; 412 | gpROOTEN;                                                              
     3312                   ;----------------------------------------------------------------------
     3313 000003fa 50600001         ldiu      1,r0
     3314 000003fb 50610039         ldiu      57,r1
     3315 000003fc 0f200000         push      r0
     3316 000003fd 0f210000         push      r1
     3317 000003fe 6200004d'        call      _gp_WritingWord
     3318                                                           ; Call Occurs
     3319 000003ff 18740002         subi      2,sp
     3320                           .line   129
     3321                   ;----------------------------------------------------------------------
     3322                   ; 414 | memset(sSelfTestBuf,0x01,60);                                          
     3323                   ;----------------------------------------------------------------------
     3324 00000400 5000000b         ldiu      fp,r0
     3325 00000401 02600016         addi      22,r0
     3326 00000402 5062003c         ldiu      60,r2
     3327 00000403 50610001         ldiu      1,r1
     3328 00000404 0f220000         push      r2
     3329 00000405 0f210000         push      r1
     3330 00000406 0f200000         push      r0
     3331 00000407 62000000!        call      _memset
     3332                                                           ; Call Occurs
     3333 00000408 18740003         subi      3,sp
     3334                           .line   131
     3335                   ;----------------------------------------------------------------------
     3336                   ; 416 | if(nSelf_Test.nPA_SCREEN_SET == 1)      // .               
     3337                   ;----------------------------------------------------------------------
     3338 00000409 50200041!        ldiu      @_nSelf_Test+65,r0
     3339 0000040a 04e00001         cmpi      1,r0
     3340 0000040b 6a06002c         bne       L99
     3341                   ;*      Branch Occurs to L99 
     3342                           .line   133
     3343                   ;----------------------------------------------------------------------
     3344                   ; 418 | nSelf_Test.nPA_PrintCnt++;                                             
     3345                   ;----------------------------------------------------------------------
     3346 0000040c 50600001         ldiu      1,r0
     3347 0000040d 02200040!        addi      @_nSelf_Test+64,r0    ; Unsigned
     3348 0000040e 15200040!        sti       r0,@_nSelf_Test+64
TMS320C3x/4x COFF AssemblerVersion 5.11     Mon Apr 29 17:36:37 2013
Copyright (c) 1987-1999 Texas Instruments Incorporatedc:\lang\tms320c3x\511\bin\asm30.exe -l gpproface.asm gpproface.obj -tC:\Users\JDS\AppData\Local\Temp\gpproface.tmp 

gpproface.asm                                                        PAGE   63

     3349                           .line   134
     3350                   ;----------------------------------------------------------------------
     3351                   ; 419 | if(!(nSelf_Test.nPA_PrintCnt%10))       //    
     3352                   ;     | .                                                                     
     3353                   ;----------------------------------------------------------------------
     3354 0000040f 5061000a         ldiu      10,r1
     3355 00000410 62000000!        call      MOD_U30
     3356                                                           ; Call Occurs
     3357 00000411 04e00000         cmpi      0,r0
     3358 00000412 6a06000f         bne       L97
     3359                   ;*      Branch Occurs to L97 
     3360                           .line   136
     3361                   ;----------------------------------------------------------------------
     3362                   ; 421 | memcpy(sSelfTestBuf,0x00,30);                                          
     3363                   ;----------------------------------------------------------------------
     3364 00000413 5008000b         ldiu      fp,ar0
     3365 00000414 50690000         ldiu      0,ar1
     3366 00000415 02680016         addi      22,ar0
     3367 00000416 50402101         ldiu      *ar1++(1),r0
     3368 00000417 13fb001c         rpts      28                    ; Fast MEMCPY(#3)
     3369 00000418 da002021         sti       r0,*ar0++(1)
     3370                   ||      ldi       *ar1++(1),r0
     3371 00000419 15402001         sti       r0,*ar0++(1)
     3372                           .line   137
     3373                   ;----------------------------------------------------------------------
     3374                   ; 422 | SDR_Routine_Complete(sSelfTestBuf,FALSE);       // GP  0/X 
     3375                   ;     |    .                                                   
     3376                   ;----------------------------------------------------------------------
     3377 0000041a 50610000         ldiu      0,r1
     3378 0000041b 5000000b         ldiu      fp,r0
     3379 0000041c 0f210000         push      r1
     3380 0000041d 02600016         addi      22,r0
     3381 0000041e 0f200000         push      r0
     3382 0000041f 62000f05'        call      _SDR_Routine_Complete
     3383                                                           ; Call Occurs
     3384 00000420 18740002         subi      2,sp
     3385 00000421 6a0003c8         bu        L178
     3386                   ;*      Branch Occurs to L178 
     3387 00000422          L97:        
     3388                           .line   139
     3389                   ;----------------------------------------------------------------------
     3390                   ; 424 | else if(!((nSelf_Test.nPA_PrintCnt-1)%10))                             
     3391                   ;----------------------------------------------------------------------
     3392 00000422 50600001         ldiu      1,r0
     3393 00000423 19a00040!        subri     @_nSelf_Test+64,r0    ; Unsigned
     3394 00000424 5061000a         ldiu      10,r1
     3395 00000425 62000000!        call      MOD_U30
     3396                                                           ; Call Occurs
     3397 00000426 04e00000         cmpi      0,r0
     3398 00000427 6a2603c0         bned      L178
     3399 00000428 0c800000         nop
     3400 00000429 5288000b         ldieq     fp,ar0
     3401 0000042a 52a90216-        ldieq     @CL14,ar1
     3402                   ;*      Branch Occurs to L178 
TMS320C3x/4x COFF AssemblerVersion 5.11     Mon Apr 29 17:36:37 2013
Copyright (c) 1987-1999 Texas Instruments Incorporatedc:\lang\tms320c3x\511\bin\asm30.exe -l gpproface.asm gpproface.obj -tC:\Users\JDS\AppData\Local\Temp\gpproface.tmp 

gpproface.asm                                                        PAGE   64

     3403                           .line   141
     3404                   ;----------------------------------------------------------------------
     3405                   ; 426 | memcpy(sSelfTestBuf,m_PA_SelfTest_Buf,30);                             
     3406                   ;----------------------------------------------------------------------
     3407 0000042b 02680016         addi      22,ar0
     3408 0000042c 50402101         ldiu      *ar1++(1),r0
     3409 0000042d 13fb001c         rpts      28                    ; Fast MEMCPY(#6)
     3410 0000042e da002021         sti       r0,*ar0++(1)
     3411                   ||      ldi       *ar1++(1),r0
     3412 0000042f 15402001         sti       r0,*ar0++(1)
     3413                           .line   142
     3414                   ;----------------------------------------------------------------------
     3415                   ; 427 | SDR_Routine_Complete(sSelfTestBuf,TRUE);        // GP  0/X 
     3416                   ;     | .                                                                  
     3417                   ; 430 | else //LED                                                       
     3418                   ;----------------------------------------------------------------------
     3419 00000430 50610001         ldiu      1,r1
     3420 00000431 5000000b         ldiu      fp,r0
     3421 00000432 0f210000         push      r1
     3422 00000433 02600016         addi      22,r0
     3423 00000434 0f200000         push      r0
     3424 00000435 62000f05'        call      _SDR_Routine_Complete
     3425                                                           ; Call Occurs
     3426 00000436 18740002         subi      2,sp
     3427 00000437 6a0003b2         bu        L178
     3428                   ;*      Branch Occurs to L178 
     3429 00000438          L99:        
     3430                           .line   147
     3431                   ;----------------------------------------------------------------------
     3432                   ; 432 | if(WORD_L(nTcmsIdcInfo.nIDCFlag) == 1)                                 
     3433                   ;----------------------------------------------------------------------
     3434 00000438 506000ff         ldiu      255,r0
     3435 00000439 02a00000!        and       @_nTcmsIdcInfo+0,r0
     3436 0000043a 04e00001         cmpi      1,r0
     3437 0000043b 6a260010         bned      L102
     3438 0000043c 0c800000         nop
     3439 0000043d 5308000b         ldine     fp,ar0
     3440 0000043e 53290217-        ldine     @CL15,ar1
     3441                   ;*      Branch Occurs to L102 
     3442                           .line   149
     3443                   ;----------------------------------------------------------------------
     3444                   ; 434 | memcpy(sSelfTestBuf,nSelf_Test.nSELF_RXDATA_Buf,(DISPLAY_UNIT+LCDC));  
     3445                   ;----------------------------------------------------------------------
     3446 0000043f 5008000b         ldiu      fp,ar0
     3447 00000440 50290217-        ldiu      @CL15,ar1
     3448 00000441 02680016         addi      22,ar0
     3449 00000442 50402101         ldiu      *ar1++(1),r0
     3450 00000443 13fb0009         rpts      9                     ; Fast MEMCPY(#9)
     3451 00000444 da002021         sti       r0,*ar0++(1)
     3452                   ||      ldi       *ar1++(1),r0
     3453 00000445 15402001         sti       r0,*ar0++(1)
     3454                           .line   150
     3455                   ;----------------------------------------------------------------------
     3456                   ; 435 | memcpy(&sSelfTestBuf[DISPLAY_UNIT+LCDC],nSelf_Test.nSELF_RXDATA_Buf_2R,
TMS320C3x/4x COFF AssemblerVersion 5.11     Mon Apr 29 17:36:37 2013
Copyright (c) 1987-1999 Texas Instruments Incorporatedc:\lang\tms320c3x\511\bin\asm30.exe -l gpproface.asm gpproface.obj -tC:\Users\JDS\AppData\Local\Temp\gpproface.tmp 

gpproface.asm                                                        PAGE   65

     3457                   ;     | (DISPLAY_UNIT+LCDC));                                                  
     3458                   ; 437 | else                                                                   
     3459                   ;----------------------------------------------------------------------
     3460 00000446 50290218-        ldiu      @CL16,ar1
     3461 00000447 5008000b         ldiu      fp,ar0
     3462 00000448 02680021         addi      33,ar0
     3463 00000449 50402101         ldiu      *ar1++(1),r0
     3464 0000044a 13fb0009         rpts      9                     ; Fast MEMCPY(#12)
     3465 0000044b da002021         sti       r0,*ar0++(1)
     3466                   ||      ldi       *ar1++(1),r0
     3467 0000044c 15402001         sti       r0,*ar0++(1)
     3468 0000044d 6a000005         bu        L103
     3469                   ;*      Branch Occurs to L103 
     3470                           .line   154
     3471                   ;----------------------------------------------------------------------
     3472                   ; 439 | memcpy(sSelfTestBuf,nSelf_Test.nSELF_RXDATA_Buf,(DISPLAY_UNIT+LCDC));  
     3473                   ;----------------------------------------------------------------------
     3474 0000044e          L102:        
     3475 0000044e 02680016         addi      22,ar0
     3476 0000044f 50402101         ldiu      *ar1++(1),r0
     3477 00000450 13fb0009         rpts      9                     ; Fast MEMCPY(#15)
     3478 00000451 da002021         sti       r0,*ar0++(1)
     3479                   ||      ldi       *ar1++(1),r0
     3480 00000452 15402001         sti       r0,*ar0++(1)
     3481 00000453          L103:        
     3482                           .line   157
     3483                   ;----------------------------------------------------------------------
     3484                   ; 442 | nSelect_Button.nScreenSetNum  = 0;                                     
     3485                   ;----------------------------------------------------------------------
     3486 00000453 50600000         ldiu      0,r0
     3487 00000454 15200205-        sti       r0,@_nSelect_Button+10
     3488                           .line   158
     3489                   ;----------------------------------------------------------------------
     3490                   ; 443 | nSelf_Test.nPA_PrintCnt = 0;                                           
     3491                   ;----------------------------------------------------------------------
     3492 00000455 15200040!        sti       r0,@_nSelf_Test+64
     3493                           .line   160
     3494                   ;----------------------------------------------------------------------
     3495                   ; 445 | SDR_Routine_Complete(sSelfTestBuf,TRUE);        // GP  0/X 
     3496                   ;     | .                                                                  
     3497                   ;----------------------------------------------------------------------
     3498 00000456 50610001         ldiu      1,r1
     3499 00000457 5000000b         ldiu      fp,r0
     3500 00000458 0f210000         push      r1
     3501 00000459 02600016         addi      22,r0
     3502 0000045a 0f200000         push      r0
     3503 0000045b 62000f05'        call      _SDR_Routine_Complete
     3504                                                           ; Call Occurs
     3505 0000045c 18740002         subi      2,sp
     3506                           .line   164
     3507                   ;----------------------------------------------------------------------
     3508                   ; 449 | break;                                                                 
     3509                   ; 450 | case 4: // .                                                   
     3510                   ;----------------------------------------------------------------------
TMS320C3x/4x COFF AssemblerVersion 5.11     Mon Apr 29 17:36:37 2013
Copyright (c) 1987-1999 Texas Instruments Incorporatedc:\lang\tms320c3x\511\bin\asm30.exe -l gpproface.asm gpproface.obj -tC:\Users\JDS\AppData\Local\Temp\gpproface.tmp 

gpproface.asm                                                        PAGE   66

     3511 0000045d 6a00038c         bu        L178
     3512                   ;*      Branch Occurs to L178 
     3513 0000045e          L104:        
     3514                           .line   167
     3515                   ;----------------------------------------------------------------------
     3516                   ; 452 | gpSPEED(nTr_St_Info.nSpeed);                                           
     3517                   ;----------------------------------------------------------------------
     3518 0000045e 502100d2!        ldiu      @_nTr_St_Info+210,r1
     3519 0000045f 50600066         ldiu      102,r0
     3520 00000460 0f210000         push      r1
     3521 00000461 0f200000         push      r0
     3522 00000462 6200004d'        call      _gp_WritingWord
     3523                                                           ; Call Occurs
     3524 00000463 18740002         subi      2,sp
     3525                           .line   168
     3526                   ;----------------------------------------------------------------------
     3527                   ; 453 | gpDISTANCE(nTr_St_Info.nDistance);                                     
     3528                   ;----------------------------------------------------------------------
     3529 00000464 502100d5!        ldiu      @_nTr_St_Info+213,r1
     3530 00000465 50600067         ldiu      103,r0
     3531 00000466 0f210000         push      r1
     3532 00000467 0f200000         push      r0
     3533 00000468 62000000'        call      _gp_WritingDWord
     3534                                                           ; Call Occurs
     3535 00000469 18740002         subi      2,sp
     3536                           .line   170
     3537                   ;----------------------------------------------------------------------
     3538                   ; 455 | if(nTr_St_Info.nDoor){gpDOOROPEN;}                                     
     3539                   ;----------------------------------------------------------------------
     3540 0000046a 082000d3!        ldi       @_nTr_St_Info+211,r0
     3541 0000046b 6a250008         beqd      L107
     3542 0000046c 0c800000         nop
     3543 0000046d 52e10000         ldieq     0,r1
     3544 0000046e 52e00042         ldieq     66,r0
     3545                   ;*      Branch Occurs to L107 
     3546 0000046f 50610001         ldiu      1,r1
     3547 00000470 50600042         ldiu      66,r0
     3548 00000471 0f210000         push      r1
     3549 00000472 0f200000         push      r0
     3550 00000473 6200004d'        call      _gp_WritingWord
     3551                                                           ; Call Occurs
     3552 00000474 18740002         subi      2,sp
     3553 00000475 6a000374         bu        L178
     3554                   ;*      Branch Occurs to L178 
     3555                           .line   171
     3556                   ;----------------------------------------------------------------------
     3557                   ; 456 | else {gpDOORCLOSE;}                                                    
     3558                   ;----------------------------------------------------------------------
     3559 00000476          L107:        
     3560 00000476 0f210000         push      r1
     3561 00000477 0f200000         push      r0
     3562 00000478 6200004d'        call      _gp_WritingWord
     3563                                                           ; Call Occurs
     3564 00000479 18740002         subi      2,sp
TMS320C3x/4x COFF AssemblerVersion 5.11     Mon Apr 29 17:36:37 2013
Copyright (c) 1987-1999 Texas Instruments Incorporatedc:\lang\tms320c3x\511\bin\asm30.exe -l gpproface.asm gpproface.obj -tC:\Users\JDS\AppData\Local\Temp\gpproface.tmp 

gpproface.asm                                                        PAGE   67

     3565                           .line   173
     3566                   ;----------------------------------------------------------------------
     3567                   ; 458 | break;                                                                 
     3568                   ; 459 | case 5: // .                                                   
     3569                   ;----------------------------------------------------------------------
     3570 0000047a 6a00036f         bu        L178
     3571                   ;*      Branch Occurs to L178 
     3572 0000047b          L108:        
     3573                           .line   176
     3574                   ;----------------------------------------------------------------------
     3575                   ; 461 | if(nTr_St_Info.nStopPatNum)                                            
     3576                   ;----------------------------------------------------------------------
     3577 0000047b 08200000!        ldi       @_nTr_St_Info+0,r0
     3578 0000047c 6a05036d         beq       L178
     3579                   ;*      Branch Occurs to L178 
     3580                           .line   178
     3581                   ;----------------------------------------------------------------------
     3582                   ; 463 | if(nTr_St_Info.nAutoDoorFlag && nTr_St_Info.nSimulationFlag)           
     3583                   ;----------------------------------------------------------------------
     3584 0000047d 082000d1!        ldi       @_nTr_St_Info+209,r0
     3585 0000047e 6a050020         beq       L116
     3586                   ;*      Branch Occurs to L116 
     3587 0000047f 082000cf!        ldi       @_nTr_St_Info+207,r0
     3588 00000480 6a05001e         beq       L116
     3589                   ;*      Branch Occurs to L116 
     3590                           .line   180
     3591                   ;----------------------------------------------------------------------
     3592                   ; 465 | if(nTr_St_Info.nDoor && (nTr_St_Info.nDoorOPenCnt == 1)) //        
     3593                   ;----------------------------------------------------------------------
     3594 00000481 082000d3!        ldi       @_nTr_St_Info+211,r0
     3595 00000482 6a05000f         beq       L114
     3596                   ;*      Branch Occurs to L114 
     3597 00000483 502000d4!        ldiu      @_nTr_St_Info+212,r0
     3598 00000484 04e00001         cmpi      1,r0
     3599 00000485 6a26000a         bned      L114
     3600 00000486 0c800000         nop
     3601 00000487 52e1006e         ldieq     110,r1
     3602 00000488 52e0000f         ldieq     15,r0
     3603                   ;*      Branch Occurs to L114 
     3604                           .line   182
     3605                   ;----------------------------------------------------------------------
     3606                   ; 467 | gpSPOT;                                                                
     3607                   ;----------------------------------------------------------------------
     3608 00000489 0f210000         push      r1
     3609 0000048a 0f200000         push      r0
     3610 0000048b 6200004d'        call      _gp_WritingWord
     3611                                                           ; Call Occurs
     3612 0000048c 18740002         subi      2,sp
     3613                           .line   183
     3614                   ;----------------------------------------------------------------------
     3615                   ; 468 | GP_POINT_ST_PRO(nTr_St_Info.nStation_PointCnt);                        
     3616                   ;----------------------------------------------------------------------
     3617 0000048d 50200003!        ldiu      @_nTr_St_Info+3,r0
     3618 0000048e 0f200000         push      r0
TMS320C3x/4x COFF AssemblerVersion 5.11     Mon Apr 29 17:36:37 2013
Copyright (c) 1987-1999 Texas Instruments Incorporatedc:\lang\tms320c3x\511\bin\asm30.exe -l gpproface.asm gpproface.obj -tC:\Users\JDS\AppData\Local\Temp\gpproface.tmp 

gpproface.asm                                                        PAGE   68

     3619 0000048f 62000fbe'        call      _GP_POINT_ST_PRO
     3620                                                           ; Call Occurs
     3621 00000490 18740001         subi      1,sp
     3622 00000491 6a000027         bu        L120
     3623                   ;*      Branch Occurs to L120 
     3624 00000492          L114:        
     3625                           .line   185
     3626                   ;----------------------------------------------------------------------
     3627                   ; 470 | else if(!nTr_St_Info.nDoor) //close                                    
     3628                   ;----------------------------------------------------------------------
     3629 00000492 082000d3!        ldi       @_nTr_St_Info+211,r0
     3630 00000493 6a060025         bne       L120
     3631                   ;*      Branch Occurs to L120 
     3632                           .line   187
     3633                   ;----------------------------------------------------------------------
     3634                   ; 472 | gpSPOT2;                                                               
     3635                   ;----------------------------------------------------------------------
     3636 00000494 50610073         ldiu      115,r1
     3637 00000495 5060000f         ldiu      15,r0
     3638 00000496 0f210000         push      r1
     3639 00000497 0f200000         push      r0
     3640 00000498 6200004d'        call      _gp_WritingWord
     3641                                                           ; Call Occurs
     3642 00000499 18740002         subi      2,sp
     3643                           .line   188
     3644                   ;----------------------------------------------------------------------
     3645                   ; 473 | GP_POINT_ST_PRO(nTr_St_Info.nStation_PointCnt);                        
     3646                   ; 476 | else                                                                   
     3647                   ;----------------------------------------------------------------------
     3648 0000049a 50200003!        ldiu      @_nTr_St_Info+3,r0
     3649 0000049b 0f200000         push      r0
     3650 0000049c 62000fbe'        call      _GP_POINT_ST_PRO
     3651                                                           ; Call Occurs
     3652 0000049d 18740001         subi      1,sp
     3653 0000049e 6a00001a         bu        L120
     3654                   ;*      Branch Occurs to L120 
     3655 0000049f          L116:        
     3656                           .line   193
     3657                   ;----------------------------------------------------------------------
     3658                   ; 478 | if(nDi_Check.nDoor.nFlag) //                                       
     3659                   ;----------------------------------------------------------------------
     3660 0000049f 0820000c!        ldi       @_nDi_Check+12,r0
     3661 000004a0 6a25000a         beqd      L118
     3662 000004a1 0c800000         nop
     3663 000004a2 5361006e         ldine     110,r1
     3664 000004a3 5360000f         ldine     15,r0
     3665                   ;*      Branch Occurs to L118 
     3666                           .line   195
     3667                   ;----------------------------------------------------------------------
     3668                   ; 480 | gpSPOT;                                                                
     3669                   ;----------------------------------------------------------------------
     3670 000004a4 0f210000         push      r1
     3671 000004a5 0f200000         push      r0
     3672 000004a6 6200004d'        call      _gp_WritingWord
TMS320C3x/4x COFF AssemblerVersion 5.11     Mon Apr 29 17:36:37 2013
Copyright (c) 1987-1999 Texas Instruments Incorporatedc:\lang\tms320c3x\511\bin\asm30.exe -l gpproface.asm gpproface.obj -tC:\Users\JDS\AppData\Local\Temp\gpproface.tmp 

gpproface.asm                                                        PAGE   69

     3673                                                           ; Call Occurs
     3674 000004a7 18740002         subi      2,sp
     3675                           .line   196
     3676                   ;----------------------------------------------------------------------
     3677                   ; 481 | GP_POINT_ST_PRO(nTr_St_Info.nStation_PointCnt);                        
     3678                   ;----------------------------------------------------------------------
     3679 000004a8 50200003!        ldiu      @_nTr_St_Info+3,r0
     3680 000004a9 0f200000         push      r0
     3681 000004aa 62000fbe'        call      _GP_POINT_ST_PRO
     3682                                                           ; Call Occurs
     3683 000004ab 18740001         subi      1,sp
     3684 000004ac 6a00000c         bu        L120
     3685                   ;*      Branch Occurs to L120 
     3686 000004ad          L118:        
     3687                           .line   198
     3688                   ;----------------------------------------------------------------------
     3689                   ; 483 | else if(!nDi_Check.nDoor.nFlag) //close                                
     3690                   ;----------------------------------------------------------------------
     3691 000004ad 0820000c!        ldi       @_nDi_Check+12,r0
     3692 000004ae 6a06000a         bne       L120
     3693                   ;*      Branch Occurs to L120 
     3694                           .line   200
     3695                   ;----------------------------------------------------------------------
     3696                   ; 485 | gpSPOT2;                                                               
     3697                   ;----------------------------------------------------------------------
     3698 000004af 50610073         ldiu      115,r1
     3699 000004b0 5060000f         ldiu      15,r0
     3700 000004b1 0f210000         push      r1
     3701 000004b2 0f200000         push      r0
     3702 000004b3 6200004d'        call      _gp_WritingWord
     3703                                                           ; Call Occurs
     3704 000004b4 18740002         subi      2,sp
     3705                           .line   201
     3706                   ;----------------------------------------------------------------------
     3707                   ; 486 | GP_POINT_ST_PRO(nTr_St_Info.nStation_PointCnt);                        
     3708                   ;----------------------------------------------------------------------
     3709 000004b5 50200003!        ldiu      @_nTr_St_Info+3,r0
     3710 000004b6 0f200000         push      r0
     3711 000004b7 62000fbe'        call      _GP_POINT_ST_PRO
     3712                                                           ; Call Occurs
     3713 000004b8 18740001         subi      1,sp
     3714 000004b9          L120:        
     3715                           .line   206
     3716                   ;----------------------------------------------------------------------
     3717                   ; 491 | gpDISTANCE(nTr_St_Info.nDistance); //  .             
     3718                   ;----------------------------------------------------------------------
     3719 000004b9 502100d5!        ldiu      @_nTr_St_Info+213,r1
     3720 000004ba 50600067         ldiu      103,r0
     3721 000004bb 0f210000         push      r1
     3722 000004bc 0f200000         push      r0
     3723 000004bd 62000000'        call      _gp_WritingDWord
     3724                                                           ; Call Occurs
     3725 000004be 18740002         subi      2,sp
     3726                           .line   209
TMS320C3x/4x COFF AssemblerVersion 5.11     Mon Apr 29 17:36:37 2013
Copyright (c) 1987-1999 Texas Instruments Incorporatedc:\lang\tms320c3x\511\bin\asm30.exe -l gpproface.asm gpproface.obj -tC:\Users\JDS\AppData\Local\Temp\gpproface.tmp 

gpproface.asm                                                        PAGE   70

     3727                   ;----------------------------------------------------------------------
     3728                   ; 494 | break;                                                                 
     3729                   ; 495 | case 6: //  .                                              
     3730                   ;----------------------------------------------------------------------
     3731 000004bf 6a00032a         bu        L178
     3732                   ;*      Branch Occurs to L178 
     3733 000004c0          L121:        
     3734                           .line   211
     3735                   ;----------------------------------------------------------------------
     3736                   ; 496 | gpROOTEN;                                                              
     3737                   ;----------------------------------------------------------------------
     3738 000004c0 50610001         ldiu      1,r1
     3739 000004c1 50600039         ldiu      57,r0
     3740 000004c2 0f210000         push      r1
     3741 000004c3 0f200000         push      r0
     3742 000004c4 6200004d'        call      _gp_WritingWord
     3743                                                           ; Call Occurs
     3744 000004c5 18740002         subi      2,sp
     3745                           .line   212
     3746                   ;----------------------------------------------------------------------
     3747                   ; 497 | break;                                                                 
     3748                   ; 498 | case 7: //  .                                              
     3749                   ;----------------------------------------------------------------------
     3750 000004c6 6a000323         bu        L178
     3751                   ;*      Branch Occurs to L178 
     3752 000004c7          L122:        
     3753                           .line   215
     3754                   ;----------------------------------------------------------------------
     3755                   ; 500 | gp_WritingWord(100,BIN_BCD(nSelect_Button.nGPTranNumInput.nNum));      
     3756                   ;----------------------------------------------------------------------
     3757 000004c7 502001fc-        ldiu      @_nSelect_Button+1,r0
     3758 000004c8 0f200000         push      r0
     3759 000004c9 6200014c'        call      _BIN_BCD
     3760                                                           ; Call Occurs
     3761 000004ca 50610064         ldiu      100,r1
     3762 000004cb 18740001         subi      1,sp
     3763 000004cc 0f200000         push      r0
     3764 000004cd 0f210000         push      r1
     3765 000004ce 6200004d'        call      _gp_WritingWord
     3766                                                           ; Call Occurs
     3767 000004cf 18740002         subi      2,sp
     3768                           .line   217
     3769                   ;----------------------------------------------------------------------
     3770                   ; 502 | gpNOWSTATION;                                                          
     3771                   ;----------------------------------------------------------------------
     3772 000004d0 50600001         ldiu      1,r0
     3773 000004d1 5061004e         ldiu      78,r1
     3774 000004d2 0f200000         push      r0
     3775 000004d3 0f210000         push      r1
     3776 000004d4 6200004d'        call      _gp_WritingWord
     3777                                                           ; Call Occurs
     3778 000004d5 18740002         subi      2,sp
     3779                           .line   219
     3780                   ;----------------------------------------------------------------------
TMS320C3x/4x COFF AssemblerVersion 5.11     Mon Apr 29 17:36:37 2013
Copyright (c) 1987-1999 Texas Instruments Incorporatedc:\lang\tms320c3x\511\bin\asm30.exe -l gpproface.asm gpproface.obj -tC:\Users\JDS\AppData\Local\Temp\gpproface.tmp 

gpproface.asm                                                        PAGE   71

     3781                   ; 504 | break;                                                                 
     3782                   ; 505 | case 8: //  TCMS/ PIC                                
     3783                   ;----------------------------------------------------------------------
     3784 000004d6 6a000313         bu        L178
     3785                   ;*      Branch Occurs to L178 
     3786 000004d7          L123:        
     3787                           .line   222
     3788                   ;----------------------------------------------------------------------
     3789                   ; 507 | gpSDR_SCREEN;                                                          
     3790                   ; 509 | // .                                                         
     3791                   ;----------------------------------------------------------------------
     3792 000004d7 50600085         ldiu      133,r0
     3793 000004d8 5061000f         ldiu      15,r1
     3794 000004d9 0f200000         push      r0
     3795 000004da 0f210000         push      r1
     3796 000004db 6200004d'        call      _gp_WritingWord
     3797                                                           ; Call Occurs
     3798 000004dc 18740002         subi      2,sp
     3799                           .line   225
     3800                   ;----------------------------------------------------------------------
     3801                   ; 510 | if(nDi_Check.nDoor.nFlag){gpSTATEOPEN;}                                
     3802                   ;----------------------------------------------------------------------
     3803 000004dd 0820000c!        ldi       @_nDi_Check+12,r0
     3804 000004de 6a250008         beqd      L126
     3805 000004df 0c800000         nop
     3806 000004e0 52e00002         ldieq     2,r0
     3807 000004e1 52e1005e         ldieq     94,r1
     3808                   ;*      Branch Occurs to L126 
     3809 000004e2 50600001         ldiu      1,r0
     3810 000004e3 5061005e         ldiu      94,r1
     3811 000004e4 0f200000         push      r0
     3812 000004e5 0f210000         push      r1
     3813 000004e6 6200004d'        call      _gp_WritingWord
     3814                                                           ; Call Occurs
     3815 000004e7 18740002         subi      2,sp
     3816 000004e8 6a000004         bu        L127
     3817                   ;*      Branch Occurs to L127 
     3818                           .line   226
     3819                   ;----------------------------------------------------------------------
     3820                   ; 511 | else{gpSTATECLOSE;}                                                    
     3821                   ;----------------------------------------------------------------------
     3822 000004e9          L126:        
     3823 000004e9 0f200000         push      r0
     3824 000004ea 0f210000         push      r1
     3825 000004eb 6200004d'        call      _gp_WritingWord
     3826                                                           ; Call Occurs
     3827 000004ec 18740002         subi      2,sp
     3828 000004ed          L127:        
     3829                           .line   228
     3830                   ;----------------------------------------------------------------------
     3831                   ; 513 | if(nDi_Check.nDoRight.nFlag&0x01){gpDoorRightOpen;}                    
     3832                   ;----------------------------------------------------------------------
     3833 000004ed 50600001         ldiu      1,r0
     3834 000004ee 1a200014!        tstb      @_nDi_Check+20,r0
TMS320C3x/4x COFF AssemblerVersion 5.11     Mon Apr 29 17:36:37 2013
Copyright (c) 1987-1999 Texas Instruments Incorporatedc:\lang\tms320c3x\511\bin\asm30.exe -l gpproface.asm gpproface.obj -tC:\Users\JDS\AppData\Local\Temp\gpproface.tmp 

gpproface.asm                                                        PAGE   72

     3835 000004ef 6a050006         beq       L129
     3836                   ;*      Branch Occurs to L129 
     3837 000004f0 0f200000         push      r0
     3838 000004f1 50610064         ldiu      100,r1
     3839 000004f2 0f210000         push      r1
     3840 000004f3 6200004d'        call      _gp_WritingWord
     3841                                                           ; Call Occurs
     3842 000004f4 18740002         subi      2,sp
     3843 000004f5 6a000011         bu        L133
     3844                   ;*      Branch Occurs to L133 
     3845 000004f6          L129:        
     3846                           .line   229
     3847                   ;----------------------------------------------------------------------
     3848                   ; 514 | else if(nDi_Check.nDoLeft.nFlag&0x01){gpDoorLeftOpen;}                 
     3849                   ;----------------------------------------------------------------------
     3850 000004f6 50600001         ldiu      1,r0
     3851 000004f7 1a200010!        tstb      @_nDi_Check+16,r0
     3852 000004f8 6a250008         beqd      L132
     3853 000004f9 0c800000         nop
     3854 000004fa 52e00000         ldieq     0,r0
     3855 000004fb 52e10064         ldieq     100,r1
     3856                   ;*      Branch Occurs to L132 
     3857 000004fc 50600002         ldiu      2,r0
     3858 000004fd 50610064         ldiu      100,r1
     3859 000004fe 0f200000         push      r0
     3860 000004ff 0f210000         push      r1
     3861 00000500 6200004d'        call      _gp_WritingWord
     3862                                                           ; Call Occurs
     3863 00000501 18740002         subi      2,sp
     3864 00000502 6a000004         bu        L133
     3865                   ;*      Branch Occurs to L133 
     3866                           .line   230
     3867                   ;----------------------------------------------------------------------
     3868                   ; 515 | else{gpDoorCLOSE;}                                                     
     3869                   ;----------------------------------------------------------------------
     3870 00000503          L132:        
     3871 00000503 0f200000         push      r0
     3872 00000504 0f210000         push      r1
     3873 00000505 6200004d'        call      _gp_WritingWord
     3874                                                           ; Call Occurs
     3875 00000506 18740002         subi      2,sp
     3876 00000507          L133:        
     3877                           .line   232
     3878                   ;----------------------------------------------------------------------
     3879                   ; 517 | if(!Xr16788_1Ch.nTxPos)                                                
     3880                   ;----------------------------------------------------------------------
     3881 00000507 08200000!        ldi       @_Xr16788_1Ch+0,r0
     3882 00000508 6a2602df         bned      L178
     3883 00000509 52a20219-        ldieq     @CL17,r2
     3884 0000050a 52e1000a         ldieq     10,r1
     3885 0000050b 52e001c2         ldieq     450,r0
     3886                   ;*      Branch Occurs to L178 
     3887                           .line   234
     3888                   ;----------------------------------------------------------------------
TMS320C3x/4x COFF AssemblerVersion 5.11     Mon Apr 29 17:36:37 2013
Copyright (c) 1987-1999 Texas Instruments Incorporatedc:\lang\tms320c3x\511\bin\asm30.exe -l gpproface.asm gpproface.obj -tC:\Users\JDS\AppData\Local\Temp\gpproface.tmp 

gpproface.asm                                                        PAGE   73

     3889                   ; 519 | gp_WritingStr(450,10,(UCHAR *)"TMS -> PIC");                           
     3890                   ;----------------------------------------------------------------------
     3891 0000050c 0f220000         push      r2
     3892 0000050d 0f210000         push      r1
     3893 0000050e 0f200000         push      r0
     3894 0000050f 620000ba'        call      _gp_WritingStr
     3895                                                           ; Call Occurs
     3896 00000510 18740003         subi      3,sp
     3897                           .line   235
     3898                   ;----------------------------------------------------------------------
     3899                   ; 520 | gp_WritingStr(460,10,(UCHAR *)"PIC -> TMS");                           
     3900                   ;----------------------------------------------------------------------
     3901 00000511 5021021a-        ldiu      @CL18,r1
     3902 00000512 5060000a         ldiu      10,r0
     3903 00000513 506201cc         ldiu      460,r2
     3904 00000514 0f210000         push      r1
     3905 00000515 0f200000         push      r0
     3906 00000516 0f220000         push      r2
     3907 00000517 620000ba'        call      _gp_WritingStr
     3908                                                           ; Call Occurs
     3909 00000518 18740003         subi      3,sp
     3910                           .line   236
     3911                   ;----------------------------------------------------------------------
     3912                   ; 521 | gp_WritingStr(470,11,(UCHAR *)"TMS <-> PIC");                          
     3913                   ;----------------------------------------------------------------------
     3914 00000519 5020021b-        ldiu      @CL19,r0
     3915 0000051a 5061000b         ldiu      11,r1
     3916 0000051b 0f200000         push      r0
     3917 0000051c 0f210000         push      r1
     3918 0000051d 506201d6         ldiu      470,r2
     3919 0000051e 0f220000         push      r2
     3920 0000051f 620000ba'        call      _gp_WritingStr
     3921                                                           ; Call Occurs
     3922 00000520 18740003         subi      3,sp
     3923                           .line   238
     3924                   ;----------------------------------------------------------------------
     3925                   ; 523 | Xr16788_1Ch.nRxBuf_BackUp[24] = Xr16788_1Ch.nRxOK_Cnt%256;             
     3926                   ;----------------------------------------------------------------------
     3927 00000521 506000ff         ldiu      255,r0
     3928 00000522 50280010!        ldiu      @_Xr16788_1Ch+16,ar0
     3929 00000523 02a00008!        and       @_Xr16788_1Ch+8,r0
     3930 00000524 15400018         sti       r0,*+ar0(24)
     3931                           .line   239
     3932                   ;----------------------------------------------------------------------
     3933                   ; 524 | Xr16788_1Ch.nTxBuffer[24] = Xr16788_1Ch.nTxOK_Cnt%256;                 
     3934                   ;----------------------------------------------------------------------
     3935 00000525 50280005!        ldiu      @_Xr16788_1Ch+5,ar0
     3936 00000526 506000ff         ldiu      255,r0
     3937 00000527 02a00003!        and       @_Xr16788_1Ch+3,r0
     3938 00000528 15400018         sti       r0,*+ar0(24)
     3939                           .line   241
     3940                   ;----------------------------------------------------------------------
     3941                   ; 526 | GP_SDR_PRINT(Xr16788_1Ch.nRxBuf_BackUp,Xr16788_1Ch.nRxLen+1,Xr16788_1Ch
     3942                   ;     | .nTxBuffer,Xr16788_1Ch.nTxLen+1,nSelect_Button.nScreen_Send_Delay_Time,
TMS320C3x/4x COFF AssemblerVersion 5.11     Mon Apr 29 17:36:37 2013
Copyright (c) 1987-1999 Texas Instruments Incorporatedc:\lang\tms320c3x\511\bin\asm30.exe -l gpproface.asm gpproface.obj -tC:\Users\JDS\AppData\Local\Temp\gpproface.tmp 

gpproface.asm                                                        PAGE   74

     3943                   ;     | 0);                                                                    
     3944                   ;----------------------------------------------------------------------
     3945 00000529 50600001         ldiu      1,r0
     3946 0000052a 0220000d!        addi      @_Xr16788_1Ch+13,r0   ; Unsigned
     3947 0000052b 50620000         ldiu      0,r2
     3948 0000052c 50610001         ldiu      1,r1
     3949 0000052d 02210001!        addi      @_Xr16788_1Ch+1,r1    ; Unsigned
     3950 0000052e 0f220000         push      r2
     3951 0000052f 50220208-        ldiu      @_nSelect_Button+13,r2
     3952 00000530 0f220000         push      r2
     3953 00000531 0f210000         push      r1
     3954 00000532 50210005!        ldiu      @_Xr16788_1Ch+5,r1
     3955 00000533 0f210000         push      r1
     3956 00000534 0f200000         push      r0
     3957 00000535 50200010!        ldiu      @_Xr16788_1Ch+16,r0
     3958 00000536 0f200000         push      r0
     3959 00000537 62000961'        call      _GP_SDR_PRINT
     3960                                                           ; Call Occurs
     3961 00000538 18740006         subi      6,sp
     3962                           .line   242
     3963                   ;----------------------------------------------------------------------
     3964                   ; 527 | nSelect_Button.nScreen_Send_Delay_Time++;                              
     3965                   ;----------------------------------------------------------------------
     3966 00000539 50600001         ldiu      1,r0
     3967 0000053a 02200208-        addi      @_nSelect_Button+13,r0 ; Unsigned
     3968 0000053b 15200208-        sti       r0,@_nSelect_Button+13
     3969                           .line   245
     3970                   ;----------------------------------------------------------------------
     3971                   ; 530 | break;                                                                 
     3972                   ; 531 | case 9: //                                               
     3973                   ;----------------------------------------------------------------------
     3974 0000053c 6a0002ad         bu        L178
     3975                   ;*      Branch Occurs to L178 
     3976 0000053d          L135:        
     3977                           .line   248
     3978                   ;----------------------------------------------------------------------
     3979                   ; 533 | gpROOTDIS;                                                             
     3980                   ;----------------------------------------------------------------------
     3981 0000053d 50610000         ldiu      0,r1
     3982 0000053e 50600039         ldiu      57,r0
     3983 0000053f 0f210000         push      r1
     3984 00000540 0f200000         push      r0
     3985 00000541 6200004d'        call      _gp_WritingWord
     3986                                                           ; Call Occurs
     3987 00000542 18740002         subi      2,sp
     3988                           .line   250
     3989                   ;----------------------------------------------------------------------
     3990                   ; 535 | gp_WritingStr(555,5,(UCHAR*)"UpLoading!");                             
     3991                   ;----------------------------------------------------------------------
     3992 00000543 5020021c-        ldiu      @CL20,r0
     3993 00000544 50610005         ldiu      5,r1
     3994 00000545 5062022b         ldiu      555,r2
     3995 00000546 0f200000         push      r0
     3996 00000547 0f210000         push      r1
TMS320C3x/4x COFF AssemblerVersion 5.11     Mon Apr 29 17:36:37 2013
Copyright (c) 1987-1999 Texas Instruments Incorporatedc:\lang\tms320c3x\511\bin\asm30.exe -l gpproface.asm gpproface.obj -tC:\Users\JDS\AppData\Local\Temp\gpproface.tmp 

gpproface.asm                                                        PAGE   75

     3997 00000548 0f220000         push      r2
     3998 00000549 620000ba'        call      _gp_WritingStr
     3999                                                           ; Call Occurs
     4000 0000054a 18740003         subi      3,sp
     4001                           .line   252
     4002                   ;----------------------------------------------------------------------
     4003                   ; 537 | memset(sClean_Buf,0x20,20);                                            
     4004                   ;----------------------------------------------------------------------
     4005 0000054b 50620020         ldiu      32,r2
     4006 0000054c 50610014         ldiu      20,r1
     4007 0000054d 0f210000         push      r1
     4008 0000054e 0f220000         push      r2
     4009 0000054f 5000000b         ldiu      fp,r0
     4010 00000550 02600052         addi      82,r0
     4011 00000551 0f200000         push      r0
     4012 00000552 62000000!        call      _memset
     4013                                                           ; Call Occurs
     4014 00000553 18740003         subi      3,sp
     4015                           .line   254
     4016                   ;----------------------------------------------------------------------
     4017                   ; 539 | if(WORD_L(Idc_Load.nErCnt)<=50 && !DWORD_L(Idc_Load.nDataNvsrLoad ))   
     4018                   ;----------------------------------------------------------------------
     4019 00000554 506000ff         ldiu      255,r0
     4020 00000555 02a00001!        and       @_Idc_Load+1,r0
     4021 00000556 04e00032         cmpi      50,r0
     4022 00000557 6a03003b         bhi       L138
     4023                   ;*      Branch Occurs to L138 
     4024 00000558 50200003!        ldiu      @_Idc_Load+3,r0
     4025 00000559 1a60ffff         tstb      65535,r0
     4026 0000055a 6a060038         bne       L138
     4027                   ;*      Branch Occurs to L138 
     4028                           .line   256
     4029                   ;----------------------------------------------------------------------
     4030                   ; 541 | sTemp = (WORD_L(Idc_Load.nErCnt)*100)/50;                              
     4031                   ;----------------------------------------------------------------------
     4032 0000055b 506000ff         ldiu      255,r0
     4033 0000055c 50610064         ldiu      100,r1
     4034 0000055d 02a00001!        and       @_Idc_Load+1,r0
     4035 0000055e 25000001         mpyi3     r1,r0,r0
     4036 0000055f 50610032         ldiu      50,r1
     4037 00000560 62000000!        call      DIV_U30
     4038                                                           ; Call Occurs
     4039 00000561 15400301         sti       r0,*+fp(1)
     4040                           .line   258
     4041                   ;----------------------------------------------------------------------
     4042                   ; 543 | sCharBuf[0] = sTemp/100 +0x30;                                         
     4043                   ;----------------------------------------------------------------------
     4044 00000562 50610064         ldiu      100,r1
     4045 00000563 62000000!        call      DIV_U30
     4046                                                           ; Call Occurs
     4047 00000564 5008000b         ldiu      fp,ar0
     4048 00000565 02680002         addi      2,ar0
     4049 00000566 02600030         addi      48,r0                 ; Unsigned
     4050 00000567 1540c000         sti       r0,*ar0
TMS320C3x/4x COFF AssemblerVersion 5.11     Mon Apr 29 17:36:37 2013
Copyright (c) 1987-1999 Texas Instruments Incorporatedc:\lang\tms320c3x\511\bin\asm30.exe -l gpproface.asm gpproface.obj -tC:\Users\JDS\AppData\Local\Temp\gpproface.tmp 

gpproface.asm                                                        PAGE   76

     4051                           .line   259
     4052                   ;----------------------------------------------------------------------
     4053                   ; 544 | sCharBuf[1] = sTemp/10 +0x30;                                          
     4054                   ;----------------------------------------------------------------------
     4055 00000568 5061000a         ldiu      10,r1
     4056 00000569 50400301         ldiu      *+fp(1),r0
     4057 0000056a 62000000!        call      DIV_U30
     4058                                                           ; Call Occurs
     4059 0000056b 5008000b         ldiu      fp,ar0
     4060 0000056c 02680003         addi      3,ar0
     4061 0000056d 02600030         addi      48,r0                 ; Unsigned
     4062 0000056e 1540c000         sti       r0,*ar0
     4063                           .line   260
     4064                   ;----------------------------------------------------------------------
     4065                   ; 545 | sCharBuf[2] = sTemp%10 +0x30;                                          
     4066                   ;----------------------------------------------------------------------
     4067 0000056f 50400301         ldiu      *+fp(1),r0
     4068 00000570 5061000a         ldiu      10,r1
     4069 00000571 62000000!        call      MOD_U30
     4070                                                           ; Call Occurs
     4071 00000572 5008000b         ldiu      fp,ar0
     4072 00000573 02680004         addi      4,ar0
     4073 00000574 02600030         addi      48,r0                 ; Unsigned
     4074 00000575 1540c000         sti       r0,*ar0
     4075                           .line   261
     4076                   ;----------------------------------------------------------------------
     4077                   ; 546 | sCharBuf[3] = 0x25;                                                    
     4078                   ;----------------------------------------------------------------------
     4079 00000576 5008000b         ldiu      fp,ar0
     4080 00000577 02680005         addi      5,ar0
     4081 00000578 50600025         ldiu      37,r0
     4082 00000579 1540c000         sti       r0,*ar0
     4083                           .line   263
     4084                   ;----------------------------------------------------------------------
     4085                   ; 548 | gp_WritingWord(300,sTemp);                                             
     4086                   ;----------------------------------------------------------------------
     4087 0000057a 5060012c         ldiu      300,r0
     4088 0000057b 50410301         ldiu      *+fp(1),r1
     4089 0000057c 0f210000         push      r1
     4090 0000057d 0f200000         push      r0
     4091 0000057e 6200004d'        call      _gp_WritingWord
     4092                                                           ; Call Occurs
     4093 0000057f 18740002         subi      2,sp
     4094                           .line   265
     4095                   ;----------------------------------------------------------------------
     4096                   ; 550 | gp_WritingStr(540,2,sCharBuf);                                         
     4097                   ;----------------------------------------------------------------------
     4098 00000580 5000000b         ldiu      fp,r0
     4099 00000581 02600002         addi      2,r0
     4100 00000582 0f200000         push      r0
     4101 00000583 50610002         ldiu      2,r1
     4102 00000584 0f210000         push      r1
     4103 00000585 5062021c         ldiu      540,r2
     4104 00000586 0f220000         push      r2
TMS320C3x/4x COFF AssemblerVersion 5.11     Mon Apr 29 17:36:37 2013
Copyright (c) 1987-1999 Texas Instruments Incorporatedc:\lang\tms320c3x\511\bin\asm30.exe -l gpproface.asm gpproface.obj -tC:\Users\JDS\AppData\Local\Temp\gpproface.tmp 

gpproface.asm                                                        PAGE   77

     4105 00000587 620000ba'        call      _gp_WritingStr
     4106                                                           ; Call Occurs
     4107 00000588 18740003         subi      3,sp
     4108                           .line   267
     4109                   ;----------------------------------------------------------------------
     4110                   ; 552 | gp_WritingStr(545,2,sClean_Buf);                                       
     4111                   ;----------------------------------------------------------------------
     4112 00000589 5000000b         ldiu      fp,r0
     4113 0000058a 02600052         addi      82,r0
     4114 0000058b 0f200000         push      r0
     4115 0000058c 50610002         ldiu      2,r1
     4116 0000058d 50620221         ldiu      545,r2
     4117 0000058e 0f210000         push      r1
     4118 0000058f 0f220000         push      r2
     4119 00000590 620000ba'        call      _gp_WritingStr
     4120                                                           ; Call Occurs
     4121 00000591 18740003         subi      3,sp
     4122 00000592 6a00003e         bu        L140
     4123                   ;*      Branch Occurs to L140 
     4124 00000593          L138:        
     4125                           .line   270
     4126                   ;----------------------------------------------------------------------
     4127                   ; 555 | else if(DWORD_L(Idc_Load.nDataNvsrLoad))                               
     4128                   ;----------------------------------------------------------------------
     4129 00000593 50200003!        ldiu      @_Idc_Load+3,r0
     4130 00000594 1a60ffff         tstb      65535,r0
     4131 00000595 6a250039         beqd      L140
     4132 00000596 53600064         ldine     100,r0
     4133 00000597 53220005!        ldine     @_Idc_Load+5,r2
     4134 00000598 53210003!        ldine     @_Idc_Load+3,r1
     4135                   ;*      Branch Occurs to L140 
     4136                           .line   272
     4137                   ;----------------------------------------------------------------------
     4138                   ; 557 | sTemp = (DWORD_MASKING(Idc_Load.nRomWriteCnt)*100)/DWORD_MASKING(Idc_Lo
     4139                   ;     | ad.nDataNvsrLoad);                                                     
     4140                   ;----------------------------------------------------------------------
     4141 00000599 25000200         mpyi3     r0,r2,r0
     4142 0000059a 62000000!        call      DIV_U30
     4143                                                           ; Call Occurs
     4144 0000059b 15400301         sti       r0,*+fp(1)
     4145                           .line   274
     4146                   ;----------------------------------------------------------------------
     4147                   ; 559 | sCharBuf[0] = sTemp/100 +0x30;                                         
     4148                   ;----------------------------------------------------------------------
     4149 0000059c 50610064         ldiu      100,r1
     4150 0000059d 62000000!        call      DIV_U30
     4151                                                           ; Call Occurs
     4152 0000059e 5008000b         ldiu      fp,ar0
     4153 0000059f 02680002         addi      2,ar0
     4154 000005a0 02600030         addi      48,r0                 ; Unsigned
     4155 000005a1 1540c000         sti       r0,*ar0
     4156                           .line   275
     4157                   ;----------------------------------------------------------------------
     4158                   ; 560 | sCharBuf[1] = sTemp/10 +0x30;                                          
TMS320C3x/4x COFF AssemblerVersion 5.11     Mon Apr 29 17:36:37 2013
Copyright (c) 1987-1999 Texas Instruments Incorporatedc:\lang\tms320c3x\511\bin\asm30.exe -l gpproface.asm gpproface.obj -tC:\Users\JDS\AppData\Local\Temp\gpproface.tmp 

gpproface.asm                                                        PAGE   78

     4159                   ;----------------------------------------------------------------------
     4160 000005a2 50400301         ldiu      *+fp(1),r0
     4161 000005a3 5061000a         ldiu      10,r1
     4162 000005a4 62000000!        call      DIV_U30
     4163                                                           ; Call Occurs
     4164 000005a5 5008000b         ldiu      fp,ar0
     4165 000005a6 02680003         addi      3,ar0
     4166 000005a7 02600030         addi      48,r0                 ; Unsigned
     4167 000005a8 1540c000         sti       r0,*ar0
     4168                           .line   276
     4169                   ;----------------------------------------------------------------------
     4170                   ; 561 | sCharBuf[2] = sTemp%10 +0x30;                                          
     4171                   ;----------------------------------------------------------------------
     4172 000005a9 50400301         ldiu      *+fp(1),r0
     4173 000005aa 5061000a         ldiu      10,r1
     4174 000005ab 62000000!        call      MOD_U30
     4175                                                           ; Call Occurs
     4176 000005ac 5008000b         ldiu      fp,ar0
     4177 000005ad 02680004         addi      4,ar0
     4178 000005ae 02600030         addi      48,r0                 ; Unsigned
     4179 000005af 1540c000         sti       r0,*ar0
     4180                           .line   277
     4181                   ;----------------------------------------------------------------------
     4182                   ; 562 | sCharBuf[3] = 0x25;                                                    
     4183                   ;----------------------------------------------------------------------
     4184 000005b0 5008000b         ldiu      fp,ar0
     4185 000005b1 02680005         addi      5,ar0
     4186 000005b2 50600025         ldiu      37,r0
     4187 000005b3 1540c000         sti       r0,*ar0
     4188                           .line   279
     4189                   ;----------------------------------------------------------------------
     4190                   ; 564 | gp_WritingWord(300,100);                                               
     4191                   ;----------------------------------------------------------------------
     4192 000005b4 50610064         ldiu      100,r1
     4193 000005b5 0f210000         push      r1
     4194 000005b6 5060012c         ldiu      300,r0
     4195 000005b7 0f200000         push      r0
     4196 000005b8 6200004d'        call      _gp_WritingWord
     4197                                                           ; Call Occurs
     4198 000005b9 18740002         subi      2,sp
     4199                           .line   280
     4200                   ;----------------------------------------------------------------------
     4201                   ; 565 | gp_WritingStr(540,2,(UCHAR*)"100%");                                   
     4202                   ;----------------------------------------------------------------------
     4203 000005ba 5022021d-        ldiu      @CL21,r2
     4204 000005bb 50610002         ldiu      2,r1
     4205 000005bc 0f220000         push      r2
     4206 000005bd 0f210000         push      r1
     4207 000005be 5060021c         ldiu      540,r0
     4208 000005bf 0f200000         push      r0
     4209 000005c0 620000ba'        call      _gp_WritingStr
     4210                                                           ; Call Occurs
     4211 000005c1 18740003         subi      3,sp
     4212                           .line   282
TMS320C3x/4x COFF AssemblerVersion 5.11     Mon Apr 29 17:36:37 2013
Copyright (c) 1987-1999 Texas Instruments Incorporatedc:\lang\tms320c3x\511\bin\asm30.exe -l gpproface.asm gpproface.obj -tC:\Users\JDS\AppData\Local\Temp\gpproface.tmp 

gpproface.asm                                                        PAGE   79

     4213                   ;----------------------------------------------------------------------
     4214                   ; 567 | gp_WritingWord(301,sTemp);                                             
     4215                   ;----------------------------------------------------------------------
     4216 000005c2 5060012d         ldiu      301,r0
     4217 000005c3 50410301         ldiu      *+fp(1),r1
     4218 000005c4 0f210000         push      r1
     4219 000005c5 0f200000         push      r0
     4220 000005c6 6200004d'        call      _gp_WritingWord
     4221                                                           ; Call Occurs
     4222 000005c7 18740002         subi      2,sp
     4223                           .line   283
     4224                   ;----------------------------------------------------------------------
     4225                   ; 568 | gp_WritingStr(545,2,sCharBuf);                                         
     4226                   ;----------------------------------------------------------------------
     4227 000005c8 5000000b         ldiu      fp,r0
     4228 000005c9 02600002         addi      2,r0
     4229 000005ca 50610002         ldiu      2,r1
     4230 000005cb 0f200000         push      r0
     4231 000005cc 0f210000         push      r1
     4232 000005cd 50620221         ldiu      545,r2
     4233 000005ce 0f220000         push      r2
     4234 000005cf 620000ba'        call      _gp_WritingStr
     4235                                                           ; Call Occurs
     4236 000005d0 18740003         subi      3,sp
     4237 000005d1          L140:        
     4238                           .line   287
     4239                   ;----------------------------------------------------------------------
     4240                   ; 572 | if(Idc_Load.nKO_Flag)                                                  
     4241                   ;----------------------------------------------------------------------
     4242 000005d1 08200006!        ldi       @_Idc_Load+6,r0
     4243 000005d2 6a250215         beqd      L178
     4244 000005d3 0c800000         nop
     4245 000005d4 53610064         ldine     100,r1
     4246 000005d5 5360012c         ldine     300,r0
     4247                   ;*      Branch Occurs to L178 
     4248                           .line   290
     4249                   ;----------------------------------------------------------------------
     4250                   ; 575 | gp_WritingWord(300,100);                                               
     4251                   ;----------------------------------------------------------------------
     4252 000005d6 0f210000         push      r1
     4253 000005d7 0f200000         push      r0
     4254 000005d8 6200004d'        call      _gp_WritingWord
     4255                                                           ; Call Occurs
     4256 000005d9 18740002         subi      2,sp
     4257                           .line   291
     4258                   ;----------------------------------------------------------------------
     4259                   ; 576 | gp_WritingStr(540,2,(UCHAR*)"100%");                                   
     4260                   ;----------------------------------------------------------------------
     4261 000005da 5021021d-        ldiu      @CL21,r1
     4262 000005db 50620002         ldiu      2,r2
     4263 000005dc 5060021c         ldiu      540,r0
     4264 000005dd 0f210000         push      r1
     4265 000005de 0f220000         push      r2
     4266 000005df 0f200000         push      r0
TMS320C3x/4x COFF AssemblerVersion 5.11     Mon Apr 29 17:36:37 2013
Copyright (c) 1987-1999 Texas Instruments Incorporatedc:\lang\tms320c3x\511\bin\asm30.exe -l gpproface.asm gpproface.obj -tC:\Users\JDS\AppData\Local\Temp\gpproface.tmp 

gpproface.asm                                                        PAGE   80

     4267 000005e0 620000ba'        call      _gp_WritingStr
     4268                                                           ; Call Occurs
     4269 000005e1 18740003         subi      3,sp
     4270                           .line   293
     4271                   ;----------------------------------------------------------------------
     4272                   ; 578 | gp_WritingWord(301,100);                                               
     4273                   ;----------------------------------------------------------------------
     4274 000005e2 50610064         ldiu      100,r1
     4275 000005e3 0f210000         push      r1
     4276 000005e4 5060012d         ldiu      301,r0
     4277 000005e5 0f200000         push      r0
     4278 000005e6 6200004d'        call      _gp_WritingWord
     4279                                                           ; Call Occurs
     4280 000005e7 18740002         subi      2,sp
     4281                           .line   294
     4282                   ;----------------------------------------------------------------------
     4283                   ; 579 | gp_WritingStr(545,2,(UCHAR*)"100%");                                   
     4284                   ;----------------------------------------------------------------------
     4285 000005e8 5020021d-        ldiu      @CL21,r0
     4286 000005e9 0f200000         push      r0
     4287 000005ea 50610002         ldiu      2,r1
     4288 000005eb 0f210000         push      r1
     4289 000005ec 50620221         ldiu      545,r2
     4290 000005ed 0f220000         push      r2
     4291 000005ee 620000ba'        call      _gp_WritingStr
     4292                                                           ; Call Occurs
     4293 000005ef 18740003         subi      3,sp
     4294                           .line   296
     4295                   ;----------------------------------------------------------------------
     4296                   ; 581 | gp_WritingStr(555,5,sClean_Buf);                                       
     4297                   ;----------------------------------------------------------------------
     4298 000005f0 5000000b         ldiu      fp,r0
     4299 000005f1 02600052         addi      82,r0
     4300 000005f2 0f200000         push      r0
     4301 000005f3 5061022b         ldiu      555,r1
     4302 000005f4 50620005         ldiu      5,r2
     4303 000005f5 0f220000         push      r2
     4304 000005f6 0f210000         push      r1
     4305 000005f7 620000ba'        call      _gp_WritingStr
     4306                                                           ; Call Occurs
     4307 000005f8 18740003         subi      3,sp
     4308                           .line   297
     4309                   ;----------------------------------------------------------------------
     4310                   ; 582 | gp_WritingStr(550,5,(UCHAR*)"OK_Finish!");                             
     4311                   ;----------------------------------------------------------------------
     4312 000005f9 50610226         ldiu      550,r1
     4313 000005fa 50600005         ldiu      5,r0
     4314 000005fb 5022021e-        ldiu      @CL22,r2
     4315 000005fc 0f220000         push      r2
     4316 000005fd 0f200000         push      r0
     4317 000005fe 0f210000         push      r1
     4318 000005ff 620000ba'        call      _gp_WritingStr
     4319                                                           ; Call Occurs
     4320 00000600 18740003         subi      3,sp
TMS320C3x/4x COFF AssemblerVersion 5.11     Mon Apr 29 17:36:37 2013
Copyright (c) 1987-1999 Texas Instruments Incorporatedc:\lang\tms320c3x\511\bin\asm30.exe -l gpproface.asm gpproface.obj -tC:\Users\JDS\AppData\Local\Temp\gpproface.tmp 

gpproface.asm                                                        PAGE   81

     4321                           .line   299
     4322                   ;----------------------------------------------------------------------
     4323                   ; 584 | nSelect_Button.nScreenSetNum = 0;                                      
     4324                   ;----------------------------------------------------------------------
     4325 00000601 50600000         ldiu      0,r0
     4326 00000602 15200205-        sti       r0,@_nSelect_Button+10
     4327                           .line   301
     4328                   ;----------------------------------------------------------------------
     4329                   ; 586 | gpBuzzerOff;                                                           
     4330                   ;----------------------------------------------------------------------
     4331 00000603 50600010         ldiu      16,r0
     4332 00000604 0f200000         push      r0
     4333 00000605 5061000b         ldiu      11,r1
     4334 00000606 0f210000         push      r1
     4335 00000607 6200004d'        call      _gp_WritingWord
     4336                                                           ; Call Occurs
     4337 00000608 18740002         subi      2,sp
     4338                           .line   303
     4339                   ;----------------------------------------------------------------------
     4340                   ; 588 | gpROOTEN;                                                              
     4341                   ; 589 | //gpButtonON;                                                          
     4342                   ;----------------------------------------------------------------------
     4343 00000609 50600001         ldiu      1,r0
     4344 0000060a 0f200000         push      r0
     4345 0000060b 50610039         ldiu      57,r1
     4346 0000060c 0f210000         push      r1
     4347 0000060d 6200004d'        call      _gp_WritingWord
     4348                                                           ; Call Occurs
     4349 0000060e 18740002         subi      2,sp
     4350                           .line   307
     4351                   ;----------------------------------------------------------------------
     4352                   ; 592 | break;                                                                 
     4353                   ; 593 | case 10:        //  .                            
     4354                   ; 594 | // .                                                         
     4355                   ;----------------------------------------------------------------------
     4356 0000060f 6a0001da         bu        L178
     4357                   ;*      Branch Occurs to L178 
     4358 00000610          L142:        
     4359                           .line   310
     4360                   ;----------------------------------------------------------------------
     4361                   ; 595 | gpPASDR_SCREEN;                                                        
     4362                   ;----------------------------------------------------------------------
     4363 00000610 50600088         ldiu      136,r0
     4364 00000611 5061000f         ldiu      15,r1
     4365 00000612 0f200000         push      r0
     4366 00000613 0f210000         push      r1
     4367 00000614 6200004d'        call      _gp_WritingWord
     4368                                                           ; Call Occurs
     4369 00000615 18740002         subi      2,sp
     4370                           .line   311
     4371                   ;----------------------------------------------------------------------
     4372                   ; 596 | if(nDi_Check.nDoor.nFlag){gpSTATEOPEN;}                                
     4373                   ;----------------------------------------------------------------------
     4374 00000616 0820000c!        ldi       @_nDi_Check+12,r0
TMS320C3x/4x COFF AssemblerVersion 5.11     Mon Apr 29 17:36:37 2013
Copyright (c) 1987-1999 Texas Instruments Incorporatedc:\lang\tms320c3x\511\bin\asm30.exe -l gpproface.asm gpproface.obj -tC:\Users\JDS\AppData\Local\Temp\gpproface.tmp 

gpproface.asm                                                        PAGE   82

     4375 00000617 6a250008         beqd      L145
     4376 00000618 0c800000         nop
     4377 00000619 52e10002         ldieq     2,r1
     4378 0000061a 52e0005e         ldieq     94,r0
     4379                   ;*      Branch Occurs to L145 
     4380 0000061b 50610001         ldiu      1,r1
     4381 0000061c 5060005e         ldiu      94,r0
     4382 0000061d 0f210000         push      r1
     4383 0000061e 0f200000         push      r0
     4384 0000061f 6200004d'        call      _gp_WritingWord
     4385                                                           ; Call Occurs
     4386 00000620 18740002         subi      2,sp
     4387 00000621 6a000004         bu        L146
     4388                   ;*      Branch Occurs to L146 
     4389                           .line   312
     4390                   ;----------------------------------------------------------------------
     4391                   ; 597 | else{gpSTATECLOSE;}                                                    
     4392                   ;----------------------------------------------------------------------
     4393 00000622          L145:        
     4394 00000622 0f210000         push      r1
     4395 00000623 0f200000         push      r0
     4396 00000624 6200004d'        call      _gp_WritingWord
     4397                                                           ; Call Occurs
     4398 00000625 18740002         subi      2,sp
     4399 00000626          L146:        
     4400                           .line   314
     4401                   ;----------------------------------------------------------------------
     4402                   ; 599 | if(nDi_Check.nDoRight.nFlag){gpDoorRightOpen;}                         
     4403                   ;----------------------------------------------------------------------
     4404 00000626 08200014!        ldi       @_nDi_Check+20,r0
     4405 00000627 6a250006         beqd      L148
     4406 00000628 0c800000         nop
     4407 00000629 53610001         ldine     1,r1
     4408 0000062a 53600064         ldine     100,r0
     4409                   ;*      Branch Occurs to L148 
     4410 0000062b 0f210000         push      r1
     4411 0000062c 0f200000         push      r0
     4412 0000062d 6200004d'        call      _gp_WritingWord
     4413                                                           ; Call Occurs
     4414 0000062e 18740002         subi      2,sp
     4415 0000062f 6a000010         bu        L152
     4416                   ;*      Branch Occurs to L152 
     4417 00000630          L148:        
     4418                           .line   315
     4419                   ;----------------------------------------------------------------------
     4420                   ; 600 | else if(nDi_Check.nDoLeft.nFlag){gpDoorLeftOpen;}                      
     4421                   ;----------------------------------------------------------------------
     4422 00000630 08200010!        ldi       @_nDi_Check+16,r0
     4423 00000631 6a250008         beqd      L151
     4424 00000632 0c800000         nop
     4425 00000633 52e10000         ldieq     0,r1
     4426 00000634 52e00064         ldieq     100,r0
     4427                   ;*      Branch Occurs to L151 
     4428 00000635 50610002         ldiu      2,r1
TMS320C3x/4x COFF AssemblerVersion 5.11     Mon Apr 29 17:36:37 2013
Copyright (c) 1987-1999 Texas Instruments Incorporatedc:\lang\tms320c3x\511\bin\asm30.exe -l gpproface.asm gpproface.obj -tC:\Users\JDS\AppData\Local\Temp\gpproface.tmp 

gpproface.asm                                                        PAGE   83

     4429 00000636 50600064         ldiu      100,r0
     4430 00000637 0f210000         push      r1
     4431 00000638 0f200000         push      r0
     4432 00000639 6200004d'        call      _gp_WritingWord
     4433                                                           ; Call Occurs
     4434 0000063a 18740002         subi      2,sp
     4435 0000063b 6a000004         bu        L152
     4436                   ;*      Branch Occurs to L152 
     4437                           .line   316
     4438                   ;----------------------------------------------------------------------
     4439                   ; 601 | else{gpDoorCLOSE;}                                                     
     4440                   ;----------------------------------------------------------------------
     4441 0000063c          L151:        
     4442 0000063c 0f210000         push      r1
     4443 0000063d 0f200000         push      r0
     4444 0000063e 6200004d'        call      _gp_WritingWord
     4445                                                           ; Call Occurs
     4446 0000063f 18740002         subi      2,sp
     4447 00000640          L152:        
     4448                           .line   318
     4449                   ;----------------------------------------------------------------------
     4450                   ; 603 | gp_WritingStr(450,10,(UCHAR *)"PIC -> PA");                            
     4451                   ;----------------------------------------------------------------------
     4452 00000640 5021021f-        ldiu      @CL23,r1
     4453 00000641 5060000a         ldiu      10,r0
     4454 00000642 506201c2         ldiu      450,r2
     4455 00000643 0f210000         push      r1
     4456 00000644 0f200000         push      r0
     4457 00000645 0f220000         push      r2
     4458 00000646 620000ba'        call      _gp_WritingStr
     4459                                                           ; Call Occurs
     4460 00000647 18740003         subi      3,sp
     4461                           .line   319
     4462                   ;----------------------------------------------------------------------
     4463                   ; 604 | gp_WritingStr(460,10,(UCHAR *)"PA -> PIC");                            
     4464                   ;----------------------------------------------------------------------
     4465 00000648 50220220-        ldiu      @CL24,r2
     4466 00000649 5060000a         ldiu      10,r0
     4467 0000064a 506101cc         ldiu      460,r1
     4468 0000064b 0f220000         push      r2
     4469 0000064c 0f200000         push      r0
     4470 0000064d 0f210000         push      r1
     4471 0000064e 620000ba'        call      _gp_WritingStr
     4472                                                           ; Call Occurs
     4473 0000064f 18740003         subi      3,sp
     4474                           .line   320
     4475                   ;----------------------------------------------------------------------
     4476                   ; 605 | gp_WritingStr(470,11,(UCHAR *)"PIC <-> PA");                           
     4477                   ;----------------------------------------------------------------------
     4478 00000650 50220221-        ldiu      @CL25,r2
     4479 00000651 0f220000         push      r2
     4480 00000652 5061000b         ldiu      11,r1
     4481 00000653 506001d6         ldiu      470,r0
     4482 00000654 0f210000         push      r1
TMS320C3x/4x COFF AssemblerVersion 5.11     Mon Apr 29 17:36:37 2013
Copyright (c) 1987-1999 Texas Instruments Incorporatedc:\lang\tms320c3x\511\bin\asm30.exe -l gpproface.asm gpproface.obj -tC:\Users\JDS\AppData\Local\Temp\gpproface.tmp 

gpproface.asm                                                        PAGE   84

     4483 00000655 0f200000         push      r0
     4484 00000656 620000ba'        call      _gp_WritingStr
     4485                                                           ; Call Occurs
     4486 00000657 18740003         subi      3,sp
     4487                           .line   322
     4488                   ;----------------------------------------------------------------------
     4489                   ; 607 | GP_SDR_PRINT(nTr_St_Info.nPaTxDataBuf,22,Saf82532_Ach.nRxBackUp,22,nSel
     4490                   ;     | ect_Button.nScreen_Send_Delay_Time,1);                                 
     4491                   ;----------------------------------------------------------------------
     4492 00000658 50610001         ldiu      1,r1
     4493 00000659 0f210000         push      r1
     4494 0000065a 50230208-        ldiu      @_nSelect_Button+13,r3
     4495 0000065b 50600016         ldiu      22,r0
     4496 0000065c 0f230000         push      r3
     4497 0000065d 0f200000         push      r0
     4498 0000065e 50200007!        ldiu      @_Saf82532_Ach+7,r0
     4499 0000065f 0f200000         push      r0
     4500 00000660 50610016         ldiu      22,r1
     4501 00000661 0f210000         push      r1
     4502 00000662 50220222-        ldiu      @CL26,r2
     4503 00000663 0f220000         push      r2
     4504 00000664 62000961'        call      _GP_SDR_PRINT
     4505                                                           ; Call Occurs
     4506 00000665 18740006         subi      6,sp
     4507                           .line   323
     4508                   ;----------------------------------------------------------------------
     4509                   ; 608 | nSelect_Button.nScreen_Send_Delay_Time++;                              
     4510                   ;----------------------------------------------------------------------
     4511 00000666 50600001         ldiu      1,r0
     4512 00000667 02200208-        addi      @_nSelect_Button+13,r0 ; Unsigned
     4513 00000668 15200208-        sti       r0,@_nSelect_Button+13
     4514                           .line   325
     4515                   ;----------------------------------------------------------------------
     4516                   ; 610 | break;                                                                 
     4517                   ; 611 | case 11:                //                         
     4518                   ;----------------------------------------------------------------------
     4519 00000669 6a000180         bu        L178
     4520                   ;*      Branch Occurs to L178 
     4521 0000066a          L153:        
     4522                           .line   327
     4523                   ;----------------------------------------------------------------------
     4524                   ; 612 | if(!nLedDataLoad.nSelfTestFlag)                                        
     4525                   ;----------------------------------------------------------------------
     4526 0000066a 08200004!        ldi       @_nLedDataLoad+4,r0
     4527 0000066b 6a06017e         bne       L178
     4528                   ;*      Branch Occurs to L178 
     4529                           .line   329
     4530                   ;----------------------------------------------------------------------
     4531                   ; 614 | nSelect_Button.nScreenSetNum = 0;                                      
     4532                   ;----------------------------------------------------------------------
     4533 0000066c 50600000         ldiu      0,r0
     4534 0000066d 15200205-        sti       r0,@_nSelect_Button+10
     4535                           .line   331
     4536                   ;----------------------------------------------------------------------
TMS320C3x/4x COFF AssemblerVersion 5.11     Mon Apr 29 17:36:37 2013
Copyright (c) 1987-1999 Texas Instruments Incorporatedc:\lang\tms320c3x\511\bin\asm30.exe -l gpproface.asm gpproface.obj -tC:\Users\JDS\AppData\Local\Temp\gpproface.tmp 

gpproface.asm                                                        PAGE   85

     4537                   ; 616 | gpROOTEN;                                                              
     4538                   ;----------------------------------------------------------------------
     4539 0000066e 50610001         ldiu      1,r1
     4540 0000066f 0f210000         push      r1
     4541 00000670 50600039         ldiu      57,r0
     4542 00000671 0f200000         push      r0
     4543 00000672 6200004d'        call      _gp_WritingWord
     4544                                                           ; Call Occurs
     4545 00000673 18740002         subi      2,sp
     4546                           .line   333
     4547                   ;----------------------------------------------------------------------
     4548                   ; 618 | memset(sSelfTestBuf,0x01,11);                                          
     4549                   ;----------------------------------------------------------------------
     4550 00000674 5062000b         ldiu      11,r2
     4551 00000675 50610001         ldiu      1,r1
     4552 00000676 5000000b         ldiu      fp,r0
     4553 00000677 0f220000         push      r2
     4554 00000678 02600016         addi      22,r0
     4555 00000679 0f210000         push      r1
     4556 0000067a 0f200000         push      r0
     4557 0000067b 62000000!        call      _memset
     4558                                                           ; Call Occurs
     4559 0000067c 18740003         subi      3,sp
     4560                           .line   334
     4561                   ;----------------------------------------------------------------------
     4562                   ; 619 | memcpy(sSelfTestBuf,nSelf_Test.nSELF_RXDATA_Buf,(DISPLAY_UNIT+LCDC));  
     4563                   ;----------------------------------------------------------------------
     4564 0000067d 50280217-        ldiu      @CL15,ar0
     4565 0000067e 5009000b         ldiu      fp,ar1
     4566 0000067f 02690016         addi      22,ar1
     4567 00000680 50402001         ldiu      *ar0++(1),r0
     4568 00000681 13fb0009         rpts      9                     ; Fast MEMCPY(#18)
     4569 00000682 da002120         sti       r0,*ar1++(1)
     4570                   ||      ldi       *ar0++(1),r0
     4571 00000683 15402101         sti       r0,*ar1++(1)
     4572                           .line   335
     4573                   ;----------------------------------------------------------------------
     4574                   ; 620 | SDR_Routine_Complete(sSelfTestBuf,TRUE);        // GP  0/X 
     4575                   ;     | .                                                                  
     4576                   ;----------------------------------------------------------------------
     4577 00000684 50610001         ldiu      1,r1
     4578 00000685 5000000b         ldiu      fp,r0
     4579 00000686 0f210000         push      r1
     4580 00000687 02600016         addi      22,r0
     4581 00000688 0f200000         push      r0
     4582 00000689 62000f05'        call      _SDR_Routine_Complete
     4583                                                           ; Call Occurs
     4584 0000068a 18740002         subi      2,sp
     4585                           .line   337
     4586                   ;----------------------------------------------------------------------
     4587                   ; 622 | if(nLedDataLoad.nSDR_RxCnt)//                        
     4588                   ;----------------------------------------------------------------------
     4589 0000068b 08200005!        ldi       @_nLedDataLoad+5,r0
     4590 0000068c 6a250016         beqd      L157
TMS320C3x/4x COFF AssemblerVersion 5.11     Mon Apr 29 17:36:37 2013
Copyright (c) 1987-1999 Texas Instruments Incorporatedc:\lang\tms320c3x\511\bin\asm30.exe -l gpproface.asm gpproface.obj -tC:\Users\JDS\AppData\Local\Temp\gpproface.tmp 

gpproface.asm                                                        PAGE   86

     4591 0000068d 52e20000         ldieq     0,r2
     4592 0000068e 52e10018         ldieq     24,r1
     4593 0000068f 52e00003         ldieq     3,r0
     4594                   ;*      Branch Occurs to L157 
     4595                           .line   339
     4596                   ;----------------------------------------------------------------------
     4597                   ; 624 | gpLED_UPLOAD_ERBUT;     //      .    
     4598                   ;----------------------------------------------------------------------
     4599 00000690 50610001         ldiu      1,r1
     4600 00000691 506002bc         ldiu      700,r0
     4601 00000692 0f210000         push      r1
     4602 00000693 0f200000         push      r0
     4603 00000694 6200004d'        call      _gp_WritingWord
     4604                                                           ; Call Occurs
     4605 00000695 18740002         subi      2,sp
     4606                           .line   340
     4607                   ;----------------------------------------------------------------------
     4608                   ; 625 | gpLED_UPLOAD_ERBUT_SF_ON;                                              
     4609                   ;----------------------------------------------------------------------
     4610 00000696 50610001         ldiu      1,r1
     4611 00000697 506002c6         ldiu      710,r0
     4612 00000698 0f210000         push      r1
     4613 00000699 0f200000         push      r0
     4614 0000069a 6200004d'        call      _gp_WritingWord
     4615                                                           ; Call Occurs
     4616 0000069b 18740002         subi      2,sp
     4617                           .line   342
     4618                   ;----------------------------------------------------------------------
     4619                   ; 627 | gp_WritingStr(585,8,(UCHAR *)"UNIT FiND -> OK");                       
     4620                   ; 629 | else    //  .                                        
     4621                   ;----------------------------------------------------------------------
     4622 0000069c 50210223-        ldiu      @CL27,r1
     4623 0000069d 50600008         ldiu      8,r0
     4624 0000069e 50620249         ldiu      585,r2
     4625 0000069f 0f210000         push      r1
     4626 000006a0 0f200000         push      r0
     4627 000006a1 0f220000         push      r2
     4628 000006a2 620000ba'        call      _gp_WritingStr
     4629                                                           ; Call Occurs
     4630 000006a3 18740003         subi      3,sp
     4631 000006a4 6a000013         bu        L158
     4632                   ;*      Branch Occurs to L158 
     4633                           .line   346
     4634                   ;----------------------------------------------------------------------
     4635                   ; 631 | xr16l788_Init(XR16L788_3CHL,19200,XR16L788_DATA8,XR16L788_EVENPARITY,XR
     4636                   ;     | 16L788_1STOPBIT);                                                      
     4637                   ;----------------------------------------------------------------------
     4638 000006a5          L157:        
     4639 000006a5 50634b00         ldiu      19200,r3
     4640 000006a6 0f220000         push      r2
     4641 000006a7 0f210000         push      r1
     4642 000006a8 50620002         ldiu      2,r2
     4643 000006a9 0f200000         push      r0
     4644 000006aa 0f230000         push      r3
TMS320C3x/4x COFF AssemblerVersion 5.11     Mon Apr 29 17:36:37 2013
Copyright (c) 1987-1999 Texas Instruments Incorporatedc:\lang\tms320c3x\511\bin\asm30.exe -l gpproface.asm gpproface.obj -tC:\Users\JDS\AppData\Local\Temp\gpproface.tmp 

gpproface.asm                                                        PAGE   87

     4645 000006ab 0f220000         push      r2
     4646 000006ac 62000000!        call      _xr16l788_Init
     4647                                                           ; Call Occurs
     4648 000006ad 18740005         subi      5,sp
     4649                           .line   347
     4650                   ;----------------------------------------------------------------------
     4651                   ; 632 | Xr16788_3Ch.nBPS = 192;                                                
     4652                   ;----------------------------------------------------------------------
     4653 000006ae 506000c0         ldiu      192,r0
     4654 000006af 15200012!        sti       r0,@_Xr16788_3Ch+18
     4655                           .line   348
     4656                   ;----------------------------------------------------------------------
     4657                   ; 633 | gp_WritingStr(585,8,(UCHAR *)"UNIT FiND -> NG");                       
     4658                   ;----------------------------------------------------------------------
     4659 000006b0 50210224-        ldiu      @CL28,r1
     4660 000006b1 50620008         ldiu      8,r2
     4661 000006b2 0f210000         push      r1
     4662 000006b3 0f220000         push      r2
     4663 000006b4 50600249         ldiu      585,r0
     4664 000006b5 0f200000         push      r0
     4665 000006b6 620000ba'        call      _gp_WritingStr
     4666                                                           ; Call Occurs
     4667 000006b7 18740003         subi      3,sp
     4668 000006b8          L158:        
     4669                           .line   352
     4670                   ;----------------------------------------------------------------------
     4671                   ; 637 | nLedDataLoad.nSDR_RxCnt = 0;    // .                         
     4672                   ;----------------------------------------------------------------------
     4673 000006b8 50600000         ldiu      0,r0
     4674 000006b9 15200005!        sti       r0,@_nLedDataLoad+5
     4675                           .line   354
     4676                   ;----------------------------------------------------------------------
     4677                   ; 639 | break;                                                                 
     4678                   ; 640 | case 12:        //                               
     4679                   ;----------------------------------------------------------------------
     4680 000006ba 6a00012f         bu        L178
     4681                   ;*      Branch Occurs to L178 
     4682 000006bb          L159:        
     4683                           .line   357
     4684                   ;----------------------------------------------------------------------
     4685                   ; 642 | if(nLedDataLoad.nErassFlag.nST_2)                                      
     4686                   ;----------------------------------------------------------------------
     4687 000006bb 08200007!        ldi       @_nLedDataLoad+7,r0
     4688 000006bc 6a05003e         beq       L161
     4689                   ;*      Branch Occurs to L161 
     4690                           .line   359
     4691                   ;----------------------------------------------------------------------
     4692                   ; 644 | sTemp = (DWORD_L(nLedDataLoad.nSDR_RxCnt)*100)/DWORD_L(nLedDataLoad.nEr
     4693                   ;     | assFlag.nTXCnt);                                                       
     4694                   ;----------------------------------------------------------------------
     4695 000006bd 50200005!        ldiu      @_nLedDataLoad+5,r0
     4696 000006be 50620064         ldiu      100,r2
     4697 000006bf 50210225-        ldiu      @CL29,r1
     4698 000006c0 02e0ffff         and       65535,r0
TMS320C3x/4x COFF AssemblerVersion 5.11     Mon Apr 29 17:36:37 2013
Copyright (c) 1987-1999 Texas Instruments Incorporatedc:\lang\tms320c3x\511\bin\asm30.exe -l gpproface.asm gpproface.obj -tC:\Users\JDS\AppData\Local\Temp\gpproface.tmp 

gpproface.asm                                                        PAGE   88

     4699 000006c1 25000002         mpyi3     r2,r0,r0
     4700 000006c2 02a10008!        and       @_nLedDataLoad+8,r1
     4701 000006c3 62000000!        call      DIV_U30
     4702                                                           ; Call Occurs
     4703 000006c4 15400301         sti       r0,*+fp(1)
     4704                           .line   360
     4705                   ;----------------------------------------------------------------------
     4706                   ; 645 | sCharBuf[0] = sTemp/100 +0x30;                                         
     4707                   ;----------------------------------------------------------------------
     4708 000006c5 50610064         ldiu      100,r1
     4709 000006c6 62000000!        call      DIV_U30
     4710                                                           ; Call Occurs
     4711 000006c7 5008000b         ldiu      fp,ar0
     4712 000006c8 02680002         addi      2,ar0
     4713 000006c9 02600030         addi      48,r0                 ; Unsigned
     4714 000006ca 1540c000         sti       r0,*ar0
     4715                           .line   361
     4716                   ;----------------------------------------------------------------------
     4717                   ; 646 | sCharBuf[1] = sTemp/10 +0x30;                                          
     4718                   ;----------------------------------------------------------------------
     4719 000006cb 50400301         ldiu      *+fp(1),r0
     4720 000006cc 5061000a         ldiu      10,r1
     4721 000006cd 62000000!        call      DIV_U30
     4722                                                           ; Call Occurs
     4723 000006ce 5008000b         ldiu      fp,ar0
     4724 000006cf 02680003         addi      3,ar0
     4725 000006d0 02600030         addi      48,r0                 ; Unsigned
     4726 000006d1 1540c000         sti       r0,*ar0
     4727                           .line   362
     4728                   ;----------------------------------------------------------------------
     4729                   ; 647 | sCharBuf[2] = sTemp%10 +0x30;                                          
     4730                   ;----------------------------------------------------------------------
     4731 000006d2 50400301         ldiu      *+fp(1),r0
     4732 000006d3 5061000a         ldiu      10,r1
     4733 000006d4 62000000!        call      MOD_U30
     4734                                                           ; Call Occurs
     4735 000006d5 5008000b         ldiu      fp,ar0
     4736 000006d6 02680004         addi      4,ar0
     4737 000006d7 02600030         addi      48,r0                 ; Unsigned
     4738 000006d8 1540c000         sti       r0,*ar0
     4739                           .line   363
     4740                   ;----------------------------------------------------------------------
     4741                   ; 648 | sCharBuf[3] = 0x25;                                                    
     4742                   ;----------------------------------------------------------------------
     4743 000006d9 5008000b         ldiu      fp,ar0
     4744 000006da 02680005         addi      5,ar0
     4745 000006db 50600025         ldiu      37,r0
     4746 000006dc 1540c000         sti       r0,*ar0
     4747                           .line   365
     4748                   ;----------------------------------------------------------------------
     4749                   ; 650 | gp_WritingWord(300,sTemp);                                             
     4750                   ;----------------------------------------------------------------------
     4751 000006dd 50410301         ldiu      *+fp(1),r1
     4752 000006de 5060012c         ldiu      300,r0
TMS320C3x/4x COFF AssemblerVersion 5.11     Mon Apr 29 17:36:37 2013
Copyright (c) 1987-1999 Texas Instruments Incorporatedc:\lang\tms320c3x\511\bin\asm30.exe -l gpproface.asm gpproface.obj -tC:\Users\JDS\AppData\Local\Temp\gpproface.tmp 

gpproface.asm                                                        PAGE   89

     4753 000006df 0f210000         push      r1
     4754 000006e0 0f200000         push      r0
     4755 000006e1 6200004d'        call      _gp_WritingWord
     4756                                                           ; Call Occurs
     4757 000006e2 18740002         subi      2,sp
     4758                           .line   366
     4759                   ;----------------------------------------------------------------------
     4760                   ; 651 | gp_WritingStr(540,2,sCharBuf);                                         
     4761                   ;----------------------------------------------------------------------
     4762 000006e3 5001000b         ldiu      fp,r1
     4763 000006e4 02610002         addi      2,r1
     4764 000006e5 50620002         ldiu      2,r2
     4765 000006e6 0f210000         push      r1
     4766 000006e7 0f220000         push      r2
     4767 000006e8 5060021c         ldiu      540,r0
     4768 000006e9 0f200000         push      r0
     4769 000006ea 620000ba'        call      _gp_WritingStr
     4770                                                           ; Call Occurs
     4771 000006eb 18740003         subi      3,sp
     4772                           .line   368
     4773                   ;----------------------------------------------------------------------
     4774                   ; 653 | gp_WritingWord(301,000);                                               
     4775                   ;----------------------------------------------------------------------
     4776 000006ec 50600000         ldiu      0,r0
     4777 000006ed 5061012d         ldiu      301,r1
     4778 000006ee 0f200000         push      r0
     4779 000006ef 0f210000         push      r1
     4780 000006f0 6200004d'        call      _gp_WritingWord
     4781                                                           ; Call Occurs
     4782 000006f1 18740002         subi      2,sp
     4783                           .line   369
     4784                   ;----------------------------------------------------------------------
     4785                   ; 654 | gp_WritingStr(545,2,(UCHAR*)"000%");                                   
     4786                   ; 657 | else                                                                   
     4787                   ;----------------------------------------------------------------------
     4788 000006f2 50210226-        ldiu      @CL30,r1
     4789 000006f3 0f210000         push      r1
     4790 000006f4 50600002         ldiu      2,r0
     4791 000006f5 0f200000         push      r0
     4792 000006f6 50620221         ldiu      545,r2
     4793 000006f7 0f220000         push      r2
     4794 000006f8 620000ba'        call      _gp_WritingStr
     4795                                                           ; Call Occurs
     4796 000006f9 18740003         subi      3,sp
     4797 000006fa 6a0000ef         bu        L178
     4798                   ;*      Branch Occurs to L178 
     4799 000006fb          L161:        
     4800                           .line   374
     4801                   ;----------------------------------------------------------------------
     4802                   ; 659 | nSelect_Button.nScreenSetNum = 0;                                      
     4803                   ;----------------------------------------------------------------------
     4804 000006fb 50600000         ldiu      0,r0
     4805 000006fc 15200205-        sti       r0,@_nSelect_Button+10
     4806                           .line   375
TMS320C3x/4x COFF AssemblerVersion 5.11     Mon Apr 29 17:36:37 2013
Copyright (c) 1987-1999 Texas Instruments Incorporatedc:\lang\tms320c3x\511\bin\asm30.exe -l gpproface.asm gpproface.obj -tC:\Users\JDS\AppData\Local\Temp\gpproface.tmp 

gpproface.asm                                                        PAGE   90

     4807                   ;----------------------------------------------------------------------
     4808                   ; 660 | if(WORD_L(nLedDataLoad.nErassFlag.nRepCnt))                            
     4809                   ;----------------------------------------------------------------------
     4810 000006fd 506000ff         ldiu      255,r0
     4811 000006fe 1a200009!        tstb      @_nLedDataLoad+9,r0
     4812 000006ff 6a25001c         beqd      L163
     4813 00000700 0c800000         nop
     4814 00000701 5308000b         ldine     fp,ar0
     4815 00000702 53290227-        ldine     @CL31,ar1
     4816                   ;*      Branch Occurs to L163 
     4817                           .line   377
     4818                   ;----------------------------------------------------------------------
     4819                   ; 662 | memcpy(sDowRep,(UCHAR *)"Repet Num -> ",13);                           
     4820                   ;----------------------------------------------------------------------
     4821 00000703 02680070         addi      112,ar0
     4822 00000704 50402101         ldiu      *ar1++(1),r0
     4823 00000705 13fb000b         rpts      11                    ; Fast MEMCPY(#21)
     4824 00000706 da002021         sti       r0,*ar0++(1)
     4825                   ||      ldi       *ar1++(1),r0
     4826 00000707 15402001         sti       r0,*ar0++(1)
     4827                           .line   378
     4828                   ;----------------------------------------------------------------------
     4829                   ; 663 | sDowRep[13] = 0x30;                                                    
     4830                   ;----------------------------------------------------------------------
     4831 00000708 5008000b         ldiu      fp,ar0
     4832 00000709 0268007d         addi      125,ar0
     4833 0000070a 50600030         ldiu      48,r0
     4834 0000070b 1540c000         sti       r0,*ar0
     4835                           .line   379
     4836                   ;----------------------------------------------------------------------
     4837                   ; 664 | sDowRep[14] = WORD_L(nLedDataLoad.nErassFlag.nRepCnt)%10 + 0x30;       
     4838                   ;----------------------------------------------------------------------
     4839 0000070c 506000ff         ldiu      255,r0
     4840 0000070d 02a00009!        and       @_nLedDataLoad+9,r0
     4841 0000070e 5061000a         ldiu      10,r1
     4842 0000070f 62000000!        call      MOD_U30
     4843                                                           ; Call Occurs
     4844 00000710 5008000b         ldiu      fp,ar0
     4845 00000711 0268007e         addi      126,ar0
     4846 00000712 02600030         addi      48,r0                 ; Unsigned
     4847 00000713 1540c000         sti       r0,*ar0
     4848                           .line   381
     4849                   ;----------------------------------------------------------------------
     4850                   ; 666 | gp_WritingStr(595,8,sDowRep);                                          
     4851                   ; 668 | else                                                                   
     4852                   ;----------------------------------------------------------------------
     4853 00000714 50620008         ldiu      8,r2
     4854 00000715 5000000b         ldiu      fp,r0
     4855 00000716 02600070         addi      112,r0
     4856 00000717 0f200000         push      r0
     4857 00000718 0f220000         push      r2
     4858 00000719 50610253         ldiu      595,r1
     4859 0000071a 0f210000         push      r1
     4860 0000071b 620000ba'        call      _gp_WritingStr
TMS320C3x/4x COFF AssemblerVersion 5.11     Mon Apr 29 17:36:37 2013
Copyright (c) 1987-1999 Texas Instruments Incorporatedc:\lang\tms320c3x\511\bin\asm30.exe -l gpproface.asm gpproface.obj -tC:\Users\JDS\AppData\Local\Temp\gpproface.tmp 

gpproface.asm                                                        PAGE   91

     4861                                                           ; Call Occurs
     4862 0000071c 18740003         subi      3,sp
     4863 0000071d 6a0000cc         bu        L178
     4864                   ;*      Branch Occurs to L178 
     4865 0000071e          L163:        
     4866                           .line   385
     4867                   ;----------------------------------------------------------------------
     4868                   ; 670 | if(!nLedDataLoad.nErassFlag.nErassOk)           { gp_WritingStr(595,8,(
     4869                   ;     | UCHAR *)"ERASS     -> NG");}                                           
     4870                   ;----------------------------------------------------------------------
     4871 0000071e 0820000a!        ldi       @_nLedDataLoad+10,r0
     4872 0000071f 6a260007         bned      L165
     4873 00000720 52a00228-        ldieq     @CL32,r0
     4874 00000721 52e20008         ldieq     8,r2
     4875 00000722 52e10253         ldieq     595,r1
     4876                   ;*      Branch Occurs to L165 
     4877 00000723 0f200000         push      r0
     4878 00000724 0f220000         push      r2
     4879 00000725 0f210000         push      r1
     4880 00000726 620000ba'        call      _gp_WritingStr
     4881                                                           ; Call Occurs
     4882 00000727 18740003         subi      3,sp
     4883 00000728 6a000018         bu        L167
     4884                   ;*      Branch Occurs to L167 
     4885 00000729          L165:        
     4886                           .line   386
     4887                   ;----------------------------------------------------------------------
     4888                   ; 671 | else if(nLedDataLoad.nErassFlag.nErassOk)                              
     4889                   ;----------------------------------------------------------------------
     4890 00000729 0820000a!        ldi       @_nLedDataLoad+10,r0
     4891 0000072a 6a050016         beq       L167
     4892                   ;*      Branch Occurs to L167 
     4893                           .line   388
     4894                   ;----------------------------------------------------------------------
     4895                   ; 673 | gp_WritingStr(595,8,(UCHAR *)"ERASS     -> OK");                       
     4896                   ;----------------------------------------------------------------------
     4897 0000072b 50220229-        ldiu      @CL33,r2
     4898 0000072c 50610008         ldiu      8,r1
     4899 0000072d 50600253         ldiu      595,r0
     4900 0000072e 0f220000         push      r2
     4901 0000072f 0f210000         push      r1
     4902 00000730 0f200000         push      r0
     4903 00000731 620000ba'        call      _gp_WritingStr
     4904                                                           ; Call Occurs
     4905 00000732 18740003         subi      3,sp
     4906                           .line   389
     4907                   ;----------------------------------------------------------------------
     4908                   ; 674 | gp_WritingWord(300,100);                                               
     4909                   ;----------------------------------------------------------------------
     4910 00000733 50610064         ldiu      100,r1
     4911 00000734 5060012c         ldiu      300,r0
     4912 00000735 0f210000         push      r1
     4913 00000736 0f200000         push      r0
     4914 00000737 6200004d'        call      _gp_WritingWord
TMS320C3x/4x COFF AssemblerVersion 5.11     Mon Apr 29 17:36:37 2013
Copyright (c) 1987-1999 Texas Instruments Incorporatedc:\lang\tms320c3x\511\bin\asm30.exe -l gpproface.asm gpproface.obj -tC:\Users\JDS\AppData\Local\Temp\gpproface.tmp 

gpproface.asm                                                        PAGE   92

     4915                                                           ; Call Occurs
     4916 00000738 18740002         subi      2,sp
     4917                           .line   390
     4918                   ;----------------------------------------------------------------------
     4919                   ; 675 | gp_WritingStr(540,2,(UCHAR*)"100%");                                   
     4920                   ;----------------------------------------------------------------------
     4921 00000739 5020021d-        ldiu      @CL21,r0
     4922 0000073a 50610002         ldiu      2,r1
     4923 0000073b 0f200000         push      r0
     4924 0000073c 0f210000         push      r1
     4925 0000073d 5062021c         ldiu      540,r2
     4926 0000073e 0f220000         push      r2
     4927 0000073f 620000ba'        call      _gp_WritingStr
     4928                                                           ; Call Occurs
     4929 00000740 18740003         subi      3,sp
     4930 00000741          L167:        
     4931                           .line   393
     4932                   ;----------------------------------------------------------------------
     4933                   ; 678 | gpROOTEN;                                                              
     4934                   ;----------------------------------------------------------------------
     4935 00000741 50600001         ldiu      1,r0
     4936 00000742 50610039         ldiu      57,r1
     4937 00000743 0f200000         push      r0
     4938 00000744 0f210000         push      r1
     4939 00000745 6200004d'        call      _gp_WritingWord
     4940                                                           ; Call Occurs
     4941 00000746 18740002         subi      2,sp
     4942                           .line   399
     4943                   ;----------------------------------------------------------------------
     4944                   ; 684 | break;                                                                 
     4945                   ; 685 | case 13:        //                               
     4946                   ;----------------------------------------------------------------------
     4947 00000747 6a0000a2         bu        L178
     4948                   ;*      Branch Occurs to L178 
     4949 00000748          L168:        
     4950                           .line   401
     4951                   ;----------------------------------------------------------------------
     4952                   ; 686 | if(nLedDataLoad.nDataSize)                                             
     4953                   ;----------------------------------------------------------------------
     4954 00000748 08200010!        ldi       @_nLedDataLoad+16,r0
     4955 00000749 6a25003d         beqd      L170
     4956 0000074a 53200011!        ldine     @_nLedDataLoad+17,r0
     4957 0000074b 53210010!        ldine     @_nLedDataLoad+16,r1
     4958 0000074c 53620064         ldine     100,r2
     4959                   ;*      Branch Occurs to L170 
     4960                           .line   404
     4961                   ;----------------------------------------------------------------------
     4962                   ; 689 | sTemp = (DWORD_L(nLedDataLoad.nDataTxCnt)*100)/(DWORD_L(nLedDataLoad.nD
     4963                   ;     | ataSize)/128) ;                                                        
     4964                   ;----------------------------------------------------------------------
     4965 0000074d 02e0ffff         and       65535,r0
     4966 0000074e 02e1ffff         and       65535,r1
     4967 0000074f 25000002         mpyi3     r2,r0,r0
     4968 00000750 09e1fff9         lsh       -7,r1
TMS320C3x/4x COFF AssemblerVersion 5.11     Mon Apr 29 17:36:37 2013
Copyright (c) 1987-1999 Texas Instruments Incorporatedc:\lang\tms320c3x\511\bin\asm30.exe -l gpproface.asm gpproface.obj -tC:\Users\JDS\AppData\Local\Temp\gpproface.tmp 

gpproface.asm                                                        PAGE   93

     4969 00000751 62000000!        call      DIV_U30
     4970                                                           ; Call Occurs
     4971 00000752 15400301         sti       r0,*+fp(1)
     4972                           .line   405
     4973                   ;----------------------------------------------------------------------
     4974                   ; 690 | sCharBuf[0] = sTemp/100 +0x30;                                         
     4975                   ;----------------------------------------------------------------------
     4976 00000753 50610064         ldiu      100,r1
     4977 00000754 62000000!        call      DIV_U30
     4978                                                           ; Call Occurs
     4979 00000755 5008000b         ldiu      fp,ar0
     4980 00000756 02680002         addi      2,ar0
     4981 00000757 02600030         addi      48,r0                 ; Unsigned
     4982 00000758 1540c000         sti       r0,*ar0
     4983                           .line   406
     4984                   ;----------------------------------------------------------------------
     4985                   ; 691 | sCharBuf[1] = sTemp/10 +0x30;                                          
     4986                   ;----------------------------------------------------------------------
     4987 00000759 5061000a         ldiu      10,r1
     4988 0000075a 50400301         ldiu      *+fp(1),r0
     4989 0000075b 62000000!        call      DIV_U30
     4990                                                           ; Call Occurs
     4991 0000075c 5008000b         ldiu      fp,ar0
     4992 0000075d 02680003         addi      3,ar0
     4993 0000075e 02600030         addi      48,r0                 ; Unsigned
     4994 0000075f 1540c000         sti       r0,*ar0
     4995                           .line   407
     4996                   ;----------------------------------------------------------------------
     4997                   ; 692 | sCharBuf[2] = sTemp%10 +0x30;                                          
     4998                   ;----------------------------------------------------------------------
     4999 00000760 50400301         ldiu      *+fp(1),r0
     5000 00000761 5061000a         ldiu      10,r1
     5001 00000762 62000000!        call      MOD_U30
     5002                                                           ; Call Occurs
     5003 00000763 5008000b         ldiu      fp,ar0
     5004 00000764 02680004         addi      4,ar0
     5005 00000765 02600030         addi      48,r0                 ; Unsigned
     5006 00000766 1540c000         sti       r0,*ar0
     5007                           .line   408
     5008                   ;----------------------------------------------------------------------
     5009                   ; 693 | sCharBuf[3] = 0x25;                                                    
     5010                   ;----------------------------------------------------------------------
     5011 00000767 5008000b         ldiu      fp,ar0
     5012 00000768 02680005         addi      5,ar0
     5013 00000769 50600025         ldiu      37,r0
     5014 0000076a 1540c000         sti       r0,*ar0
     5015                           .line   410
     5016                   ;----------------------------------------------------------------------
     5017                   ; 695 | gp_WritingWord(300,100);                                               
     5018                   ;----------------------------------------------------------------------
     5019 0000076b 5061012c         ldiu      300,r1
     5020 0000076c 50600064         ldiu      100,r0
     5021 0000076d 0f200000         push      r0
     5022 0000076e 0f210000         push      r1
TMS320C3x/4x COFF AssemblerVersion 5.11     Mon Apr 29 17:36:37 2013
Copyright (c) 1987-1999 Texas Instruments Incorporatedc:\lang\tms320c3x\511\bin\asm30.exe -l gpproface.asm gpproface.obj -tC:\Users\JDS\AppData\Local\Temp\gpproface.tmp 

gpproface.asm                                                        PAGE   94

     5023 0000076f 6200004d'        call      _gp_WritingWord
     5024                                                           ; Call Occurs
     5025 00000770 18740002         subi      2,sp
     5026                           .line   411
     5027                   ;----------------------------------------------------------------------
     5028                   ; 696 | gp_WritingStr(540,2,(UCHAR*)"100%");                                   
     5029                   ;----------------------------------------------------------------------
     5030 00000771 5022021d-        ldiu      @CL21,r2
     5031 00000772 0f220000         push      r2
     5032 00000773 50600002         ldiu      2,r0
     5033 00000774 0f200000         push      r0
     5034 00000775 5061021c         ldiu      540,r1
     5035 00000776 0f210000         push      r1
     5036 00000777 620000ba'        call      _gp_WritingStr
     5037                                                           ; Call Occurs
     5038 00000778 18740003         subi      3,sp
     5039                           .line   413
     5040                   ;----------------------------------------------------------------------
     5041                   ; 698 | gp_WritingWord(301,sTemp);                                             
     5042                   ;----------------------------------------------------------------------
     5043 00000779 50400301         ldiu      *+fp(1),r0
     5044 0000077a 0f200000         push      r0
     5045 0000077b 5061012d         ldiu      301,r1
     5046 0000077c 0f210000         push      r1
     5047 0000077d 6200004d'        call      _gp_WritingWord
     5048                                                           ; Call Occurs
     5049 0000077e 18740002         subi      2,sp
     5050                           .line   414
     5051                   ;----------------------------------------------------------------------
     5052                   ; 699 | gp_WritingStr(545,2,sCharBuf);                                         
     5053                   ;----------------------------------------------------------------------
     5054 0000077f 50620002         ldiu      2,r2
     5055 00000780 5000000b         ldiu      fp,r0
     5056 00000781 02600002         addi      2,r0
     5057 00000782 0f200000         push      r0
     5058 00000783 50610221         ldiu      545,r1
     5059 00000784 0f220000         push      r2
     5060 00000785 0f210000         push      r1
     5061 00000786 620000ba'        call      _gp_WritingStr
     5062                                                           ; Call Occurs
     5063 00000787 18740003         subi      3,sp
     5064 00000788 6a000061         bu        L178
     5065                   ;*      Branch Occurs to L178 
     5066 00000789          L170:        
     5067                           .line   417
     5068                   ;----------------------------------------------------------------------
     5069                   ; 702 | else if(!nLedDataLoad.nDataSize)                                       
     5070                   ;----------------------------------------------------------------------
     5071 00000789 08200010!        ldi       @_nLedDataLoad+16,r0
     5072 0000078a 6a26005d         bned      L178
     5073 0000078b 0c800000         nop
     5074 0000078c 52e00064         ldieq     100,r0
     5075 0000078d 52e1012d         ldieq     301,r1
     5076                   ;*      Branch Occurs to L178 
TMS320C3x/4x COFF AssemblerVersion 5.11     Mon Apr 29 17:36:37 2013
Copyright (c) 1987-1999 Texas Instruments Incorporatedc:\lang\tms320c3x\511\bin\asm30.exe -l gpproface.asm gpproface.obj -tC:\Users\JDS\AppData\Local\Temp\gpproface.tmp 

gpproface.asm                                                        PAGE   95

     5077                           .line   420
     5078                   ;----------------------------------------------------------------------
     5079                   ; 705 | gp_WritingWord(301,100);                                               
     5080                   ;----------------------------------------------------------------------
     5081 0000078e 0f200000         push      r0
     5082 0000078f 0f210000         push      r1
     5083 00000790 6200004d'        call      _gp_WritingWord
     5084                                                           ; Call Occurs
     5085 00000791 18740002         subi      2,sp
     5086                           .line   421
     5087                   ;----------------------------------------------------------------------
     5088                   ; 706 | gp_WritingStr(545,2,(UCHAR*)"100%");                                   
     5089                   ;----------------------------------------------------------------------
     5090 00000792 5022021d-        ldiu      @CL21,r2
     5091 00000793 50600002         ldiu      2,r0
     5092 00000794 50610221         ldiu      545,r1
     5093 00000795 0f220000         push      r2
     5094 00000796 0f200000         push      r0
     5095 00000797 0f210000         push      r1
     5096 00000798 620000ba'        call      _gp_WritingStr
     5097                                                           ; Call Occurs
     5098 00000799 18740003         subi      3,sp
     5099                           .line   423
     5100                   ;----------------------------------------------------------------------
     5101                   ; 708 | gp_WritingStr(605,8,(UCHAR *)"DATA DOWN -> OK");                       
     5102                   ;----------------------------------------------------------------------
     5103 0000079a 5022022a-        ldiu      @CL34,r2
     5104 0000079b 0f220000         push      r2
     5105 0000079c 50600008         ldiu      8,r0
     5106 0000079d 0f200000         push      r0
     5107 0000079e 5061025d         ldiu      605,r1
     5108 0000079f 0f210000         push      r1
     5109 000007a0 620000ba'        call      _gp_WritingStr
     5110                                                           ; Call Occurs
     5111 000007a1 18740003         subi      3,sp
     5112                           .line   425
     5113                   ;----------------------------------------------------------------------
     5114                   ; 710 | memset(sSelfTestBuf,0x01,60);                                          
     5115                   ;----------------------------------------------------------------------
     5116 000007a2 5060003c         ldiu      60,r0
     5117 000007a3 0f200000         push      r0
     5118 000007a4 5000000b         ldiu      fp,r0
     5119 000007a5 02600016         addi      22,r0
     5120 000007a6 50610001         ldiu      1,r1
     5121 000007a7 0f210000         push      r1
     5122 000007a8 0f200000         push      r0
     5123 000007a9 62000000!        call      _memset
     5124                                                           ; Call Occurs
     5125 000007aa 18740003         subi      3,sp
     5126                           .line   427
     5127                   ;----------------------------------------------------------------------
     5128                   ; 712 | SDR_Routine_Complete(sSelfTestBuf,FALSE);// .              
     5129                   ;----------------------------------------------------------------------
     5130 000007ab 5000000b         ldiu      fp,r0
TMS320C3x/4x COFF AssemblerVersion 5.11     Mon Apr 29 17:36:37 2013
Copyright (c) 1987-1999 Texas Instruments Incorporatedc:\lang\tms320c3x\511\bin\asm30.exe -l gpproface.asm gpproface.obj -tC:\Users\JDS\AppData\Local\Temp\gpproface.tmp 

gpproface.asm                                                        PAGE   96

     5131 000007ac 02600016         addi      22,r0
     5132 000007ad 50610000         ldiu      0,r1
     5133 000007ae 0f210000         push      r1
     5134 000007af 0f200000         push      r0
     5135 000007b0 62000f05'        call      _SDR_Routine_Complete
     5136                                                           ; Call Occurs
     5137 000007b1 18740002         subi      2,sp
     5138                           .line   429
     5139                   ;----------------------------------------------------------------------
     5140                   ; 714 | if(nLedDataLoad.nDataSDRFlag)                                          
     5141                   ;----------------------------------------------------------------------
     5142 000007b2 0820000f!        ldi       @_nLedDataLoad+15,r0
     5143 000007b3 6a250007         beqd      L173
     5144 000007b4 5322022b-        ldine     @CL35,r2
     5145 000007b5 53610008         ldine     8,r1
     5146 000007b6 53600267         ldine     615,r0
     5147                   ;*      Branch Occurs to L173 
     5148                           .line   431
     5149                   ;----------------------------------------------------------------------
     5150                   ; 716 | gp_WritingStr(615,8,(UCHAR *)"DATA SDR CHACK.");                       
     5151                   ;----------------------------------------------------------------------
     5152 000007b7 0f220000         push      r2
     5153 000007b8 0f210000         push      r1
     5154 000007b9 0f200000         push      r0
     5155 000007ba 620000ba'        call      _gp_WritingStr
     5156                                                           ; Call Occurs
     5157 000007bb 18740003         subi      3,sp
     5158 000007bc 6a00002d         bu        L178
     5159                   ;*      Branch Occurs to L178 
     5160 000007bd          L173:        
     5161                           .line   433
     5162                   ;----------------------------------------------------------------------
     5163                   ; 718 | else if(!nLedDataLoad.nDataSDRFlag)                                    
     5164                   ;----------------------------------------------------------------------
     5165 000007bd 0820000f!        ldi       @_nLedDataLoad+15,r0
     5166 000007be 6a260029         bned      L178
     5167 000007bf 0c800000         nop
     5168 000007c0 5288000b         ldieq     fp,ar0
     5169 000007c1 52a90217-        ldieq     @CL15,ar1
     5170                   ;*      Branch Occurs to L178 
     5171                           .line   435
     5172                   ;----------------------------------------------------------------------
     5173                   ; 720 | memcpy(sSelfTestBuf,nSelf_Test.nSELF_RXDATA_Buf,DISPLAY_UNIT);         
     5174                   ;----------------------------------------------------------------------
     5175 000007c2 02680016         addi      22,ar0
     5176 000007c3 50402101         ldiu      *ar1++(1),r0
     5177 000007c4 13fb0008         rpts      8                     ; Fast MEMCPY(#24)
     5178 000007c5 da002021         sti       r0,*ar0++(1)
     5179                   ||      ldi       *ar1++(1),r0
     5180 000007c6 15402001         sti       r0,*ar0++(1)
     5181                           .line   436
     5182                   ;----------------------------------------------------------------------
     5183                   ; 721 | SDR_Routine_Complete(sSelfTestBuf,TRUE);        // GP  0/X 
     5184                   ;     |                                                                    
TMS320C3x/4x COFF AssemblerVersion 5.11     Mon Apr 29 17:36:37 2013
Copyright (c) 1987-1999 Texas Instruments Incorporatedc:\lang\tms320c3x\511\bin\asm30.exe -l gpproface.asm gpproface.obj -tC:\Users\JDS\AppData\Local\Temp\gpproface.tmp 

gpproface.asm                                                        PAGE   97

     5185                   ;----------------------------------------------------------------------
     5186 000007c7 50610001         ldiu      1,r1
     5187 000007c8 5000000b         ldiu      fp,r0
     5188 000007c9 0f210000         push      r1
     5189 000007ca 02600016         addi      22,r0
     5190 000007cb 0f200000         push      r0
     5191 000007cc 62000f05'        call      _SDR_Routine_Complete
     5192                                                           ; Call Occurs
     5193 000007cd 18740002         subi      2,sp
     5194                           .line   437
     5195                   ;----------------------------------------------------------------------
     5196                   ; 722 | nSelect_Button.nScreenSetNum = 0;                                      
     5197                   ;----------------------------------------------------------------------
     5198 000007ce 50600000         ldiu      0,r0
     5199 000007cf 15200205-        sti       r0,@_nSelect_Button+10
     5200                           .line   440
     5201                   ;----------------------------------------------------------------------
     5202                   ; 725 | break;                                                                 
     5203                   ;----------------------------------------------------------------------
     5204 000007d0 6a000019         bu        L178
     5205                   ;*      Branch Occurs to L178 
     5206 000007d1          L176:        
     5207                           .line   12
     5208 000007d1 506000ff         ldiu      255,r0
     5209 000007d2 50610001         ldiu      1,r1
     5210 000007d3 02c00b02         and       *-fp(2),r0
     5211 000007d4 19810000         subri     r0,r1
     5212 000007d5 04e1000c         cmpi      12,r1
     5213 000007d6 6a230011         bhid      L178
     5214 000007d7 0c800000         nop
     5215 000007d8 51710001         ldils     1,ir0
     5216 000007d9 5128022c-        ldils     @CL36,ar0
     5217                   ;*      Branch Occurs to L178 
     5218 000007da 19910000         subri     r0,ir0
     5219 000007db 50404000         ldiu      *+ar0(ir0),r0
     5220 000007dc 68000000         bu        r0
     5221                   
     5222 000007dd                  .sect   ".text"
     5223 000007dd 00000267'SW0:    .word   L53     ; 1
     5224 000007de 000003b4'        .word   L86     ; 2
     5225 000007df 000003e9'        .word   L91     ; 3
     5226 000007e0 0000045e'        .word   L104    ; 4
     5227 000007e1 0000047b'        .word   L108    ; 5
     5228 000007e2 000004c0'        .word   L121    ; 6
     5229 000007e3 000004c7'        .word   L122    ; 7
     5230 000007e4 000004d7'        .word   L123    ; 8
     5231 000007e5 0000053d'        .word   L135    ; 9
     5232 000007e6 00000610'        .word   L142    ; 10
     5233 000007e7 0000066a'        .word   L153    ; 11
     5234 000007e8 000006bb'        .word   L159    ; 12
     5235 000007e9 00000748'        .word   L168    ; 13
     5236 000007ea                  .sect   ".text"
     5237                   ;*      Branch Occurs to r0 
     5238 000007ea          L178:        
TMS320C3x/4x COFF AssemblerVersion 5.11     Mon Apr 29 17:36:37 2013
Copyright (c) 1987-1999 Texas Instruments Incorporatedc:\lang\tms320c3x\511\bin\asm30.exe -l gpproface.asm gpproface.obj -tC:\Users\JDS\AppData\Local\Temp\gpproface.tmp 

gpproface.asm                                                        PAGE   98

     5239                           .line   443
     5240 000007ea 50530b01         ldiu      *-fp(1),bk
     5241 000007eb 504bc300         ldiu      *fp,fp
     5242 000007ec 18740080         subi      128,sp
     5243 000007ed 68000013         bu        bk
     5244                   ;*      Branch Occurs to bk 
     5245                           .endfunc        728,000000000h,126
     5246                   
     5247                   
     5248 000007ee                  .sect    ".text"
     5249                   
     5250                           .global _GP_DISPLAY_SAFETY
     5251                           .sym    _GP_DISPLAY_SAFETY,_GP_DISPLAY_SAFETY,32,2,0
     5252                           .func   732
     5253                   ;******************************************************************************
     5254                   ;* FUNCTION NAME: _GP_DISPLAY_SAFETY                                          *
     5255                   ;*                                                                            *
     5256                   ;*   Architecture       : TMS320C30                                           *
     5257                   ;*   Calling Convention : Stack Parameter Convention                          *
     5258                   ;*   Function Uses Regs : r0,r1,fp,sp,st                                      *
     5259                   ;*   Regs Saved         :                                                     *
     5260                   ;*   Stack Frame        : Full (w/ debug)                                     *
     5261                   ;*   Total Frame Size   : 2 Call + 1 Parm + 0 Auto + 0 SOE = 3 words          *
     5262                   ;******************************************************************************
     5263 000007ee          _GP_DISPLAY_SAFETY:
     5264                           .sym    _nScreenInf,-2,12,9,32
     5265                           .line   1
     5266                   ;----------------------------------------------------------------------
     5267                   ; 732 | void GP_DISPLAY_SAFETY(UCHAR nScreenInf)                               
     5268                   ;----------------------------------------------------------------------
     5269                           .line   2
     5270                   ;----------------------------------------------------------------------
     5271                   ; 734 | switch(nScreenInf)                                                     
     5272                   ; 736 | case 0x39:                                                             
     5273                   ;----------------------------------------------------------------------
     5274 000007ee 6a20000a         bud       L183
     5275 000007ef 0f2b0000         push      fp
     5276 000007f0 500b0014         ldiu      sp,fp
     5277 000007f1 50400b02         ldiu      *-fp(2),r0
     5278                   ;*      Branch Occurs to L183 
     5279 000007f2          L181:        
     5280                           .line   6
     5281                   ;----------------------------------------------------------------------
     5282                   ; 737 | nSelect_Button.nScreenSafe = 0;                                        
     5283                   ;----------------------------------------------------------------------
     5284 000007f2 50600000         ldiu      0,r0
     5285 000007f3 15200207-        sti       r0,@_nSelect_Button+12
     5286                           .line   7
     5287                   ;----------------------------------------------------------------------
     5288                   ; 738 | gpTURNOFF;                                                             
     5289                   ;----------------------------------------------------------------------
     5290 000007f4 5061000c         ldiu      12,r1
     5291 000007f5 5020020b-        ldiu      @CL3,r0
     5292 000007f6 0f200000         push      r0
TMS320C3x/4x COFF AssemblerVersion 5.11     Mon Apr 29 17:36:37 2013
Copyright (c) 1987-1999 Texas Instruments Incorporatedc:\lang\tms320c3x\511\bin\asm30.exe -l gpproface.asm gpproface.obj -tC:\Users\JDS\AppData\Local\Temp\gpproface.tmp 

gpproface.asm                                                        PAGE   99

     5293 000007f7 0f210000         push      r1
     5294 000007f8 6200004d'        call      _gp_WritingWord
     5295                                                           ; Call Occurs
     5296 000007f9 18740002         subi      2,sp
     5297                           .line   8
     5298                   ;----------------------------------------------------------------------
     5299                   ; 739 | break;                                                                 
     5300                   ;----------------------------------------------------------------------
     5301 000007fa 6a000002         bu        L184
     5302                   ;*      Branch Occurs to L184 
     5303                           .line   3
     5304 000007fb          L183:        
     5305 000007fb 04e00039         cmpi      57,r0
     5306 000007fc 6a05fff5         beq       L181
     5307                   ;*      Branch Occurs to L181 
     5308 000007fd          L184:        
     5309                           .line   10
     5310 000007fd 50530b01         ldiu      *-fp(1),bk
     5311 000007fe 504bc300         ldiu      *fp,fp
     5312 000007ff 18740002         subi      2,sp
     5313 00000800 68000013         bu        bk
     5314                   ;*      Branch Occurs to bk 
     5315                           .endfunc        741,000000000h,0
     5316                   
     5317                   
     5318 00000801                  .sect    ".text"
     5319                   
     5320                           .global _GP_CLEAN
     5321                           .sym    _GP_CLEAN,_GP_CLEAN,32,2,0
     5322                           .func   746
     5323                   ;******************************************************************************
     5324                   ;* FUNCTION NAME: _GP_CLEAN                                                   *
     5325                   ;*                                                                            *
     5326                   ;*   Architecture       : TMS320C30                                           *
     5327                   ;*   Calling Convention : Stack Parameter Convention                          *
     5328                   ;*   Function Uses Regs : r0,st                                               *
     5329                   ;*   Regs Saved         :                                                     *
     5330                   ;*   Stack Frame        : Full (w/ debug)                                     *
     5331                   ;*   Total Frame Size   : 2 Call + 1 Parm + 0 Auto + 0 SOE = 3 words          *
     5332                   ;******************************************************************************
     5333 00000801          _GP_CLEAN:
     5334                           .sym    _nScreenInf,-2,12,9,32
     5335                           .line   1
     5336                   ;----------------------------------------------------------------------
     5337                   ; 746 | void GP_CLEAN(UCHAR nScreenInf)                                        
     5338                   ;----------------------------------------------------------------------
     5339                           .line   2
     5340                   ;----------------------------------------------------------------------
     5341                   ; 749 | switch(nScreenInf)                                                     
     5342                   ; 751 | case 0x4B:                                                             
     5343                   ;----------------------------------------------------------------------
     5344 00000801 6a200004         bud       L189
     5345 00000802 0f2b0000         push      fp
     5346 00000803 500b0014         ldiu      sp,fp
TMS320C3x/4x COFF AssemblerVersion 5.11     Mon Apr 29 17:36:37 2013
Copyright (c) 1987-1999 Texas Instruments Incorporatedc:\lang\tms320c3x\511\bin\asm30.exe -l gpproface.asm gpproface.obj -tC:\Users\JDS\AppData\Local\Temp\gpproface.tmp 

gpproface.asm                                                        PAGE  100

     5347 00000804 50400b02         ldiu      *-fp(2),r0
     5348                   ;*      Branch Occurs to L189 
     5349 00000805          L187:        
     5350                           .line   7
     5351                   ;----------------------------------------------------------------------
     5352                   ; 752 | nSccSendFlag.nClean = 1;                                               
     5353                   ;----------------------------------------------------------------------
     5354 00000805 50600001         ldiu      1,r0
     5355 00000806 15200003!        sti       r0,@_nSccSendFlag+3
     5356                           .line   8
     5357                   ;----------------------------------------------------------------------
     5358                   ; 753 | break;                                                                 
     5359                   ;----------------------------------------------------------------------
     5360 00000807 6a000002         bu        L190
     5361                   ;*      Branch Occurs to L190 
     5362                           .line   4
     5363 00000808          L189:        
     5364 00000808 04e0004b         cmpi      75,r0
     5365 00000809 6a05fffb         beq       L187
     5366                   ;*      Branch Occurs to L187 
     5367 0000080a          L190:        
     5368                           .line   11
     5369 0000080a 50410b01         ldiu      *-fp(1),r1
     5370 0000080b 504bc300         ldiu      *fp,fp
     5371 0000080c 18740002         subi      2,sp
     5372 0000080d 68000001         bu        r1
     5373                   ;*      Branch Occurs to r1 
     5374                           .endfunc        756,000000000h,0
     5375                   
     5376                   
     5377 0000080e                  .sect    ".text"
     5378                   
     5379                           .global _GP_STATE_SCREEN
     5380                           .sym    _GP_STATE_SCREEN,_GP_STATE_SCREEN,32,2,0
     5381                           .func   760
     5382                   ;******************************************************************************
     5383                   ;* FUNCTION NAME: _GP_STATE_SCREEN                                            *
     5384                   ;*                                                                            *
     5385                   ;*   Architecture       : TMS320C30                                           *
     5386                   ;*   Calling Convention : Stack Parameter Convention                          *
     5387                   ;*   Function Uses Regs : r0,r1,r2,fp,sp,st                                   *
     5388                   ;*   Regs Saved         :                                                     *
     5389                   ;*   Stack Frame        : Full (w/ debug)                                     *
     5390                   ;*   Total Frame Size   : 2 Call + 1 Parm + 30 Auto + 0 SOE = 33 words        *
     5391                   ;******************************************************************************
     5392 0000080e          _GP_STATE_SCREEN:
     5393                           .sym    _nScreenInf,-2,12,9,32
     5394                           .sym    _sClean_Buf,1,60,1,960,,30
     5395                           .line   1
     5396                   ;----------------------------------------------------------------------
     5397                   ; 760 | void GP_STATE_SCREEN(UCHAR nScreenInf)                                 
     5398                   ;----------------------------------------------------------------------
     5399                           .line   2
     5400                   ;----------------------------------------------------------------------
TMS320C3x/4x COFF AssemblerVersion 5.11     Mon Apr 29 17:36:37 2013
Copyright (c) 1987-1999 Texas Instruments Incorporatedc:\lang\tms320c3x\511\bin\asm30.exe -l gpproface.asm gpproface.obj -tC:\Users\JDS\AppData\Local\Temp\gpproface.tmp 

gpproface.asm                                                        PAGE  101

     5401                   ; 762 | UCHAR sClean_Buf[30];                                                  
     5402                   ; 763 | switch(nScreenInf)                                                     
     5403                   ; 765 | case 0x33: //                                                  
     5404                   ;----------------------------------------------------------------------
     5405 0000080e 6a20001d         bud       L196
     5406 0000080f 0f2b0000         push      fp
     5407 00000810 500b0014         ldiu      sp,fp
     5408 00000811 0274001e         addi      30,sp
     5409                   ;*      Branch Occurs to L196 
     5410                           .line   7
     5411                   ;----------------------------------------------------------------------
     5412                   ; 766 | memset(sClean_Buf,0x20,30);                                            
     5413                   ;----------------------------------------------------------------------
     5414 00000812          L194:        
     5415 00000812 0f220000         push      r2
     5416 00000813 02600001         addi      1,r0
     5417 00000814 0f210000         push      r1
     5418 00000815 0f200000         push      r0
     5419 00000816 62000000!        call      _memset
     5420                                                           ; Call Occurs
     5421 00000817 18740003         subi      3,sp
     5422                           .line   8
     5423                   ;----------------------------------------------------------------------
     5424                   ; 767 | gp_WritingStr(300,15,sClean_Buf);                                      
     5425                   ;----------------------------------------------------------------------
     5426 00000818 5000000b         ldiu      fp,r0
     5427 00000819 5061000f         ldiu      15,r1
     5428 0000081a 5062012c         ldiu      300,r2
     5429 0000081b 02600001         addi      1,r0
     5430 0000081c 0f200000         push      r0
     5431 0000081d 0f210000         push      r1
     5432 0000081e 0f220000         push      r2
     5433 0000081f 620000ba'        call      _gp_WritingStr
     5434                                                           ; Call Occurs
     5435 00000820 18740003         subi      3,sp
     5436                           .line   10
     5437                   ;----------------------------------------------------------------------
     5438                   ; 769 | nSelect_Button.nScreenSetNum = 1;                                      
     5439                   ;----------------------------------------------------------------------
     5440 00000821 50600001         ldiu      1,r0
     5441 00000822 15200205-        sti       r0,@_nSelect_Button+10
     5442                           .line   11
     5443                   ;----------------------------------------------------------------------
     5444                   ; 770 | nTr_St_Info.nSinmuScrCnt = 0;                                          
     5445                   ;----------------------------------------------------------------------
     5446 00000823 50600000         ldiu      0,r0
     5447 00000824 152000d6!        sti       r0,@_nTr_St_Info+214
     5448                           .line   13
     5449                   ;----------------------------------------------------------------------
     5450                   ; 772 | nLedDataLoad.nFDDSelt = FALSE;                                         
     5451                   ;----------------------------------------------------------------------
     5452 00000825 15200001!        sti       r0,@_nLedDataLoad+1
     5453                           .line   14
     5454                   ;----------------------------------------------------------------------
TMS320C3x/4x COFF AssemblerVersion 5.11     Mon Apr 29 17:36:37 2013
Copyright (c) 1987-1999 Texas Instruments Incorporatedc:\lang\tms320c3x\511\bin\asm30.exe -l gpproface.asm gpproface.obj -tC:\Users\JDS\AppData\Local\Temp\gpproface.tmp 

gpproface.asm                                                        PAGE  102

     5455                   ; 773 | nLedDataLoad.nSDDSelt = FALSE;                                         
     5456                   ;----------------------------------------------------------------------
     5457 00000826 15200000!        sti       r0,@_nLedDataLoad+0
     5458                           .line   16
     5459                   ;----------------------------------------------------------------------
     5460                   ; 775 | gpSTATE;                                                               
     5461                   ;----------------------------------------------------------------------
     5462 00000827 5060003c         ldiu      60,r0
     5463 00000828 5061000f         ldiu      15,r1
     5464 00000829 0f200000         push      r0
     5465 0000082a 0f210000         push      r1
     5466 0000082b 6200004d'        call      _gp_WritingWord
     5467                                                           ; Call Occurs
     5468 0000082c 18740002         subi      2,sp
     5469                           .line   17
     5470                   ;----------------------------------------------------------------------
     5471                   ; 776 | break;                                                                 
     5472                   ;----------------------------------------------------------------------
     5473 0000082d 6a000006         bu        L197
     5474                   ;*      Branch Occurs to L197 
     5475 0000082e          L196:        
     5476                           .line   4
     5477 0000082e 50400b02         ldiu      *-fp(2),r0
     5478 0000082f 04e00033         cmpi      51,r0
     5479 00000830 6a25ffdf         beqd      L194
     5480 00000831 52e2001e         ldieq     30,r2
     5481 00000832 5280000b         ldieq     fp,r0
     5482 00000833 52e10020         ldieq     32,r1
     5483                   ;*      Branch Occurs to L194 
     5484 00000834          L197:        
     5485                           .line   19
     5486 00000834 50530b01         ldiu      *-fp(1),bk
     5487 00000835 504bc300         ldiu      *fp,fp
     5488 00000836 18740020         subi      32,sp
     5489 00000837 68000013         bu        bk
     5490                   ;*      Branch Occurs to bk 
     5491                           .endfunc        778,000000000h,30
     5492                   
     5493                   
     5494 00000838                  .sect    ".text"
     5495                   
     5496                           .global _GP_MANUAL_SCREEN
     5497                           .sym    _GP_MANUAL_SCREEN,_GP_MANUAL_SCREEN,32,2,0
     5498                           .func   782
     5499                   ;******************************************************************************
     5500                   ;* FUNCTION NAME: _GP_MANUAL_SCREEN                                           *
     5501                   ;*                                                                            *
     5502                   ;*   Architecture       : TMS320C30                                           *
     5503                   ;*   Calling Convention : Stack Parameter Convention                          *
     5504                   ;*   Function Uses Regs : r0,r1,r2,ar0,ar1,fp,sp,st,rs,re,rc                  *
     5505                   ;*   Regs Saved         :                                                     *
     5506                   ;*   Stack Frame        : Full (w/ debug)                                     *
     5507                   ;*   Total Frame Size   : 2 Call + 1 Parm + 70 Auto + 0 SOE = 73 words        *
     5508                   ;******************************************************************************
TMS320C3x/4x COFF AssemblerVersion 5.11     Mon Apr 29 17:36:37 2013
Copyright (c) 1987-1999 Texas Instruments Incorporatedc:\lang\tms320c3x\511\bin\asm30.exe -l gpproface.asm gpproface.obj -tC:\Users\JDS\AppData\Local\Temp\gpproface.tmp 

gpproface.asm                                                        PAGE  103

     5509 00000838          _GP_MANUAL_SCREEN:
     5510                           .sym    _nScreenInf,-2,12,9,32
     5511                           .sym    _sManual_Buf,1,60,1,1280,,40
     5512                           .sym    _sManual_ClenBuf,41,60,1,960,,30
     5513                           .line   1
     5514                   ;----------------------------------------------------------------------
     5515                   ; 782 | void GP_MANUAL_SCREEN(UCHAR nScreenInf)                                
     5516                   ;----------------------------------------------------------------------
     5517 00000838 0f2b0000         push      fp
     5518 00000839 500b0014         ldiu      sp,fp
     5519 0000083a 02740046         addi      70,sp
     5520                           .line   2
     5521                   ;----------------------------------------------------------------------
     5522                   ; 784 | UCHAR sManual_Buf[40];                                                 
     5523                   ; 785 | UCHAR sManual_ClenBuf[30];                                             
     5524                   ;----------------------------------------------------------------------
     5525                           .line   5
     5526                   ;----------------------------------------------------------------------
     5527                   ; 786 | memset(sManual_Buf,0x20,40);                                           
     5528                   ;----------------------------------------------------------------------
     5529 0000083b 50620028         ldiu      40,r2
     5530 0000083c 50610020         ldiu      32,r1
     5531 0000083d 5000000b         ldiu      fp,r0
     5532 0000083e 0f220000         push      r2
     5533 0000083f 02600001         addi      1,r0
     5534 00000840 0f210000         push      r1
     5535 00000841 0f200000         push      r0
     5536 00000842 62000000!        call      _memset
     5537                                                           ; Call Occurs
     5538 00000843 18740003         subi      3,sp
     5539                           .line   6
     5540                   ;----------------------------------------------------------------------
     5541                   ; 787 | memset(sManual_ClenBuf,0x20,30);                                       
     5542                   ;----------------------------------------------------------------------
     5543 00000844 5062001e         ldiu      30,r2
     5544 00000845 50610020         ldiu      32,r1
     5545 00000846 5000000b         ldiu      fp,r0
     5546 00000847 0f220000         push      r2
     5547 00000848 02600029         addi      41,r0
     5548 00000849 0f210000         push      r1
     5549 0000084a 0f200000         push      r0
     5550 0000084b 62000000!        call      _memset
     5551                                                           ; Call Occurs
     5552 0000084c 18740003         subi      3,sp
     5553                           .line   8
     5554                   ;----------------------------------------------------------------------
     5555                   ; 789 | memcpy(sManual_Buf,(UCHAR *)"The Next Station ",17);                   
     5556                   ;----------------------------------------------------------------------
     5557 0000084d 5029022d-        ldiu      @CL37,ar1
     5558 0000084e 5008000b         ldiu      fp,ar0
     5559 0000084f 02680001         addi      1,ar0
     5560 00000850 50402101         ldiu      *ar1++(1),r0
     5561 00000851 13fb000f         rpts      15                    ; Fast MEMCPY(#27)
     5562 00000852 da002021         sti       r0,*ar0++(1)
TMS320C3x/4x COFF AssemblerVersion 5.11     Mon Apr 29 17:36:37 2013
Copyright (c) 1987-1999 Texas Instruments Incorporatedc:\lang\tms320c3x\511\bin\asm30.exe -l gpproface.asm gpproface.obj -tC:\Users\JDS\AppData\Local\Temp\gpproface.tmp 

gpproface.asm                                                        PAGE  104

     5563                   ||      ldi       *ar1++(1),r0
     5564 00000853 15402001         sti       r0,*ar0++(1)
     5565                           .line   10
     5566                   ;----------------------------------------------------------------------
     5567                   ; 791 | memcpy(&sManual_Buf[17],nTr_St_Info.nGpStName.nNext,15);               
     5568                   ; 793 | switch(nScreenInf)                                                     
     5569                   ; 795 | case 0x3C:      //  .                                          
     5570                   ;----------------------------------------------------------------------
     5571 00000854 5028020e-        ldiu      @CL6,ar0
     5572 00000855 5009000b         ldiu      fp,ar1
     5573 00000856 02690012         addi      18,ar1
     5574 00000857 50402001         ldiu      *ar0++(1),r0
     5575 00000858 13fb000d         rpts      13                    ; Fast MEMCPY(#30)
     5576 00000859 da002120         sti       r0,*ar1++(1)
     5577                   ||      ldi       *ar0++(1),r0
     5578 0000085a 6a20006e         bud       L207
     5579 0000085b 15402101         sti       r0,*ar1++(1)
     5580 0000085c 50400b02         ldiu      *-fp(2),r0
     5581 0000085d 04e0003c         cmpi      60,r0
     5582                   ;*      Branch Occurs to L207 
     5583                           .line   16
     5584                   ;----------------------------------------------------------------------
     5585                   ; 797 | gp_WritingStr(300,15,sManual_ClenBuf);                                 
     5586                   ;----------------------------------------------------------------------
     5587 0000085e          L201:        
     5588 0000085e 02610029         addi      41,r1
     5589 0000085f 0f210000         push      r1
     5590 00000860 0f220000         push      r2
     5591 00000861 0f200000         push      r0
     5592 00000862 620000ba'        call      _gp_WritingStr
     5593                                                           ; Call Occurs
     5594 00000863 18740003         subi      3,sp
     5595                           .line   17
     5596                   ;----------------------------------------------------------------------
     5597                   ; 798 | gp_WritingStr(330,15,sManual_ClenBuf);                                 
     5598                   ;----------------------------------------------------------------------
     5599 00000864 5000000b         ldiu      fp,r0
     5600 00000865 5061000f         ldiu      15,r1
     5601 00000866 5062014a         ldiu      330,r2
     5602 00000867 02600029         addi      41,r0
     5603 00000868 0f200000         push      r0
     5604 00000869 0f210000         push      r1
     5605 0000086a 0f220000         push      r2
     5606 0000086b 620000ba'        call      _gp_WritingStr
     5607                                                           ; Call Occurs
     5608 0000086c 18740003         subi      3,sp
     5609                           .line   19
     5610                   ;----------------------------------------------------------------------
     5611                   ; 800 | nSelect_Button.nScreenSetNum = 2;                                      
     5612                   ;----------------------------------------------------------------------
     5613 0000086d 50600002         ldiu      2,r0
     5614 0000086e 15200205-        sti       r0,@_nSelect_Button+10
     5615                           .line   21
     5616                   ;----------------------------------------------------------------------
TMS320C3x/4x COFF AssemblerVersion 5.11     Mon Apr 29 17:36:37 2013
Copyright (c) 1987-1999 Texas Instruments Incorporatedc:\lang\tms320c3x\511\bin\asm30.exe -l gpproface.asm gpproface.obj -tC:\Users\JDS\AppData\Local\Temp\gpproface.tmp 

gpproface.asm                                                        PAGE  105

     5617                   ; 802 | nTr_St_Info.nSinmuScrCnt = 0;                                          
     5618                   ;----------------------------------------------------------------------
     5619 0000086f 50600000         ldiu      0,r0
     5620 00000870 152000d6!        sti       r0,@_nTr_St_Info+214
     5621                           .line   22
     5622                   ;----------------------------------------------------------------------
     5623                   ; 803 | gpMANU;                                                                
     5624                   ;----------------------------------------------------------------------
     5625 00000871 50610078         ldiu      120,r1
     5626 00000872 5060000f         ldiu      15,r0
     5627 00000873 0f210000         push      r1
     5628 00000874 0f200000         push      r0
     5629 00000875 6200004d'        call      _gp_WritingWord
     5630                                                           ; Call Occurs
     5631 00000876 18740002         subi      2,sp
     5632                           .line   23
     5633                   ;----------------------------------------------------------------------
     5634                   ; 804 | gpMANUINIT;                                                            
     5635                   ;----------------------------------------------------------------------
     5636 00000877 50600055         ldiu      85,r0
     5637 00000878 50610000         ldiu      0,r1
     5638 00000879 0f210000         push      r1
     5639 0000087a 0f200000         push      r0
     5640 0000087b 6200004d'        call      _gp_WritingWord
     5641                                                           ; Call Occurs
     5642 0000087c 18740002         subi      2,sp
     5643 0000087d 50610000         ldiu      0,r1
     5644 0000087e 0f210000         push      r1
     5645 0000087f 50600056         ldiu      86,r0
     5646 00000880 0f200000         push      r0
     5647 00000881 6200004d'        call      _gp_WritingWord
     5648                                                           ; Call Occurs
     5649 00000882 18740002         subi      2,sp
     5650                           .line   24
     5651                   ;----------------------------------------------------------------------
     5652                   ; 805 | gpMANUNOBLK;                                                           
     5653                   ;----------------------------------------------------------------------
     5654 00000883 50610000         ldiu      0,r1
     5655 00000884 50600053         ldiu      83,r0
     5656 00000885 0f210000         push      r1
     5657 00000886 0f200000         push      r0
     5658 00000887 6200004d'        call      _gp_WritingWord
     5659                                                           ; Call Occurs
     5660 00000888 18740002         subi      2,sp
     5661                           .line   26
     5662                   ;----------------------------------------------------------------------
     5663                   ; 807 | break;                                                                 
     5664                   ; 808 | case 0x4E:  //                                             
     5665                   ;----------------------------------------------------------------------
     5666 00000889 6a00004f         bu        L210
     5667                   ;*      Branch Occurs to L210 
     5668                           .line   29
     5669                   ;----------------------------------------------------------------------
     5670                   ; 810 | gp_WritingStr(330,15,sManual_ClenBuf);                                 
TMS320C3x/4x COFF AssemblerVersion 5.11     Mon Apr 29 17:36:37 2013
Copyright (c) 1987-1999 Texas Instruments Incorporatedc:\lang\tms320c3x\511\bin\asm30.exe -l gpproface.asm gpproface.obj -tC:\Users\JDS\AppData\Local\Temp\gpproface.tmp 

gpproface.asm                                                        PAGE  106

     5671                   ;----------------------------------------------------------------------
     5672 0000088a          L203:        
     5673 0000088a 02600029         addi      41,r0
     5674 0000088b 0f200000         push      r0
     5675 0000088c 0f210000         push      r1
     5676 0000088d 0f220000         push      r2
     5677 0000088e 620000ba'        call      _gp_WritingStr
     5678                                                           ; Call Occurs
     5679 0000088f 18740003         subi      3,sp
     5680                           .line   30
     5681                   ;----------------------------------------------------------------------
     5682                   ; 811 | gp_WritingStr(300,15,sManual_Buf);                                     
     5683                   ;----------------------------------------------------------------------
     5684 00000890 5000000b         ldiu      fp,r0
     5685 00000891 5061000f         ldiu      15,r1
     5686 00000892 5062012c         ldiu      300,r2
     5687 00000893 02600001         addi      1,r0
     5688 00000894 0f200000         push      r0
     5689 00000895 0f210000         push      r1
     5690 00000896 0f220000         push      r2
     5691 00000897 620000ba'        call      _gp_WritingStr
     5692                                                           ; Call Occurs
     5693 00000898 18740003         subi      3,sp
     5694                           .line   32
     5695                   ;----------------------------------------------------------------------
     5696                   ; 813 | gpNOWBLK;                                                              
     5697                   ;----------------------------------------------------------------------
     5698 00000899 50600001         ldiu      1,r0
     5699 0000089a 0f200000         push      r0
     5700 0000089b 50610053         ldiu      83,r1
     5701 0000089c 0f210000         push      r1
     5702 0000089d 6200004d'        call      _gp_WritingWord
     5703                                                           ; Call Occurs
     5704 0000089e 18740002         subi      2,sp
     5705                           .line   33
     5706                   ;----------------------------------------------------------------------
     5707                   ; 814 | gpMANUOKBLK;                                                           
     5708                   ;----------------------------------------------------------------------
     5709 0000089f 50610055         ldiu      85,r1
     5710 000008a0 50600001         ldiu      1,r0
     5711 000008a1 0f200000         push      r0
     5712 000008a2 0f210000         push      r1
     5713 000008a3 6200004d'        call      _gp_WritingWord
     5714                                                           ; Call Occurs
     5715 000008a4 18740002         subi      2,sp
     5716                           .line   34
     5717                   ;----------------------------------------------------------------------
     5718                   ; 815 | break;                                                                 
     5719                   ; 816 | case 0x56:                                                             
     5720                   ;----------------------------------------------------------------------
     5721 000008a5 6a000033         bu        L210
     5722                   ;*      Branch Occurs to L210 
     5723                           .line   36
     5724                   ;----------------------------------------------------------------------
TMS320C3x/4x COFF AssemblerVersion 5.11     Mon Apr 29 17:36:37 2013
Copyright (c) 1987-1999 Texas Instruments Incorporatedc:\lang\tms320c3x\511\bin\asm30.exe -l gpproface.asm gpproface.obj -tC:\Users\JDS\AppData\Local\Temp\gpproface.tmp 

gpproface.asm                                                        PAGE  107

     5725                   ; 817 | gp_WritingStr(300,15,sManual_ClenBuf);                                 
     5726                   ;----------------------------------------------------------------------
     5727 000008a6          L205:        
     5728 000008a6 02600029         addi      41,r0
     5729 000008a7 0f200000         push      r0
     5730 000008a8 0f210000         push      r1
     5731 000008a9 0f220000         push      r2
     5732 000008aa 620000ba'        call      _gp_WritingStr
     5733                                                           ; Call Occurs
     5734 000008ab 18740003         subi      3,sp
     5735                           .line   37
     5736                   ;----------------------------------------------------------------------
     5737                   ; 818 | gp_WritingStr(330,15,sManual_Buf);                                     
     5738                   ;----------------------------------------------------------------------
     5739 000008ac 5000000b         ldiu      fp,r0
     5740 000008ad 5061000f         ldiu      15,r1
     5741 000008ae 5062014a         ldiu      330,r2
     5742 000008af 02600001         addi      1,r0
     5743 000008b0 0f200000         push      r0
     5744 000008b1 0f210000         push      r1
     5745 000008b2 0f220000         push      r2
     5746 000008b3 620000ba'        call      _gp_WritingStr
     5747                                                           ; Call Occurs
     5748 000008b4 18740003         subi      3,sp
     5749                           .line   39
     5750                   ;----------------------------------------------------------------------
     5751                   ; 820 | gpMANUNOBLK;                                                           
     5752                   ;----------------------------------------------------------------------
     5753 000008b5 50600000         ldiu      0,r0
     5754 000008b6 0f200000         push      r0
     5755 000008b7 50610053         ldiu      83,r1
     5756 000008b8 0f210000         push      r1
     5757 000008b9 6200004d'        call      _gp_WritingWord
     5758                                                           ; Call Occurs
     5759 000008ba 18740002         subi      2,sp
     5760                           .line   40
     5761                   ;----------------------------------------------------------------------
     5762                   ; 821 | gpMANUINIT;                                                            
     5763                   ;----------------------------------------------------------------------
     5764 000008bb 50610055         ldiu      85,r1
     5765 000008bc 50600000         ldiu      0,r0
     5766 000008bd 0f200000         push      r0
     5767 000008be 0f210000         push      r1
     5768 000008bf 6200004d'        call      _gp_WritingWord
     5769                                                           ; Call Occurs
     5770 000008c0 18740002         subi      2,sp
     5771 000008c1 50600000         ldiu      0,r0
     5772 000008c2 50610056         ldiu      86,r1
     5773 000008c3 0f200000         push      r0
     5774 000008c4 0f210000         push      r1
     5775 000008c5 6200004d'        call      _gp_WritingWord
     5776                                                           ; Call Occurs
     5777 000008c6 18740002         subi      2,sp
     5778                           .line   42
TMS320C3x/4x COFF AssemblerVersion 5.11     Mon Apr 29 17:36:37 2013
Copyright (c) 1987-1999 Texas Instruments Incorporatedc:\lang\tms320c3x\511\bin\asm30.exe -l gpproface.asm gpproface.obj -tC:\Users\JDS\AppData\Local\Temp\gpproface.tmp 

gpproface.asm                                                        PAGE  108

     5779                   ;----------------------------------------------------------------------
     5780                   ; 823 | nSelect_Button.nScreenSetNum = 2;                                      
     5781                   ;----------------------------------------------------------------------
     5782 000008c7 50600002         ldiu      2,r0
     5783 000008c8 15200205-        sti       r0,@_nSelect_Button+10
     5784                           .line   44
     5785                   ;----------------------------------------------------------------------
     5786                   ; 825 | nSccSendFlag.nManualSet = 2;                                           
     5787                   ;----------------------------------------------------------------------
     5788 000008c9 1520000c!        sti       r0,@_nSccSendFlag+12
     5789                           .line   46
     5790                   ;----------------------------------------------------------------------
     5791                   ; 827 | break;                                                                 
     5792                   ;----------------------------------------------------------------------
     5793 000008ca 6a00000e         bu        L210
     5794                   ;*      Branch Occurs to L210 
     5795                           .line   12
     5796 000008cb          L207:        
     5797 000008cb 6a25ff90         beqd      L201
     5798 000008cc 5281000b         ldieq     fp,r1
     5799 000008cd 52e2000f         ldieq     15,r2
     5800 000008ce 52e0012c         ldieq     300,r0
     5801                   ;*      Branch Occurs to L201 
     5802 000008cf 04e0004e         cmpi      78,r0
     5803 000008d0 6a25ffb7         beqd      L203
     5804 000008d1 5280000b         ldieq     fp,r0
     5805 000008d2 52e1000f         ldieq     15,r1
     5806 000008d3 52e2014a         ldieq     330,r2
     5807                   ;*      Branch Occurs to L203 
     5808 000008d4 04e00056         cmpi      86,r0
     5809 000008d5 6a25ffce         beqd      L205
     5810 000008d6 5280000b         ldieq     fp,r0
     5811 000008d7 52e1000f         ldieq     15,r1
     5812 000008d8 52e2012c         ldieq     300,r2
     5813                   ;*      Branch Occurs to L205 
     5814 000008d9          L210:        
     5815                           .line   48
     5816 000008d9 50530b01         ldiu      *-fp(1),bk
     5817 000008da 504bc300         ldiu      *fp,fp
     5818 000008db 18740048         subi      72,sp
     5819 000008dc 68000013         bu        bk
     5820                   ;*      Branch Occurs to bk 
     5821                           .endfunc        829,000000000h,70
     5822                   
     5823                   
     5824 000008dd                  .sect    ".text"
     5825                   
     5826                           .global _GP_MENU_SCREEN
     5827                           .sym    _GP_MENU_SCREEN,_GP_MENU_SCREEN,32,2,0
     5828                           .func   833
     5829                   ;******************************************************************************
     5830                   ;* FUNCTION NAME: _GP_MENU_SCREEN                                             *
     5831                   ;*                                                                            *
     5832                   ;*   Architecture       : TMS320C30                                           *
TMS320C3x/4x COFF AssemblerVersion 5.11     Mon Apr 29 17:36:37 2013
Copyright (c) 1987-1999 Texas Instruments Incorporatedc:\lang\tms320c3x\511\bin\asm30.exe -l gpproface.asm gpproface.obj -tC:\Users\JDS\AppData\Local\Temp\gpproface.tmp 

gpproface.asm                                                        PAGE  109

     5833                   ;*   Calling Convention : Stack Parameter Convention                          *
     5834                   ;*   Function Uses Regs : r0,r1,fp,sp,st                                      *
     5835                   ;*   Regs Saved         :                                                     *
     5836                   ;*   Stack Frame        : Full (w/ debug)                                     *
     5837                   ;*   Total Frame Size   : 2 Call + 1 Parm + 0 Auto + 0 SOE = 3 words          *
     5838                   ;******************************************************************************
     5839 000008dd          _GP_MENU_SCREEN:
     5840                           .sym    _nScreenInf,-2,12,9,32
     5841                           .line   1
     5842                   ;----------------------------------------------------------------------
     5843                   ; 833 | void GP_MENU_SCREEN(UCHAR nScreenInf)                                  
     5844                   ;----------------------------------------------------------------------
     5845                           .line   2
     5846                   ;----------------------------------------------------------------------
     5847                   ; 835 | switch(nScreenInf)                                                     
     5848                   ; 837 | case 0x32://                                                   
     5849                   ;----------------------------------------------------------------------
     5850 000008dd 6a20000a         bud       L215
     5851 000008de 0f2b0000         push      fp
     5852 000008df 500b0014         ldiu      sp,fp
     5853 000008e0 50400b02         ldiu      *-fp(2),r0
     5854                   ;*      Branch Occurs to L215 
     5855 000008e1          L213:        
     5856                           .line   6
     5857                   ;----------------------------------------------------------------------
     5858                   ; 838 | nSelect_Button.nScreenSetNum = 0;                                      
     5859                   ;----------------------------------------------------------------------
     5860 000008e1 50600000         ldiu      0,r0
     5861 000008e2 15200205-        sti       r0,@_nSelect_Button+10
     5862                           .line   7
     5863                   ;----------------------------------------------------------------------
     5864                   ; 839 | gpMENU;                                                                
     5865                   ;----------------------------------------------------------------------
     5866 000008e3 5061000f         ldiu      15,r1
     5867 000008e4 50600041         ldiu      65,r0
     5868 000008e5 0f200000         push      r0
     5869 000008e6 0f210000         push      r1
     5870 000008e7 6200004d'        call      _gp_WritingWord
     5871                                                           ; Call Occurs
     5872 000008e8 18740002         subi      2,sp
     5873                           .line   9
     5874                   ;----------------------------------------------------------------------
     5875                   ; 841 | break;                                                                 
     5876                   ;----------------------------------------------------------------------
     5877 000008e9 6a000002         bu        L216
     5878                   ;*      Branch Occurs to L216 
     5879                           .line   3
     5880 000008ea          L215:        
     5881 000008ea 04e00032         cmpi      50,r0
     5882 000008eb 6a05fff5         beq       L213
     5883                   ;*      Branch Occurs to L213 
     5884 000008ec          L216:        
     5885                           .line   11
     5886 000008ec 50530b01         ldiu      *-fp(1),bk
TMS320C3x/4x COFF AssemblerVersion 5.11     Mon Apr 29 17:36:37 2013
Copyright (c) 1987-1999 Texas Instruments Incorporatedc:\lang\tms320c3x\511\bin\asm30.exe -l gpproface.asm gpproface.obj -tC:\Users\JDS\AppData\Local\Temp\gpproface.tmp 

gpproface.asm                                                        PAGE  110

     5887 000008ed 504bc300         ldiu      *fp,fp
     5888 000008ee 18740002         subi      2,sp
     5889 000008ef 68000013         bu        bk
     5890                   ;*      Branch Occurs to bk 
     5891                           .endfunc        843,000000000h,0
     5892                   
     5893                   
     5894 000008f0                  .sect    ".text"
     5895                   
     5896                           .global _GP_SDR_SCREEN
     5897                           .sym    _GP_SDR_SCREEN,_GP_SDR_SCREEN,32,2,0
     5898                           .func   847
     5899                   ;******************************************************************************
     5900                   ;* FUNCTION NAME: _GP_SDR_SCREEN                                              *
     5901                   ;*                                                                            *
     5902                   ;*   Architecture       : TMS320C30                                           *
     5903                   ;*   Calling Convention : Stack Parameter Convention                          *
     5904                   ;*   Function Uses Regs : r0,r1,r2,fp,sp,st                                   *
     5905                   ;*   Regs Saved         :                                                     *
     5906                   ;*   Stack Frame        : Full (w/ debug)                                     *
     5907                   ;*   Total Frame Size   : 2 Call + 1 Parm + 100 Auto + 0 SOE = 103 words      *
     5908                   ;******************************************************************************
     5909 000008f0          _GP_SDR_SCREEN:
     5910                           .sym    _nScreenInf,-2,12,9,32
     5911                           .sym    _sClBuf,1,60,1,3200,,100
     5912                           .line   1
     5913                   ;----------------------------------------------------------------------
     5914                   ; 847 | void GP_SDR_SCREEN(UCHAR nScreenInf)                                   
     5915                   ;----------------------------------------------------------------------
     5916                           .line   2
     5917                   ;----------------------------------------------------------------------
     5918                   ; 849 | UCHAR sClBuf[100];                                                     
     5919                   ; 851 | switch(nScreenInf)                                                     
     5920                   ; 853 | case 114://                                              
     5921                   ;----------------------------------------------------------------------
     5922 000008f0 6a200065         bud       L222
     5923 000008f1 0f2b0000         push      fp
     5924 000008f2 500b0014         ldiu      sp,fp
     5925 000008f3 02740064         addi      100,sp
     5926                   ;*      Branch Occurs to L222 
     5927 000008f4          L219:        
     5928                           .line   8
     5929                   ;----------------------------------------------------------------------
     5930                   ; 854 | nSelect_Button.nScreenSetNum = 8;                                      
     5931                   ;----------------------------------------------------------------------
     5932 000008f4 50600008         ldiu      8,r0
     5933 000008f5 15200205-        sti       r0,@_nSelect_Button+10
     5934                           .line   9
     5935                   ;----------------------------------------------------------------------
     5936                   ; 855 | nSelect_Button.nScreenRxTime = 1000;                                   
     5937                   ;----------------------------------------------------------------------
     5938 000008f6 506003e8         ldiu      1000,r0
     5939 000008f7 15200206-        sti       r0,@_nSelect_Button+11
     5940                           .line   11
TMS320C3x/4x COFF AssemblerVersion 5.11     Mon Apr 29 17:36:37 2013
Copyright (c) 1987-1999 Texas Instruments Incorporatedc:\lang\tms320c3x\511\bin\asm30.exe -l gpproface.asm gpproface.obj -tC:\Users\JDS\AppData\Local\Temp\gpproface.tmp 

gpproface.asm                                                        PAGE  111

     5941                   ;----------------------------------------------------------------------
     5942                   ; 857 | memset(sClBuf,0x00,100);                                               
     5943                   ;----------------------------------------------------------------------
     5944 000008f8 50620064         ldiu      100,r2
     5945 000008f9 50610000         ldiu      0,r1
     5946 000008fa 5000000b         ldiu      fp,r0
     5947 000008fb 0f220000         push      r2
     5948 000008fc 02600001         addi      1,r0
     5949 000008fd 0f210000         push      r1
     5950 000008fe 0f200000         push      r0
     5951 000008ff 62000000!        call      _memset
     5952                                                           ; Call Occurs
     5953 00000900 18740003         subi      3,sp
     5954                           .line   13
     5955                   ;----------------------------------------------------------------------
     5956                   ; 859 | gp_WritingStr(400,40,sClBuf);                                          
     5957                   ;----------------------------------------------------------------------
     5958 00000901 5000000b         ldiu      fp,r0
     5959 00000902 50620028         ldiu      40,r2
     5960 00000903 50610190         ldiu      400,r1
     5961 00000904 02600001         addi      1,r0
     5962 00000905 0f200000         push      r0
     5963 00000906 0f220000         push      r2
     5964 00000907 0f210000         push      r1
     5965 00000908 620000ba'        call      _gp_WritingStr
     5966                                                           ; Call Occurs
     5967 00000909 18740003         subi      3,sp
     5968                           .line   14
     5969                   ;----------------------------------------------------------------------
     5970                   ; 860 | gp_WritingStr(500,40,sClBuf);                                          
     5971                   ;----------------------------------------------------------------------
     5972 0000090a 50610028         ldiu      40,r1
     5973 0000090b 5000000b         ldiu      fp,r0
     5974 0000090c 02600001         addi      1,r0
     5975 0000090d 0f200000         push      r0
     5976 0000090e 506201f4         ldiu      500,r2
     5977 0000090f 0f210000         push      r1
     5978 00000910 0f220000         push      r2
     5979 00000911 620000ba'        call      _gp_WritingStr
     5980                                                           ; Call Occurs
     5981 00000912 18740003         subi      3,sp
     5982                           .line   15
     5983                   ;----------------------------------------------------------------------
     5984                   ; 861 | gp_WritingStr(600,10,sClBuf);                                          
     5985                   ;----------------------------------------------------------------------
     5986 00000913 5062000a         ldiu      10,r2
     5987 00000914 5000000b         ldiu      fp,r0
     5988 00000915 02600001         addi      1,r0
     5989 00000916 0f200000         push      r0
     5990 00000917 0f220000         push      r2
     5991 00000918 50610258         ldiu      600,r1
     5992 00000919 0f210000         push      r1
     5993 0000091a 620000ba'        call      _gp_WritingStr
     5994                                                           ; Call Occurs
TMS320C3x/4x COFF AssemblerVersion 5.11     Mon Apr 29 17:36:37 2013
Copyright (c) 1987-1999 Texas Instruments Incorporatedc:\lang\tms320c3x\511\bin\asm30.exe -l gpproface.asm gpproface.obj -tC:\Users\JDS\AppData\Local\Temp\gpproface.tmp 

gpproface.asm                                                        PAGE  112

     5995 0000091b 18740003         subi      3,sp
     5996                           .line   18
     5997                   ;----------------------------------------------------------------------
     5998                   ; 864 | gpSDR_SCREEN;                                                          
     5999                   ;----------------------------------------------------------------------
     6000 0000091c 50610085         ldiu      133,r1
     6001 0000091d 0f210000         push      r1
     6002 0000091e 5060000f         ldiu      15,r0
     6003 0000091f 0f200000         push      r0
     6004 00000920 6200004d'        call      _gp_WritingWord
     6005                                                           ; Call Occurs
     6006 00000921 18740002         subi      2,sp
     6007                           .line   19
     6008                   ;----------------------------------------------------------------------
     6009                   ; 865 | gpDoorCLOSE;                                                           
     6010                   ;----------------------------------------------------------------------
     6011 00000922 50610000         ldiu      0,r1
     6012 00000923 50600064         ldiu      100,r0
     6013 00000924 0f210000         push      r1
     6014 00000925 0f200000         push      r0
     6015 00000926 6200004d'        call      _gp_WritingWord
     6016                                                           ; Call Occurs
     6017 00000927 18740002         subi      2,sp
     6018                           .line   21
     6019                   ;----------------------------------------------------------------------
     6020                   ; 867 | break;                                                                 
     6021                   ; 868 | case 120:                                                              
     6022                   ;----------------------------------------------------------------------
     6023 00000928 6a000034         bu        L224
     6024                   ;*      Branch Occurs to L224 
     6025 00000929          L220:        
     6026                           .line   23
     6027                   ;----------------------------------------------------------------------
     6028                   ; 869 | nSelect_Button.nScreenSetNum = 10;                                     
     6029                   ;----------------------------------------------------------------------
     6030 00000929 5060000a         ldiu      10,r0
     6031 0000092a 15200205-        sti       r0,@_nSelect_Button+10
     6032                           .line   24
     6033                   ;----------------------------------------------------------------------
     6034                   ; 870 | nSelect_Button.nScreenRxTime = 1000;                                   
     6035                   ;----------------------------------------------------------------------
     6036 0000092b 506003e8         ldiu      1000,r0
     6037 0000092c 15200206-        sti       r0,@_nSelect_Button+11
     6038                           .line   26
     6039                   ;----------------------------------------------------------------------
     6040                   ; 872 | memset(sClBuf,0x00,100);                                               
     6041                   ;----------------------------------------------------------------------
     6042 0000092d 50620064         ldiu      100,r2
     6043 0000092e 50610000         ldiu      0,r1
     6044 0000092f 5000000b         ldiu      fp,r0
     6045 00000930 0f220000         push      r2
     6046 00000931 02600001         addi      1,r0
     6047 00000932 0f210000         push      r1
     6048 00000933 0f200000         push      r0
TMS320C3x/4x COFF AssemblerVersion 5.11     Mon Apr 29 17:36:37 2013
Copyright (c) 1987-1999 Texas Instruments Incorporatedc:\lang\tms320c3x\511\bin\asm30.exe -l gpproface.asm gpproface.obj -tC:\Users\JDS\AppData\Local\Temp\gpproface.tmp 

gpproface.asm                                                        PAGE  113

     6049 00000934 62000000!        call      _memset
     6050                                                           ; Call Occurs
     6051 00000935 18740003         subi      3,sp
     6052                           .line   28
     6053                   ;----------------------------------------------------------------------
     6054                   ; 874 | gp_WritingStr(400,40,sClBuf);                                          
     6055                   ;----------------------------------------------------------------------
     6056 00000936 5000000b         ldiu      fp,r0
     6057 00000937 50620028         ldiu      40,r2
     6058 00000938 50610190         ldiu      400,r1
     6059 00000939 02600001         addi      1,r0
     6060 0000093a 0f200000         push      r0
     6061 0000093b 0f220000         push      r2
     6062 0000093c 0f210000         push      r1
     6063 0000093d 620000ba'        call      _gp_WritingStr
     6064                                                           ; Call Occurs
     6065 0000093e 18740003         subi      3,sp
     6066                           .line   29
     6067                   ;----------------------------------------------------------------------
     6068                   ; 875 | gp_WritingStr(500,40,sClBuf);                                          
     6069                   ;----------------------------------------------------------------------
     6070 0000093f 50610028         ldiu      40,r1
     6071 00000940 5000000b         ldiu      fp,r0
     6072 00000941 02600001         addi      1,r0
     6073 00000942 0f200000         push      r0
     6074 00000943 506201f4         ldiu      500,r2
     6075 00000944 0f210000         push      r1
     6076 00000945 0f220000         push      r2
     6077 00000946 620000ba'        call      _gp_WritingStr
     6078                                                           ; Call Occurs
     6079 00000947 18740003         subi      3,sp
     6080                           .line   30
     6081                   ;----------------------------------------------------------------------
     6082                   ; 876 | gp_WritingStr(600,10,sClBuf);                                          
     6083                   ;----------------------------------------------------------------------
     6084 00000948 5062000a         ldiu      10,r2
     6085 00000949 5000000b         ldiu      fp,r0
     6086 0000094a 02600001         addi      1,r0
     6087 0000094b 0f200000         push      r0
     6088 0000094c 0f220000         push      r2
     6089 0000094d 50610258         ldiu      600,r1
     6090 0000094e 0f210000         push      r1
     6091 0000094f 620000ba'        call      _gp_WritingStr
     6092                                                           ; Call Occurs
     6093 00000950 18740003         subi      3,sp
     6094                           .line   32
     6095                   ;----------------------------------------------------------------------
     6096                   ; 878 | gpPASDR_SCREEN;                                                        
     6097                   ;----------------------------------------------------------------------
     6098 00000951 50600088         ldiu      136,r0
     6099 00000952 0f200000         push      r0
     6100 00000953 5061000f         ldiu      15,r1
     6101 00000954 0f210000         push      r1
     6102 00000955 6200004d'        call      _gp_WritingWord
TMS320C3x/4x COFF AssemblerVersion 5.11     Mon Apr 29 17:36:37 2013
Copyright (c) 1987-1999 Texas Instruments Incorporatedc:\lang\tms320c3x\511\bin\asm30.exe -l gpproface.asm gpproface.obj -tC:\Users\JDS\AppData\Local\Temp\gpproface.tmp 

gpproface.asm                                                        PAGE  114

     6103                                                           ; Call Occurs
     6104 00000956 18740002         subi      2,sp
     6105                           .line   35
     6106                   ;----------------------------------------------------------------------
     6107                   ; 881 | break;                                                                 
     6108                   ;----------------------------------------------------------------------
     6109 00000957 6a000005         bu        L224
     6110                   ;*      Branch Occurs to L224 
     6111 00000958          L222:        
     6112                           .line   5
     6113 00000958 50400b02         ldiu      *-fp(2),r0
     6114 00000959 04e00072         cmpi      114,r0
     6115 0000095a 6a05ff99         beq       L219
     6116                   ;*      Branch Occurs to L219 
     6117 0000095b 04e00078         cmpi      120,r0
     6118 0000095c 6a05ffcc         beq       L220
     6119                   ;*      Branch Occurs to L220 
     6120 0000095d          L224:        
     6121                           .line   37
     6122 0000095d 50530b01         ldiu      *-fp(1),bk
     6123 0000095e 504bc300         ldiu      *fp,fp
     6124 0000095f 18740066         subi      102,sp
     6125 00000960 68000013         bu        bk
     6126                   ;*      Branch Occurs to bk 
     6127                           .endfunc        883,000000000h,100
     6128                   
     6129                   
     6130 00000961                  .sect    ".text"
     6131                   
     6132                           .global _GP_SDR_PRINT
     6133                           .sym    _GP_SDR_PRINT,_GP_SDR_PRINT,32,2,0
     6134                           .func   885
     6135                   ;******************************************************************************
     6136                   ;* FUNCTION NAME: _GP_SDR_PRINT                                               *
     6137                   ;*                                                                            *
     6138                   ;*   Architecture       : TMS320C30                                           *
     6139                   ;*   Calling Convention : Stack Parameter Convention                          *
     6140                   ;*   Function Uses Regs : r0,r1,r2,r3,ar0,fp,ir0,sp,st                        *
     6141                   ;*   Regs Saved         :                                                     *
     6142                   ;*   Stack Frame        : Full (w/ debug)                                     *
     6143                   ;*   Total Frame Size   : 2 Call + 6 Parm + 103 Auto + 0 SOE = 111 words      *
     6144                   ;******************************************************************************
     6145 00000961          _GP_SDR_PRINT:
     6146                           .sym    _pDataTcms,-2,28,9,32
     6147                           .sym    _nTmsLen,-3,12,9,32
     6148                           .sym    _pDataIcd,-4,28,9,32
     6149                           .sym    _nIcdLen,-5,12,9,32
     6150                           .sym    _nSend_ID,-6,12,9,32
     6151                           .sym    _nPicPaCode,-7,12,9,32
     6152                           .sym    _i,1,4,1,32
     6153                           .sym    _sGpSdrBuf,2,60,1,3200,,100
     6154                           .sym    _sRxLen,102,12,1,32
     6155                           .sym    _sTxLen,103,12,1,32
     6156                           .line   1
TMS320C3x/4x COFF AssemblerVersion 5.11     Mon Apr 29 17:36:37 2013
Copyright (c) 1987-1999 Texas Instruments Incorporatedc:\lang\tms320c3x\511\bin\asm30.exe -l gpproface.asm gpproface.obj -tC:\Users\JDS\AppData\Local\Temp\gpproface.tmp 

gpproface.asm                                                        PAGE  115

     6157                   ;----------------------------------------------------------------------
     6158                   ; 885 | void GP_SDR_PRINT(UCHAR *pDataTcms,UCHAR nTmsLen,UCHAR *pDataIcd,UCHAR
     6159                   ;     | nIcdLen,UCHAR nSend_ID,UCHAR nPicPaCode)                               
     6160                   ;----------------------------------------------------------------------
     6161 00000961 0f2b0000         push      fp
     6162 00000962 500b0014         ldiu      sp,fp
     6163 00000963 02740067         addi      103,sp
     6164                           .line   2
     6165                   ;----------------------------------------------------------------------
     6166                   ; 887 | int i;                                                                 
     6167                   ; 888 | UCHAR sGpSdrBuf[100];                                                  
     6168                   ;----------------------------------------------------------------------
     6169                           .line   5
     6170                   ;----------------------------------------------------------------------
     6171                   ; 889 | UCHAR sRxLen = 0;                                                      
     6172                   ;----------------------------------------------------------------------
     6173 00000964 50600000         ldiu      0,r0
     6174 00000965 15400366         sti       r0,*+fp(102)
     6175                           .line   6
     6176                   ;----------------------------------------------------------------------
     6177                   ; 890 | UCHAR sTxLen = 0;                                                      
     6178                   ;----------------------------------------------------------------------
     6179 00000966 15400367         sti       r0,*+fp(103)
     6180                           .line   8
     6181                   ;----------------------------------------------------------------------
     6182                   ; 892 | sRxLen = nTmsLen;                                                      
     6183                   ;----------------------------------------------------------------------
     6184 00000967 50400b03         ldiu      *-fp(3),r0
     6185 00000968 15400366         sti       r0,*+fp(102)
     6186                           .line   9
     6187                   ;----------------------------------------------------------------------
     6188                   ; 893 | sTxLen = nIcdLen;                                                      
     6189                   ;----------------------------------------------------------------------
     6190 00000969 50400b05         ldiu      *-fp(5),r0
     6191 0000096a 15400367         sti       r0,*+fp(103)
     6192                           .line   11
     6193                   ;----------------------------------------------------------------------
     6194                   ; 895 | if(WORD_L(nTr_St_Info.nTcmsRxNGCnt)<=5 || WORD_L(nPicPaCode))          
     6195                   ;----------------------------------------------------------------------
     6196 0000096b 506000ff         ldiu      255,r0
     6197 0000096c 02a000d7!        and       @_nTr_St_Info+215,r0
     6198 0000096d 04e00005         cmpi      5,r0
     6199 0000096e 6a020003         bls       L228
     6200                   ;*      Branch Occurs to L228 
     6201 0000096f 506000ff         ldiu      255,r0
     6202 00000970 1a400b07         tstb      *-fp(7),r0
     6203 00000971 6a0500a3         beq       L247
     6204                   ;*      Branch Occurs to L247 
     6205 00000972          L228:        
     6206                           .line   13
     6207                   ;----------------------------------------------------------------------
     6208                   ; 897 | if(nSend_ID&0x01)//                                          
     6209                   ;----------------------------------------------------------------------
     6210 00000972 50600001         ldiu      1,r0
TMS320C3x/4x COFF AssemblerVersion 5.11     Mon Apr 29 17:36:37 2013
Copyright (c) 1987-1999 Texas Instruments Incorporatedc:\lang\tms320c3x\511\bin\asm30.exe -l gpproface.asm gpproface.obj -tC:\Users\JDS\AppData\Local\Temp\gpproface.tmp 

gpproface.asm                                                        PAGE  116

     6211 00000973 1a400b06         tstb      *-fp(6),r0
     6212 00000974 6a050050         beq       L238
     6213                   ;*      Branch Occurs to L238 
     6214                           .line   16
     6215                   ;----------------------------------------------------------------------
     6216                   ; 900 | for(i=0;i<= WORD_L(sRxLen);i++)                                        
     6217                   ;----------------------------------------------------------------------
     6218 00000975 50600000         ldiu      0,r0
     6219 00000976 15400301         sti       r0,*+fp(1)
     6220 00000977 506000ff         ldiu      255,r0
     6221 00000978 50410301         ldiu      *+fp(1),r1
     6222 00000979 02c00366         and       *+fp(102),r0
     6223 0000097a 23800100         cmpi3     r0,r1
     6224 0000097b 6a03003b         bhi       L237
     6225                   ;*      Branch Occurs to L237 
     6226 0000097c          L230:        
     6227                           .line   18
     6228                   ;----------------------------------------------------------------------
     6229                   ; 902 | sGpSdrBuf[i*3] =   BYTE_H(pDataTcms[i]) >= 0x0A ? (BYTE_H(pDataTcms[i])
     6230                   ;     | -10) + 0x41 :   BYTE_H(pDataTcms[i])+0x30;                             
     6231                   ;----------------------------------------------------------------------
     6232 0000097c 50510b02         ldiu      *-fp(2),ir0
     6233 0000097d 50480301         ldiu      *+fp(1),ar0
     6234 0000097e 5060fffc         ldiu      -4,r0
     6235 0000097f 24204000         lsh3      r0,*+ar0(ir0),r0
     6236 00000980 02e0000f         and       15,r0
     6237 00000981 04e0000a         cmpi      10,r0
     6238 00000982 6a010005         blo       L232
     6239                   ;*      Branch Occurs to L232 
     6240 00000983 5060fffc         ldiu      -4,r0
     6241 00000984 6a200007         bud       L233
     6242 00000985 24204000         lsh3      r0,*+ar0(ir0),r0
     6243 00000986 02e0000f         and       15,r0
     6244 00000987 02600037         addi      55,r0                 ; Unsigned
     6245                   ;*      Branch Occurs to L233 
     6246 00000988          L232:        
     6247 00000988 50510b02         ldiu      *-fp(2),ir0
     6248 00000989 50480301         ldiu      *+fp(1),ar0
     6249 0000098a 5060fffc         ldiu      -4,r0
     6250 0000098b 24204000         lsh3      r0,*+ar0(ir0),r0
     6251 0000098c 02e0000f         and       15,r0
     6252 0000098d 02600030         addi      48,r0                 ; Unsigned
     6253 0000098e          L233:        
     6254 0000098e 50510301         ldiu      *+fp(1),ir0
     6255 0000098f 5008000b         ldiu      fp,ar0
     6256 00000990 0af10003         mpyi      3,ir0
     6257 00000991 02680002         addi      2,ar0
     6258 00000992 15404000         sti       r0,*+ar0(ir0)
     6259                           .line   19
     6260                   ;----------------------------------------------------------------------
     6261                   ; 903 | sGpSdrBuf[i*3+1] = BYTE_L(pDataTcms[i]) >= 0x0A ? (BYTE_L(pDataTcms[i])
     6262                   ;     | -10) + 0x41 :   BYTE_L(pDataTcms[i])+0x30;                             
     6263                   ;----------------------------------------------------------------------
     6264 00000993 50510b02         ldiu      *-fp(2),ir0
TMS320C3x/4x COFF AssemblerVersion 5.11     Mon Apr 29 17:36:37 2013
Copyright (c) 1987-1999 Texas Instruments Incorporatedc:\lang\tms320c3x\511\bin\asm30.exe -l gpproface.asm gpproface.obj -tC:\Users\JDS\AppData\Local\Temp\gpproface.tmp 

gpproface.asm                                                        PAGE  117

     6265 00000994 50480301         ldiu      *+fp(1),ar0
     6266 00000995 5060000f         ldiu      15,r0
     6267 00000996 21a04000         and3      r0,*+ar0(ir0),r0
     6268 00000997 04e0000a         cmpi      10,r0
     6269 00000998 6a010004         blo       L235
     6270                   ;*      Branch Occurs to L235 
     6271 00000999 6a200006         bud       L236
     6272 0000099a 5060000f         ldiu      15,r0
     6273 0000099b 21a04000         and3      r0,*+ar0(ir0),r0
     6274 0000099c 02600037         addi      55,r0                 ; Unsigned
     6275                   ;*      Branch Occurs to L236 
     6276 0000099d          L235:        
     6277 0000099d 50510b02         ldiu      *-fp(2),ir0
     6278 0000099e 50480301         ldiu      *+fp(1),ar0
     6279 0000099f 5060000f         ldiu      15,r0
     6280 000009a0 21a04000         and3      r0,*+ar0(ir0),r0
     6281 000009a1 02600030         addi      48,r0                 ; Unsigned
     6282 000009a2          L236:        
     6283 000009a2 50510301         ldiu      *+fp(1),ir0
     6284 000009a3 5008000b         ldiu      fp,ar0
     6285 000009a4 0af10003         mpyi      3,ir0
     6286 000009a5 02680002         addi      2,ar0
     6287 000009a6 02710001         addi      1,ir0
     6288 000009a7 15404000         sti       r0,*+ar0(ir0)
     6289                           .line   21
     6290                   ;----------------------------------------------------------------------
     6291                   ; 905 | sGpSdrBuf[i*3+2] = 0x2D;                                               
     6292                   ;----------------------------------------------------------------------
     6293 000009a8 50510301         ldiu      *+fp(1),ir0
     6294 000009a9 5008000b         ldiu      fp,ar0
     6295 000009aa 0af10003         mpyi      3,ir0
     6296 000009ab 02680002         addi      2,ar0
     6297 000009ac 02710002         addi      2,ir0
     6298 000009ad 5060002d         ldiu      45,r0
     6299 000009ae 15404000         sti       r0,*+ar0(ir0)
     6300                           .line   16
     6301 000009af 50600001         ldiu      1,r0
     6302 000009b0 02400301         addi      *+fp(1),r0
     6303 000009b1 15400301         sti       r0,*+fp(1)
     6304 000009b2 506000ff         ldiu      255,r0
     6305 000009b3 50410301         ldiu      *+fp(1),r1
     6306 000009b4 02c00366         and       *+fp(102),r0
     6307 000009b5 23800100         cmpi3     r0,r1
     6308 000009b6 6a02ffc5         bls       L230
     6309                   ;*      Branch Occurs to L230 
     6310 000009b7          L237:        
     6311                           .line   24
     6312                   ;----------------------------------------------------------------------
     6313                   ; 908 | gp_WritingStr(400,(sRxLen*3)/2,sGpSdrBuf);                             
     6314                   ; 910 | else                                                                   
     6315                   ;----------------------------------------------------------------------
     6316 000009b7 50400366         ldiu      *+fp(102),r0
     6317 000009b8 50610003         ldiu      3,r1
     6318 000009b9 62000000!        call      MPY_K30
TMS320C3x/4x COFF AssemblerVersion 5.11     Mon Apr 29 17:36:37 2013
Copyright (c) 1987-1999 Texas Instruments Incorporatedc:\lang\tms320c3x\511\bin\asm30.exe -l gpproface.asm gpproface.obj -tC:\Users\JDS\AppData\Local\Temp\gpproface.tmp 

gpproface.asm                                                        PAGE  118

     6319                                                           ; Call Occurs
     6320 000009ba 50620190         ldiu      400,r2
     6321 000009bb 5023022e-        ldiu      @CL38,r3
     6322 000009bc 5001000b         ldiu      fp,r1
     6323 000009bd 24000003         lsh3      r3,r0,r0
     6324 000009be 02610002         addi      2,r1
     6325 000009bf 0f210000         push      r1
     6326 000009c0 0f200000         push      r0
     6327 000009c1 0f220000         push      r2
     6328 000009c2 620000ba'        call      _gp_WritingStr
     6329                                                           ; Call Occurs
     6330 000009c3 18740003         subi      3,sp
     6331 000009c4 6a00005c         bu        L249
     6332                   ;*      Branch Occurs to L249 
     6333 000009c5          L238:        
     6334                           .line   29
     6335                   ;----------------------------------------------------------------------
     6336                   ; 913 | for(i=0;i<= WORD_L(sTxLen);i++)                                        
     6337                   ;----------------------------------------------------------------------
     6338 000009c5 50600000         ldiu      0,r0
     6339 000009c6 15400301         sti       r0,*+fp(1)
     6340 000009c7 506000ff         ldiu      255,r0
     6341 000009c8 50410301         ldiu      *+fp(1),r1
     6342 000009c9 02c00367         and       *+fp(103),r0
     6343 000009ca 23800100         cmpi3     r0,r1
     6344 000009cb 6a03003b         bhi       L246
     6345                   ;*      Branch Occurs to L246 
     6346 000009cc          L239:        
     6347                           .line   31
     6348                   ;----------------------------------------------------------------------
     6349                   ; 915 | sGpSdrBuf[i*3] =   BYTE_H(pDataIcd[i]) >= 0x0A ? (BYTE_H(pDataIcd[i])-1
     6350                   ;     | 0) + 0x41 :   BYTE_H(pDataIcd[i])+0x30;                                
     6351                   ;----------------------------------------------------------------------
     6352 000009cc 50510b04         ldiu      *-fp(4),ir0
     6353 000009cd 50480301         ldiu      *+fp(1),ar0
     6354 000009ce 5060fffc         ldiu      -4,r0
     6355 000009cf 24204000         lsh3      r0,*+ar0(ir0),r0
     6356 000009d0 02e0000f         and       15,r0
     6357 000009d1 04e0000a         cmpi      10,r0
     6358 000009d2 6a010005         blo       L241
     6359                   ;*      Branch Occurs to L241 
     6360 000009d3 5060fffc         ldiu      -4,r0
     6361 000009d4 6a200007         bud       L242
     6362 000009d5 24204000         lsh3      r0,*+ar0(ir0),r0
     6363 000009d6 02e0000f         and       15,r0
     6364 000009d7 02600037         addi      55,r0                 ; Unsigned
     6365                   ;*      Branch Occurs to L242 
     6366 000009d8          L241:        
     6367 000009d8 50510b04         ldiu      *-fp(4),ir0
     6368 000009d9 50480301         ldiu      *+fp(1),ar0
     6369 000009da 5060fffc         ldiu      -4,r0
     6370 000009db 24204000         lsh3      r0,*+ar0(ir0),r0
     6371 000009dc 02e0000f         and       15,r0
     6372 000009dd 02600030         addi      48,r0                 ; Unsigned
TMS320C3x/4x COFF AssemblerVersion 5.11     Mon Apr 29 17:36:37 2013
Copyright (c) 1987-1999 Texas Instruments Incorporatedc:\lang\tms320c3x\511\bin\asm30.exe -l gpproface.asm gpproface.obj -tC:\Users\JDS\AppData\Local\Temp\gpproface.tmp 

gpproface.asm                                                        PAGE  119

     6373 000009de          L242:        
     6374 000009de 50510301         ldiu      *+fp(1),ir0
     6375 000009df 5008000b         ldiu      fp,ar0
     6376 000009e0 0af10003         mpyi      3,ir0
     6377 000009e1 02680002         addi      2,ar0
     6378 000009e2 15404000         sti       r0,*+ar0(ir0)
     6379                           .line   32
     6380                   ;----------------------------------------------------------------------
     6381                   ; 916 | sGpSdrBuf[i*3+1] = BYTE_L(pDataIcd[i]) >= 0x0A ? (BYTE_L(pDataIcd[i])-1
     6382                   ;     | 0) + 0x41 :   BYTE_L(pDataIcd[i])+0x30;                                
     6383                   ;----------------------------------------------------------------------
     6384 000009e3 50510b04         ldiu      *-fp(4),ir0
     6385 000009e4 50480301         ldiu      *+fp(1),ar0
     6386 000009e5 5060000f         ldiu      15,r0
     6387 000009e6 21a04000         and3      r0,*+ar0(ir0),r0
     6388 000009e7 04e0000a         cmpi      10,r0
     6389 000009e8 6a010004         blo       L244
     6390                   ;*      Branch Occurs to L244 
     6391 000009e9 6a200006         bud       L245
     6392 000009ea 5060000f         ldiu      15,r0
     6393 000009eb 21a04000         and3      r0,*+ar0(ir0),r0
     6394 000009ec 02600037         addi      55,r0                 ; Unsigned
     6395                   ;*      Branch Occurs to L245 
     6396 000009ed          L244:        
     6397 000009ed 50510b04         ldiu      *-fp(4),ir0
     6398 000009ee 50480301         ldiu      *+fp(1),ar0
     6399 000009ef 5060000f         ldiu      15,r0
     6400 000009f0 21a04000         and3      r0,*+ar0(ir0),r0
     6401 000009f1 02600030         addi      48,r0                 ; Unsigned
     6402 000009f2          L245:        
     6403 000009f2 50510301         ldiu      *+fp(1),ir0
     6404 000009f3 5008000b         ldiu      fp,ar0
     6405 000009f4 0af10003         mpyi      3,ir0
     6406 000009f5 02680002         addi      2,ar0
     6407 000009f6 02710001         addi      1,ir0
     6408 000009f7 15404000         sti       r0,*+ar0(ir0)
     6409                           .line   34
     6410                   ;----------------------------------------------------------------------
     6411                   ; 918 | sGpSdrBuf[i*3+2] = 0x2D;                                               
     6412                   ;----------------------------------------------------------------------
     6413 000009f8 50510301         ldiu      *+fp(1),ir0
     6414 000009f9 5008000b         ldiu      fp,ar0
     6415 000009fa 0af10003         mpyi      3,ir0
     6416 000009fb 02680002         addi      2,ar0
     6417 000009fc 02710002         addi      2,ir0
     6418 000009fd 5060002d         ldiu      45,r0
     6419 000009fe 15404000         sti       r0,*+ar0(ir0)
     6420                           .line   29
     6421 000009ff 50600001         ldiu      1,r0
     6422 00000a00 02400301         addi      *+fp(1),r0
     6423 00000a01 15400301         sti       r0,*+fp(1)
     6424 00000a02 506000ff         ldiu      255,r0
     6425 00000a03 50410301         ldiu      *+fp(1),r1
     6426 00000a04 02c00367         and       *+fp(103),r0
TMS320C3x/4x COFF AssemblerVersion 5.11     Mon Apr 29 17:36:37 2013
Copyright (c) 1987-1999 Texas Instruments Incorporatedc:\lang\tms320c3x\511\bin\asm30.exe -l gpproface.asm gpproface.obj -tC:\Users\JDS\AppData\Local\Temp\gpproface.tmp 

gpproface.asm                                                        PAGE  120

     6427 00000a05 23800100         cmpi3     r0,r1
     6428 00000a06 6a02ffc5         bls       L239
     6429                   ;*      Branch Occurs to L239 
     6430 00000a07          L246:        
     6431                           .line   37
     6432                   ;----------------------------------------------------------------------
     6433                   ; 921 | gp_WritingStr(500,(sTxLen*3)/2,sGpSdrBuf);                             
     6434                   ;----------------------------------------------------------------------
     6435 00000a07 50400367         ldiu      *+fp(103),r0
     6436 00000a08 50610003         ldiu      3,r1
     6437 00000a09 62000000!        call      MPY_K30
     6438                                                           ; Call Occurs
     6439 00000a0a 506301f4         ldiu      500,r3
     6440 00000a0b 5022022e-        ldiu      @CL38,r2
     6441 00000a0c 5001000b         ldiu      fp,r1
     6442 00000a0d 24000002         lsh3      r2,r0,r0
     6443 00000a0e 02610002         addi      2,r1
     6444 00000a0f 0f210000         push      r1
     6445 00000a10 0f200000         push      r0
     6446 00000a11 0f230000         push      r3
     6447 00000a12 620000ba'        call      _gp_WritingStr
     6448                                                           ; Call Occurs
     6449 00000a13 18740003         subi      3,sp
     6450 00000a14 6a00000c         bu        L249
     6451                   ;*      Branch Occurs to L249 
     6452 00000a15          L247:        
     6453                           .line   40
     6454                   ;----------------------------------------------------------------------
     6455                   ; 924 | else if(WORD_L(nTr_St_Info.nTcmsRxNGCnt) > 5)                          
     6456                   ;----------------------------------------------------------------------
     6457 00000a15 506000ff         ldiu      255,r0
     6458 00000a16 02a000d7!        and       @_nTr_St_Info+215,r0
     6459 00000a17 04e00005         cmpi      5,r0
     6460 00000a18 6a220006         blsd      L249
     6461 00000a19 51a1022f-        ldihi     @CL39,r1
     6462 00000a1a 51e00009         ldihi     9,r0
     6463 00000a1b 51e20258         ldihi     600,r2
     6464                   ;*      Branch Occurs to L249 
     6465                           .line   42
     6466                   ;----------------------------------------------------------------------
     6467                   ; 926 | gp_WritingStr(600,9,(UCHAR *)"* TMS InterFace NG");                    
     6468                   ;----------------------------------------------------------------------
     6469 00000a1c 0f210000         push      r1
     6470 00000a1d 0f200000         push      r0
     6471 00000a1e 0f220000         push      r2
     6472 00000a1f 620000ba'        call      _gp_WritingStr
     6473                                                           ; Call Occurs
     6474 00000a20 18740003         subi      3,sp
     6475 00000a21          L249:        
     6476                           .line   45
     6477 00000a21 50530b01         ldiu      *-fp(1),bk
     6478 00000a22 504bc300         ldiu      *fp,fp
     6479 00000a23 18740069         subi      105,sp
     6480 00000a24 68000013         bu        bk
TMS320C3x/4x COFF AssemblerVersion 5.11     Mon Apr 29 17:36:37 2013
Copyright (c) 1987-1999 Texas Instruments Incorporatedc:\lang\tms320c3x\511\bin\asm30.exe -l gpproface.asm gpproface.obj -tC:\Users\JDS\AppData\Local\Temp\gpproface.tmp 

gpproface.asm                                                        PAGE  121

     6481                   ;*      Branch Occurs to bk 
     6482                           .endfunc        929,000000000h,103
     6483                   
     6484                   
     6485 00000a25                  .sect    ".text"
     6486                   
     6487                           .global _GP_DEST_SCREEN
     6488                           .sym    _GP_DEST_SCREEN,_GP_DEST_SCREEN,32,2,0
     6489                           .func   934
     6490                   ;******************************************************************************
     6491                   ;* FUNCTION NAME: _GP_DEST_SCREEN                                             *
     6492                   ;*                                                                            *
     6493                   ;*   Architecture       : TMS320C30                                           *
     6494                   ;*   Calling Convention : Stack Parameter Convention                          *
     6495                   ;*   Function Uses Regs : r0,r1,r2,r4,ar0,ar1,fp,ir0,sp,st                    *
     6496                   ;*   Regs Saved         : r4                                                  *
     6497                   ;*   Stack Frame        : Full (w/ debug)                                     *
     6498                   ;*   Total Frame Size   : 2 Call + 1 Parm + 30 Auto + 1 SOE = 34 words        *
     6499                   ;******************************************************************************
     6500 00000a25          _GP_DEST_SCREEN:
     6501                           .sym    _nScreenInf,-2,12,9,32
     6502                           .sym    _i,1,12,1,32
     6503                           .sym    _sScreenNumBuf,2,60,1,160,,5
     6504                           .sym    _sDestNum,7,12,1,32
     6505                           .sym    _sDestNum1,8,12,1,32
     6506                           .sym    _sTreanNumSet,9,12,1,32
     6507                           .sym    _sTreanSetDest,10,12,1,32
     6508                           .sym    _sDestTxBuf,11,60,1,640,,20
     6509                           .line   1
     6510                   ;----------------------------------------------------------------------
     6511                   ; 934 | void GP_DEST_SCREEN(UCHAR nScreenInf)                                  
     6512                   ;----------------------------------------------------------------------
     6513 00000a25 0f2b0000         push      fp
     6514 00000a26 500b0014         ldiu      sp,fp
     6515 00000a27 0274001e         addi      30,sp
     6516 00000a28 0f240000         push      r4
     6517                           .line   2
     6518                   ;----------------------------------------------------------------------
     6519                   ; 936 | UCHAR i;                                                               
     6520                   ; 937 | UCHAR sScreenNumBuf[5];                                                
     6521                   ;----------------------------------------------------------------------
     6522                           .line   5
     6523                   ;----------------------------------------------------------------------
     6524                   ; 938 | UCHAR sDestNum = 0,sDestNum1 = 0;                                      
     6525                   ;----------------------------------------------------------------------
     6526 00000a29 50600000         ldiu      0,r0
     6527 00000a2a 15400307         sti       r0,*+fp(7)
     6528 00000a2b 15400308         sti       r0,*+fp(8)
     6529                           .line   6
     6530                   ;----------------------------------------------------------------------
     6531                   ; 939 | UCHAR sTreanNumSet = 0;                                                
     6532                   ;----------------------------------------------------------------------
     6533 00000a2c 15400309         sti       r0,*+fp(9)
     6534                           .line   7
TMS320C3x/4x COFF AssemblerVersion 5.11     Mon Apr 29 17:36:37 2013
Copyright (c) 1987-1999 Texas Instruments Incorporatedc:\lang\tms320c3x\511\bin\asm30.exe -l gpproface.asm gpproface.obj -tC:\Users\JDS\AppData\Local\Temp\gpproface.tmp 

gpproface.asm                                                        PAGE  122

     6535                   ;----------------------------------------------------------------------
     6536                   ; 940 | UCHAR sTreanSetDest = 0;                                               
     6537                   ; 941 | UCHAR sDestTxBuf[20];                                                  
     6538                   ; 943 | switch(WORD_L(nScreenInf))                                             
     6539                   ; 945 | case 0x38://                                               
     6540                   ;----------------------------------------------------------------------
     6541 00000a2d 6a200274         bud       L283
     6542 00000a2e 1540030a         sti       r0,*+fp(10)
     6543 00000a2f 506000ff         ldiu      255,r0
     6544 00000a30 02c00b02         and       *-fp(2),r0
     6545                   ;*      Branch Occurs to L283 
     6546 00000a31          L252:        
     6547                           .line   13
     6548                   ;----------------------------------------------------------------------
     6549                   ; 946 | nSelect_Button.nScreenSetNum = 6;                                      
     6550                   ;----------------------------------------------------------------------
     6551 00000a31 50600006         ldiu      6,r0
     6552 00000a32 15200205-        sti       r0,@_nSelect_Button+10
     6553                           .line   14
     6554                   ;----------------------------------------------------------------------
     6555                   ; 947 | nTr_St_Info.nSinmuScrCnt = 0;                                          
     6556                   ;----------------------------------------------------------------------
     6557 00000a33 50600000         ldiu      0,r0
     6558 00000a34 152000d6!        sti       r0,@_nTr_St_Info+214
     6559                           .line   15
     6560                   ;----------------------------------------------------------------------
     6561                   ; 948 | gpROOT;                                                                
     6562                   ;----------------------------------------------------------------------
     6563 00000a35 5061005a         ldiu      90,r1
     6564 00000a36 0f210000         push      r1
     6565 00000a37 5060000f         ldiu      15,r0
     6566 00000a38 0f200000         push      r0
     6567 00000a39 6200004d'        call      _gp_WritingWord
     6568                                                           ; Call Occurs
     6569 00000a3a 18740002         subi      2,sp
     6570                           .line   16
     6571                   ;----------------------------------------------------------------------
     6572                   ; 949 | gpROOTINIT;                                                            
     6573                   ;----------------------------------------------------------------------
     6574 00000a3b 50610000         ldiu      0,r1
     6575 00000a3c 5060003c         ldiu      60,r0
     6576 00000a3d 0f210000         push      r1
     6577 00000a3e 0f200000         push      r0
     6578 00000a3f 6200004d'        call      _gp_WritingWord
     6579                                                           ; Call Occurs
     6580 00000a40 18740002         subi      2,sp
     6581 00000a41 50600037         ldiu      55,r0
     6582 00000a42 50610000         ldiu      0,r1
     6583 00000a43 0f210000         push      r1
     6584 00000a44 0f200000         push      r0
     6585 00000a45 6200004d'        call      _gp_WritingWord
     6586                                                           ; Call Occurs
     6587 00000a46 18740002         subi      2,sp
     6588                           .line   17
TMS320C3x/4x COFF AssemblerVersion 5.11     Mon Apr 29 17:36:37 2013
Copyright (c) 1987-1999 Texas Instruments Incorporatedc:\lang\tms320c3x\511\bin\asm30.exe -l gpproface.asm gpproface.obj -tC:\Users\JDS\AppData\Local\Temp\gpproface.tmp 

gpproface.asm                                                        PAGE  123

     6589                   ;----------------------------------------------------------------------
     6590                   ; 950 | gpROOTEN;                                                              
     6591                   ;----------------------------------------------------------------------
     6592 00000a47 50600001         ldiu      1,r0
     6593 00000a48 50610039         ldiu      57,r1
     6594 00000a49 0f200000         push      r0
     6595 00000a4a 0f210000         push      r1
     6596 00000a4b 6200004d'        call      _gp_WritingWord
     6597                                                           ; Call Occurs
     6598 00000a4c 18740002         subi      2,sp
     6599                           .line   18
     6600                   ;----------------------------------------------------------------------
     6601                   ; 951 | gpROOTNOBLK;                                                           
     6602                   ;----------------------------------------------------------------------
     6603 00000a4d 50600038         ldiu      56,r0
     6604 00000a4e 50610000         ldiu      0,r1
     6605 00000a4f 0f210000         push      r1
     6606 00000a50 0f200000         push      r0
     6607 00000a51 6200004d'        call      _gp_WritingWord
     6608                                                           ; Call Occurs
     6609 00000a52 18740002         subi      2,sp
     6610                           .line   20
     6611                   ;----------------------------------------------------------------------
     6612                   ; 953 | for(i=0;i<100;i++) // 100 =            
     6613                   ;----------------------------------------------------------------------
     6614 00000a53 50600000         ldiu      0,r0
     6615 00000a54 15400301         sti       r0,*+fp(1)
     6616 00000a55 04e00064         cmpi      100,r0
     6617 00000a56 6a040011         bhs       L256
     6618                   ;*      Branch Occurs to L256 
     6619 00000a57          L253:        
     6620                           .line   22
     6621                   ;----------------------------------------------------------------------
     6622                   ; 955 | if(WORD_L(nNvsram_Variable->nDestCodeList[i]) == WORD_L(nTr_St_Info.nDe
     6623                   ;     | st.nCode))                                                             
     6624                   ;----------------------------------------------------------------------
     6625 00000a57 50510301         ldiu      *+fp(1),ir0
     6626 00000a58 506000ff         ldiu      255,r0
     6627 00000a59 506100ff         ldiu      255,r1
     6628 00000a5a 50680105         ldiu      261,ar0
     6629 00000a5b 02310000!        addi      @_nNvsram_Variable+0,ir0 ; Unsigned
     6630 00000a5c 02a00190!        and       @_nTr_St_Info+400,r0
     6631 00000a5d 21a14001         and3      r1,*+ar0(ir0),r1
     6632 00000a5e 23800100         cmpi3     r0,r1
     6633 00000a5f 6a060003         bne       L255
     6634                   ;*      Branch Occurs to L255 
     6635                           .line   24
     6636                   ;----------------------------------------------------------------------
     6637                   ; 957 | sTreanNumSet = i;                                                      
     6638                   ;----------------------------------------------------------------------
     6639 00000a60 50400301         ldiu      *+fp(1),r0
     6640 00000a61 15400309         sti       r0,*+fp(9)
     6641                           .line   25
     6642                   ;----------------------------------------------------------------------
TMS320C3x/4x COFF AssemblerVersion 5.11     Mon Apr 29 17:36:37 2013
Copyright (c) 1987-1999 Texas Instruments Incorporatedc:\lang\tms320c3x\511\bin\asm30.exe -l gpproface.asm gpproface.obj -tC:\Users\JDS\AppData\Local\Temp\gpproface.tmp 

gpproface.asm                                                        PAGE  124

     6643                   ; 958 | break;                                                                 
     6644                   ;----------------------------------------------------------------------
     6645 00000a62 6a000005         bu        L256
     6646                   ;*      Branch Occurs to L256 
     6647 00000a63          L255:        
     6648                           .line   20
     6649 00000a63 50600001         ldiu      1,r0
     6650 00000a64 02400301         addi      *+fp(1),r0            ; Unsigned
     6651 00000a65 15400301         sti       r0,*+fp(1)
     6652 00000a66 04e00064         cmpi      100,r0
     6653 00000a67 6a01ffef         blo       L253
     6654                   ;*      Branch Occurs to L253 
     6655 00000a68          L256:        
     6656                           .line   29
     6657                   ;----------------------------------------------------------------------
     6658                   ; 962 | nNvsram_Variable->nScreenNum = ((sTreanNumSet)/10);                    
     6659                   ;----------------------------------------------------------------------
     6660 00000a68 50400309         ldiu      *+fp(9),r0
     6661 00000a69 5061000a         ldiu      10,r1
     6662 00000a6a 62000000!        call      DIV_U30
     6663                                                           ; Call Occurs
     6664 00000a6b 50280000!        ldiu      @_nNvsram_Variable+0,ar0
     6665 00000a6c 1540c000         sti       r0,*ar0
     6666                           .line   30
     6667                   ;----------------------------------------------------------------------
     6668                   ; 963 | sTreanSetDest = (sTreanNumSet%10);                                     
     6669                   ;----------------------------------------------------------------------
     6670 00000a6d 5061000a         ldiu      10,r1
     6671 00000a6e 50400309         ldiu      *+fp(9),r0
     6672 00000a6f 62000000!        call      MOD_U30
     6673                                                           ; Call Occurs
     6674 00000a70 1540030a         sti       r0,*+fp(10)
     6675                           .line   32
     6676                   ;----------------------------------------------------------------------
     6677                   ; 965 | NVSRAM_Find_StationRoot(WORD_L(nNvsram_Variable->nScreenNum),10);
     6678                   ;     |  //   .                                              
     6679                   ;----------------------------------------------------------------------
     6680 00000a71 50280000!        ldiu      @_nNvsram_Variable+0,ar0
     6681 00000a72 506100ff         ldiu      255,r1
     6682 00000a73 21a1c001         and3      r1,*ar0,r1
     6683 00000a74 5060000a         ldiu      10,r0
     6684 00000a75 0f200000         push      r0
     6685 00000a76 0f210000         push      r1
     6686 00000a77 62000000!        call      _NVSRAM_Find_StationRoot
     6687                                                           ; Call Occurs
     6688 00000a78 18740002         subi      2,sp
     6689                           .line   33
     6690                   ;----------------------------------------------------------------------
     6691                   ; 966 | for(i=0;i<10;i++) gp_WritingStr(340+i*10,5, nNvsram_Variable->nDestScre
     6692                   ;     | en[i].nStationName);                                                   
     6693                   ;----------------------------------------------------------------------
     6694 00000a79 50600000         ldiu      0,r0
     6695 00000a7a 15400301         sti       r0,*+fp(1)
     6696 00000a7b 50640005         ldiu      5,r4
TMS320C3x/4x COFF AssemblerVersion 5.11     Mon Apr 29 17:36:37 2013
Copyright (c) 1987-1999 Texas Instruments Incorporatedc:\lang\tms320c3x\511\bin\asm30.exe -l gpproface.asm gpproface.obj -tC:\Users\JDS\AppData\Local\Temp\gpproface.tmp 

gpproface.asm                                                        PAGE  125

     6697 00000a7c 04e0000a         cmpi      10,r0
     6698 00000a7d 6a040010         bhs       L258
     6699                   ;*      Branch Occurs to L258 
     6700 00000a7e          L257:        
     6701                   
     6702 00000a7e c6080303         ldiu      *+fp(1),r0
     6703                   ||      ldiu      *+fp(1),r1
     6704                   
     6705 00000a7f 0ae1000a         mpyi      10,r1
     6706 00000a80 03e00004         ash       4,r0
     6707 00000a81 02610154         addi      340,r1                ; Unsigned
     6708 00000a82 02200000!        addi      @_nNvsram_Variable+0,r0 ; Unsigned
     6709 00000a83 02600156         addi      342,r0                ; Unsigned
     6710 00000a84 0f200000         push      r0
     6711 00000a85 0f240000         push      r4
     6712 00000a86 0f210000         push      r1
     6713 00000a87 620000ba'        call      _gp_WritingStr
     6714                                                           ; Call Occurs
     6715 00000a88 18740003         subi      3,sp
     6716 00000a89 50600001         ldiu      1,r0
     6717 00000a8a 02400301         addi      *+fp(1),r0            ; Unsigned
     6718 00000a8b 15400301         sti       r0,*+fp(1)
     6719 00000a8c 04e0000a         cmpi      10,r0
     6720 00000a8d 6a01fff0         blo       L257
     6721                   ;*      Branch Occurs to L257 
     6722 00000a8e          L258:        
     6723                           .line   35
     6724                   ;----------------------------------------------------------------------
     6725                   ; 968 | gp_WritingWord(0x3D,(0x01<<((sTreanSetDest)%10))); //   
     6726                   ;     |                                                             
     6727                   ;----------------------------------------------------------------------
     6728 00000a8e 5040030a         ldiu      *+fp(10),r0
     6729 00000a8f 5061000a         ldiu      10,r1
     6730 00000a90 62000000!        call      MOD_U30
     6731                                                           ; Call Occurs
     6732 00000a91 50620001         ldiu      1,r2
     6733 00000a92 5061003d         ldiu      61,r1
     6734 00000a93 22800200         ash3      r0,r2,r0
     6735 00000a94 0f200000         push      r0
     6736 00000a95 0f210000         push      r1
     6737 00000a96 6200004d'        call      _gp_WritingWord
     6738                                                           ; Call Occurs
     6739 00000a97 18740002         subi      2,sp
     6740                           .line   37
     6741                   ;----------------------------------------------------------------------
     6742                   ; 970 | sScreenNumBuf[0] = (((WORD_L(nNvsram_Variable->nScreenNum)+1)/10)+0x30)
     6743                   ;     | ;                                                                      
     6744                   ;----------------------------------------------------------------------
     6745 00000a98 50280000!        ldiu      @_nNvsram_Variable+0,ar0
     6746 00000a99 506000ff         ldiu      255,r0
     6747 00000a9a 21a0c000         and3      r0,*ar0,r0
     6748 00000a9b 02600001         addi      1,r0                  ; Unsigned
     6749 00000a9c 5061000a         ldiu      10,r1
     6750 00000a9d 62000000!        call      DIV_U30
TMS320C3x/4x COFF AssemblerVersion 5.11     Mon Apr 29 17:36:37 2013
Copyright (c) 1987-1999 Texas Instruments Incorporatedc:\lang\tms320c3x\511\bin\asm30.exe -l gpproface.asm gpproface.obj -tC:\Users\JDS\AppData\Local\Temp\gpproface.tmp 

gpproface.asm                                                        PAGE  126

     6751                                                           ; Call Occurs
     6752 00000a9e 5008000b         ldiu      fp,ar0
     6753 00000a9f 02680002         addi      2,ar0
     6754 00000aa0 02600030         addi      48,r0                 ; Unsigned
     6755 00000aa1 1540c000         sti       r0,*ar0
     6756                           .line   38
     6757                   ;----------------------------------------------------------------------
     6758                   ; 971 | sScreenNumBuf[1] = (((WORD_L(nNvsram_Variable->nScreenNum)+1)%10)+0x30)
     6759                   ;     | ;                                                                      
     6760                   ;----------------------------------------------------------------------
     6761 00000aa2 50280000!        ldiu      @_nNvsram_Variable+0,ar0
     6762 00000aa3 506000ff         ldiu      255,r0
     6763 00000aa4 21a0c000         and3      r0,*ar0,r0
     6764 00000aa5 02600001         addi      1,r0                  ; Unsigned
     6765 00000aa6 5061000a         ldiu      10,r1
     6766 00000aa7 62000000!        call      MOD_U30
     6767                                                           ; Call Occurs
     6768 00000aa8 5008000b         ldiu      fp,ar0
     6769 00000aa9 02680003         addi      3,ar0
     6770 00000aaa 02600030         addi      48,r0                 ; Unsigned
     6771 00000aab 1540c000         sti       r0,*ar0
     6772                           .line   40
     6773                   ;----------------------------------------------------------------------
     6774                   ; 973 | gp_WritingStr(440,1,sScreenNumBuf);                                    
     6775                   ; 975 | //gpROOTWHITE;                                                         
     6776                   ;----------------------------------------------------------------------
     6777 00000aac 5000000b         ldiu      fp,r0
     6778 00000aad 50620001         ldiu      1,r2
     6779 00000aae 02600002         addi      2,r0
     6780 00000aaf 0f200000         push      r0
     6781 00000ab0 0f220000         push      r2
     6782 00000ab1 506101b8         ldiu      440,r1
     6783 00000ab2 0f210000         push      r1
     6784 00000ab3 620000ba'        call      _gp_WritingStr
     6785                                                           ; Call Occurs
     6786 00000ab4 18740003         subi      3,sp
     6787                           .line   44
     6788                   ;----------------------------------------------------------------------
     6789                   ; 977 | break;                                                                 
     6790                   ; 978 | case 0x6E:      //  .                                      
     6791                   ;----------------------------------------------------------------------
     6792 00000ab5 6a00020b         bu        L287
     6793                   ;*      Branch Occurs to L287 
     6794 00000ab6          L259:        
     6795                           .line   47
     6796                   ;----------------------------------------------------------------------
     6797                   ; 980 | if(WORD_L(nNvsram_Variable->nScreenNum))                               
     6798                   ;----------------------------------------------------------------------
     6799 00000ab6 50280000!        ldiu      @_nNvsram_Variable+0,ar0
     6800 00000ab7 506000ff         ldiu      255,r0
     6801 00000ab8 27c000c0         tstb3     *ar0,r0
     6802 00000ab9 6a050207         beq       L287
     6803                   ;*      Branch Occurs to L287 
     6804                           .line   49
TMS320C3x/4x COFF AssemblerVersion 5.11     Mon Apr 29 17:36:37 2013
Copyright (c) 1987-1999 Texas Instruments Incorporatedc:\lang\tms320c3x\511\bin\asm30.exe -l gpproface.asm gpproface.obj -tC:\Users\JDS\AppData\Local\Temp\gpproface.tmp 

gpproface.asm                                                        PAGE  127

     6805                   ;----------------------------------------------------------------------
     6806                   ; 982 | nNvsram_Variable->nScreenNum--;                                        
     6807                   ;----------------------------------------------------------------------
     6808 00000aba 50600001         ldiu      1,r0
     6809 00000abb 2720c000         subi3     r0,*ar0,r0            ; Unsigned
     6810 00000abc 1540c000         sti       r0,*ar0
     6811                           .line   51
     6812                   ;----------------------------------------------------------------------
     6813                   ; 984 | NVSRAM_Find_StationRoot(WORD_L(nNvsram_Variable->nScreenNum),10);
     6814                   ;     |  //   .                                              
     6815                   ;----------------------------------------------------------------------
     6816 00000abd 506100ff         ldiu      255,r1
     6817 00000abe 50280000!        ldiu      @_nNvsram_Variable+0,ar0
     6818 00000abf 5060000a         ldiu      10,r0
     6819 00000ac0 21a1c001         and3      r1,*ar0,r1
     6820 00000ac1 0f200000         push      r0
     6821 00000ac2 0f210000         push      r1
     6822 00000ac3 62000000!        call      _NVSRAM_Find_StationRoot
     6823                                                           ; Call Occurs
     6824 00000ac4 18740002         subi      2,sp
     6825                           .line   52
     6826                   ;----------------------------------------------------------------------
     6827                   ; 985 | for(i=0;i<10;i++) gp_WritingStr(340+i*10,5, nNvsram_Variable->nDestScre
     6828                   ;     | en[i].nStationName);                                                   
     6829                   ;----------------------------------------------------------------------
     6830 00000ac5 50600000         ldiu      0,r0
     6831 00000ac6 15400301         sti       r0,*+fp(1)
     6832 00000ac7 50640005         ldiu      5,r4
     6833 00000ac8 04e0000a         cmpi      10,r0
     6834 00000ac9 6a040010         bhs       L262
     6835                   ;*      Branch Occurs to L262 
     6836 00000aca          L261:        
     6837                   
     6838 00000aca c6080303         ldiu      *+fp(1),r0
     6839                   ||      ldiu      *+fp(1),r1
     6840                   
     6841 00000acb 0ae1000a         mpyi      10,r1
     6842 00000acc 03e00004         ash       4,r0
     6843 00000acd 02610154         addi      340,r1                ; Unsigned
     6844 00000ace 02200000!        addi      @_nNvsram_Variable+0,r0 ; Unsigned
     6845 00000acf 02600156         addi      342,r0                ; Unsigned
     6846 00000ad0 0f200000         push      r0
     6847 00000ad1 0f240000         push      r4
     6848 00000ad2 0f210000         push      r1
     6849 00000ad3 620000ba'        call      _gp_WritingStr
     6850                                                           ; Call Occurs
     6851 00000ad4 18740003         subi      3,sp
     6852 00000ad5 50600001         ldiu      1,r0
     6853 00000ad6 02400301         addi      *+fp(1),r0            ; Unsigned
     6854 00000ad7 15400301         sti       r0,*+fp(1)
     6855 00000ad8 04e0000a         cmpi      10,r0
     6856 00000ad9 6a01fff0         blo       L261
     6857                   ;*      Branch Occurs to L261 
     6858 00000ada          L262:        
TMS320C3x/4x COFF AssemblerVersion 5.11     Mon Apr 29 17:36:37 2013
Copyright (c) 1987-1999 Texas Instruments Incorporatedc:\lang\tms320c3x\511\bin\asm30.exe -l gpproface.asm gpproface.obj -tC:\Users\JDS\AppData\Local\Temp\gpproface.tmp 

gpproface.asm                                                        PAGE  128

     6859                           .line   54
     6860                   ;----------------------------------------------------------------------
     6861                   ; 987 | sScreenNumBuf[0] = (((WORD_L(nNvsram_Variable->nScreenNum)+1)/10)+0x30)
     6862                   ;     | ;                                                                      
     6863                   ;----------------------------------------------------------------------
     6864 00000ada 50280000!        ldiu      @_nNvsram_Variable+0,ar0
     6865 00000adb 506000ff         ldiu      255,r0
     6866 00000adc 21a0c000         and3      r0,*ar0,r0
     6867 00000add 02600001         addi      1,r0                  ; Unsigned
     6868 00000ade 5061000a         ldiu      10,r1
     6869 00000adf 62000000!        call      DIV_U30
     6870                                                           ; Call Occurs
     6871 00000ae0 5008000b         ldiu      fp,ar0
     6872 00000ae1 02680002         addi      2,ar0
     6873 00000ae2 02600030         addi      48,r0                 ; Unsigned
     6874 00000ae3 1540c000         sti       r0,*ar0
     6875                           .line   55
     6876                   ;----------------------------------------------------------------------
     6877                   ; 988 | sScreenNumBuf[1] = (((WORD_L(nNvsram_Variable->nScreenNum)+1)%10)+0x30)
     6878                   ;     | ;                                                                      
     6879                   ;----------------------------------------------------------------------
     6880 00000ae4 50280000!        ldiu      @_nNvsram_Variable+0,ar0
     6881 00000ae5 506000ff         ldiu      255,r0
     6882 00000ae6 21a0c000         and3      r0,*ar0,r0
     6883 00000ae7 02600001         addi      1,r0                  ; Unsigned
     6884 00000ae8 5061000a         ldiu      10,r1
     6885 00000ae9 62000000!        call      MOD_U30
     6886                                                           ; Call Occurs
     6887 00000aea 5008000b         ldiu      fp,ar0
     6888 00000aeb 02680003         addi      3,ar0
     6889 00000aec 02600030         addi      48,r0                 ; Unsigned
     6890 00000aed 1540c000         sti       r0,*ar0
     6891                           .line   56
     6892                   ;----------------------------------------------------------------------
     6893                   ; 989 | gp_WritingStr(440,1,sScreenNumBuf);                                    
     6894                   ;----------------------------------------------------------------------
     6895 00000aee 50620001         ldiu      1,r2
     6896 00000aef 5000000b         ldiu      fp,r0
     6897 00000af0 02600002         addi      2,r0
     6898 00000af1 0f200000         push      r0
     6899 00000af2 0f220000         push      r2
     6900 00000af3 506101b8         ldiu      440,r1
     6901 00000af4 0f210000         push      r1
     6902 00000af5 620000ba'        call      _gp_WritingStr
     6903                                                           ; Call Occurs
     6904 00000af6 18740003         subi      3,sp
     6905                           .line   58
     6906                   ;----------------------------------------------------------------------
     6907                   ; 991 | gpROOTWHITE;                                                           
     6908                   ;----------------------------------------------------------------------
     6909 00000af7 5060003d         ldiu      61,r0
     6910 00000af8 50610000         ldiu      0,r1
     6911 00000af9 0f210000         push      r1
     6912 00000afa 0f200000         push      r0
TMS320C3x/4x COFF AssemblerVersion 5.11     Mon Apr 29 17:36:37 2013
Copyright (c) 1987-1999 Texas Instruments Incorporatedc:\lang\tms320c3x\511\bin\asm30.exe -l gpproface.asm gpproface.obj -tC:\Users\JDS\AppData\Local\Temp\gpproface.tmp 

gpproface.asm                                                        PAGE  129

     6913 00000afb 6200004d'        call      _gp_WritingWord
     6914                                                           ; Call Occurs
     6915 00000afc 18740002         subi      2,sp
     6916                           .line   59
     6917                   ;----------------------------------------------------------------------
     6918                   ; 992 | gpROOTINIT;                                                            
     6919                   ;----------------------------------------------------------------------
     6920 00000afd 50610000         ldiu      0,r1
     6921 00000afe 0f210000         push      r1
     6922 00000aff 5060003c         ldiu      60,r0
     6923 00000b00 0f200000         push      r0
     6924 00000b01 6200004d'        call      _gp_WritingWord
     6925                                                           ; Call Occurs
     6926 00000b02 18740002         subi      2,sp
     6927 00000b03 50600000         ldiu      0,r0
     6928 00000b04 0f200000         push      r0
     6929 00000b05 50610037         ldiu      55,r1
     6930 00000b06 0f210000         push      r1
     6931 00000b07 6200004d'        call      _gp_WritingWord
     6932                                                           ; Call Occurs
     6933 00000b08 18740002         subi      2,sp
     6934                           .line   60
     6935                   ;----------------------------------------------------------------------
     6936                   ; 993 | gpROOTDIS;                                                             
     6937                   ;----------------------------------------------------------------------
     6938 00000b09 50610000         ldiu      0,r1
     6939 00000b0a 0f210000         push      r1
     6940 00000b0b 50600039         ldiu      57,r0
     6941 00000b0c 0f200000         push      r0
     6942 00000b0d 6200004d'        call      _gp_WritingWord
     6943                                                           ; Call Occurs
     6944 00000b0e 18740002         subi      2,sp
     6945                           .line   64
     6946                   ;----------------------------------------------------------------------
     6947                   ; 997 | break;                                                                 
     6948                   ; 998 | case 0x6F:      //  .                                      
     6949                   ;----------------------------------------------------------------------
     6950 00000b0f 6a0001b1         bu        L287
     6951                   ;*      Branch Occurs to L287 
     6952 00000b10          L263:        
     6953                           .line   67
     6954                   ;----------------------------------------------------------------------
     6955                   ; 1000 | if(WORD_L(nNvsram_Variable->nScreenNum)<9)                             
     6956                   ;----------------------------------------------------------------------
     6957 00000b10 50280000!        ldiu      @_nNvsram_Variable+0,ar0
     6958 00000b11 506000ff         ldiu      255,r0
     6959 00000b12 21a0c000         and3      r0,*ar0,r0
     6960 00000b13 04e00009         cmpi      9,r0
     6961 00000b14 6a0401ac         bhs       L287
     6962                   ;*      Branch Occurs to L287 
     6963                           .line   69
     6964                   ;----------------------------------------------------------------------
     6965                   ; 1002 | if((WORD_L(SanDisk_Vari.nTotalDestCnt)/10)+1 > WORD_L(nNvsram_Variable-
     6966                   ;     | >nScreenNum+1 ))                                                       
TMS320C3x/4x COFF AssemblerVersion 5.11     Mon Apr 29 17:36:37 2013
Copyright (c) 1987-1999 Texas Instruments Incorporatedc:\lang\tms320c3x\511\bin\asm30.exe -l gpproface.asm gpproface.obj -tC:\Users\JDS\AppData\Local\Temp\gpproface.tmp 

gpproface.asm                                                        PAGE  130

     6967                   ;----------------------------------------------------------------------
     6968 00000b15 506000ff         ldiu      255,r0
     6969 00000b16 02a00000!        and       @_SanDisk_Vari+0,r0
     6970 00000b17 5061000a         ldiu      10,r1
     6971 00000b18 62000000!        call      DIV_U30
     6972                                                           ; Call Occurs
     6973 00000b19 50280000!        ldiu      @_nNvsram_Variable+0,ar0
     6974 00000b1a 50610001         ldiu      1,r1
     6975 00000b1b 2121c001         addi3     r1,*ar0,r1            ; Unsigned
     6976 00000b1c 02600001         addi      1,r0                  ; Unsigned
     6977 00000b1d 02e100ff         and       255,r1
     6978 00000b1e 23800001         cmpi3     r1,r0
     6979 00000b1f 6a0201a1         bls       L287
     6980                   ;*      Branch Occurs to L287 
     6981                           .line   71
     6982                   ;----------------------------------------------------------------------
     6983                   ; 1004 | nNvsram_Variable->nScreenNum++;                                        
     6984                   ;----------------------------------------------------------------------
     6985 00000b20 50600001         ldiu      1,r0
     6986 00000b21 2120c000         addi3     r0,*ar0,r0            ; Unsigned
     6987 00000b22 1540c000         sti       r0,*ar0
     6988                           .line   72
     6989                   ;----------------------------------------------------------------------
     6990                   ; 1005 | NVSRAM_Find_StationRoot(WORD_L(nNvsram_Variable->nScreenNum),10);
     6991                   ;     |  //   .                                              
     6992                   ;----------------------------------------------------------------------
     6993 00000b23 506000ff         ldiu      255,r0
     6994 00000b24 50280000!        ldiu      @_nNvsram_Variable+0,ar0
     6995 00000b25 5061000a         ldiu      10,r1
     6996 00000b26 21a0c000         and3      r0,*ar0,r0
     6997 00000b27 0f210000         push      r1
     6998 00000b28 0f200000         push      r0
     6999 00000b29 62000000!        call      _NVSRAM_Find_StationRoot
     7000                                                           ; Call Occurs
     7001 00000b2a 18740002         subi      2,sp
     7002                           .line   73
     7003                   ;----------------------------------------------------------------------
     7004                   ; 1006 | for(i=0;i<10;i++) gp_WritingStr(340+i*10,5, nNvsram_Variable->nDestScre
     7005                   ;     | en[i].nStationName);                                                   
     7006                   ;----------------------------------------------------------------------
     7007 00000b2b 50600000         ldiu      0,r0
     7008 00000b2c 15400301         sti       r0,*+fp(1)
     7009 00000b2d 50640005         ldiu      5,r4
     7010 00000b2e 04e0000a         cmpi      10,r0
     7011 00000b2f 6a040010         bhs       L267
     7012                   ;*      Branch Occurs to L267 
     7013 00000b30          L266:        
     7014                   
     7015 00000b30 c6080303         ldiu      *+fp(1),r0
     7016                   ||      ldiu      *+fp(1),r1
     7017                   
     7018 00000b31 0ae1000a         mpyi      10,r1
     7019 00000b32 03e00004         ash       4,r0
     7020 00000b33 02610154         addi      340,r1                ; Unsigned
TMS320C3x/4x COFF AssemblerVersion 5.11     Mon Apr 29 17:36:37 2013
Copyright (c) 1987-1999 Texas Instruments Incorporatedc:\lang\tms320c3x\511\bin\asm30.exe -l gpproface.asm gpproface.obj -tC:\Users\JDS\AppData\Local\Temp\gpproface.tmp 

gpproface.asm                                                        PAGE  131

     7021 00000b34 02200000!        addi      @_nNvsram_Variable+0,r0 ; Unsigned
     7022 00000b35 02600156         addi      342,r0                ; Unsigned
     7023 00000b36 0f200000         push      r0
     7024 00000b37 0f240000         push      r4
     7025 00000b38 0f210000         push      r1
     7026 00000b39 620000ba'        call      _gp_WritingStr
     7027                                                           ; Call Occurs
     7028 00000b3a 18740003         subi      3,sp
     7029 00000b3b 50600001         ldiu      1,r0
     7030 00000b3c 02400301         addi      *+fp(1),r0            ; Unsigned
     7031 00000b3d 15400301         sti       r0,*+fp(1)
     7032 00000b3e 04e0000a         cmpi      10,r0
     7033 00000b3f 6a01fff0         blo       L266
     7034                   ;*      Branch Occurs to L266 
     7035 00000b40          L267:        
     7036                           .line   75
     7037                   ;----------------------------------------------------------------------
     7038                   ; 1008 | sScreenNumBuf[0] = (((WORD_L(nNvsram_Variable->nScreenNum)+1)/10)+0x30)
     7039                   ;     | ;                                                                      
     7040                   ;----------------------------------------------------------------------
     7041 00000b40 50280000!        ldiu      @_nNvsram_Variable+0,ar0
     7042 00000b41 506000ff         ldiu      255,r0
     7043 00000b42 21a0c000         and3      r0,*ar0,r0
     7044 00000b43 02600001         addi      1,r0                  ; Unsigned
     7045 00000b44 5061000a         ldiu      10,r1
     7046 00000b45 62000000!        call      DIV_U30
     7047                                                           ; Call Occurs
     7048 00000b46 5008000b         ldiu      fp,ar0
     7049 00000b47 02680002         addi      2,ar0
     7050 00000b48 02600030         addi      48,r0                 ; Unsigned
     7051 00000b49 1540c000         sti       r0,*ar0
     7052                           .line   76
     7053                   ;----------------------------------------------------------------------
     7054                   ; 1009 | sScreenNumBuf[1] = (((WORD_L(nNvsram_Variable->nScreenNum)+1)%10)+0x30)
     7055                   ;     | ;                                                                      
     7056                   ;----------------------------------------------------------------------
     7057 00000b4a 50280000!        ldiu      @_nNvsram_Variable+0,ar0
     7058 00000b4b 506000ff         ldiu      255,r0
     7059 00000b4c 21a0c000         and3      r0,*ar0,r0
     7060 00000b4d 02600001         addi      1,r0                  ; Unsigned
     7061 00000b4e 5061000a         ldiu      10,r1
     7062 00000b4f 62000000!        call      MOD_U30
     7063                                                           ; Call Occurs
     7064 00000b50 5008000b         ldiu      fp,ar0
     7065 00000b51 02680003         addi      3,ar0
     7066 00000b52 02600030         addi      48,r0                 ; Unsigned
     7067 00000b53 1540c000         sti       r0,*ar0
     7068                           .line   77
     7069                   ;----------------------------------------------------------------------
     7070                   ; 1010 | gp_WritingStr(440,1,sScreenNumBuf);                                    
     7071                   ;----------------------------------------------------------------------
     7072 00000b54 50620001         ldiu      1,r2
     7073 00000b55 5000000b         ldiu      fp,r0
     7074 00000b56 02600002         addi      2,r0
TMS320C3x/4x COFF AssemblerVersion 5.11     Mon Apr 29 17:36:37 2013
Copyright (c) 1987-1999 Texas Instruments Incorporatedc:\lang\tms320c3x\511\bin\asm30.exe -l gpproface.asm gpproface.obj -tC:\Users\JDS\AppData\Local\Temp\gpproface.tmp 

gpproface.asm                                                        PAGE  132

     7075 00000b57 0f200000         push      r0
     7076 00000b58 0f220000         push      r2
     7077 00000b59 506101b8         ldiu      440,r1
     7078 00000b5a 0f210000         push      r1
     7079 00000b5b 620000ba'        call      _gp_WritingStr
     7080                                                           ; Call Occurs
     7081 00000b5c 18740003         subi      3,sp
     7082                           .line   79
     7083                   ;----------------------------------------------------------------------
     7084                   ; 1012 | gpROOTWHITE;                                                           
     7085                   ;----------------------------------------------------------------------
     7086 00000b5d 5060003d         ldiu      61,r0
     7087 00000b5e 50610000         ldiu      0,r1
     7088 00000b5f 0f210000         push      r1
     7089 00000b60 0f200000         push      r0
     7090 00000b61 6200004d'        call      _gp_WritingWord
     7091                                                           ; Call Occurs
     7092 00000b62 18740002         subi      2,sp
     7093                           .line   80
     7094                   ;----------------------------------------------------------------------
     7095                   ; 1013 | gpROOTINIT;                                                            
     7096                   ;----------------------------------------------------------------------
     7097 00000b63 50600000         ldiu      0,r0
     7098 00000b64 0f200000         push      r0
     7099 00000b65 5061003c         ldiu      60,r1
     7100 00000b66 0f210000         push      r1
     7101 00000b67 6200004d'        call      _gp_WritingWord
     7102                                                           ; Call Occurs
     7103 00000b68 18740002         subi      2,sp
     7104 00000b69 50600000         ldiu      0,r0
     7105 00000b6a 50610037         ldiu      55,r1
     7106 00000b6b 0f200000         push      r0
     7107 00000b6c 0f210000         push      r1
     7108 00000b6d 6200004d'        call      _gp_WritingWord
     7109                                                           ; Call Occurs
     7110 00000b6e 18740002         subi      2,sp
     7111                           .line   81
     7112                   ;----------------------------------------------------------------------
     7113                   ; 1014 | gpROOTDIS;                                                             
     7114                   ;----------------------------------------------------------------------
     7115 00000b6f 50600000         ldiu      0,r0
     7116 00000b70 50610039         ldiu      57,r1
     7117 00000b71 0f200000         push      r0
     7118 00000b72 0f210000         push      r1
     7119 00000b73 6200004d'        call      _gp_WritingWord
     7120                                                           ; Call Occurs
     7121 00000b74 18740002         subi      2,sp
     7122                           .line   85
     7123                   ;----------------------------------------------------------------------
     7124                   ; 1018 | break;                                                                 
     7125                   ;----------------------------------------------------------------------
     7126 00000b75 6a00014b         bu        L287
     7127                   ;*      Branch Occurs to L287 
     7128 00000b76          L268:        
TMS320C3x/4x COFF AssemblerVersion 5.11     Mon Apr 29 17:36:37 2013
Copyright (c) 1987-1999 Texas Instruments Incorporatedc:\lang\tms320c3x\511\bin\asm30.exe -l gpproface.asm gpproface.obj -tC:\Users\JDS\AppData\Local\Temp\gpproface.tmp 

gpproface.asm                                                        PAGE  133

     7129                           .line   86
     7130                   ;----------------------------------------------------------------------
     7131                   ; 1019 | case 0x64: gpROOT1BLK;  gpROOTACTIVE;  gpROOTDIS; nNvsram_Variable->nDe
     7132                   ;     | stSetNum=1; break;       // 1 (T Tag )                     
     7133                   ;----------------------------------------------------------------------
     7134 00000b76 50600001         ldiu      1,r0
     7135 00000b77 50610038         ldiu      56,r1
     7136 00000b78 0f200000         push      r0
     7137 00000b79 0f210000         push      r1
     7138 00000b7a 6200004d'        call      _gp_WritingWord
     7139                                                           ; Call Occurs
     7140 00000b7b 18740002         subi      2,sp
     7141 00000b7c 50600001         ldiu      1,r0
     7142 00000b7d 5061003c         ldiu      60,r1
     7143 00000b7e 0f200000         push      r0
     7144 00000b7f 0f210000         push      r1
     7145 00000b80 6200004d'        call      _gp_WritingWord
     7146                                                           ; Call Occurs
     7147 00000b81 18740002         subi      2,sp
     7148 00000b82 50600000         ldiu      0,r0
     7149 00000b83 50610039         ldiu      57,r1
     7150 00000b84 0f200000         push      r0
     7151 00000b85 0f210000         push      r1
     7152 00000b86 6200004d'        call      _gp_WritingWord
     7153                                                           ; Call Occurs
     7154 00000b87 18740002         subi      2,sp
     7155 00000b88 50280000!        ldiu      @_nNvsram_Variable+0,ar0
     7156 00000b89 50600001         ldiu      1,r0
     7157 00000b8a 15400001         sti       r0,*+ar0(1)
     7158 00000b8b 6a000135         bu        L287
     7159                   ;*      Branch Occurs to L287 
     7160 00000b8c          L269:        
     7161                           .line   87
     7162                   ;----------------------------------------------------------------------
     7163                   ; 1020 | case 0x65: gpROOT2BLK;  gpROOTACTIVE;  gpROOTDIS; nNvsram_Variable->nDe
     7164                   ;     | stSetNum=2; break;       // 2 (T Tag )                     
     7165                   ;----------------------------------------------------------------------
     7166 00000b8c 50600002         ldiu      2,r0
     7167 00000b8d 50610038         ldiu      56,r1
     7168 00000b8e 0f200000         push      r0
     7169 00000b8f 0f210000         push      r1
     7170 00000b90 6200004d'        call      _gp_WritingWord
     7171                                                           ; Call Occurs
     7172 00000b91 18740002         subi      2,sp
     7173 00000b92 50600001         ldiu      1,r0
     7174 00000b93 5061003c         ldiu      60,r1
     7175 00000b94 0f200000         push      r0
     7176 00000b95 0f210000         push      r1
     7177 00000b96 6200004d'        call      _gp_WritingWord
     7178                                                           ; Call Occurs
     7179 00000b97 18740002         subi      2,sp
     7180 00000b98 50600000         ldiu      0,r0
     7181 00000b99 50610039         ldiu      57,r1
     7182 00000b9a 0f200000         push      r0
TMS320C3x/4x COFF AssemblerVersion 5.11     Mon Apr 29 17:36:37 2013
Copyright (c) 1987-1999 Texas Instruments Incorporatedc:\lang\tms320c3x\511\bin\asm30.exe -l gpproface.asm gpproface.obj -tC:\Users\JDS\AppData\Local\Temp\gpproface.tmp 

gpproface.asm                                                        PAGE  134

     7183 00000b9b 0f210000         push      r1
     7184 00000b9c 6200004d'        call      _gp_WritingWord
     7185                                                           ; Call Occurs
     7186 00000b9d 18740002         subi      2,sp
     7187 00000b9e 50280000!        ldiu      @_nNvsram_Variable+0,ar0
     7188 00000b9f 50600002         ldiu      2,r0
     7189 00000ba0 15400001         sti       r0,*+ar0(1)
     7190 00000ba1 6a00011f         bu        L287
     7191                   ;*      Branch Occurs to L287 
     7192 00000ba2          L270:        
     7193                           .line   88
     7194                   ;----------------------------------------------------------------------
     7195                   ; 1021 | case 0x66: gpROOT3BLK;  gpROOTACTIVE;  gpROOTDIS; nNvsram_Variable->nDe
     7196                   ;     | stSetNum=3; break;       // 3 (T Tag )                     
     7197                   ;----------------------------------------------------------------------
     7198 00000ba2 50600004         ldiu      4,r0
     7199 00000ba3 50610038         ldiu      56,r1
     7200 00000ba4 0f200000         push      r0
     7201 00000ba5 0f210000         push      r1
     7202 00000ba6 6200004d'        call      _gp_WritingWord
     7203                                                           ; Call Occurs
     7204 00000ba7 18740002         subi      2,sp
     7205 00000ba8 50600001         ldiu      1,r0
     7206 00000ba9 5061003c         ldiu      60,r1
     7207 00000baa 0f200000         push      r0
     7208 00000bab 0f210000         push      r1
     7209 00000bac 6200004d'        call      _gp_WritingWord
     7210                                                           ; Call Occurs
     7211 00000bad 18740002         subi      2,sp
     7212 00000bae 50600000         ldiu      0,r0
     7213 00000baf 50610039         ldiu      57,r1
     7214 00000bb0 0f200000         push      r0
     7215 00000bb1 0f210000         push      r1
     7216 00000bb2 6200004d'        call      _gp_WritingWord
     7217                                                           ; Call Occurs
     7218 00000bb3 18740002         subi      2,sp
     7219 00000bb4 50280000!        ldiu      @_nNvsram_Variable+0,ar0
     7220 00000bb5 50600003         ldiu      3,r0
     7221 00000bb6 15400001         sti       r0,*+ar0(1)
     7222 00000bb7 6a000109         bu        L287
     7223                   ;*      Branch Occurs to L287 
     7224 00000bb8          L271:        
     7225                           .line   89
     7226                   ;----------------------------------------------------------------------
     7227                   ; 1022 | case 0x67: gpROOT4BLK;  gpROOTACTIVE;  gpROOTDIS; nNvsram_Variable->nDe
     7228                   ;     | stSetNum=4; break;       // 4 (T Tag )                     
     7229                   ;----------------------------------------------------------------------
     7230 00000bb8 50600008         ldiu      8,r0
     7231 00000bb9 50610038         ldiu      56,r1
     7232 00000bba 0f200000         push      r0
     7233 00000bbb 0f210000         push      r1
     7234 00000bbc 6200004d'        call      _gp_WritingWord
     7235                                                           ; Call Occurs
     7236 00000bbd 18740002         subi      2,sp
TMS320C3x/4x COFF AssemblerVersion 5.11     Mon Apr 29 17:36:37 2013
Copyright (c) 1987-1999 Texas Instruments Incorporatedc:\lang\tms320c3x\511\bin\asm30.exe -l gpproface.asm gpproface.obj -tC:\Users\JDS\AppData\Local\Temp\gpproface.tmp 

gpproface.asm                                                        PAGE  135

     7237 00000bbe 50600001         ldiu      1,r0
     7238 00000bbf 5061003c         ldiu      60,r1
     7239 00000bc0 0f200000         push      r0
     7240 00000bc1 0f210000         push      r1
     7241 00000bc2 6200004d'        call      _gp_WritingWord
     7242                                                           ; Call Occurs
     7243 00000bc3 18740002         subi      2,sp
     7244 00000bc4 50600000         ldiu      0,r0
     7245 00000bc5 50610039         ldiu      57,r1
     7246 00000bc6 0f200000         push      r0
     7247 00000bc7 0f210000         push      r1
     7248 00000bc8 6200004d'        call      _gp_WritingWord
     7249                                                           ; Call Occurs
     7250 00000bc9 18740002         subi      2,sp
     7251 00000bca 50280000!        ldiu      @_nNvsram_Variable+0,ar0
     7252 00000bcb 50600004         ldiu      4,r0
     7253 00000bcc 15400001         sti       r0,*+ar0(1)
     7254 00000bcd 6a0000f3         bu        L287
     7255                   ;*      Branch Occurs to L287 
     7256 00000bce          L272:        
     7257                           .line   90
     7258                   ;----------------------------------------------------------------------
     7259                   ; 1023 | case 0x68: gpROOT5BLK;  gpROOTACTIVE;  gpROOTDIS; nNvsram_Variable->nDe
     7260                   ;     | stSetNum=5; break;       // 5 (T Tag )                     
     7261                   ;----------------------------------------------------------------------
     7262 00000bce 50600010         ldiu      16,r0
     7263 00000bcf 50610038         ldiu      56,r1
     7264 00000bd0 0f200000         push      r0
     7265 00000bd1 0f210000         push      r1
     7266 00000bd2 6200004d'        call      _gp_WritingWord
     7267                                                           ; Call Occurs
     7268 00000bd3 18740002         subi      2,sp
     7269 00000bd4 50600001         ldiu      1,r0
     7270 00000bd5 5061003c         ldiu      60,r1
     7271 00000bd6 0f200000         push      r0
     7272 00000bd7 0f210000         push      r1
     7273 00000bd8 6200004d'        call      _gp_WritingWord
     7274                                                           ; Call Occurs
     7275 00000bd9 18740002         subi      2,sp
     7276 00000bda 50600000         ldiu      0,r0
     7277 00000bdb 50610039         ldiu      57,r1
     7278 00000bdc 0f200000         push      r0
     7279 00000bdd 0f210000         push      r1
     7280 00000bde 6200004d'        call      _gp_WritingWord
     7281                                                           ; Call Occurs
     7282 00000bdf 18740002         subi      2,sp
     7283 00000be0 50280000!        ldiu      @_nNvsram_Variable+0,ar0
     7284 00000be1 50600005         ldiu      5,r0
     7285 00000be2 15400001         sti       r0,*+ar0(1)
     7286 00000be3 6a0000dd         bu        L287
     7287                   ;*      Branch Occurs to L287 
     7288 00000be4          L273:        
     7289                           .line   91
     7290                   ;----------------------------------------------------------------------
TMS320C3x/4x COFF AssemblerVersion 5.11     Mon Apr 29 17:36:37 2013
Copyright (c) 1987-1999 Texas Instruments Incorporatedc:\lang\tms320c3x\511\bin\asm30.exe -l gpproface.asm gpproface.obj -tC:\Users\JDS\AppData\Local\Temp\gpproface.tmp 

gpproface.asm                                                        PAGE  136

     7291                   ; 1024 | case 0x69: gpROOT6BLK;  gpROOTACTIVE;  gpROOTDIS; nNvsram_Variable->nDe
     7292                   ;     | stSetNum=6; break;       // 6 (T Tag )                     
     7293                   ;----------------------------------------------------------------------
     7294 00000be4 50600020         ldiu      32,r0
     7295 00000be5 50610038         ldiu      56,r1
     7296 00000be6 0f200000         push      r0
     7297 00000be7 0f210000         push      r1
     7298 00000be8 6200004d'        call      _gp_WritingWord
     7299                                                           ; Call Occurs
     7300 00000be9 18740002         subi      2,sp
     7301 00000bea 50600001         ldiu      1,r0
     7302 00000beb 5061003c         ldiu      60,r1
     7303 00000bec 0f200000         push      r0
     7304 00000bed 0f210000         push      r1
     7305 00000bee 6200004d'        call      _gp_WritingWord
     7306                                                           ; Call Occurs
     7307 00000bef 18740002         subi      2,sp
     7308 00000bf0 50600000         ldiu      0,r0
     7309 00000bf1 50610039         ldiu      57,r1
     7310 00000bf2 0f200000         push      r0
     7311 00000bf3 0f210000         push      r1
     7312 00000bf4 6200004d'        call      _gp_WritingWord
     7313                                                           ; Call Occurs
     7314 00000bf5 18740002         subi      2,sp
     7315 00000bf6 50280000!        ldiu      @_nNvsram_Variable+0,ar0
     7316 00000bf7 50600006         ldiu      6,r0
     7317 00000bf8 15400001         sti       r0,*+ar0(1)
     7318 00000bf9 6a0000c7         bu        L287
     7319                   ;*      Branch Occurs to L287 
     7320 00000bfa          L274:        
     7321                           .line   92
     7322                   ;----------------------------------------------------------------------
     7323                   ; 1025 | case 0x6a: gpROOT7BLK;  gpROOTACTIVE;  gpROOTDIS; nNvsram_Variable->nDe
     7324                   ;     | stSetNum=7; break;       // 7 (T Tag )                     
     7325                   ;----------------------------------------------------------------------
     7326 00000bfa 50600040         ldiu      64,r0
     7327 00000bfb 50610038         ldiu      56,r1
     7328 00000bfc 0f200000         push      r0
     7329 00000bfd 0f210000         push      r1
     7330 00000bfe 6200004d'        call      _gp_WritingWord
     7331                                                           ; Call Occurs
     7332 00000bff 18740002         subi      2,sp
     7333 00000c00 50600001         ldiu      1,r0
     7334 00000c01 5061003c         ldiu      60,r1
     7335 00000c02 0f200000         push      r0
     7336 00000c03 0f210000         push      r1
     7337 00000c04 6200004d'        call      _gp_WritingWord
     7338                                                           ; Call Occurs
     7339 00000c05 18740002         subi      2,sp
     7340 00000c06 50600000         ldiu      0,r0
     7341 00000c07 50610039         ldiu      57,r1
     7342 00000c08 0f200000         push      r0
     7343 00000c09 0f210000         push      r1
     7344 00000c0a 6200004d'        call      _gp_WritingWord
TMS320C3x/4x COFF AssemblerVersion 5.11     Mon Apr 29 17:36:37 2013
Copyright (c) 1987-1999 Texas Instruments Incorporatedc:\lang\tms320c3x\511\bin\asm30.exe -l gpproface.asm gpproface.obj -tC:\Users\JDS\AppData\Local\Temp\gpproface.tmp 

gpproface.asm                                                        PAGE  137

     7345                                                           ; Call Occurs
     7346 00000c0b 18740002         subi      2,sp
     7347 00000c0c 50280000!        ldiu      @_nNvsram_Variable+0,ar0
     7348 00000c0d 50600007         ldiu      7,r0
     7349 00000c0e 15400001         sti       r0,*+ar0(1)
     7350 00000c0f 6a0000b1         bu        L287
     7351                   ;*      Branch Occurs to L287 
     7352 00000c10          L275:        
     7353                           .line   93
     7354                   ;----------------------------------------------------------------------
     7355                   ; 1026 | case 0x6b: gpROOT8BLK;  gpROOTACTIVE;  gpROOTDIS; nNvsram_Variable->nDe
     7356                   ;     | stSetNum=8; break;       // 8 (T Tag )                     
     7357                   ;----------------------------------------------------------------------
     7358 00000c10 50600080         ldiu      128,r0
     7359 00000c11 50610038         ldiu      56,r1
     7360 00000c12 0f200000         push      r0
     7361 00000c13 0f210000         push      r1
     7362 00000c14 6200004d'        call      _gp_WritingWord
     7363                                                           ; Call Occurs
     7364 00000c15 18740002         subi      2,sp
     7365 00000c16 50600001         ldiu      1,r0
     7366 00000c17 5061003c         ldiu      60,r1
     7367 00000c18 0f200000         push      r0
     7368 00000c19 0f210000         push      r1
     7369 00000c1a 6200004d'        call      _gp_WritingWord
     7370                                                           ; Call Occurs
     7371 00000c1b 18740002         subi      2,sp
     7372 00000c1c 50600000         ldiu      0,r0
     7373 00000c1d 50610039         ldiu      57,r1
     7374 00000c1e 0f200000         push      r0
     7375 00000c1f 0f210000         push      r1
     7376 00000c20 6200004d'        call      _gp_WritingWord
     7377                                                           ; Call Occurs
     7378 00000c21 18740002         subi      2,sp
     7379 00000c22 50280000!        ldiu      @_nNvsram_Variable+0,ar0
     7380 00000c23 50600008         ldiu      8,r0
     7381 00000c24 15400001         sti       r0,*+ar0(1)
     7382 00000c25 6a00009b         bu        L287
     7383                   ;*      Branch Occurs to L287 
     7384 00000c26          L276:        
     7385                           .line   94
     7386                   ;----------------------------------------------------------------------
     7387                   ; 1027 | case 0x6c: gpROOT9BLK;  gpROOTACTIVE;  gpROOTDIS; nNvsram_Variable->nDe
     7388                   ;     | stSetNum=9; break;       // 9 (T Tag )                     
     7389                   ;----------------------------------------------------------------------
     7390 00000c26 50600100         ldiu      256,r0
     7391 00000c27 50610038         ldiu      56,r1
     7392 00000c28 0f200000         push      r0
     7393 00000c29 0f210000         push      r1
     7394 00000c2a 6200004d'        call      _gp_WritingWord
     7395                                                           ; Call Occurs
     7396 00000c2b 18740002         subi      2,sp
     7397 00000c2c 50600001         ldiu      1,r0
     7398 00000c2d 5061003c         ldiu      60,r1
TMS320C3x/4x COFF AssemblerVersion 5.11     Mon Apr 29 17:36:37 2013
Copyright (c) 1987-1999 Texas Instruments Incorporatedc:\lang\tms320c3x\511\bin\asm30.exe -l gpproface.asm gpproface.obj -tC:\Users\JDS\AppData\Local\Temp\gpproface.tmp 

gpproface.asm                                                        PAGE  138

     7399 00000c2e 0f200000         push      r0
     7400 00000c2f 0f210000         push      r1
     7401 00000c30 6200004d'        call      _gp_WritingWord
     7402                                                           ; Call Occurs
     7403 00000c31 18740002         subi      2,sp
     7404 00000c32 50600000         ldiu      0,r0
     7405 00000c33 50610039         ldiu      57,r1
     7406 00000c34 0f200000         push      r0
     7407 00000c35 0f210000         push      r1
     7408 00000c36 6200004d'        call      _gp_WritingWord
     7409                                                           ; Call Occurs
     7410 00000c37 18740002         subi      2,sp
     7411 00000c38 50280000!        ldiu      @_nNvsram_Variable+0,ar0
     7412 00000c39 50600009         ldiu      9,r0
     7413 00000c3a 15400001         sti       r0,*+ar0(1)
     7414 00000c3b 6a000085         bu        L287
     7415                   ;*      Branch Occurs to L287 
     7416 00000c3c          L277:        
     7417                           .line   95
     7418                   ;----------------------------------------------------------------------
     7419                   ; 1028 | case 0x6d: gpROOT10BLK; gpROOTACTIVE;  gpROOTDIS; nNvsram_Variable->nDe
     7420                   ;     | stSetNum=10; break;      // 10(T Tag )                     
     7421                   ; 1030 | case 0x51:                                                             
     7422                   ;----------------------------------------------------------------------
     7423 00000c3c 50600200         ldiu      512,r0
     7424 00000c3d 50610038         ldiu      56,r1
     7425 00000c3e 0f200000         push      r0
     7426 00000c3f 0f210000         push      r1
     7427 00000c40 6200004d'        call      _gp_WritingWord
     7428                                                           ; Call Occurs
     7429 00000c41 18740002         subi      2,sp
     7430 00000c42 50600001         ldiu      1,r0
     7431 00000c43 5061003c         ldiu      60,r1
     7432 00000c44 0f200000         push      r0
     7433 00000c45 0f210000         push      r1
     7434 00000c46 6200004d'        call      _gp_WritingWord
     7435                                                           ; Call Occurs
     7436 00000c47 18740002         subi      2,sp
     7437 00000c48 50600000         ldiu      0,r0
     7438 00000c49 50610039         ldiu      57,r1
     7439 00000c4a 0f200000         push      r0
     7440 00000c4b 0f210000         push      r1
     7441 00000c4c 6200004d'        call      _gp_WritingWord
     7442                                                           ; Call Occurs
     7443 00000c4d 18740002         subi      2,sp
     7444 00000c4e 50280000!        ldiu      @_nNvsram_Variable+0,ar0
     7445 00000c4f 5060000a         ldiu      10,r0
     7446 00000c50 15400001         sti       r0,*+ar0(1)
     7447 00000c51 6a00006f         bu        L287
     7448                   ;*      Branch Occurs to L287 
     7449                           .line   98
     7450                   ;----------------------------------------------------------------------
     7451                   ; 1031 | gpROOTNOBLK;                                                           
     7452                   ;----------------------------------------------------------------------
TMS320C3x/4x COFF AssemblerVersion 5.11     Mon Apr 29 17:36:37 2013
Copyright (c) 1987-1999 Texas Instruments Incorporatedc:\lang\tms320c3x\511\bin\asm30.exe -l gpproface.asm gpproface.obj -tC:\Users\JDS\AppData\Local\Temp\gpproface.tmp 

gpproface.asm                                                        PAGE  139

     7453 00000c52          L279:        
     7454 00000c52 0f200000         push      r0
     7455 00000c53 0f210000         push      r1
     7456 00000c54 6200004d'        call      _gp_WritingWord
     7457                                                           ; Call Occurs
     7458 00000c55 18740002         subi      2,sp
     7459                           .line   99
     7460                   ;----------------------------------------------------------------------
     7461                   ; 1032 | gpROOTINIT; //    .                                
     7462                   ;----------------------------------------------------------------------
     7463 00000c56 50600000         ldiu      0,r0
     7464 00000c57 5061003c         ldiu      60,r1
     7465 00000c58 0f200000         push      r0
     7466 00000c59 0f210000         push      r1
     7467 00000c5a 6200004d'        call      _gp_WritingWord
     7468                                                           ; Call Occurs
     7469 00000c5b 18740002         subi      2,sp
     7470 00000c5c 50600000         ldiu      0,r0
     7471 00000c5d 50610037         ldiu      55,r1
     7472 00000c5e 0f200000         push      r0
     7473 00000c5f 0f210000         push      r1
     7474 00000c60 6200004d'        call      _gp_WritingWord
     7475                                                           ; Call Occurs
     7476 00000c61 18740002         subi      2,sp
     7477                           .line   101
     7478                   ;----------------------------------------------------------------------
     7479                   ; 1034 | sDestNum = WORD_L(SanDisk_Vari.nTotalDestCnt);                         
     7480                   ;----------------------------------------------------------------------
     7481 00000c62 506000ff         ldiu      255,r0
     7482 00000c63 02a00000!        and       @_SanDisk_Vari+0,r0
     7483 00000c64 15400307         sti       r0,*+fp(7)
     7484                           .line   102
     7485                   ;----------------------------------------------------------------------
     7486                   ; 1035 | sDestNum1 = WORD_L(nNvsram_Variable->nScreenNum)*10+WORD_L(nNvsram_Vari
     7487                   ;     | able->nDestSetNum);                                                    
     7488                   ;----------------------------------------------------------------------
     7489 00000c65 506000ff         ldiu      255,r0
     7490 00000c66 50280000!        ldiu      @_nNvsram_Variable+0,ar0
     7491 00000c67 506100ff         ldiu      255,r1
     7492 00000c68 50090008         ldiu      ar0,ar1
     7493 00000c69 21a1c001         and3      r1,*ar0,r1
     7494 00000c6a 0ae1000a         mpyi      10,r1
     7495 00000c6b 02c00101         and       *+ar1(1),r0
     7496 00000c6c 21000100         addi3     r0,r1,r0              ; Unsigned
     7497 00000c6d 15400308         sti       r0,*+fp(8)
     7498                           .line   104
     7499                   ;----------------------------------------------------------------------
     7500                   ; 1037 | if(sDestNum >= sDestNum1)                                              
     7501                   ;----------------------------------------------------------------------
     7502 00000c6e 50400307         ldiu      *+fp(7),r0
     7503 00000c6f 04c00308         cmpi      *+fp(8),r0
     7504 00000c70 6a01002c         blo       L281
     7505                   ;*      Branch Occurs to L281 
     7506                           .line   106
TMS320C3x/4x COFF AssemblerVersion 5.11     Mon Apr 29 17:36:37 2013
Copyright (c) 1987-1999 Texas Instruments Incorporatedc:\lang\tms320c3x\511\bin\asm30.exe -l gpproface.asm gpproface.obj -tC:\Users\JDS\AppData\Local\Temp\gpproface.tmp 

gpproface.asm                                                        PAGE  140

     7507                   ;----------------------------------------------------------------------
     7508                   ; 1039 | nNvsram_Variable->nDestSetNumRe = WORD_L(nNvsram_Variable->nDestSetNum)
     7509                   ;     | ;                                                                      
     7510                   ;----------------------------------------------------------------------
     7511 00000c71 506000ff         ldiu      255,r0
     7512 00000c72 02c00101         and       *+ar1(1),r0
     7513 00000c73 15400002         sti       r0,*+ar0(2)
     7514                           .line   107
     7515                   ;----------------------------------------------------------------------
     7516                   ; 1040 | gp_WritingWord(0x3D,(0x01<<((WORD_L(nNvsram_Variable->nDestSetNumRe)-1)
     7517                   ;     | %10)));   //                                 
     7518                   ;----------------------------------------------------------------------
     7519 00000c74 50280000!        ldiu      @_nNvsram_Variable+0,ar0
     7520 00000c75 506000ff         ldiu      255,r0
     7521 00000c76 02c00002         and       *+ar0(2),r0
     7522 00000c77 18600001         subi      1,r0                  ; Unsigned
     7523 00000c78 5061000a         ldiu      10,r1
     7524 00000c79 62000000!        call      MOD_U30
     7525                                                           ; Call Occurs
     7526 00000c7a 50620001         ldiu      1,r2
     7527 00000c7b 5061003d         ldiu      61,r1
     7528 00000c7c 22800200         ash3      r0,r2,r0
     7529 00000c7d 0f200000         push      r0
     7530 00000c7e 0f210000         push      r1
     7531 00000c7f 6200004d'        call      _gp_WritingWord
     7532                                                           ; Call Occurs
     7533 00000c80 18740002         subi      2,sp
     7534                           .line   108
     7535                   ;----------------------------------------------------------------------
     7536                   ; 1041 | nTr_St_Info.nDest.nCode = WORD_L(nNvsram_Variable->nDestCodeList[sDestN
     7537                   ;     | um1-1]);                                                               
     7538                   ;----------------------------------------------------------------------
     7539 00000c81 50510308         ldiu      *+fp(8),ir0
     7540 00000c82 50680104         ldiu      260,ar0
     7541 00000c83 02310000!        addi      @_nNvsram_Variable+0,ir0 ; Unsigned
     7542 00000c84 506000ff         ldiu      255,r0
     7543 00000c85 21a04000         and3      r0,*+ar0(ir0),r0
     7544 00000c86 15200190!        sti       r0,@_nTr_St_Info+400
     7545                           .line   110
     7546                   ;----------------------------------------------------------------------
     7547                   ; 1043 | NVSRAM_Rd_StationName_Code(nTr_St_Info.nDest.nCode,nTr_St_Info.nDest.nE
     7548                   ;     | nNameBuf,nTr_St_Info.nGpStName.nDest);//                               
     7549                   ;----------------------------------------------------------------------
     7550 00000c87 50200210-        ldiu      @CL8,r0
     7551 00000c88 50210211-        ldiu      @CL9,r1
     7552 00000c89 0f200000         push      r0
     7553 00000c8a 0f210000         push      r1
     7554 00000c8b 50200190!        ldiu      @_nTr_St_Info+400,r0
     7555 00000c8c 0f200000         push      r0
     7556 00000c8d 62000000!        call      _NVSRAM_Rd_StationName_Code
     7557                                                           ; Call Occurs
     7558 00000c8e 18740003         subi      3,sp
     7559                           .line   112
     7560                   ;----------------------------------------------------------------------
TMS320C3x/4x COFF AssemblerVersion 5.11     Mon Apr 29 17:36:37 2013
Copyright (c) 1987-1999 Texas Instruments Incorporatedc:\lang\tms320c3x\511\bin\asm30.exe -l gpproface.asm gpproface.obj -tC:\Users\JDS\AppData\Local\Temp\gpproface.tmp 

gpproface.asm                                                        PAGE  141

     7561                   ; 1045 | gp_WritingStr(0x96,5,nTr_St_Info.nGpStName.nDest);      //     
     7562                   ;----------------------------------------------------------------------
     7563 00000c8f 50200210-        ldiu      @CL8,r0
     7564 00000c90 0f200000         push      r0
     7565 00000c91 50610005         ldiu      5,r1
     7566 00000c92 0f210000         push      r1
     7567 00000c93 50620096         ldiu      150,r2
     7568 00000c94 0f220000         push      r2
     7569 00000c95 620000ba'        call      _gp_WritingStr
     7570                                                           ; Call Occurs
     7571 00000c96 18740003         subi      3,sp
     7572                           .line   114
     7573                   ;----------------------------------------------------------------------
     7574                   ; 1047 | nSccSendFlag.nSDI_Clean = 2;                                           
     7575                   ;----------------------------------------------------------------------
     7576 00000c97 50600002         ldiu      2,r0
     7577 00000c98 1520000b!        sti       r0,@_nSccSendFlag+11
     7578                           .line   116
     7579                   ;----------------------------------------------------------------------
     7580                   ; 1049 | nSccSendFlag.nDeSTCodeSet = 4;                                         
     7581                   ;----------------------------------------------------------------------
     7582 00000c99 50600004         ldiu      4,r0
     7583 00000c9a 15200001!        sti       r0,@_nSccSendFlag+1
     7584                           .line   118
     7585                   ;----------------------------------------------------------------------
     7586                   ; 1051 | nSccSendFlag.nSddCodeSet = 3;                                          
     7587                   ; 1053 | //SCC_TX_PROTOCOL(sDestTxBuf,0xF8,0x31,0x1C,WORD_L(nTr_St_Info.nDest.nC
     7588                   ;     | ode),10);                                                              
     7589                   ; 1054 | //Delay_SCC2_SendTo(sDestTxBuf,20,SCC_A_CHANNEL,5);                    
     7590                   ;----------------------------------------------------------------------
     7591 00000c9b 50600003         ldiu      3,r0
     7592 00000c9c 15200002!        sti       r0,@_nSccSendFlag+2
     7593 00000c9d          L281:        
     7594                           .line   124
     7595                   ;----------------------------------------------------------------------
     7596                   ; 1057 | gpROOTEN;                                                              
     7597                   ;----------------------------------------------------------------------
     7598 00000c9d 50600001         ldiu      1,r0
     7599 00000c9e 50610039         ldiu      57,r1
     7600 00000c9f 0f200000         push      r0
     7601 00000ca0 0f210000         push      r1
     7602 00000ca1 6200004d'        call      _gp_WritingWord
     7603                                                           ; Call Occurs
     7604 00000ca2 18740002         subi      2,sp
     7605                           .line   125
     7606                   ;----------------------------------------------------------------------
     7607                   ; 1058 | break;                                                                 
     7608                   ;----------------------------------------------------------------------
     7609 00000ca3 6a00001d         bu        L287
     7610                   ;*      Branch Occurs to L287 
     7611                           .line   10
     7612 00000ca4          L283:        
     7613 00000ca4 04e00038         cmpi      56,r0
     7614 00000ca5 6a05fd8b         beq       L252
TMS320C3x/4x COFF AssemblerVersion 5.11     Mon Apr 29 17:36:37 2013
Copyright (c) 1987-1999 Texas Instruments Incorporatedc:\lang\tms320c3x\511\bin\asm30.exe -l gpproface.asm gpproface.obj -tC:\Users\JDS\AppData\Local\Temp\gpproface.tmp 

gpproface.asm                                                        PAGE  142

     7615                   ;*      Branch Occurs to L252 
     7616 00000ca6 04e00051         cmpi      81,r0
     7617 00000ca7 6a25ffa8         beqd      L279
     7618 00000ca8 0c800000         nop
     7619 00000ca9 52e00000         ldieq     0,r0
     7620 00000caa 52e10038         ldieq     56,r1
     7621                   ;*      Branch Occurs to L279 
     7622 00000cab 50610064         ldiu      100,r1
     7623 00000cac 19810000         subri     r0,r1
     7624 00000cad 04e1000b         cmpi      11,r1
     7625 00000cae 6a230010         bhid      L287
     7626 00000caf 0c800000         nop
     7627 00000cb0 51710064         ldils     100,ir0
     7628 00000cb1 51280230-        ldils     @CL40,ar0
     7629                   ;*      Branch Occurs to L287 
     7630 00000cb2 19910000         subri     r0,ir0
     7631 00000cb3 50404000         ldiu      *+ar0(ir0),r0
     7632 00000cb4 68000000         bu        r0
     7633                   
     7634 00000cb5                  .sect   ".text"
     7635 00000cb5 00000b76'SW1:    .word   L268    ; 100
     7636 00000cb6 00000b8c'        .word   L269    ; 101
     7637 00000cb7 00000ba2'        .word   L270    ; 102
     7638 00000cb8 00000bb8'        .word   L271    ; 103
     7639 00000cb9 00000bce'        .word   L272    ; 104
     7640 00000cba 00000be4'        .word   L273    ; 105
     7641 00000cbb 00000bfa'        .word   L274    ; 106
     7642 00000cbc 00000c10'        .word   L275    ; 107
     7643 00000cbd 00000c26'        .word   L276    ; 108
     7644 00000cbe 00000c3c'        .word   L277    ; 109
     7645 00000cbf 00000ab6'        .word   L259    ; 110
     7646 00000cc0 00000b10'        .word   L263    ; 111
     7647 00000cc1                  .sect   ".text"
     7648                   ;*      Branch Occurs to r0 
     7649 00000cc1          L287:        
     7650                           .line   128
     7651 00000cc1 50530b01         ldiu      *-fp(1),bk
     7652 00000cc2 0e240000         pop       r4
     7653 00000cc3 504bc300         ldiu      *fp,fp
     7654 00000cc4 18740020         subi      32,sp
     7655 00000cc5 68000013         bu        bk
     7656                   ;*      Branch Occurs to bk 
     7657                           .endfunc        1061,000000010h,30
     7658                   
     7659                   
     7660 00000cc6                  .sect    ".text"
     7661                   
     7662                           .global _GP_SIMU_SCREEN
     7663                           .sym    _GP_SIMU_SCREEN,_GP_SIMU_SCREEN,32,2,0
     7664                           .func   1065
     7665                   ;******************************************************************************
     7666                   ;* FUNCTION NAME: _GP_SIMU_SCREEN                                             *
     7667                   ;*                                                                            *
     7668                   ;*   Architecture       : TMS320C30                                           *
TMS320C3x/4x COFF AssemblerVersion 5.11     Mon Apr 29 17:36:37 2013
Copyright (c) 1987-1999 Texas Instruments Incorporatedc:\lang\tms320c3x\511\bin\asm30.exe -l gpproface.asm gpproface.obj -tC:\Users\JDS\AppData\Local\Temp\gpproface.tmp 

gpproface.asm                                                        PAGE  143

     7669                   ;*   Calling Convention : Stack Parameter Convention                          *
     7670                   ;*   Function Uses Regs : r0,r1,r2,ar0,fp,ir0,sp,st                           *
     7671                   ;*   Regs Saved         :                                                     *
     7672                   ;*   Stack Frame        : Full (w/ debug)                                     *
     7673                   ;*   Total Frame Size   : 2 Call + 1 Parm + 1 Auto + 0 SOE = 4 words          *
     7674                   ;******************************************************************************
     7675 00000cc6          _GP_SIMU_SCREEN:
     7676                           .sym    _nScreenInf,-2,12,9,32
     7677                           .sym    _sSimuFlag_Cnt,1,12,1,32
     7678                           .line   1
     7679                   ;----------------------------------------------------------------------
     7680                   ; 1065 | void GP_SIMU_SCREEN(UCHAR nScreenInf)                                  
     7681                   ;----------------------------------------------------------------------
     7682 00000cc6 0f2b0000         push      fp
     7683 00000cc7 500b0014         ldiu      sp,fp
     7684                           .line   2
     7685                           .line   4
     7686                   ;----------------------------------------------------------------------
     7687                   ; 1068 | UCHAR sSimuFlag_Cnt = 0;                                               
     7688                   ; 1069 | switch(nScreenInf)                                                     
     7689                   ; 1071 | case 0x37:      // .                                           
     7690                   ;----------------------------------------------------------------------
     7691 00000cc8 6a2000a7         bud       L319
     7692 00000cc9 02740001         addi      1,sp
     7693 00000cca 50600000         ldiu      0,r0
     7694 00000ccb 15400301         sti       r0,*+fp(1)
     7695                   ;*      Branch Occurs to L319 
     7696 00000ccc          L290:        
     7697                           .line   9
     7698                   ;----------------------------------------------------------------------
     7699                   ; 1073 | nTr_St_Info.nSinmuScrCnt++;                                            
     7700                   ;----------------------------------------------------------------------
     7701 00000ccc 50600001         ldiu      1,r0
     7702 00000ccd 022000d6!        addi      @_nTr_St_Info+214,r0  ; Unsigned
     7703 00000cce 152000d6!        sti       r0,@_nTr_St_Info+214
     7704                           .line   10
     7705                   ;----------------------------------------------------------------------
     7706                   ; 1074 | if(!(nTr_St_Info.nSinmuScrCnt%5)) // 5    .      
     7707                   ;----------------------------------------------------------------------
     7708 00000ccf 50610005         ldiu      5,r1
     7709 00000cd0 62000000!        call      MOD_U30
     7710                                                           ; Call Occurs
     7711 00000cd1 04e00000         cmpi      0,r0
     7712 00000cd2 6a0600b2         bne       L322
     7713                   ;*      Branch Occurs to L322 
     7714                           .line   12
     7715                   ;----------------------------------------------------------------------
     7716                   ; 1076 | nSelect_Button.nScreenSetNum = 4;                                      
     7717                   ;----------------------------------------------------------------------
     7718 00000cd3 50600004         ldiu      4,r0
     7719 00000cd4 15200205-        sti       r0,@_nSelect_Button+10
     7720                           .line   13
     7721                   ;----------------------------------------------------------------------
     7722                   ; 1077 | nTr_St_Info.nSinmuScrCnt= 0;                                           
TMS320C3x/4x COFF AssemblerVersion 5.11     Mon Apr 29 17:36:37 2013
Copyright (c) 1987-1999 Texas Instruments Incorporatedc:\lang\tms320c3x\511\bin\asm30.exe -l gpproface.asm gpproface.obj -tC:\Users\JDS\AppData\Local\Temp\gpproface.tmp 

gpproface.asm                                                        PAGE  144

     7723                   ;----------------------------------------------------------------------
     7724 00000cd5 50600000         ldiu      0,r0
     7725 00000cd6 152000d6!        sti       r0,@_nTr_St_Info+214
     7726                           .line   15
     7727                   ;----------------------------------------------------------------------
     7728                   ; 1079 | sSimuFlag_Cnt  |= nTr_St_Info.nPIBPatFlag ? 0x01 : 0x00;               
     7729                   ;----------------------------------------------------------------------
     7730 00000cd7 082000cd!        ldi       @_nTr_St_Info+205,r0
     7731 00000cd8 6a050004         beq       L293
     7732                   ;*      Branch Occurs to L293 
     7733 00000cd9 6a200002         bud       L294
     7734 00000cda 0c800000         nop
     7735 00000cdb 0c800000         nop
     7736 00000cdc 50600001         ldiu      1,r0
     7737                   ;*      Branch Occurs to L294 
     7738 00000cdd          L293:        
     7739 00000cdd 50600000         ldiu      0,r0
     7740 00000cde          L294:        
     7741 00000cde 10400301         or        *+fp(1),r0
     7742 00000cdf 15400301         sti       r0,*+fp(1)
     7743                           .line   16
     7744                   ;----------------------------------------------------------------------
     7745                   ; 1080 | sSimuFlag_Cnt  |= nTr_St_Info.nDISFPatFlag ? 0x04 : 0x00;              
     7746                   ;----------------------------------------------------------------------
     7747 00000ce0 082000ce!        ldi       @_nTr_St_Info+206,r0
     7748 00000ce1 6a050004         beq       L296
     7749                   ;*      Branch Occurs to L296 
     7750 00000ce2 6a200002         bud       L297
     7751 00000ce3 0c800000         nop
     7752 00000ce4 0c800000         nop
     7753 00000ce5 50600004         ldiu      4,r0
     7754                   ;*      Branch Occurs to L297 
     7755 00000ce6          L296:        
     7756 00000ce6 50600000         ldiu      0,r0
     7757 00000ce7          L297:        
     7758 00000ce7 10400301         or        *+fp(1),r0
     7759 00000ce8 15400301         sti       r0,*+fp(1)
     7760                           .line   17
     7761                   ;----------------------------------------------------------------------
     7762                   ; 1081 | sSimuFlag_Cnt  |= nTr_St_Info.nSimulationFlag ? 0x02 : 0x00;           
     7763                   ;----------------------------------------------------------------------
     7764 00000ce9 082000cf!        ldi       @_nTr_St_Info+207,r0
     7765 00000cea 6a050004         beq       L299
     7766                   ;*      Branch Occurs to L299 
     7767 00000ceb 6a200002         bud       L300
     7768 00000cec 0c800000         nop
     7769 00000ced 0c800000         nop
     7770 00000cee 50600002         ldiu      2,r0
     7771                   ;*      Branch Occurs to L300 
     7772 00000cef          L299:        
     7773 00000cef 50600000         ldiu      0,r0
     7774 00000cf0          L300:        
     7775 00000cf0 10400301         or        *+fp(1),r0
     7776 00000cf1 15400301         sti       r0,*+fp(1)
TMS320C3x/4x COFF AssemblerVersion 5.11     Mon Apr 29 17:36:37 2013
Copyright (c) 1987-1999 Texas Instruments Incorporatedc:\lang\tms320c3x\511\bin\asm30.exe -l gpproface.asm gpproface.obj -tC:\Users\JDS\AppData\Local\Temp\gpproface.tmp 

gpproface.asm                                                        PAGE  145

     7777                           .line   18
     7778                   ;----------------------------------------------------------------------
     7779                   ; 1082 | sSimuFlag_Cnt  |= nTr_St_Info.nAutoDoorFlag ? 0x08 : 0x00;             
     7780                   ;----------------------------------------------------------------------
     7781 00000cf2 082000d1!        ldi       @_nTr_St_Info+209,r0
     7782 00000cf3 6a050004         beq       L302
     7783                   ;*      Branch Occurs to L302 
     7784 00000cf4 6a200002         bud       L303
     7785 00000cf5 0c800000         nop
     7786 00000cf6 0c800000         nop
     7787 00000cf7 50600008         ldiu      8,r0
     7788                   ;*      Branch Occurs to L303 
     7789 00000cf8          L302:        
     7790 00000cf8 50600000         ldiu      0,r0
     7791 00000cf9          L303:        
     7792 00000cf9 10400301         or        *+fp(1),r0
     7793 00000cfa 15400301         sti       r0,*+fp(1)
     7794                           .line   20
     7795                   ;----------------------------------------------------------------------
     7796                   ; 1084 | gp_WritingWord(0x41,sSimuFlag_Cnt);                                    
     7797                   ;----------------------------------------------------------------------
     7798 00000cfb 50010000         ldiu      r0,r1
     7799 00000cfc 50600041         ldiu      65,r0
     7800 00000cfd 0f210000         push      r1
     7801 00000cfe 0f200000         push      r0
     7802 00000cff 6200004d'        call      _gp_WritingWord
     7803                                                           ; Call Occurs
     7804 00000d00 18740002         subi      2,sp
     7805                           .line   22
     7806                   ;----------------------------------------------------------------------
     7807                   ; 1086 | gpTEST;                                                                
     7808                   ;----------------------------------------------------------------------
     7809 00000d01 5061006b         ldiu      107,r1
     7810 00000d02 5060000f         ldiu      15,r0
     7811 00000d03 0f210000         push      r1
     7812 00000d04 0f200000         push      r0
     7813 00000d05 6200004d'        call      _gp_WritingWord
     7814                                                           ; Call Occurs
     7815 00000d06 18740002         subi      2,sp
     7816                           .line   24
     7817                   ;----------------------------------------------------------------------
     7818                   ; 1088 | break;                                                                 
     7819                   ; 1089 | case 0x5A:                                                             
     7820                   ;----------------------------------------------------------------------
     7821 00000d07 6a00007d         bu        L322
     7822                   ;*      Branch Occurs to L322 
     7823 00000d08          L304:        
     7824                           .line   26
     7825                   ;----------------------------------------------------------------------
     7826                   ; 1090 | nTr_St_Info.nPIBPatFlag = NOT(nTr_St_Info.nPIBPatFlag); // 
     7827                   ;     |                                                                        
     7828                   ;----------------------------------------------------------------------
     7829 00000d08 082100cd!        ldi       @_nTr_St_Info+205,r1
     7830 00000d09 50600000         ldiu      0,r0
TMS320C3x/4x COFF AssemblerVersion 5.11     Mon Apr 29 17:36:37 2013
Copyright (c) 1987-1999 Texas Instruments Incorporatedc:\lang\tms320c3x\511\bin\asm30.exe -l gpproface.asm gpproface.obj -tC:\Users\JDS\AppData\Local\Temp\gpproface.tmp 

gpproface.asm                                                        PAGE  146

     7831 00000d0a 52e00001         ldieq     1,r0
     7832 00000d0b 152000cd!        sti       r0,@_nTr_St_Info+205
     7833                           .line   27
     7834                   ;----------------------------------------------------------------------
     7835                   ; 1091 | nSccSendFlag.nPIBPaten = 1;                                            
     7836                   ;----------------------------------------------------------------------
     7837 00000d0c 50600001         ldiu      1,r0
     7838 00000d0d 15200004!        sti       r0,@_nSccSendFlag+4
     7839                           .line   28
     7840                   ;----------------------------------------------------------------------
     7841                   ; 1092 | break;                                                                 
     7842                   ; 1093 | case 0x5D:                                                             
     7843                   ;----------------------------------------------------------------------
     7844 00000d0e 6a000076         bu        L322
     7845                   ;*      Branch Occurs to L322 
     7846 00000d0f          L305:        
     7847                           .line   30
     7848                   ;----------------------------------------------------------------------
     7849                   ; 1094 | nTr_St_Info.nDISFPatFlag = NOT(nTr_St_Info.nDISFPatFlag); //  
     7850                   ;     |                                                                     
     7851                   ;----------------------------------------------------------------------
     7852 00000d0f 082100ce!        ldi       @_nTr_St_Info+206,r1
     7853 00000d10 50600000         ldiu      0,r0
     7854 00000d11 52e00001         ldieq     1,r0
     7855 00000d12 152000ce!        sti       r0,@_nTr_St_Info+206
     7856                           .line   31
     7857                   ;----------------------------------------------------------------------
     7858                   ; 1095 | nSccSendFlag.nS_FDIPaten = 1;                                          
     7859                   ;----------------------------------------------------------------------
     7860 00000d13 50600001         ldiu      1,r0
     7861 00000d14 15200005!        sti       r0,@_nSccSendFlag+5
     7862                           .line   32
     7863                   ;----------------------------------------------------------------------
     7864                   ; 1096 | break;                                                                 
     7865                   ; 1097 | case 0x5B:                                                             
     7866                   ;----------------------------------------------------------------------
     7867 00000d15 6a00006f         bu        L322
     7868                   ;*      Branch Occurs to L322 
     7869 00000d16          L306:        
     7870                           .line   34
     7871                   ;----------------------------------------------------------------------
     7872                   ; 1098 | nTr_St_Info.nSimulationFlag = NOT(nTr_St_Info.nSimulationFlag); // 
     7873                   ;     |                                                                
     7874                   ;----------------------------------------------------------------------
     7875 00000d16 082100cf!        ldi       @_nTr_St_Info+207,r1
     7876 00000d17 50600000         ldiu      0,r0
     7877 00000d18 52e00001         ldieq     1,r0
     7878 00000d19 152000cf!        sti       r0,@_nTr_St_Info+207
     7879                           .line   35
     7880                   ;----------------------------------------------------------------------
     7881                   ; 1099 | if(!nTr_St_Info.nSimulationFlag)//                 
     7882                   ;----------------------------------------------------------------------
     7883 00000d1a 04e00000         cmpi      0,r0
     7884 00000d1b 6a060022         bne       L308
TMS320C3x/4x COFF AssemblerVersion 5.11     Mon Apr 29 17:36:37 2013
Copyright (c) 1987-1999 Texas Instruments Incorporatedc:\lang\tms320c3x\511\bin\asm30.exe -l gpproface.asm gpproface.obj -tC:\Users\JDS\AppData\Local\Temp\gpproface.tmp 

gpproface.asm                                                        PAGE  147

     7885                   ;*      Branch Occurs to L308 
     7886                           .line   37
     7887                   ;----------------------------------------------------------------------
     7888                   ; 1101 | nTr_St_Info.nSpeed = 0;                                                
     7889                   ;----------------------------------------------------------------------
     7890 00000d1c 50600000         ldiu      0,r0
     7891 00000d1d 152000d2!        sti       r0,@_nTr_St_Info+210
     7892                           .line   38
     7893                   ;----------------------------------------------------------------------
     7894                   ; 1102 | nTr_St_Info.nDistance = 0;                                             
     7895                   ;----------------------------------------------------------------------
     7896 00000d1e 152000d5!        sti       r0,@_nTr_St_Info+213
     7897                           .line   40
     7898                   ;----------------------------------------------------------------------
     7899                   ; 1104 | nTr_St_Info.nDoor = 1;                                                 
     7900                   ;----------------------------------------------------------------------
     7901 00000d1f 50600001         ldiu      1,r0
     7902 00000d20 152000d3!        sti       r0,@_nTr_St_Info+211
     7903                           .line   42
     7904                   ;----------------------------------------------------------------------
     7905                   ; 1106 | nTr_St_Info.nDoorOPenCnt = 0;                                          
     7906                   ;----------------------------------------------------------------------
     7907 00000d21 50600000         ldiu      0,r0
     7908 00000d22 152000d4!        sti       r0,@_nTr_St_Info+212
     7909                           .line   44
     7910                   ;----------------------------------------------------------------------
     7911                   ; 1108 | gp_WritingStr(300,15,(UCHAR *)"                              ");
     7912                   ;     |  //.                                                         
     7913                   ;----------------------------------------------------------------------
     7914 00000d23 50220231-        ldiu      @CL41,r2
     7915 00000d24 5061012c         ldiu      300,r1
     7916 00000d25 0f220000         push      r2
     7917 00000d26 5060000f         ldiu      15,r0
     7918 00000d27 0f200000         push      r0
     7919 00000d28 0f210000         push      r1
     7920 00000d29 620000ba'        call      _gp_WritingStr
     7921                                                           ; Call Occurs
     7922 00000d2a 18740003         subi      3,sp
     7923                           .line   46
     7924                   ;----------------------------------------------------------------------
     7925                   ; 1110 | gpDISTANCE(nTr_St_Info.nDistance);                                     
     7926                   ;----------------------------------------------------------------------
     7927 00000d2b 502100d5!        ldiu      @_nTr_St_Info+213,r1
     7928 00000d2c 0f210000         push      r1
     7929 00000d2d 50600067         ldiu      103,r0
     7930 00000d2e 0f200000         push      r0
     7931 00000d2f 62000000'        call      _gp_WritingDWord
     7932                                                           ; Call Occurs
     7933 00000d30 18740002         subi      2,sp
     7934                           .line   47
     7935                   ;----------------------------------------------------------------------
     7936                   ; 1111 | gpSPEED(nTr_St_Info.nSpeed);                                           
     7937                   ;----------------------------------------------------------------------
     7938 00000d31 502000d2!        ldiu      @_nTr_St_Info+210,r0
TMS320C3x/4x COFF AssemblerVersion 5.11     Mon Apr 29 17:36:37 2013
Copyright (c) 1987-1999 Texas Instruments Incorporatedc:\lang\tms320c3x\511\bin\asm30.exe -l gpproface.asm gpproface.obj -tC:\Users\JDS\AppData\Local\Temp\gpproface.tmp 

gpproface.asm                                                        PAGE  148

     7939 00000d32 0f200000         push      r0
     7940 00000d33 50610066         ldiu      102,r1
     7941 00000d34 0f210000         push      r1
     7942 00000d35 6200004d'        call      _gp_WritingWord
     7943                                                           ; Call Occurs
     7944 00000d36 18740002         subi      2,sp
     7945                           .line   48
     7946                   ;----------------------------------------------------------------------
     7947                   ; 1112 | gpDOOROPEN;                                                            
     7948                   ; 1114 | else    //    .                      
     7949                   ;----------------------------------------------------------------------
     7950 00000d37 50600001         ldiu      1,r0
     7951 00000d38 50610042         ldiu      66,r1
     7952 00000d39 0f200000         push      r0
     7953 00000d3a 0f210000         push      r1
     7954 00000d3b 6200004d'        call      _gp_WritingWord
     7955                                                           ; Call Occurs
     7956 00000d3c 18740002         subi      2,sp
     7957 00000d3d 6a000047         bu        L322
     7958                   ;*      Branch Occurs to L322 
     7959 00000d3e          L308:        
     7960                           .line   52
     7961                   ;----------------------------------------------------------------------
     7962                   ; 1116 | nTr_St_Info.nDoor = 1;                                                 
     7963                   ;----------------------------------------------------------------------
     7964 00000d3e 50600001         ldiu      1,r0
     7965 00000d3f 152000d3!        sti       r0,@_nTr_St_Info+211
     7966                           .line   55
     7967                   ;----------------------------------------------------------------------
     7968                   ; 1119 | break;                                                                 
     7969                   ; 1120 | case 0x5C:                                                             
     7970                   ;----------------------------------------------------------------------
     7971 00000d40 6a000044         bu        L322
     7972                   ;*      Branch Occurs to L322 
     7973 00000d41          L309:        
     7974                           .line   57
     7975                   ;----------------------------------------------------------------------
     7976                   ; 1121 | nTr_St_Info.nAutoDoorFlag = NOT(nTr_St_Info.nAutoDoorFlag);
     7977                   ;     |  //                                                      
     7978                   ;----------------------------------------------------------------------
     7979 00000d41 082100d1!        ldi       @_nTr_St_Info+209,r1
     7980 00000d42 50600000         ldiu      0,r0
     7981 00000d43 52e00001         ldieq     1,r0
     7982 00000d44 152000d1!        sti       r0,@_nTr_St_Info+209
     7983                           .line   58
     7984                   ;----------------------------------------------------------------------
     7985                   ; 1122 | break;                                                                 
     7986                   ; 1124 | case 0x5E:                                                             
     7987                   ;----------------------------------------------------------------------
     7988 00000d45 6a00003f         bu        L322
     7989                   ;*      Branch Occurs to L322 
     7990 00000d46          L310:        
     7991                           .line   61
     7992                   ;----------------------------------------------------------------------
TMS320C3x/4x COFF AssemblerVersion 5.11     Mon Apr 29 17:36:37 2013
Copyright (c) 1987-1999 Texas Instruments Incorporatedc:\lang\tms320c3x\511\bin\asm30.exe -l gpproface.asm gpproface.obj -tC:\Users\JDS\AppData\Local\Temp\gpproface.tmp 

gpproface.asm                                                        PAGE  149

     7993                   ; 1125 | nTr_St_Info.nSpeed+= 25;                                        // 
     7994                   ;     |  +                                                                     
     7995                   ;----------------------------------------------------------------------
     7996 00000d46 50600019         ldiu      25,r0
     7997 00000d47 022000d2!        addi      @_nTr_St_Info+210,r0  ; Unsigned
     7998 00000d48 152000d2!        sti       r0,@_nTr_St_Info+210
     7999                           .line   62
     8000                   ;----------------------------------------------------------------------
     8001                   ; 1126 | if(nTr_St_Info.nSpeed >= 500) nTr_St_Info.nSpeed = 500;                
     8002                   ;----------------------------------------------------------------------
     8003 00000d49 04e001f4         cmpi      500,r0
     8004 00000d4a 6a010002         blo       L312
     8005                   ;*      Branch Occurs to L312 
     8006 00000d4b 506001f4         ldiu      500,r0
     8007 00000d4c 152000d2!        sti       r0,@_nTr_St_Info+210
     8008 00000d4d          L312:        
     8009                           .line   63
     8010                   ;----------------------------------------------------------------------
     8011                   ; 1127 | gpSPEED(nTr_St_Info.nSpeed);                                           
     8012                   ;----------------------------------------------------------------------
     8013 00000d4d 502000d2!        ldiu      @_nTr_St_Info+210,r0
     8014 00000d4e 50610066         ldiu      102,r1
     8015 00000d4f 0f200000         push      r0
     8016 00000d50 0f210000         push      r1
     8017 00000d51 6200004d'        call      _gp_WritingWord
     8018                                                           ; Call Occurs
     8019 00000d52 18740002         subi      2,sp
     8020                           .line   65
     8021                   ;----------------------------------------------------------------------
     8022                   ; 1129 | break;                                                                 
     8023                   ; 1130 | case 0x5F: //  -                                                   
     8024                   ;----------------------------------------------------------------------
     8025 00000d53 6a000031         bu        L322
     8026                   ;*      Branch Occurs to L322 
     8027 00000d54          L313:        
     8028                           .line   67
     8029                   ;----------------------------------------------------------------------
     8030                   ; 1131 | if(nTr_St_Info.nSpeed) { nTr_St_Info.nSpeed-= 10;}                     
     8031                   ;----------------------------------------------------------------------
     8032 00000d54 082000d2!        ldi       @_nTr_St_Info+210,r0
     8033 00000d55 6a050003         beq       L315
     8034                   ;*      Branch Occurs to L315 
     8035 00000d56 5060000a         ldiu      10,r0
     8036 00000d57 19a000d2!        subri     @_nTr_St_Info+210,r0  ; Unsigned
     8037 00000d58 152000d2!        sti       r0,@_nTr_St_Info+210
     8038 00000d59          L315:        
     8039                           .line   68
     8040                   ;----------------------------------------------------------------------
     8041                   ; 1132 | gpSPEED(nTr_St_Info.nSpeed);                                           
     8042                   ;----------------------------------------------------------------------
     8043 00000d59 502000d2!        ldiu      @_nTr_St_Info+210,r0
     8044 00000d5a 50610066         ldiu      102,r1
     8045 00000d5b 0f200000         push      r0
     8046 00000d5c 0f210000         push      r1
TMS320C3x/4x COFF AssemblerVersion 5.11     Mon Apr 29 17:36:37 2013
Copyright (c) 1987-1999 Texas Instruments Incorporatedc:\lang\tms320c3x\511\bin\asm30.exe -l gpproface.asm gpproface.obj -tC:\Users\JDS\AppData\Local\Temp\gpproface.tmp 

gpproface.asm                                                        PAGE  150

     8047 00000d5d 6200004d'        call      _gp_WritingWord
     8048                                                           ; Call Occurs
     8049 00000d5e 18740002         subi      2,sp
     8050                           .line   70
     8051                   ;----------------------------------------------------------------------
     8052                   ; 1134 | break;                                                                 
     8053                   ; 1135 | case 0x60: //  ON                                                
     8054                   ;----------------------------------------------------------------------
     8055 00000d5f 6a000025         bu        L322
     8056                   ;*      Branch Occurs to L322 
     8057 00000d60          L316:        
     8058                           .line   72
     8059                   ;----------------------------------------------------------------------
     8060                   ; 1136 | nTr_St_Info.nDoor =1;                                                  
     8061                   ;----------------------------------------------------------------------
     8062 00000d60 50600001         ldiu      1,r0
     8063 00000d61 152000d3!        sti       r0,@_nTr_St_Info+211
     8064                           .line   73
     8065                   ;----------------------------------------------------------------------
     8066                   ; 1137 | gpDOOROPEN;                                                            
     8067                   ;----------------------------------------------------------------------
     8068 00000d62 50610001         ldiu      1,r1
     8069 00000d63 0f210000         push      r1
     8070 00000d64 50600042         ldiu      66,r0
     8071 00000d65 0f200000         push      r0
     8072 00000d66 6200004d'        call      _gp_WritingWord
     8073                                                           ; Call Occurs
     8074 00000d67 18740002         subi      2,sp
     8075                           .line   74
     8076                   ;----------------------------------------------------------------------
     8077                   ; 1138 | break;
     8078                   ;     |                  // DoorOpen                                           
     8079                   ; 1139 | case 0x61: // OFF                                                
     8080                   ;----------------------------------------------------------------------
     8081 00000d68 6a00001c         bu        L322
     8082                   ;*      Branch Occurs to L322 
     8083 00000d69          L317:        
     8084                           .line   76
     8085                   ;----------------------------------------------------------------------
     8086                   ; 1140 | nTr_St_Info.nDoor =0;                                                  
     8087                   ;----------------------------------------------------------------------
     8088 00000d69 50600000         ldiu      0,r0
     8089 00000d6a 152000d3!        sti       r0,@_nTr_St_Info+211
     8090                           .line   77
     8091                   ;----------------------------------------------------------------------
     8092                   ; 1141 | gpDOORCLOSE;                                                           
     8093                   ;----------------------------------------------------------------------
     8094 00000d6b 50610000         ldiu      0,r1
     8095 00000d6c 0f210000         push      r1
     8096 00000d6d 50600042         ldiu      66,r0
     8097 00000d6e 0f200000         push      r0
     8098 00000d6f 6200004d'        call      _gp_WritingWord
     8099                                                           ; Call Occurs
     8100 00000d70 18740002         subi      2,sp
TMS320C3x/4x COFF AssemblerVersion 5.11     Mon Apr 29 17:36:37 2013
Copyright (c) 1987-1999 Texas Instruments Incorporatedc:\lang\tms320c3x\511\bin\asm30.exe -l gpproface.asm gpproface.obj -tC:\Users\JDS\AppData\Local\Temp\gpproface.tmp 

gpproface.asm                                                        PAGE  151

     8101                           .line   78
     8102                   ;----------------------------------------------------------------------
     8103                   ; 1142 | break;          // DoorClose                                           
     8104                   ;----------------------------------------------------------------------
     8105 00000d71 6a000013         bu        L322
     8106                   ;*      Branch Occurs to L322 
     8107 00000d72          L319:        
     8108                           .line   5
     8109 00000d72 50510b02         ldiu      *-fp(2),ir0
     8110 00000d73 04f10037         cmpi      55,ir0
     8111 00000d74 6a05ff57         beq       L290
     8112                   ;*      Branch Occurs to L290 
     8113 00000d75 5060005a         ldiu      90,r0
     8114 00000d76 19800011         subri     ir0,r0
     8115 00000d77 04e00007         cmpi      7,r0
     8116 00000d78 6a03000c         bhi       L322
     8117                   ;*      Branch Occurs to L322 
     8118 00000d79 1871005a         subi      90,ir0                ; Unsigned
     8119 00000d7a 50280232-        ldiu      @CL42,ar0
     8120 00000d7b 50404000         ldiu      *+ar0(ir0),r0
     8121 00000d7c 68000000         bu        r0
     8122                   
     8123 00000d7d                  .sect   ".text"
     8124 00000d7d 00000d08'SW2:    .word   L304    ; 90
     8125 00000d7e 00000d16'        .word   L306    ; 91
     8126 00000d7f 00000d41'        .word   L309    ; 92
     8127 00000d80 00000d0f'        .word   L305    ; 93
     8128 00000d81 00000d46'        .word   L310    ; 94
     8129 00000d82 00000d54'        .word   L313    ; 95
     8130 00000d83 00000d60'        .word   L316    ; 96
     8131 00000d84 00000d69'        .word   L317    ; 97
     8132 00000d85                  .sect   ".text"
     8133                   ;*      Branch Occurs to r0 
     8134 00000d85          L322:        
     8135                           .line   80
     8136 00000d85 50530b01         ldiu      *-fp(1),bk
     8137 00000d86 504bc300         ldiu      *fp,fp
     8138 00000d87 18740003         subi      3,sp
     8139 00000d88 68000013         bu        bk
     8140                   ;*      Branch Occurs to bk 
     8141                           .endfunc        1144,000000000h,1
     8142                   
     8143                   
     8144                   
     8145 0000000f                  .sect   ".cinit"
     8146 0000000f 00000001         .field          1,32
     8147 00000010 00000005-        .field          _d_Point_Vel+0,32
     8148 00000011 00000000         .field          0,32            ; _d_Point_Vel @ 0
     8149                   
     8150 00000d89                  .sect   ".text"
     8151                   
     8152                           .global _d_Point_Vel
     8153 00000005                  .bss    _d_Point_Vel,1
     8154                           .sym    _d_Point_Vel,_d_Point_Vel,12,2,32
TMS320C3x/4x COFF AssemblerVersion 5.11     Mon Apr 29 17:36:37 2013
Copyright (c) 1987-1999 Texas Instruments Incorporatedc:\lang\tms320c3x\511\bin\asm30.exe -l gpproface.asm gpproface.obj -tC:\Users\JDS\AppData\Local\Temp\gpproface.tmp 

gpproface.asm                                                        PAGE  152

     8155 00000d89                  .sect    ".text"
     8156                   
     8157                           .global _GP_POINT_SCREEN
     8158                           .sym    _GP_POINT_SCREEN,_GP_POINT_SCREEN,32,2,0
     8159                           .func   1149
     8160                   ;******************************************************************************
     8161                   ;* FUNCTION NAME: _GP_POINT_SCREEN                                            *
     8162                   ;*                                                                            *
     8163                   ;*   Architecture       : TMS320C30                                           *
     8164                   ;*   Calling Convention : Stack Parameter Convention                          *
     8165                   ;*   Function Uses Regs : r0,r1,fp,sp,st                                      *
     8166                   ;*   Regs Saved         :                                                     *
     8167                   ;*   Stack Frame        : Full (w/ debug)                                     *
     8168                   ;*   Total Frame Size   : 2 Call + 1 Parm + 0 Auto + 0 SOE = 3 words          *
     8169                   ;******************************************************************************
     8170 00000d89          _GP_POINT_SCREEN:
     8171                           .sym    _nScreenInf,-2,12,9,32
     8172                           .line   1
     8173                   ;----------------------------------------------------------------------
     8174                   ; 1149 | void GP_POINT_SCREEN(UCHAR nScreenInf)                                 
     8175                   ;----------------------------------------------------------------------
     8176 00000d89 0f2b0000         push      fp
     8177 00000d8a 500b0014         ldiu      sp,fp
     8178                           .line   2
     8179                           .line   3
     8180                   ;----------------------------------------------------------------------
     8181                   ; 1151 | d_Point_Vel++;                                                         
     8182                   ; 1153 | switch(nScreenInf)                                                     
     8183                   ; 1155 | case 0x36: //                                              
     8184                   ;----------------------------------------------------------------------
     8185 00000d8b 6a200080         bud       L348
     8186 00000d8c 50600001         ldiu      1,r0
     8187 00000d8d 02200005-        addi      @_d_Point_Vel+0,r0    ; Unsigned
     8188 00000d8e 15200005-        sti       r0,@_d_Point_Vel+0
     8189                   ;*      Branch Occurs to L348 
     8190 00000d8f          L325:        
     8191                           .line   10
     8192                   ;----------------------------------------------------------------------
     8193                   ; 1158 | if(nDi_Check.nDoor.nFlag) {gpSPOT; }    //     
     8194                   ;     |     .                                        
     8195                   ;----------------------------------------------------------------------
     8196 00000d8f 0820000c!        ldi       @_nDi_Check+12,r0
     8197 00000d90 6a250008         beqd      L328
     8198 00000d91 0c800000         nop
     8199 00000d92 52e00073         ldieq     115,r0
     8200 00000d93 52e1000f         ldieq     15,r1
     8201                   ;*      Branch Occurs to L328 
     8202 00000d94 5061006e         ldiu      110,r1
     8203 00000d95 5060000f         ldiu      15,r0
     8204 00000d96 0f210000         push      r1
     8205 00000d97 0f200000         push      r0
     8206 00000d98 6200004d'        call      _gp_WritingWord
     8207                                                           ; Call Occurs
     8208 00000d99 18740002         subi      2,sp
TMS320C3x/4x COFF AssemblerVersion 5.11     Mon Apr 29 17:36:37 2013
Copyright (c) 1987-1999 Texas Instruments Incorporatedc:\lang\tms320c3x\511\bin\asm30.exe -l gpproface.asm gpproface.obj -tC:\Users\JDS\AppData\Local\Temp\gpproface.tmp 

gpproface.asm                                                        PAGE  153

     8209 00000d9a 6a000004         bu        L329
     8210                   ;*      Branch Occurs to L329 
     8211                           .line   11
     8212                   ;----------------------------------------------------------------------
     8213                   ; 1159 | else {gpSPOT2; }                                                       
     8214                   ;----------------------------------------------------------------------
     8215 00000d9b          L328:        
     8216 00000d9b 0f200000         push      r0
     8217 00000d9c 0f210000         push      r1
     8218 00000d9d 6200004d'        call      _gp_WritingWord
     8219                                                           ; Call Occurs
     8220 00000d9e 18740002         subi      2,sp
     8221 00000d9f          L329:        
     8222                           .line   13
     8223                   ;----------------------------------------------------------------------
     8224                   ; 1161 | gpSPOTINIT; gpSPOTEN;                                                  
     8225                   ;----------------------------------------------------------------------
     8226 00000d9f 50600000         ldiu      0,r0
     8227 00000da0 50610046         ldiu      70,r1
     8228 00000da1 0f200000         push      r0
     8229 00000da2 0f210000         push      r1
     8230 00000da3 6200004d'        call      _gp_WritingWord
     8231                                                           ; Call Occurs
     8232 00000da4 18740002         subi      2,sp
     8233 00000da5 50600000         ldiu      0,r0
     8234 00000da6 50610049         ldiu      73,r1
     8235 00000da7 0f200000         push      r0
     8236 00000da8 0f210000         push      r1
     8237 00000da9 6200004d'        call      _gp_WritingWord
     8238                                                           ; Call Occurs
     8239 00000daa 18740002         subi      2,sp
     8240 00000dab 50600001         ldiu      1,r0
     8241 00000dac 50610047         ldiu      71,r1
     8242 00000dad 0f200000         push      r0
     8243 00000dae 0f210000         push      r1
     8244 00000daf 6200004d'        call      _gp_WritingWord
     8245                                                           ; Call Occurs
     8246 00000db0 18740002         subi      2,sp
     8247                           .line   15
     8248                   ;----------------------------------------------------------------------
     8249                   ; 1163 | nTr_St_Info.nStation_PointCntRe = nTr_St_Info.nStation_PointCnt;       
     8250                   ;----------------------------------------------------------------------
     8251 00000db1 50200003!        ldiu      @_nTr_St_Info+3,r0
     8252 00000db2 15200004!        sti       r0,@_nTr_St_Info+4
     8253                           .line   17
     8254                   ;----------------------------------------------------------------------
     8255                   ; 1165 | GP_POINT_ST_PRO(nTr_St_Info.nStation_PointCnt);                        
     8256                   ;----------------------------------------------------------------------
     8257 00000db3 0f200000         push      r0
     8258 00000db4 62000fbe'        call      _GP_POINT_ST_PRO
     8259                                                           ; Call Occurs
     8260 00000db5 18740001         subi      1,sp
     8261                           .line   19
     8262                   ;----------------------------------------------------------------------
TMS320C3x/4x COFF AssemblerVersion 5.11     Mon Apr 29 17:36:37 2013
Copyright (c) 1987-1999 Texas Instruments Incorporatedc:\lang\tms320c3x\511\bin\asm30.exe -l gpproface.asm gpproface.obj -tC:\Users\JDS\AppData\Local\Temp\gpproface.tmp 

gpproface.asm                                                        PAGE  154

     8263                   ; 1167 | nSelect_Button.nScreenSetNum = 5;                                      
     8264                   ;----------------------------------------------------------------------
     8265 00000db6 50600005         ldiu      5,r0
     8266 00000db7 15200205-        sti       r0,@_nSelect_Button+10
     8267                           .line   21
     8268                   ;----------------------------------------------------------------------
     8269                   ; 1169 | break;                                                                 
     8270                   ; 1170 | //////////////////////////////////////////////////////////////////
     8271                   ;     |                                                                     
     8272                   ; 1171 | case 0x46:                                                             
     8273                   ;----------------------------------------------------------------------
     8274 00000db8 6a000067         bu        L352
     8275                   ;*      Branch Occurs to L352 
     8276                           .line   24
     8277                   ;----------------------------------------------------------------------
     8278                   ; 1172 | gpSPOTDIS;                                                             
     8279                   ;----------------------------------------------------------------------
     8280 00000db9          L331:        
     8281 00000db9 0f210000         push      r1
     8282 00000dba 0f200000         push      r0
     8283 00000dbb 6200004d'        call      _gp_WritingWord
     8284                                                           ; Call Occurs
     8285 00000dbc 18740002         subi      2,sp
     8286                           .line   27
     8287                   ;----------------------------------------------------------------------
     8288                   ; 1175 | if(WORD_L(nTr_St_Info.nStopPatNum))                                    
     8289                   ;----------------------------------------------------------------------
     8290 00000dbd 506000ff         ldiu      255,r0
     8291 00000dbe 1a200000!        tstb      @_nTr_St_Info+0,r0
     8292 00000dbf 6a050015         beq       L336
     8293                   ;*      Branch Occurs to L336 
     8294                           .line   29
     8295                   ;----------------------------------------------------------------------
     8296                   ; 1177 | nSelect_Button.nScreenRxTime = 2000;                                   
     8297                   ;----------------------------------------------------------------------
     8298 00000dc0 506007d0         ldiu      2000,r0
     8299 00000dc1 15200206-        sti       r0,@_nSelect_Button+11
     8300                           .line   30
     8301                   ;----------------------------------------------------------------------
     8302                   ; 1178 | if(WORD_L(nTr_St_Info.nStation_PointCntRe) < WORD_L(nTr_St_Info.nStatio
     8303                   ;     | n_MaxCnt)-1)                                                           
     8304                   ;----------------------------------------------------------------------
     8305 00000dc2 506100ff         ldiu      255,r1
     8306 00000dc3 506000ff         ldiu      255,r0
     8307 00000dc4 02a10004!        and       @_nTr_St_Info+4,r1
     8308 00000dc5 02a00001!        and       @_nTr_St_Info+1,r0
     8309 00000dc6 18600001         subi      1,r0                  ; Unsigned
     8310 00000dc7 23800100         cmpi3     r0,r1
     8311 00000dc8 6a040004         bhs       L334
     8312                   ;*      Branch Occurs to L334 
     8313                           .line   32
     8314                   ;----------------------------------------------------------------------
     8315                   ; 1180 | nTr_St_Info.nStation_PointCntRe++;                                     
     8316                   ; 1182 | else                                                                   
TMS320C3x/4x COFF AssemblerVersion 5.11     Mon Apr 29 17:36:37 2013
Copyright (c) 1987-1999 Texas Instruments Incorporatedc:\lang\tms320c3x\511\bin\asm30.exe -l gpproface.asm gpproface.obj -tC:\Users\JDS\AppData\Local\Temp\gpproface.tmp 

gpproface.asm                                                        PAGE  155

     8317                   ;----------------------------------------------------------------------
     8318 00000dc9 50600001         ldiu      1,r0
     8319 00000dca 02200004!        addi      @_nTr_St_Info+4,r0    ; Unsigned
     8320 00000dcb 15200004!        sti       r0,@_nTr_St_Info+4
     8321 00000dcc 6a000004         bu        L335
     8322                   ;*      Branch Occurs to L335 
     8323 00000dcd          L334:        
     8324                           .line   36
     8325                   ;----------------------------------------------------------------------
     8326                   ; 1184 | nTr_St_Info.nStation_PointCntRe = WORD_L(nTr_St_Info.nStation_MaxCnt)-1
     8327                   ;     | ;                                                                      
     8328                   ;----------------------------------------------------------------------
     8329 00000dcd 506000ff         ldiu      255,r0
     8330 00000dce 02a00001!        and       @_nTr_St_Info+1,r0
     8331 00000dcf 18600001         subi      1,r0                  ; Unsigned
     8332 00000dd0 15200004!        sti       r0,@_nTr_St_Info+4
     8333 00000dd1          L335:        
     8334                           .line   39
     8335                   ;----------------------------------------------------------------------
     8336                   ; 1187 | GP_POINT_ST_PRO(nTr_St_Info.nStation_PointCntRe);                      
     8337                   ;----------------------------------------------------------------------
     8338 00000dd1 50200004!        ldiu      @_nTr_St_Info+4,r0
     8339 00000dd2 0f200000         push      r0
     8340 00000dd3 62000fbe'        call      _GP_POINT_ST_PRO
     8341                                                           ; Call Occurs
     8342 00000dd4 18740001         subi      1,sp
     8343 00000dd5          L336:        
     8344                           .line   41
     8345                   ;----------------------------------------------------------------------
     8346                   ; 1189 | gpSPOTEN;                                                              
     8347                   ;----------------------------------------------------------------------
     8348 00000dd5 50600001         ldiu      1,r0
     8349 00000dd6 50610047         ldiu      71,r1
     8350 00000dd7 0f200000         push      r0
     8351 00000dd8 0f210000         push      r1
     8352 00000dd9 6200004d'        call      _gp_WritingWord
     8353                                                           ; Call Occurs
     8354 00000dda 18740002         subi      2,sp
     8355                           .line   42
     8356                   ;----------------------------------------------------------------------
     8357                   ; 1190 | break;                                                                 
     8358                   ; 1192 | //////////////////////////////////////////////////////////////////
     8359                   ;     |                                                                     
     8360                   ; 1194 | case 0x47:                                                             
     8361                   ;----------------------------------------------------------------------
     8362 00000ddb 6a000044         bu        L352
     8363                   ;*      Branch Occurs to L352 
     8364                           .line   47
     8365                   ;----------------------------------------------------------------------
     8366                   ; 1195 | gpSPOTDIS;                                                             
     8367                   ;----------------------------------------------------------------------
     8368 00000ddc          L338:        
     8369 00000ddc 0f200000         push      r0
     8370 00000ddd 0f210000         push      r1
TMS320C3x/4x COFF AssemblerVersion 5.11     Mon Apr 29 17:36:37 2013
Copyright (c) 1987-1999 Texas Instruments Incorporatedc:\lang\tms320c3x\511\bin\asm30.exe -l gpproface.asm gpproface.obj -tC:\Users\JDS\AppData\Local\Temp\gpproface.tmp 

gpproface.asm                                                        PAGE  156

     8371 00000dde 6200004d'        call      _gp_WritingWord
     8372                                                           ; Call Occurs
     8373 00000ddf 18740002         subi      2,sp
     8374                           .line   48
     8375                   ;----------------------------------------------------------------------
     8376                   ; 1196 | if(WORD_L(nTr_St_Info.nStopPatNum))                                    
     8377                   ;----------------------------------------------------------------------
     8378 00000de0 506000ff         ldiu      255,r0
     8379 00000de1 1a200000!        tstb      @_nTr_St_Info+0,r0
     8380 00000de2 6a05000f         beq       L343
     8381                   ;*      Branch Occurs to L343 
     8382                           .line   50
     8383                   ;----------------------------------------------------------------------
     8384                   ; 1198 | nSelect_Button.nScreenRxTime = 2000;                                   
     8385                   ;----------------------------------------------------------------------
     8386 00000de3 506007d0         ldiu      2000,r0
     8387 00000de4 15200206-        sti       r0,@_nSelect_Button+11
     8388                           .line   51
     8389                   ;----------------------------------------------------------------------
     8390                   ; 1199 | if(WORD_L(nTr_St_Info.nStation_PointCntRe)> 0)                         
     8391                   ;----------------------------------------------------------------------
     8392 00000de5 506000ff         ldiu      255,r0
     8393 00000de6 1a200004!        tstb      @_nTr_St_Info+4,r0
     8394 00000de7 6a050004         beq       L341
     8395                   ;*      Branch Occurs to L341 
     8396                           .line   53
     8397                   ;----------------------------------------------------------------------
     8398                   ; 1201 | nTr_St_Info.nStation_PointCntRe--;                                     
     8399                   ; 1203 | else                                                                   
     8400                   ;----------------------------------------------------------------------
     8401 00000de8 50600001         ldiu      1,r0
     8402 00000de9 19a00004!        subri     @_nTr_St_Info+4,r0    ; Unsigned
     8403 00000dea 15200004!        sti       r0,@_nTr_St_Info+4
     8404 00000deb 6a000002         bu        L342
     8405                   ;*      Branch Occurs to L342 
     8406 00000dec          L341:        
     8407                           .line   57
     8408                   ;----------------------------------------------------------------------
     8409                   ; 1205 | nTr_St_Info.nStation_PointCntRe = 0;                                   
     8410                   ;----------------------------------------------------------------------
     8411 00000dec 50600000         ldiu      0,r0
     8412 00000ded 15200004!        sti       r0,@_nTr_St_Info+4
     8413 00000dee          L342:        
     8414                           .line   59
     8415                   ;----------------------------------------------------------------------
     8416                   ; 1207 | GP_POINT_ST_PRO(nTr_St_Info.nStation_PointCntRe);                      
     8417                   ;----------------------------------------------------------------------
     8418 00000dee 50200004!        ldiu      @_nTr_St_Info+4,r0
     8419 00000def 0f200000         push      r0
     8420 00000df0 62000fbe'        call      _GP_POINT_ST_PRO
     8421                                                           ; Call Occurs
     8422 00000df1 18740001         subi      1,sp
     8423 00000df2          L343:        
     8424                           .line   62
TMS320C3x/4x COFF AssemblerVersion 5.11     Mon Apr 29 17:36:37 2013
Copyright (c) 1987-1999 Texas Instruments Incorporatedc:\lang\tms320c3x\511\bin\asm30.exe -l gpproface.asm gpproface.obj -tC:\Users\JDS\AppData\Local\Temp\gpproface.tmp 

gpproface.asm                                                        PAGE  157

     8425                   ;----------------------------------------------------------------------
     8426                   ; 1210 | gpSPOTEN;                                                              
     8427                   ;----------------------------------------------------------------------
     8428 00000df2 50610001         ldiu      1,r1
     8429 00000df3 50600047         ldiu      71,r0
     8430 00000df4 0f210000         push      r1
     8431 00000df5 0f200000         push      r0
     8432 00000df6 6200004d'        call      _gp_WritingWord
     8433                                                           ; Call Occurs
     8434 00000df7 18740002         subi      2,sp
     8435                           .line   63
     8436                   ;----------------------------------------------------------------------
     8437                   ; 1211 | break;                                                                 
     8438                   ; 1212 | /////////////////////////////////////////////////////////////////// 
     8439                   ;     |                                                                       
     8440                   ; 1214 | case 0x53:                                                             
     8441                   ;----------------------------------------------------------------------
     8442 00000df8 6a000027         bu        L352
     8443                   ;*      Branch Occurs to L352 
     8444                           .line   67
     8445                   ;----------------------------------------------------------------------
     8446                   ; 1215 | gpSPOTINIT;     //                           
     8447                   ;----------------------------------------------------------------------
     8448 00000df9          L345:        
     8449 00000df9 0f210000         push      r1
     8450 00000dfa 0f200000         push      r0
     8451 00000dfb 6200004d'        call      _gp_WritingWord
     8452                                                           ; Call Occurs
     8453 00000dfc 18740002         subi      2,sp
     8454 00000dfd 50610000         ldiu      0,r1
     8455 00000dfe 50600049         ldiu      73,r0
     8456 00000dff 0f210000         push      r1
     8457 00000e00 0f200000         push      r0
     8458 00000e01 6200004d'        call      _gp_WritingWord
     8459                                                           ; Call Occurs
     8460 00000e02 18740002         subi      2,sp
     8461                           .line   68
     8462                   ;----------------------------------------------------------------------
     8463                   ; 1216 | if(WORD_L(nTr_St_Info.nStopPatNum))                                    
     8464                   ;----------------------------------------------------------------------
     8465 00000e03 506000ff         ldiu      255,r0
     8466 00000e04 1a200000!        tstb      @_nTr_St_Info+0,r0
     8467 00000e05 6a05001a         beq       L352
     8468                   ;*      Branch Occurs to L352 
     8469                           .line   70
     8470                   ;----------------------------------------------------------------------
     8471                   ; 1218 | nTr_St_Info.nStation_PointCnt = nTr_St_Info.nStation_PointCntRe;       
     8472                   ; 1220 | //        Index  .
     8473                   ;     |                                                    
     8474                   ;----------------------------------------------------------------------
     8475 00000e06 50200004!        ldiu      @_nTr_St_Info+4,r0
     8476 00000e07 15200003!        sti       r0,@_nTr_St_Info+3
     8477                           .line   73
     8478                   ;----------------------------------------------------------------------
TMS320C3x/4x COFF AssemblerVersion 5.11     Mon Apr 29 17:36:37 2013
Copyright (c) 1987-1999 Texas Instruments Incorporatedc:\lang\tms320c3x\511\bin\asm30.exe -l gpproface.asm gpproface.obj -tC:\Users\JDS\AppData\Local\Temp\gpproface.tmp 

gpproface.asm                                                        PAGE  158

     8479                   ; 1221 | nIndex_Flag.nIndexDI_DICnt = 0;                                        
     8480                   ;----------------------------------------------------------------------
     8481 00000e08 50600000         ldiu      0,r0
     8482 00000e09 15200016!        sti       r0,@_nIndex_Flag+22
     8483                           .line   74
     8484                   ;----------------------------------------------------------------------
     8485                   ; 1222 | nIndex_Flag.nIndexCnt = 0;                                             
     8486                   ;----------------------------------------------------------------------
     8487 00000e0a 15200017!        sti       r0,@_nIndex_Flag+23
     8488                           .line   76
     8489                   ;----------------------------------------------------------------------
     8490                   ; 1224 | DP_STNAME_INFO_UP();                                                   
     8491                   ;----------------------------------------------------------------------
     8492 00000e0b 62000000!        call      _DP_STNAME_INFO_UP
     8493                                                           ; Call Occurs
     8494                           .line   77
     8495                   ;----------------------------------------------------------------------
     8496                   ; 1225 | DP_ALL_TEXT_CHECK();                                                   
     8497                   ;----------------------------------------------------------------------
     8498 00000e0c 62000000!        call      _DP_ALL_TEXT_CHECK
     8499                                                           ; Call Occurs
     8500                           .line   80
     8501                   ;----------------------------------------------------------------------
     8502                   ; 1228 | break;                                                                 
     8503                   ;----------------------------------------------------------------------
     8504 00000e0d 6a000012         bu        L352
     8505                   ;*      Branch Occurs to L352 
     8506 00000e0e          L348:        
     8507                           .line   5
     8508 00000e0e 50400b02         ldiu      *-fp(2),r0
     8509 00000e0f 04e00036         cmpi      54,r0
     8510 00000e10 6a05ff7e         beq       L325
     8511                   ;*      Branch Occurs to L325 
     8512 00000e11 04e00046         cmpi      70,r0
     8513 00000e12 6a25ffa4         beqd      L331
     8514 00000e13 0c800000         nop
     8515 00000e14 52e10000         ldieq     0,r1
     8516 00000e15 52e00047         ldieq     71,r0
     8517                   ;*      Branch Occurs to L331 
     8518 00000e16 04e00047         cmpi      71,r0
     8519 00000e17 6a25ffc2         beqd      L338
     8520 00000e18 0c800000         nop
     8521 00000e19 52e00000         ldieq     0,r0
     8522 00000e1a 52e10047         ldieq     71,r1
     8523                   ;*      Branch Occurs to L338 
     8524 00000e1b 04e00053         cmpi      83,r0
     8525 00000e1c 6a25ffda         beqd      L345
     8526 00000e1d 0c800000         nop
     8527 00000e1e 52e10000         ldieq     0,r1
     8528 00000e1f 52e00046         ldieq     70,r0
     8529                   ;*      Branch Occurs to L345 
     8530 00000e20          L352:        
     8531                           .line   83
     8532 00000e20 50530b01         ldiu      *-fp(1),bk
TMS320C3x/4x COFF AssemblerVersion 5.11     Mon Apr 29 17:36:37 2013
Copyright (c) 1987-1999 Texas Instruments Incorporatedc:\lang\tms320c3x\511\bin\asm30.exe -l gpproface.asm gpproface.obj -tC:\Users\JDS\AppData\Local\Temp\gpproface.tmp 

gpproface.asm                                                        PAGE  159

     8533 00000e21 504bc300         ldiu      *fp,fp
     8534 00000e22 18740002         subi      2,sp
     8535 00000e23 68000013         bu        bk
     8536                   ;*      Branch Occurs to bk 
     8537                           .endfunc        1231,000000000h,0
     8538                   
     8539                   
     8540 00000e24                  .sect    ".text"
     8541                   
     8542                           .global _GP_SELFTEST_SCREEN
     8543                           .sym    _GP_SELFTEST_SCREEN,_GP_SELFTEST_SCREEN,32,2,0
     8544                           .func   1235
     8545                   ;******************************************************************************
     8546                   ;* FUNCTION NAME: _GP_SELFTEST_SCREEN                                         *
     8547                   ;*                                                                            *
     8548                   ;*   Architecture       : TMS320C30                                           *
     8549                   ;*   Calling Convention : Stack Parameter Convention                          *
     8550                   ;*   Function Uses Regs : r0,r1,r2,ar0,ar1,fp,sp,st,rs,re,rc                  *
     8551                   ;*   Regs Saved         :                                                     *
     8552                   ;*   Stack Frame        : Full (w/ debug)                                     *
     8553                   ;*   Total Frame Size   : 2 Call + 1 Parm + 60 Auto + 0 SOE = 63 words        *
     8554                   ;******************************************************************************
     8555 00000e24          _GP_SELFTEST_SCREEN:
     8556                           .sym    _nScreenInf,-2,12,9,32
     8557                           .sym    _sSelf_Buf,1,60,1,1920,,60
     8558                           .line   1
     8559                   ;----------------------------------------------------------------------
     8560                   ; 1235 | void GP_SELFTEST_SCREEN(UCHAR nScreenInf)                              
     8561                   ;----------------------------------------------------------------------
     8562                           .line   2
     8563                   ;----------------------------------------------------------------------
     8564                   ; 1237 | UCHAR sSelf_Buf[60];                                                   
     8565                   ; 1239 | switch(nScreenInf)                                                     
     8566                   ; 1241 | case 0x3D:      //                                         
     8567                   ;----------------------------------------------------------------------
     8568 00000e24 6a2000c9         bud       L371
     8569 00000e25 0f2b0000         push      fp
     8570 00000e26 500b0014         ldiu      sp,fp
     8571 00000e27 0274003c         addi      60,sp
     8572                   ;*      Branch Occurs to L371 
     8573 00000e28          L355:        
     8574                           .line   8
     8575                   ;----------------------------------------------------------------------
     8576                   ; 1242 | nTr_St_Info.nSinmuScrCnt = 0;                                          
     8577                   ; 1244 | //nSelf_Test.nSELF_ICR_SELECT = 0;                                     
     8578                   ;----------------------------------------------------------------------
     8579 00000e28 50600000         ldiu      0,r0
     8580 00000e29 152000d6!        sti       r0,@_nTr_St_Info+214
     8581                           .line   12
     8582                   ;----------------------------------------------------------------------
     8583                   ; 1246 | if(WORD_L(nSelf_Test.nSELF_ICR_SELECT) == 1) { gpSELFT_12;}            
     8584                   ;----------------------------------------------------------------------
     8585 00000e2a 506000ff         ldiu      255,r0
     8586 00000e2b 02a0003f!        and       @_nSelf_Test+63,r0
TMS320C3x/4x COFF AssemblerVersion 5.11     Mon Apr 29 17:36:37 2013
Copyright (c) 1987-1999 Texas Instruments Incorporatedc:\lang\tms320c3x\511\bin\asm30.exe -l gpproface.asm gpproface.obj -tC:\Users\JDS\AppData\Local\Temp\gpproface.tmp 

gpproface.asm                                                        PAGE  160

     8587 00000e2c 04e00001         cmpi      1,r0
     8588 00000e2d 6a060007         bne       L357
     8589                   ;*      Branch Occurs to L357 
     8590 00000e2e 50610084         ldiu      132,r1
     8591 00000e2f 5060000f         ldiu      15,r0
     8592 00000e30 0f210000         push      r1
     8593 00000e31 0f200000         push      r0
     8594 00000e32 6200004d'        call      _gp_WritingWord
     8595                                                           ; Call Occurs
     8596 00000e33 18740002         subi      2,sp
     8597 00000e34 6a000009         bu        L359
     8598                   ;*      Branch Occurs to L359 
     8599 00000e35          L357:        
     8600                           .line   13
     8601                   ;----------------------------------------------------------------------
     8602                   ; 1247 | else if(!WORD_L(nSelf_Test.nSELF_ICR_SELECT)) { gpSELFT_4;}            
     8603                   ;----------------------------------------------------------------------
     8604 00000e35 506000ff         ldiu      255,r0
     8605 00000e36 1a20003f!        tstb      @_nSelf_Test+63,r0
     8606 00000e37 6a060006         bne       L359
     8607                   ;*      Branch Occurs to L359 
     8608 00000e38 50610082         ldiu      130,r1
     8609 00000e39 5060000f         ldiu      15,r0
     8610 00000e3a 0f210000         push      r1
     8611 00000e3b 0f200000         push      r0
     8612 00000e3c 6200004d'        call      _gp_WritingWord
     8613                                                           ; Call Occurs
     8614 00000e3d 18740002         subi      2,sp
     8615 00000e3e          L359:        
     8616                           .line   15
     8617                   ;----------------------------------------------------------------------
     8618                   ; 1249 | gpSELFTESTINIT;                                                        
     8619                   ;----------------------------------------------------------------------
     8620 00000e3e 50610000         ldiu      0,r1
     8621 00000e3f 50600059         ldiu      89,r0
     8622 00000e40 0f210000         push      r1
     8623 00000e41 0f200000         push      r0
     8624 00000e42 6200004d'        call      _gp_WritingWord
     8625                                                           ; Call Occurs
     8626 00000e43 18740002         subi      2,sp
     8627 00000e44 50610000         ldiu      0,r1
     8628 00000e45 5060005a         ldiu      90,r0
     8629 00000e46 0f210000         push      r1
     8630 00000e47 0f200000         push      r0
     8631 00000e48 6200004d'        call      _gp_WritingWord
     8632                                                           ; Call Occurs
     8633 00000e49 18740002         subi      2,sp
     8634 00000e4a 50610000         ldiu      0,r1
     8635 00000e4b 50600057         ldiu      87,r0
     8636 00000e4c 0f210000         push      r1
     8637 00000e4d 0f200000         push      r0
     8638 00000e4e 6200004d'        call      _gp_WritingWord
     8639                                                           ; Call Occurs
     8640 00000e4f 18740002         subi      2,sp
TMS320C3x/4x COFF AssemblerVersion 5.11     Mon Apr 29 17:36:37 2013
Copyright (c) 1987-1999 Texas Instruments Incorporatedc:\lang\tms320c3x\511\bin\asm30.exe -l gpproface.asm gpproface.obj -tC:\Users\JDS\AppData\Local\Temp\gpproface.tmp 

gpproface.asm                                                        PAGE  161

     8641                           .line   16
     8642                   ;----------------------------------------------------------------------
     8643                   ; 1250 | gp4RBLACK_S;gp6RWITE;gp8RWITE;                                         
     8644                   ;----------------------------------------------------------------------
     8645 00000e50 50610004         ldiu      4,r1
     8646 00000e51 50600061         ldiu      97,r0
     8647 00000e52 0f210000         push      r1
     8648 00000e53 0f200000         push      r0
     8649 00000e54 6200004d'        call      _gp_WritingWord
     8650                                                           ; Call Occurs
     8651 00000e55 18740002         subi      2,sp
     8652 00000e56 50600000         ldiu      0,r0
     8653 00000e57 50610062         ldiu      98,r1
     8654 00000e58 0f200000         push      r0
     8655 00000e59 0f210000         push      r1
     8656 00000e5a 6200004d'        call      _gp_WritingWord
     8657                                                           ; Call Occurs
     8658 00000e5b 18740002         subi      2,sp
     8659 00000e5c 50600000         ldiu      0,r0
     8660 00000e5d 50610060         ldiu      96,r1
     8661 00000e5e 0f200000         push      r0
     8662 00000e5f 0f210000         push      r1
     8663 00000e60 6200004d'        call      _gp_WritingWord
     8664                                                           ; Call Occurs
     8665 00000e61 18740002         subi      2,sp
     8666                           .line   17
     8667                   ;----------------------------------------------------------------------
     8668                   ; 1251 | gp8SELFITEM;                                                           
     8669                   ;----------------------------------------------------------------------
     8670 00000e62 50600002         ldiu      2,r0
     8671 00000e63 0f200000         push      r0
     8672 00000e64 5061005c         ldiu      92,r1
     8673 00000e65 0f210000         push      r1
     8674 00000e66 6200004d'        call      _gp_WritingWord
     8675                                                           ; Call Occurs
     8676 00000e67 18740002         subi      2,sp
     8677                           .line   19
     8678                   ;----------------------------------------------------------------------
     8679                   ; 1253 | gpROOTEN;                                                              
     8680                   ;----------------------------------------------------------------------
     8681 00000e68 50600001         ldiu      1,r0
     8682 00000e69 0f200000         push      r0
     8683 00000e6a 50610039         ldiu      57,r1
     8684 00000e6b 0f210000         push      r1
     8685 00000e6c 6200004d'        call      _gp_WritingWord
     8686                                                           ; Call Occurs
     8687 00000e6d 18740002         subi      2,sp
     8688                           .line   21
     8689                   ;----------------------------------------------------------------------
     8690                   ; 1255 | break;                                                                 
     8691                   ; 1256 | case 0x74:      //   4                                   
     8692                   ;----------------------------------------------------------------------
     8693 00000e6e 6a000092         bu        L376
     8694                   ;*      Branch Occurs to L376 
TMS320C3x/4x COFF AssemblerVersion 5.11     Mon Apr 29 17:36:37 2013
Copyright (c) 1987-1999 Texas Instruments Incorporatedc:\lang\tms320c3x\511\bin\asm30.exe -l gpproface.asm gpproface.obj -tC:\Users\JDS\AppData\Local\Temp\gpproface.tmp 

gpproface.asm                                                        PAGE  162

     8695                           .line   23
     8696                   ;----------------------------------------------------------------------
     8697                   ; 1257 | gp4RBLK_S;                                                             
     8698                   ;----------------------------------------------------------------------
     8699 00000e6f          L361:        
     8700 00000e6f 0f200000         push      r0
     8701 00000e70 0f210000         push      r1
     8702 00000e71 6200004d'        call      _gp_WritingWord
     8703                                                           ; Call Occurs
     8704 00000e72 18740002         subi      2,sp
     8705                           .line   24
     8706                   ;----------------------------------------------------------------------
     8707                   ; 1258 | gpSELKTOKBLK;                                                          
     8708                   ;----------------------------------------------------------------------
     8709 00000e73 50600001         ldiu      1,r0
     8710 00000e74 50610059         ldiu      89,r1
     8711 00000e75 0f200000         push      r0
     8712 00000e76 0f210000         push      r1
     8713 00000e77 6200004d'        call      _gp_WritingWord
     8714                                                           ; Call Occurs
     8715 00000e78 18740002         subi      2,sp
     8716                           .line   25
     8717                   ;----------------------------------------------------------------------
     8718                   ; 1259 | gpROOTDIS;                                                             
     8719                   ;----------------------------------------------------------------------
     8720 00000e79 50600000         ldiu      0,r0
     8721 00000e7a 50610039         ldiu      57,r1
     8722 00000e7b 0f200000         push      r0
     8723 00000e7c 0f210000         push      r1
     8724 00000e7d 6200004d'        call      _gp_WritingWord
     8725                                                           ; Call Occurs
     8726 00000e7e 18740002         subi      2,sp
     8727                           .line   26
     8728                   ;----------------------------------------------------------------------
     8729                   ; 1260 | break;                                                                 
     8730                   ; 1261 | case 0x57: //                                      
     8731                   ;----------------------------------------------------------------------
     8732 00000e7f 6a000081         bu        L376
     8733                   ;*      Branch Occurs to L376 
     8734                           .line   29
     8735                   ;----------------------------------------------------------------------
     8736                   ; 1263 | gpSELFTESTINIT;                                                        
     8737                   ;----------------------------------------------------------------------
     8738 00000e80          L363:        
     8739 00000e80 0f200000         push      r0
     8740 00000e81 0f210000         push      r1
     8741 00000e82 6200004d'        call      _gp_WritingWord
     8742                                                           ; Call Occurs
     8743 00000e83 18740002         subi      2,sp
     8744 00000e84 50600000         ldiu      0,r0
     8745 00000e85 5061005a         ldiu      90,r1
     8746 00000e86 0f200000         push      r0
     8747 00000e87 0f210000         push      r1
     8748 00000e88 6200004d'        call      _gp_WritingWord
TMS320C3x/4x COFF AssemblerVersion 5.11     Mon Apr 29 17:36:37 2013
Copyright (c) 1987-1999 Texas Instruments Incorporatedc:\lang\tms320c3x\511\bin\asm30.exe -l gpproface.asm gpproface.obj -tC:\Users\JDS\AppData\Local\Temp\gpproface.tmp 

gpproface.asm                                                        PAGE  163

     8749                                                           ; Call Occurs
     8750 00000e89 18740002         subi      2,sp
     8751 00000e8a 50600000         ldiu      0,r0
     8752 00000e8b 50610057         ldiu      87,r1
     8753 00000e8c 0f200000         push      r0
     8754 00000e8d 0f210000         push      r1
     8755 00000e8e 6200004d'        call      _gp_WritingWord
     8756                                                           ; Call Occurs
     8757 00000e8f 18740002         subi      2,sp
     8758                           .line   30
     8759                   ;----------------------------------------------------------------------
     8760                   ; 1264 | gp4RBLACK_S;                                                           
     8761                   ;----------------------------------------------------------------------
     8762 00000e90 50600004         ldiu      4,r0
     8763 00000e91 50610061         ldiu      97,r1
     8764 00000e92 0f200000         push      r0
     8765 00000e93 0f210000         push      r1
     8766 00000e94 6200004d'        call      _gp_WritingWord
     8767                                                           ; Call Occurs
     8768 00000e95 18740002         subi      2,sp
     8769                           .line   32
     8770                   ;----------------------------------------------------------------------
     8771                   ; 1266 | nSelf_Test.nSELF_All_Cnt = 0;                                          
     8772                   ;----------------------------------------------------------------------
     8773 00000e96 50600000         ldiu      0,r0
     8774 00000e97 1520003d!        sti       r0,@_nSelf_Test+61
     8775                           .line   33
     8776                   ;----------------------------------------------------------------------
     8777                   ; 1267 | nSelf_Test.nSELF_ICR_CNT = 0;                                          
     8778                   ;----------------------------------------------------------------------
     8779 00000e98 1520003e!        sti       r0,@_nSelf_Test+62
     8780                           .line   35
     8781                   ;----------------------------------------------------------------------
     8782                   ; 1269 | nTr_St_Info.nSelf_Test_Flag = TRUE;                                    
     8783                   ;----------------------------------------------------------------------
     8784 00000e99 50600001         ldiu      1,r0
     8785 00000e9a 152001fa!        sti       r0,@_nTr_St_Info+506
     8786                           .line   37
     8787                   ;----------------------------------------------------------------------
     8788                   ; 1271 | memset(nSelf_Test.nSELF_RXDATA_Buf,0x01,15);                           
     8789                   ;----------------------------------------------------------------------
     8790 00000e9b 50210217-        ldiu      @CL15,r1
     8791 00000e9c 5060000f         ldiu      15,r0
     8792 00000e9d 50620001         ldiu      1,r2
     8793 00000e9e 0f200000         push      r0
     8794 00000e9f 0f220000         push      r2
     8795 00000ea0 0f210000         push      r1
     8796 00000ea1 62000000!        call      _memset
     8797                                                           ; Call Occurs
     8798 00000ea2 18740003         subi      3,sp
     8799                           .line   39
     8800                   ;----------------------------------------------------------------------
     8801                   ; 1273 | memset(nSelf_Test.nSELF_RXDATA_Buf_2R,0x01,15);                        
     8802                   ; 1274 | //memset(nSelf_Test.nSELF_RXDATA_Buf_3R,0x01,20);                      
TMS320C3x/4x COFF AssemblerVersion 5.11     Mon Apr 29 17:36:37 2013
Copyright (c) 1987-1999 Texas Instruments Incorporatedc:\lang\tms320c3x\511\bin\asm30.exe -l gpproface.asm gpproface.obj -tC:\Users\JDS\AppData\Local\Temp\gpproface.tmp 

gpproface.asm                                                        PAGE  164

     8803                   ;----------------------------------------------------------------------
     8804 00000ea3 5060000f         ldiu      15,r0
     8805 00000ea4 0f200000         push      r0
     8806 00000ea5 50610001         ldiu      1,r1
     8807 00000ea6 0f210000         push      r1
     8808 00000ea7 50220218-        ldiu      @CL16,r2
     8809 00000ea8 0f220000         push      r2
     8810 00000ea9 62000000!        call      _memset
     8811                                                           ; Call Occurs
     8812 00000eaa 18740003         subi      3,sp
     8813                           .line   42
     8814                   ;----------------------------------------------------------------------
     8815                   ; 1276 | memset(sSelf_Buf,0x01,60);                                             
     8816                   ;----------------------------------------------------------------------
     8817 00000eab 50600001         ldiu      1,r0
     8818 00000eac 5062003c         ldiu      60,r2
     8819 00000ead 5001000b         ldiu      fp,r1
     8820 00000eae 0f220000         push      r2
     8821 00000eaf 0f200000         push      r0
     8822 00000eb0 02610001         addi      1,r1
     8823 00000eb1 0f210000         push      r1
     8824 00000eb2 62000000!        call      _memset
     8825                                                           ; Call Occurs
     8826 00000eb3 18740003         subi      3,sp
     8827                           .line   44
     8828                   ;----------------------------------------------------------------------
     8829                   ; 1278 | SDR_Routine_Complete(sSelf_Buf,FALSE);// .                 
     8830                   ;----------------------------------------------------------------------
     8831 00000eb4 50610000         ldiu      0,r1
     8832 00000eb5 5000000b         ldiu      fp,r0
     8833 00000eb6 02600001         addi      1,r0
     8834 00000eb7 0f210000         push      r1
     8835 00000eb8 0f200000         push      r0
     8836 00000eb9 62000f05'        call      _SDR_Routine_Complete
     8837                                                           ; Call Occurs
     8838 00000eba 18740002         subi      2,sp
     8839                           .line   46
     8840                   ;----------------------------------------------------------------------
     8841                   ; 1280 | nSelect_Button.nScreenSetNum = 3;                                      
     8842                   ;----------------------------------------------------------------------
     8843 00000ebb 50600003         ldiu      3,r0
     8844 00000ebc 15200205-        sti       r0,@_nSelect_Button+10
     8845                           .line   48
     8846                   ;----------------------------------------------------------------------
     8847                   ; 1282 | break;                                                                 
     8848                   ; 1284 | case 112:       //  .                                    
     8849                   ;----------------------------------------------------------------------
     8850 00000ebd 6a000043         bu        L376
     8851                   ;*      Branch Occurs to L376 
     8852 00000ebe          L364:        
     8853                           .line   52
     8854                   ;----------------------------------------------------------------------
     8855                   ; 1286 | nSelf_Test.nPA_SCREEN_SET = 0;                                         
     8856                   ;----------------------------------------------------------------------
TMS320C3x/4x COFF AssemblerVersion 5.11     Mon Apr 29 17:36:37 2013
Copyright (c) 1987-1999 Texas Instruments Incorporatedc:\lang\tms320c3x\511\bin\asm30.exe -l gpproface.asm gpproface.obj -tC:\Users\JDS\AppData\Local\Temp\gpproface.tmp 

gpproface.asm                                                        PAGE  165

     8857 00000ebe 50600000         ldiu      0,r0
     8858 00000ebf 15200041!        sti       r0,@_nSelf_Test+65
     8859                           .line   54
     8860                   ;----------------------------------------------------------------------
     8861                   ; 1288 | if(WORD_L(nSelf_Test.nSELF_ICR_SELECT) == 1) { gpSELFT_12;}            
     8862                   ;----------------------------------------------------------------------
     8863 00000ec0 506000ff         ldiu      255,r0
     8864 00000ec1 02a0003f!        and       @_nSelf_Test+63,r0
     8865 00000ec2 04e00001         cmpi      1,r0
     8866 00000ec3 6a060007         bne       L366
     8867                   ;*      Branch Occurs to L366 
     8868 00000ec4 50610084         ldiu      132,r1
     8869 00000ec5 5060000f         ldiu      15,r0
     8870 00000ec6 0f210000         push      r1
     8871 00000ec7 0f200000         push      r0
     8872 00000ec8 6200004d'        call      _gp_WritingWord
     8873                                                           ; Call Occurs
     8874 00000ec9 18740002         subi      2,sp
     8875 00000eca 6a000009         bu        L368
     8876                   ;*      Branch Occurs to L368 
     8877 00000ecb          L366:        
     8878                           .line   55
     8879                   ;----------------------------------------------------------------------
     8880                   ; 1289 | else if(!WORD_L(nSelf_Test.nSELF_ICR_SELECT)) { gpSELFT_4;}            
     8881                   ;----------------------------------------------------------------------
     8882 00000ecb 506000ff         ldiu      255,r0
     8883 00000ecc 1a20003f!        tstb      @_nSelf_Test+63,r0
     8884 00000ecd 6a060006         bne       L368
     8885                   ;*      Branch Occurs to L368 
     8886 00000ece 50610082         ldiu      130,r1
     8887 00000ecf 5060000f         ldiu      15,r0
     8888 00000ed0 0f210000         push      r1
     8889 00000ed1 0f200000         push      r0
     8890 00000ed2 6200004d'        call      _gp_WritingWord
     8891                                                           ; Call Occurs
     8892 00000ed3 18740002         subi      2,sp
     8893 00000ed4          L368:        
     8894                           .line   57
     8895                   ;----------------------------------------------------------------------
     8896                   ; 1291 | nSelect_Button.nScreenSetNum = 3;                                      
     8897                   ;----------------------------------------------------------------------
     8898 00000ed4 50600003         ldiu      3,r0
     8899 00000ed5 15200205-        sti       r0,@_nSelect_Button+10
     8900                           .line   59
     8901                   ;----------------------------------------------------------------------
     8902                   ; 1293 | break;                                                                 
     8903                   ; 1294 | case 113: //  .                                            
     8904                   ;----------------------------------------------------------------------
     8905 00000ed6 6a00002a         bu        L376
     8906                   ;*      Branch Occurs to L376 
     8907 00000ed7          L369:        
     8908                           .line   62
     8909                   ;----------------------------------------------------------------------
     8910                   ; 1296 | nSelf_Test.nPA_SCREEN_SET = 1;                                         
TMS320C3x/4x COFF AssemblerVersion 5.11     Mon Apr 29 17:36:37 2013
Copyright (c) 1987-1999 Texas Instruments Incorporatedc:\lang\tms320c3x\511\bin\asm30.exe -l gpproface.asm gpproface.obj -tC:\Users\JDS\AppData\Local\Temp\gpproface.tmp 

gpproface.asm                                                        PAGE  166

     8911                   ; 1297 | //nSelf_Test.nSELF_ICR_SELECT = 1;                                     
     8912                   ;----------------------------------------------------------------------
     8913 00000ed7 50600001         ldiu      1,r0
     8914 00000ed8 15200041!        sti       r0,@_nSelf_Test+65
     8915                           .line   65
     8916                   ;----------------------------------------------------------------------
     8917                   ; 1299 | gpSELFT_PA;                                                            
     8918                   ;----------------------------------------------------------------------
     8919 00000ed9 50610083         ldiu      131,r1
     8920 00000eda 0f210000         push      r1
     8921 00000edb 5060000f         ldiu      15,r0
     8922 00000edc 0f200000         push      r0
     8923 00000edd 6200004d'        call      _gp_WritingWord
     8924                                                           ; Call Occurs
     8925 00000ede 18740002         subi      2,sp
     8926                           .line   67
     8927                   ;----------------------------------------------------------------------
     8928                   ; 1301 | memcpy(sSelf_Buf,0x00,30);                                             
     8929                   ;----------------------------------------------------------------------
     8930 00000edf 50680000         ldiu      0,ar0
     8931 00000ee0 5009000b         ldiu      fp,ar1
     8932 00000ee1 02690001         addi      1,ar1
     8933 00000ee2 50402001         ldiu      *ar0++(1),r0
     8934 00000ee3 13fb001c         rpts      28                    ; Fast MEMCPY(#33)
     8935 00000ee4 da002120         sti       r0,*ar1++(1)
     8936                   ||      ldi       *ar0++(1),r0
     8937 00000ee5 15402101         sti       r0,*ar1++(1)
     8938                           .line   68
     8939                   ;----------------------------------------------------------------------
     8940                   ; 1302 | SDR_Routine_Complete(sSelf_Buf,FALSE);  // GP  0/X .   
     8941                   ;----------------------------------------------------------------------
     8942 00000ee6 50610000         ldiu      0,r1
     8943 00000ee7 5000000b         ldiu      fp,r0
     8944 00000ee8 02600001         addi      1,r0
     8945 00000ee9 0f210000         push      r1
     8946 00000eea 0f200000         push      r0
     8947 00000eeb 62000f05'        call      _SDR_Routine_Complete
     8948                                                           ; Call Occurs
     8949 00000eec 18740002         subi      2,sp
     8950                           .line   69
     8951                   ;----------------------------------------------------------------------
     8952                   ; 1303 | nSelect_Button.nScreenSetNum = 3;                                      
     8953                   ;----------------------------------------------------------------------
     8954 00000eed 50600003         ldiu      3,r0
     8955 00000eee 15200205-        sti       r0,@_nSelect_Button+10
     8956                           .line   72
     8957                   ;----------------------------------------------------------------------
     8958                   ; 1306 | break;                                                                 
     8959                   ;----------------------------------------------------------------------
     8960 00000eef 6a000011         bu        L376
     8961                   ;*      Branch Occurs to L376 
     8962 00000ef0          L371:        
     8963                           .line   5
     8964 00000ef0 50400b02         ldiu      *-fp(2),r0
TMS320C3x/4x COFF AssemblerVersion 5.11     Mon Apr 29 17:36:37 2013
Copyright (c) 1987-1999 Texas Instruments Incorporatedc:\lang\tms320c3x\511\bin\asm30.exe -l gpproface.asm gpproface.obj -tC:\Users\JDS\AppData\Local\Temp\gpproface.tmp 

gpproface.asm                                                        PAGE  167

     8965 00000ef1 04e0003d         cmpi      61,r0
     8966 00000ef2 6a05ff35         beq       L355
     8967                   ;*      Branch Occurs to L355 
     8968 00000ef3 04e00057         cmpi      87,r0
     8969 00000ef4 6a25ff89         beqd      L363
     8970 00000ef5 0c800000         nop
     8971 00000ef6 52e00000         ldieq     0,r0
     8972 00000ef7 52e10059         ldieq     89,r1
     8973                   ;*      Branch Occurs to L363 
     8974 00000ef8 04e00070         cmpi      112,r0
     8975 00000ef9 6a05ffc4         beq       L364
     8976                   ;*      Branch Occurs to L364 
     8977 00000efa 04e00071         cmpi      113,r0
     8978 00000efb 6a05ffdb         beq       L369
     8979                   ;*      Branch Occurs to L369 
     8980 00000efc 04e00074         cmpi      116,r0
     8981 00000efd 6a25ff6f         beqd      L361
     8982 00000efe 0c800000         nop
     8983 00000eff 52e00002         ldieq     2,r0
     8984 00000f00 52e10061         ldieq     97,r1
     8985                   ;*      Branch Occurs to L361 
     8986 00000f01          L376:        
     8987                           .line   74
     8988 00000f01 50530b01         ldiu      *-fp(1),bk
     8989 00000f02 504bc300         ldiu      *fp,fp
     8990 00000f03 1874003e         subi      62,sp
     8991 00000f04 68000013         bu        bk
     8992                   ;*      Branch Occurs to bk 
     8993                           .endfunc        1308,000000000h,60
     8994                   
     8995                   
     8996 00000f05                  .sect    ".text"
     8997                   
     8998                           .global _SDR_Routine_Complete
     8999                           .sym    _SDR_Routine_Complete,_SDR_Routine_Complete,32,2,0
     9000                           .func   1313
     9001                   ;******************************************************************************
     9002                   ;* FUNCTION NAME: _SDR_Routine_Complete                                       *
     9003                   ;*                                                                            *
     9004                   ;*   Architecture       : TMS320C30                                           *
     9005                   ;*   Calling Convention : Stack Parameter Convention                          *
     9006                   ;*   Function Uses Regs : r0,r1,ar0,fp,ir0,sp,st                              *
     9007                   ;*   Regs Saved         :                                                     *
     9008                   ;*   Stack Frame        : Full (w/ debug)                                     *
     9009                   ;*   Total Frame Size   : 2 Call + 2 Parm + 122 Auto + 0 SOE = 126 words      *
     9010                   ;******************************************************************************
     9011 00000f05          _SDR_Routine_Complete:
     9012                           .sym    _pSData,-2,28,9,32
     9013                           .sym    _nSt_End,-3,12,9,32
     9014                           .sym    _i,1,12,1,32
     9015                           .sym    _pDData,2,60,1,3840,,120
     9016                           .sym    _sDisplay_Unit,122,12,1,32
     9017                           .line   1
     9018                   ;----------------------------------------------------------------------
TMS320C3x/4x COFF AssemblerVersion 5.11     Mon Apr 29 17:36:37 2013
Copyright (c) 1987-1999 Texas Instruments Incorporatedc:\lang\tms320c3x\511\bin\asm30.exe -l gpproface.asm gpproface.obj -tC:\Users\JDS\AppData\Local\Temp\gpproface.tmp 

gpproface.asm                                                        PAGE  168

     9019                   ; 1313 | void SDR_Routine_Complete(UCHAR *pSData,UCHAR nSt_End)
     9020                   ;     |                  // GP                                     
     9021                   ;----------------------------------------------------------------------
     9022 00000f05 0f2b0000         push      fp
     9023 00000f06 500b0014         ldiu      sp,fp
     9024 00000f07 0274007a         addi      122,sp
     9025                           .line   2
     9026                   ;----------------------------------------------------------------------
     9027                   ; 1315 | UCHAR i;                                                               
     9028                   ; 1316 | UCHAR pDData[120];                                                     
     9029                   ; 1317 | UCHAR sDisplay_Unit;                                                   
     9030                   ;----------------------------------------------------------------------
     9031                           .line   7
     9032                   ;----------------------------------------------------------------------
     9033                   ; 1319 | sDisplay_Unit =DISPLAY_UNIT+LCDC+(nSelf_Test.nPA_SCREEN_SET*19) + (nTcm
     9034                   ;     | sIdcInfo.nIDCFlag*11);                                                 
     9035                   ;----------------------------------------------------------------------
     9036 00000f08 50210000!        ldiu      @_nTcmsIdcInfo+0,r1
     9037 00000f09 50200041!        ldiu      @_nSelf_Test+65,r0
     9038 00000f0a 0ae1000b         mpyi      11,r1
     9039 00000f0b 0ae00013         mpyi      19,r0
     9040 00000f0c 21000001         addi3     r1,r0,r0              ; Unsigned
     9041 00000f0d 0260000b         addi      11,r0                 ; Unsigned
     9042 00000f0e 1540037a         sti       r0,*+fp(122)
     9043                           .line   9
     9044                   ;----------------------------------------------------------------------
     9045                   ; 1321 | for(i=0;i<sDisplay_Unit;i++)
     9046                   ;     |                          //                                  
     9047                   ;----------------------------------------------------------------------
     9048 00000f0f 50600000         ldiu      0,r0
     9049 00000f10 15400301         sti       r0,*+fp(1)
     9050 00000f11 04c0037a         cmpi      *+fp(122),r0
     9051 00000f12 6a040039         bhs       L387
     9052                   ;*      Branch Occurs to L387 
     9053 00000f13          L379:        
     9054                           .line   11
     9055                   ;----------------------------------------------------------------------
     9056                   ; 1323 | if(WORD_L(nSt_End))                                                    
     9057                   ;----------------------------------------------------------------------
     9058 00000f13 506000ff         ldiu      255,r0
     9059 00000f14 1a400b03         tstb      *-fp(3),r0
     9060 00000f15 6a050021         beq       L384
     9061                   ;*      Branch Occurs to L384 
     9062                           .line   13
     9063                   ;----------------------------------------------------------------------
     9064                   ; 1325 | if(pSData[i]) {pDData[i*2]= 0x08; pDData[i*2+1]= 0x06;} // X  (2054
     9065                   ;     | )                                                                      
     9066                   ;----------------------------------------------------------------------
     9067 00000f16 50510b02         ldiu      *-fp(2),ir0
     9068 00000f17 50480301         ldiu      *+fp(1),ar0
     9069 00000f18 08404000         ldi       *+ar0(ir0),r0
     9070 00000f19 6a25000f         beqd      L383
     9071 00000f1a 0c800000         nop
     9072 00000f1b 52d10301         ldieq     *+fp(1),ir0
TMS320C3x/4x COFF AssemblerVersion 5.11     Mon Apr 29 17:36:37 2013
Copyright (c) 1987-1999 Texas Instruments Incorporatedc:\lang\tms320c3x\511\bin\asm30.exe -l gpproface.asm gpproface.obj -tC:\Users\JDS\AppData\Local\Temp\gpproface.tmp 

gpproface.asm                                                        PAGE  169

     9073 00000f1c 5288000b         ldieq     fp,ar0
     9074                   ;*      Branch Occurs to L383 
     9075 00000f1d 50510301         ldiu      *+fp(1),ir0
     9076 00000f1e 5008000b         ldiu      fp,ar0
     9077 00000f1f 0af10002         mpyi      2,ir0
     9078 00000f20 02680002         addi      2,ar0
     9079 00000f21 50600008         ldiu      8,r0
     9080 00000f22 15404000         sti       r0,*+ar0(ir0)
     9081 00000f23 50510301         ldiu      *+fp(1),ir0
     9082 00000f24 5008000b         ldiu      fp,ar0
     9083 00000f25 0af10002         mpyi      2,ir0
     9084 00000f26 02680002         addi      2,ar0
     9085 00000f27 02710001         addi      1,ir0                 ; Unsigned
     9086 00000f28 50600006         ldiu      6,r0
     9087 00000f29 15404000         sti       r0,*+ar0(ir0)
     9088 00000f2a 6a00001c         bu        L386
     9089                   ;*      Branch Occurs to L386 
     9090                           .line   14
     9091                   ;----------------------------------------------------------------------
     9092                   ; 1326 | else {pDData[i*2]= 0x08; pDData[i*2+1]= 0x05;}          // O  (2053
     9093                   ;     | )                                                                      
     9094                   ;----------------------------------------------------------------------
     9095 00000f2b          L383:        
     9096 00000f2b 0af10002         mpyi      2,ir0
     9097 00000f2c 02680002         addi      2,ar0
     9098 00000f2d 50600008         ldiu      8,r0
     9099 00000f2e 15404000         sti       r0,*+ar0(ir0)
     9100 00000f2f 50510301         ldiu      *+fp(1),ir0
     9101 00000f30 5008000b         ldiu      fp,ar0
     9102 00000f31 0af10002         mpyi      2,ir0
     9103 00000f32 02680002         addi      2,ar0
     9104 00000f33 02710001         addi      1,ir0                 ; Unsigned
     9105 00000f34 50600005         ldiu      5,r0
     9106 00000f35 15404000         sti       r0,*+ar0(ir0)
     9107 00000f36 6a000010         bu        L386
     9108                   ;*      Branch Occurs to L386 
     9109 00000f37          L384:        
     9110                           .line   16
     9111                   ;----------------------------------------------------------------------
     9112                   ; 1328 | else if(!WORD_L(nSt_End))                                              
     9113                   ;----------------------------------------------------------------------
     9114 00000f37 506000ff         ldiu      255,r0
     9115 00000f38 1a400b03         tstb      *-fp(3),r0
     9116 00000f39 6a06000d         bne       L386
     9117                   ;*      Branch Occurs to L386 
     9118                           .line   18
     9119                   ;----------------------------------------------------------------------
     9120                   ; 1330 | pDData[i*2]= 0x08; pDData[i*2+1]= 0x07; //                     
     9121                   ;----------------------------------------------------------------------
     9122 00000f3a 50510301         ldiu      *+fp(1),ir0
     9123 00000f3b 5008000b         ldiu      fp,ar0
     9124 00000f3c 0af10002         mpyi      2,ir0
     9125 00000f3d 02680002         addi      2,ar0
     9126 00000f3e 50600008         ldiu      8,r0
TMS320C3x/4x COFF AssemblerVersion 5.11     Mon Apr 29 17:36:37 2013
Copyright (c) 1987-1999 Texas Instruments Incorporatedc:\lang\tms320c3x\511\bin\asm30.exe -l gpproface.asm gpproface.obj -tC:\Users\JDS\AppData\Local\Temp\gpproface.tmp 

gpproface.asm                                                        PAGE  170

     9127 00000f3f 15404000         sti       r0,*+ar0(ir0)
     9128 00000f40 50510301         ldiu      *+fp(1),ir0
     9129 00000f41 5008000b         ldiu      fp,ar0
     9130 00000f42 0af10002         mpyi      2,ir0
     9131 00000f43 02680002         addi      2,ar0
     9132 00000f44 02710001         addi      1,ir0                 ; Unsigned
     9133 00000f45 50600007         ldiu      7,r0
     9134 00000f46 15404000         sti       r0,*+ar0(ir0)
     9135 00000f47          L386:        
     9136                           .line   9
     9137 00000f47 50600001         ldiu      1,r0
     9138 00000f48 02400301         addi      *+fp(1),r0            ; Unsigned
     9139 00000f49 15400301         sti       r0,*+fp(1)
     9140 00000f4a 04c0037a         cmpi      *+fp(122),r0
     9141 00000f4b 6a01ffc7         blo       L379
     9142                   ;*      Branch Occurs to L379 
     9143 00000f4c          L387:        
     9144                           .line   22
     9145                   ;----------------------------------------------------------------------
     9146                   ; 1334 | if(nSelf_Test.nPA_SCREEN_SET == 1)      //                     
     9147                   ;----------------------------------------------------------------------
     9148 00000f4c 50200041!        ldiu      @_nSelf_Test+65,r0
     9149 00000f4d 04e00001         cmpi      1,r0
     9150 00000f4e 6a26000b         bned      L390
     9151 00000f4f 0c800000         nop
     9152 00000f50 5300000b         ldine     fp,r0
     9153 00000f51 536100dc         ldine     220,r1
     9154                   ;*      Branch Occurs to L390 
     9155                           .line   24
     9156                   ;----------------------------------------------------------------------
     9157                   ; 1336 | gp_WritingStr(242,sDisplay_Unit,pDData);                               
     9158                   ; 1338 | else                                                                   
     9159                   ;----------------------------------------------------------------------
     9160 00000f52 5000000b         ldiu      fp,r0
     9161 00000f53 506100f2         ldiu      242,r1
     9162 00000f54 02600002         addi      2,r0
     9163 00000f55 0f200000         push      r0
     9164 00000f56 5040037a         ldiu      *+fp(122),r0
     9165 00000f57 0f200000         push      r0
     9166 00000f58 0f210000         push      r1
     9167 00000f59 620000ba'        call      _gp_WritingStr
     9168                                                           ; Call Occurs
     9169 00000f5a 18740003         subi      3,sp
     9170 00000f5b 6a000007         bu        L391
     9171                   ;*      Branch Occurs to L391 
     9172                           .line   28
     9173                   ;----------------------------------------------------------------------
     9174                   ; 1340 | gp_WritingStr(220,sDisplay_Unit,pDData);
     9175                   ;     |          // Address                          
     9176                   ;----------------------------------------------------------------------
     9177 00000f5c          L390:        
     9178 00000f5c 02600002         addi      2,r0
     9179 00000f5d 0f200000         push      r0
     9180 00000f5e 5040037a         ldiu      *+fp(122),r0
TMS320C3x/4x COFF AssemblerVersion 5.11     Mon Apr 29 17:36:37 2013
Copyright (c) 1987-1999 Texas Instruments Incorporatedc:\lang\tms320c3x\511\bin\asm30.exe -l gpproface.asm gpproface.obj -tC:\Users\JDS\AppData\Local\Temp\gpproface.tmp 

gpproface.asm                                                        PAGE  171

     9181 00000f5f 0f200000         push      r0
     9182 00000f60 0f210000         push      r1
     9183 00000f61 620000ba'        call      _gp_WritingStr
     9184                                                           ; Call Occurs
     9185 00000f62 18740003         subi      3,sp
     9186 00000f63          L391:        
     9187                           .line   30
     9188 00000f63 50530b01         ldiu      *-fp(1),bk
     9189 00000f64 504bc300         ldiu      *fp,fp
     9190 00000f65 1874007c         subi      124,sp
     9191 00000f66 68000013         bu        bk
     9192                   ;*      Branch Occurs to bk 
     9193                           .endfunc        1342,000000000h,122
     9194                   
     9195                   
     9196 00000f67                  .sect    ".text"
     9197                   
     9198                           .global _GP_TRAIN_SCREEN
     9199                           .sym    _GP_TRAIN_SCREEN,_GP_TRAIN_SCREEN,32,2,0
     9200                           .func   1346
     9201                   ;******************************************************************************
     9202                   ;* FUNCTION NAME: _GP_TRAIN_SCREEN                                            *
     9203                   ;*                                                                            *
     9204                   ;*   Architecture       : TMS320C30                                           *
     9205                   ;*   Calling Convention : Stack Parameter Convention                          *
     9206                   ;*   Function Uses Regs : r0,r1,fp,sp,st                                      *
     9207                   ;*   Regs Saved         :                                                     *
     9208                   ;*   Stack Frame        : Full (w/ debug)                                     *
     9209                   ;*   Total Frame Size   : 2 Call + 1 Parm + 0 Auto + 0 SOE = 3 words          *
     9210                   ;******************************************************************************
     9211 00000f67          _GP_TRAIN_SCREEN:
     9212                           .sym    _nScreenInf,-2,12,9,32
     9213                           .line   1
     9214                   ;----------------------------------------------------------------------
     9215                   ; 1346 | void GP_TRAIN_SCREEN(UCHAR nScreenInf)                                 
     9216                   ;----------------------------------------------------------------------
     9217                           .line   2
     9218                   ;----------------------------------------------------------------------
     9219                   ; 1349 | switch(nScreenInf)                                                     
     9220                   ; 1351 | case 0x34:      //  .                                      
     9221                   ;----------------------------------------------------------------------
     9222 00000f67 6a200044         bud       L400
     9223 00000f68 0f2b0000         push      fp
     9224 00000f69 500b0014         ldiu      sp,fp
     9225 00000f6a 50400b02         ldiu      *-fp(2),r0
     9226                   ;*      Branch Occurs to L400 
     9227 00000f6b          L394:        
     9228                           .line   8
     9229                   ;----------------------------------------------------------------------
     9230                   ; 1353 | nSelect_Button.nScreenSetNum = 7;                                      
     9231                   ;----------------------------------------------------------------------
     9232 00000f6b 50600007         ldiu      7,r0
     9233 00000f6c 15200205-        sti       r0,@_nSelect_Button+10
     9234                           .line   10
TMS320C3x/4x COFF AssemblerVersion 5.11     Mon Apr 29 17:36:37 2013
Copyright (c) 1987-1999 Texas Instruments Incorporatedc:\lang\tms320c3x\511\bin\asm30.exe -l gpproface.asm gpproface.obj -tC:\Users\JDS\AppData\Local\Temp\gpproface.tmp 

gpproface.asm                                                        PAGE  172

     9235                   ;----------------------------------------------------------------------
     9236                   ; 1355 | gpTRAINNUMBER;                                                         
     9237                   ;----------------------------------------------------------------------
     9238 00000f6d 50610033         ldiu      51,r1
     9239 00000f6e 0f210000         push      r1
     9240 00000f6f 5060000f         ldiu      15,r0
     9241 00000f70 0f200000         push      r0
     9242 00000f71 6200004d'        call      _gp_WritingWord
     9243                                                           ; Call Occurs
     9244 00000f72 18740002         subi      2,sp
     9245                           .line   11
     9246                   ;----------------------------------------------------------------------
     9247                   ; 1356 | gpKEYACTIVE;                                                           
     9248                   ;----------------------------------------------------------------------
     9249 00000f73 50600001         ldiu      1,r0
     9250 00000f74 50610032         ldiu      50,r1
     9251 00000f75 0f200000         push      r0
     9252 00000f76 0f210000         push      r1
     9253 00000f77 6200004d'        call      _gp_WritingWord
     9254                                                           ; Call Occurs
     9255 00000f78 18740002         subi      2,sp
     9256                           .line   12
     9257                   ;----------------------------------------------------------------------
     9258                   ; 1357 | gpKEYCLR;                                                              
     9259                   ;----------------------------------------------------------------------
     9260 00000f79 50600000         ldiu      0,r0
     9261 00000f7a 0f200000         push      r0
     9262 00000f7b 5061004a         ldiu      74,r1
     9263 00000f7c 0f210000         push      r1
     9264 00000f7d 6200004d'        call      _gp_WritingWord
     9265                                                           ; Call Occurs
     9266 00000f7e 18740002         subi      2,sp
     9267                           .line   13
     9268                   ;----------------------------------------------------------------------
     9269                   ; 1358 | gpSETCLR;                                                              
     9270                   ;----------------------------------------------------------------------
     9271 00000f7f 50610052         ldiu      82,r1
     9272 00000f80 50600000         ldiu      0,r0
     9273 00000f81 0f200000         push      r0
     9274 00000f82 0f210000         push      r1
     9275 00000f83 6200004d'        call      _gp_WritingWord
     9276                                                           ; Call Occurs
     9277 00000f84 18740002         subi      2,sp
     9278                           .line   14
     9279                   ;----------------------------------------------------------------------
     9280                   ; 1359 | gpKEYEN;                                                               
     9281                   ;----------------------------------------------------------------------
     9282 00000f85 50600001         ldiu      1,r0
     9283 00000f86 0f200000         push      r0
     9284 00000f87 5061000e         ldiu      14,r1
     9285 00000f88 0f210000         push      r1
     9286 00000f89 6200004d'        call      _gp_WritingWord
     9287                                                           ; Call Occurs
     9288 00000f8a 18740002         subi      2,sp
TMS320C3x/4x COFF AssemblerVersion 5.11     Mon Apr 29 17:36:37 2013
Copyright (c) 1987-1999 Texas Instruments Incorporatedc:\lang\tms320c3x\511\bin\asm30.exe -l gpproface.asm gpproface.obj -tC:\Users\JDS\AppData\Local\Temp\gpproface.tmp 

gpproface.asm                                                        PAGE  173

     9289                           .line   16
     9290                   ;----------------------------------------------------------------------
     9291                   ; 1361 | break;                                                                 
     9292                   ; 1362 | case 0x4D:      // KEY  .                            
     9293                   ;----------------------------------------------------------------------
     9294 00000f8b 6a00002e         bu        L403
     9295                   ;*      Branch Occurs to L403 
     9296                           .line   18
     9297                   ;----------------------------------------------------------------------
     9298                   ; 1363 | gpKEYINIT;                                                             
     9299                   ;----------------------------------------------------------------------
     9300 00000f8c          L396:        
     9301 00000f8c 0f200000         push      r0
     9302 00000f8d 0f210000         push      r1
     9303 00000f8e 6200004d'        call      _gp_WritingWord
     9304                                                           ; Call Occurs
     9305 00000f8f 18740002         subi      2,sp
     9306                           .line   19
     9307                   ;----------------------------------------------------------------------
     9308                   ; 1364 | break;                                                                 
     9309                   ; 1365 | case 0x50: //   .                                
     9310                   ;----------------------------------------------------------------------
     9311 00000f90 6a000029         bu        L403
     9312                   ;*      Branch Occurs to L403 
     9313                           .line   22
     9314                   ;----------------------------------------------------------------------
     9315                   ; 1367 | gpKEYCLR;                                                              
     9316                   ;----------------------------------------------------------------------
     9317 00000f91          L398:        
     9318 00000f91 0f200000         push      r0
     9319 00000f92 0f210000         push      r1
     9320 00000f93 6200004d'        call      _gp_WritingWord
     9321                                                           ; Call Occurs
     9322 00000f94 18740002         subi      2,sp
     9323                           .line   23
     9324                   ;----------------------------------------------------------------------
     9325                   ; 1368 | gpRDNUMBER;                                                            
     9326                   ;----------------------------------------------------------------------
     9327 00000f95 50600001         ldiu      1,r0
     9328 00000f96 50610064         ldiu      100,r1
     9329 00000f97 0f200000         push      r0
     9330 00000f98 0f210000         push      r1
     9331 00000f99 62000089'        call      _gp_ReadingWord
     9332                                                           ; Call Occurs
     9333 00000f9a 18740002         subi      2,sp
     9334                           .line   24
     9335                   ;----------------------------------------------------------------------
     9336                   ; 1369 | gpKEYDIS;                                                              
     9337                   ;----------------------------------------------------------------------
     9338 00000f9b 50600000         ldiu      0,r0
     9339 00000f9c 5061000e         ldiu      14,r1
     9340 00000f9d 0f200000         push      r0
     9341 00000f9e 0f210000         push      r1
     9342 00000f9f 6200004d'        call      _gp_WritingWord
TMS320C3x/4x COFF AssemblerVersion 5.11     Mon Apr 29 17:36:37 2013
Copyright (c) 1987-1999 Texas Instruments Incorporatedc:\lang\tms320c3x\511\bin\asm30.exe -l gpproface.asm gpproface.obj -tC:\Users\JDS\AppData\Local\Temp\gpproface.tmp 

gpproface.asm                                                        PAGE  174

     9343                                                           ; Call Occurs
     9344 00000fa0 18740002         subi      2,sp
     9345                           .line   25
     9346                   ;----------------------------------------------------------------------
     9347                   ; 1370 | gpTRNOSEEK;                                                            
     9348                   ;----------------------------------------------------------------------
     9349 00000fa1 50600004         ldiu      4,r0
     9350 00000fa2 50610052         ldiu      82,r1
     9351 00000fa3 0f200000         push      r0
     9352 00000fa4 0f210000         push      r1
     9353 00000fa5 6200004d'        call      _gp_WritingWord
     9354                                                           ; Call Occurs
     9355 00000fa6 18740002         subi      2,sp
     9356                           .line   26
     9357                   ;----------------------------------------------------------------------
     9358                   ; 1371 | gpKEYEN;                                                               
     9359                   ;----------------------------------------------------------------------
     9360 00000fa7 5061000e         ldiu      14,r1
     9361 00000fa8 50600001         ldiu      1,r0
     9362 00000fa9 0f200000         push      r0
     9363 00000faa 0f210000         push      r1
     9364 00000fab 6200004d'        call      _gp_WritingWord
     9365                                                           ; Call Occurs
     9366 00000fac 18740002         subi      2,sp
     9367                           .line   27
     9368                   ;----------------------------------------------------------------------
     9369                   ; 1372 | break;                                                                 
     9370                   ;----------------------------------------------------------------------
     9371 00000fad 6a00000c         bu        L403
     9372                   ;*      Branch Occurs to L403 
     9373                           .line   4
     9374 00000fae          L400:        
     9375 00000fae 04e00034         cmpi      52,r0
     9376 00000faf 6a05ffbb         beq       L394
     9377                   ;*      Branch Occurs to L394 
     9378 00000fb0 04e0004d         cmpi      77,r0
     9379 00000fb1 6a25ffd8         beqd      L396
     9380 00000fb2 0c800000         nop
     9381 00000fb3 52e00000         ldieq     0,r0
     9382 00000fb4 52e1004b         ldieq     75,r1
     9383                   ;*      Branch Occurs to L396 
     9384 00000fb5 04e00050         cmpi      80,r0
     9385 00000fb6 6a25ffd8         beqd      L398
     9386 00000fb7 0c800000         nop
     9387 00000fb8 52e00000         ldieq     0,r0
     9388 00000fb9 52e1004a         ldieq     74,r1
     9389                   ;*      Branch Occurs to L398 
     9390 00000fba          L403:        
     9391                           .line   29
     9392 00000fba 50530b01         ldiu      *-fp(1),bk
     9393 00000fbb 504bc300         ldiu      *fp,fp
     9394 00000fbc 18740002         subi      2,sp
     9395 00000fbd 68000013         bu        bk
     9396                   ;*      Branch Occurs to bk 
TMS320C3x/4x COFF AssemblerVersion 5.11     Mon Apr 29 17:36:37 2013
Copyright (c) 1987-1999 Texas Instruments Incorporatedc:\lang\tms320c3x\511\bin\asm30.exe -l gpproface.asm gpproface.obj -tC:\Users\JDS\AppData\Local\Temp\gpproface.tmp 

gpproface.asm                                                        PAGE  175

     9397                           .endfunc        1374,000000000h,0
     9398                   
     9399                   
     9400 00000fbe                  .sect    ".text"
     9401                   
     9402                           .global _GP_POINT_ST_PRO
     9403                           .sym    _GP_POINT_ST_PRO,_GP_POINT_ST_PRO,32,2,0
     9404                           .func   1379
     9405                   ;******************************************************************************
     9406                   ;* FUNCTION NAME: _GP_POINT_ST_PRO                                            *
     9407                   ;*                                                                            *
     9408                   ;*   Architecture       : TMS320C30                                           *
     9409                   ;*   Calling Convention : Stack Parameter Convention                          *
     9410                   ;*   Function Uses Regs : r0,r1,r2,ar0,ar1,fp,sp,st,rs,re,rc                  *
     9411                   ;*   Regs Saved         :                                                     *
     9412                   ;*   Stack Frame        : Full (w/ debug)                                     *
     9413                   ;*   Total Frame Size   : 2 Call + 1 Parm + 60 Auto + 0 SOE = 63 words        *
     9414                   ;******************************************************************************
     9415 00000fbe          _GP_POINT_ST_PRO:
     9416                           .sym    _nPointSt,-2,12,9,32
     9417                           .sym    _sPointBuf,1,60,1,480,,15
     9418                           .sym    _sPreBuf,16,60,1,480,,15
     9419                           .sym    _sNowBuf,31,60,1,480,,15
     9420                           .sym    _sNextBuf,46,60,1,480,,15
     9421                           .line   1
     9422                   ;----------------------------------------------------------------------
     9423                   ; 1379 | void GP_POINT_ST_PRO(UCHAR nPointSt)                                   
     9424                   ;----------------------------------------------------------------------
     9425 00000fbe 0f2b0000         push      fp
     9426 00000fbf 500b0014         ldiu      sp,fp
     9427 00000fc0 0274003c         addi      60,sp
     9428                           .line   2
     9429                   ;----------------------------------------------------------------------
     9430                   ; 1381 | UCHAR sPointBuf[15];                                                   
     9431                   ; 1382 | UCHAR sPreBuf[15];                                                     
     9432                   ; 1383 | UCHAR sNowBuf[15];                                                     
     9433                   ; 1384 | UCHAR sNextBuf[15];                                                    
     9434                   ;----------------------------------------------------------------------
     9435                           .line   7
     9436                   ;----------------------------------------------------------------------
     9437                   ; 1385 | memset(sPointBuf,0x20,15);                                             
     9438                   ;----------------------------------------------------------------------
     9439 00000fc1 5062000f         ldiu      15,r2
     9440 00000fc2 50610020         ldiu      32,r1
     9441 00000fc3 5000000b         ldiu      fp,r0
     9442 00000fc4 0f220000         push      r2
     9443 00000fc5 02600001         addi      1,r0
     9444 00000fc6 0f210000         push      r1
     9445 00000fc7 0f200000         push      r0
     9446 00000fc8 62000000!        call      _memset
     9447                                                           ; Call Occurs
     9448 00000fc9 18740003         subi      3,sp
     9449                           .line   8
     9450                   ;----------------------------------------------------------------------
TMS320C3x/4x COFF AssemblerVersion 5.11     Mon Apr 29 17:36:37 2013
Copyright (c) 1987-1999 Texas Instruments Incorporatedc:\lang\tms320c3x\511\bin\asm30.exe -l gpproface.asm gpproface.obj -tC:\Users\JDS\AppData\Local\Temp\gpproface.tmp 

gpproface.asm                                                        PAGE  176

     9451                   ; 1386 | if(!WORD_L(nTr_St_Info.nStopPatNum))                                   
     9452                   ; 1390 | else                                                                   
     9453                   ;----------------------------------------------------------------------
     9454 00000fca 506000ff         ldiu      255,r0
     9455 00000fcb 1a200000!        tstb      @_nTr_St_Info+0,r0
     9456 00000fcc 6a0500a5         beq       L414
     9457                   ;*      Branch Occurs to L414 
     9458                           .line   14
     9459                   ;----------------------------------------------------------------------
     9460                   ; 1392 | if(WORD_L(nPointSt))                                                   
     9461                   ;----------------------------------------------------------------------
     9462 00000fcd 1a400b02         tstb      *-fp(2),r0
     9463 00000fce 6a050067         beq       L413
     9464                   ;*      Branch Occurs to L413 
     9465                           .line   17
     9466                   ;----------------------------------------------------------------------
     9467                   ; 1395 | if((WORD_L(nPointSt)+1)<= WORD_L(nTr_St_Info.nStation_MaxCnt)-1)       
     9468                   ;----------------------------------------------------------------------
     9469 00000fcf 506100ff         ldiu      255,r1
     9470 00000fd0 02c00b02         and       *-fp(2),r0
     9471 00000fd1 02a10001!        and       @_nTr_St_Info+1,r1
     9472 00000fd2 02600001         addi      1,r0                  ; Unsigned
     9473 00000fd3 18610001         subi      1,r1                  ; Unsigned
     9474 00000fd4 23800001         cmpi3     r1,r0
     9475 00000fd5 6a23001c         bhid      L410
     9476 00000fd6 0c800000         nop
     9477 00000fd7 51e000ff         ldihi     255,r0
     9478 00000fd8 51e100ff         ldihi     255,r1
     9479                   ;*      Branch Occurs to L410 
     9480                           .line   19
     9481                   ;----------------------------------------------------------------------
     9482                   ; 1397 | memcpy(sNextBuf,StationName->StaName[nPointSt+1].EngName,15);          
     9483                   ;----------------------------------------------------------------------
     9484 00000fd9 50680001         ldiu      1,ar0
     9485 00000fda 5009000b         ldiu      fp,ar1
     9486 00000fdb 02480b02         addi      *-fp(2),ar0           ; Unsigned
     9487 00000fdc 0ae8002e         mpyi      46,ar0
     9488 00000fdd 0269002e         addi      46,ar1
     9489 00000fde 02280000!        addi      @_StationName+0,ar0   ; Unsigned
     9490 00000fdf 02680001         addi      1,ar0                 ; Unsigned
     9491 00000fe0 50402001         ldiu      *ar0++(1),r0
     9492 00000fe1 13fb000d         rpts      13                    ; Fast MEMCPY(#36)
     9493 00000fe2 da002120         sti       r0,*ar1++(1)
     9494                   ||      ldi       *ar0++(1),r0
     9495 00000fe3 15402101         sti       r0,*ar1++(1)
     9496                           .line   20
     9497                   ;----------------------------------------------------------------------
     9498                   ; 1398 | DP_GpDataChange(nTr_St_Info.nGpStName.nNext,sNextBuf);                 
     9499                   ;----------------------------------------------------------------------
     9500 00000fe4 5021020e-        ldiu      @CL6,r1
     9501 00000fe5 5000000b         ldiu      fp,r0
     9502 00000fe6 0260002e         addi      46,r0
     9503 00000fe7 0f200000         push      r0
     9504 00000fe8 0f210000         push      r1
TMS320C3x/4x COFF AssemblerVersion 5.11     Mon Apr 29 17:36:37 2013
Copyright (c) 1987-1999 Texas Instruments Incorporatedc:\lang\tms320c3x\511\bin\asm30.exe -l gpproface.asm gpproface.obj -tC:\Users\JDS\AppData\Local\Temp\gpproface.tmp 

gpproface.asm                                                        PAGE  177

     9505 00000fe9 62000000!        call      _DP_GpDataChange
     9506                                                           ; Call Occurs
     9507 00000fea 18740002         subi      2,sp
     9508                           .line   21
     9509                   ;----------------------------------------------------------------------
     9510                   ; 1399 | gp_WritingStr(170,6,nTr_St_Info.nGpStName.nNext);                      
     9511                   ;----------------------------------------------------------------------
     9512 00000feb 5020020e-        ldiu      @CL6,r0
     9513 00000fec 50610006         ldiu      6,r1
     9514 00000fed 0f200000         push      r0
     9515 00000fee 506200aa         ldiu      170,r2
     9516 00000fef 0f210000         push      r1
     9517 00000ff0 0f220000         push      r2
     9518 00000ff1 620000ba'        call      _gp_WritingStr
     9519                                                           ; Call Occurs
     9520 00000ff2 18740003         subi      3,sp
     9521 00000ff3 6a00000e         bu        L412
     9522                   ;*      Branch Occurs to L412 
     9523                           .line   24
     9524                   ;----------------------------------------------------------------------
     9525                   ; 1402 | else if(WORD_L(nPointSt) == WORD_L(nTr_St_Info.nStation_MaxCnt)-1)     
     9526                   ;----------------------------------------------------------------------
     9527 00000ff4          L410:        
     9528 00000ff4 02a00001!        and       @_nTr_St_Info+1,r0
     9529 00000ff5 02c10b02         and       *-fp(2),r1
     9530 00000ff6 18600001         subi      1,r0                  ; Unsigned
     9531 00000ff7 23800100         cmpi3     r0,r1
     9532 00000ff8 6a060009         bne       L412
     9533                   ;*      Branch Occurs to L412 
     9534                           .line   26
     9535                   ;----------------------------------------------------------------------
     9536                   ; 1404 | gp_WritingStr(170,6,sPointBuf);                                        
     9537                   ;----------------------------------------------------------------------
     9538 00000ff9 5000000b         ldiu      fp,r0
     9539 00000ffa 50620006         ldiu      6,r2
     9540 00000ffb 506100aa         ldiu      170,r1
     9541 00000ffc 02600001         addi      1,r0
     9542 00000ffd 0f200000         push      r0
     9543 00000ffe 0f220000         push      r2
     9544 00000fff 0f210000         push      r1
     9545 00001000 620000ba'        call      _gp_WritingStr
     9546                                                           ; Call Occurs
     9547 00001001 18740003         subi      3,sp
     9548 00001002          L412:        
     9549                           .line   30
     9550                   ;----------------------------------------------------------------------
     9551                   ; 1408 | memcpy(sPreBuf, StationName->StaName[nPointSt-1].EngName,15);          
     9552                   ;----------------------------------------------------------------------
     9553 00001002 50680001         ldiu      1,ar0
     9554 00001003 5009000b         ldiu      fp,ar1
     9555 00001004 19c80b02         subri     *-fp(2),ar0           ; Unsigned
     9556 00001005 0ae8002e         mpyi      46,ar0
     9557 00001006 02690010         addi      16,ar1
     9558 00001007 02280000!        addi      @_StationName+0,ar0   ; Unsigned
TMS320C3x/4x COFF AssemblerVersion 5.11     Mon Apr 29 17:36:37 2013
Copyright (c) 1987-1999 Texas Instruments Incorporatedc:\lang\tms320c3x\511\bin\asm30.exe -l gpproface.asm gpproface.obj -tC:\Users\JDS\AppData\Local\Temp\gpproface.tmp 

gpproface.asm                                                        PAGE  178

     9559 00001008 02680001         addi      1,ar0                 ; Unsigned
     9560 00001009 50402001         ldiu      *ar0++(1),r0
     9561 0000100a 13fb000d         rpts      13                    ; Fast MEMCPY(#39)
     9562 0000100b da002120         sti       r0,*ar1++(1)
     9563                   ||      ldi       *ar0++(1),r0
     9564 0000100c 15402101         sti       r0,*ar1++(1)
     9565                           .line   31
     9566                   ;----------------------------------------------------------------------
     9567                   ; 1409 | memcpy(sNowBuf, StationName->StaName[nPointSt].EngName,15);            
     9568                   ;----------------------------------------------------------------------
     9569 0000100d 5008000b         ldiu      fp,ar0
     9570 0000100e 0268001f         addi      31,ar0
     9571 0000100f 50490b02         ldiu      *-fp(2),ar1
     9572 00001010 0ae9002e         mpyi      46,ar1
     9573 00001011 02290000!        addi      @_StationName+0,ar1   ; Unsigned
     9574 00001012 02690001         addi      1,ar1                 ; Unsigned
     9575 00001013 50402101         ldiu      *ar1++(1),r0
     9576 00001014 13fb000d         rpts      13                    ; Fast MEMCPY(#42)
     9577 00001015 da002021         sti       r0,*ar0++(1)
     9578                   ||      ldi       *ar1++(1),r0
     9579 00001016 15402001         sti       r0,*ar0++(1)
     9580                           .line   33
     9581                   ;----------------------------------------------------------------------
     9582                   ; 1411 | DP_GpDataChange(nTr_St_Info.nGpStName.nPre,sPreBuf);                   
     9583                   ;----------------------------------------------------------------------
     9584 00001017 50210233-        ldiu      @CL43,r1
     9585 00001018 5000000b         ldiu      fp,r0
     9586 00001019 02600010         addi      16,r0
     9587 0000101a 0f200000         push      r0
     9588 0000101b 0f210000         push      r1
     9589 0000101c 62000000!        call      _DP_GpDataChange
     9590                                                           ; Call Occurs
     9591 0000101d 18740002         subi      2,sp
     9592                           .line   34
     9593                   ;----------------------------------------------------------------------
     9594                   ; 1412 | DP_GpDataChange(nTr_St_Info.nGpStName.nNow,sNowBuf);                   
     9595                   ;----------------------------------------------------------------------
     9596 0000101e 5000000b         ldiu      fp,r0
     9597 0000101f 0260001f         addi      31,r0
     9598 00001020 0f200000         push      r0
     9599 00001021 5021020c-        ldiu      @CL4,r1
     9600 00001022 0f210000         push      r1
     9601 00001023 62000000!        call      _DP_GpDataChange
     9602                                                           ; Call Occurs
     9603 00001024 18740002         subi      2,sp
     9604                           .line   36
     9605                   ;----------------------------------------------------------------------
     9606                   ; 1414 | gp_WritingStr(180,6,nTr_St_Info.nGpStName.nPre);                       
     9607                   ;----------------------------------------------------------------------
     9608 00001025 50220233-        ldiu      @CL43,r2
     9609 00001026 0f220000         push      r2
     9610 00001027 50610006         ldiu      6,r1
     9611 00001028 0f210000         push      r1
     9612 00001029 506000b4         ldiu      180,r0
TMS320C3x/4x COFF AssemblerVersion 5.11     Mon Apr 29 17:36:37 2013
Copyright (c) 1987-1999 Texas Instruments Incorporatedc:\lang\tms320c3x\511\bin\asm30.exe -l gpproface.asm gpproface.obj -tC:\Users\JDS\AppData\Local\Temp\gpproface.tmp 

gpproface.asm                                                        PAGE  179

     9613 0000102a 0f200000         push      r0
     9614 0000102b 620000ba'        call      _gp_WritingStr
     9615                                                           ; Call Occurs
     9616 0000102c 18740003         subi      3,sp
     9617                           .line   37
     9618                   ;----------------------------------------------------------------------
     9619                   ; 1415 | gp_WritingStr(160,6,nTr_St_Info.nGpStName.nNow);                       
     9620                   ; 1418 | else                                                                   
     9621                   ;----------------------------------------------------------------------
     9622 0000102d 5021020c-        ldiu      @CL4,r1
     9623 0000102e 0f210000         push      r1
     9624 0000102f 50600006         ldiu      6,r0
     9625 00001030 506200a0         ldiu      160,r2
     9626 00001031 0f200000         push      r0
     9627 00001032 0f220000         push      r2
     9628 00001033 620000ba'        call      _gp_WritingStr
     9629                                                           ; Call Occurs
     9630 00001034 18740003         subi      3,sp
     9631 00001035 6a00003c         bu        L414
     9632                   ;*      Branch Occurs to L414 
     9633 00001036          L413:        
     9634                           .line   42
     9635                   ;----------------------------------------------------------------------
     9636                   ; 1420 | memcpy(sNowBuf, StationName->StaName[nPointSt].EngName,15);            
     9637                   ;----------------------------------------------------------------------
     9638 00001036 50490b02         ldiu      *-fp(2),ar1
     9639 00001037 5008000b         ldiu      fp,ar0
     9640 00001038 0ae9002e         mpyi      46,ar1
     9641 00001039 02290000!        addi      @_StationName+0,ar1   ; Unsigned
     9642 0000103a 0268001f         addi      31,ar0
     9643 0000103b 02690001         addi      1,ar1                 ; Unsigned
     9644 0000103c 50402101         ldiu      *ar1++(1),r0
     9645 0000103d 13fb000d         rpts      13                    ; Fast MEMCPY(#45)
     9646 0000103e da002021         sti       r0,*ar0++(1)
     9647                   ||      ldi       *ar1++(1),r0
     9648 0000103f 15402001         sti       r0,*ar0++(1)
     9649                           .line   43
     9650                   ;----------------------------------------------------------------------
     9651                   ; 1421 | memcpy(sNextBuf,StationName->StaName[nPointSt+1].EngName,15);          
     9652                   ;----------------------------------------------------------------------
     9653 00001040 5009000b         ldiu      fp,ar1
     9654 00001041 50680001         ldiu      1,ar0
     9655 00001042 0269002e         addi      46,ar1
     9656 00001043 02480b02         addi      *-fp(2),ar0           ; Unsigned
     9657 00001044 0ae8002e         mpyi      46,ar0
     9658 00001045 02280000!        addi      @_StationName+0,ar0   ; Unsigned
     9659 00001046 02680001         addi      1,ar0                 ; Unsigned
     9660 00001047 50402001         ldiu      *ar0++(1),r0
     9661 00001048 13fb000d         rpts      13                    ; Fast MEMCPY(#48)
     9662 00001049 da002120         sti       r0,*ar1++(1)
     9663                   ||      ldi       *ar0++(1),r0
     9664 0000104a 15402101         sti       r0,*ar1++(1)
     9665                           .line   45
     9666                   ;----------------------------------------------------------------------
TMS320C3x/4x COFF AssemblerVersion 5.11     Mon Apr 29 17:36:37 2013
Copyright (c) 1987-1999 Texas Instruments Incorporatedc:\lang\tms320c3x\511\bin\asm30.exe -l gpproface.asm gpproface.obj -tC:\Users\JDS\AppData\Local\Temp\gpproface.tmp 

gpproface.asm                                                        PAGE  180

     9667                   ; 1423 | DP_GpDataChange(nTr_St_Info.nGpStName.nNow,sNowBuf);                   
     9668                   ;----------------------------------------------------------------------
     9669 0000104b 5021020c-        ldiu      @CL4,r1
     9670 0000104c 5000000b         ldiu      fp,r0
     9671 0000104d 0260001f         addi      31,r0
     9672 0000104e 0f200000         push      r0
     9673 0000104f 0f210000         push      r1
     9674 00001050 62000000!        call      _DP_GpDataChange
     9675                                                           ; Call Occurs
     9676 00001051 18740002         subi      2,sp
     9677                           .line   46
     9678                   ;----------------------------------------------------------------------
     9679                   ; 1424 | DP_GpDataChange(nTr_St_Info.nGpStName.nNext,sNextBuf);                 
     9680                   ;----------------------------------------------------------------------
     9681 00001052 5000000b         ldiu      fp,r0
     9682 00001053 5021020e-        ldiu      @CL6,r1
     9683 00001054 0260002e         addi      46,r0
     9684 00001055 0f200000         push      r0
     9685 00001056 0f210000         push      r1
     9686 00001057 62000000!        call      _DP_GpDataChange
     9687                                                           ; Call Occurs
     9688 00001058 18740002         subi      2,sp
     9689                           .line   48
     9690                   ;----------------------------------------------------------------------
     9691                   ; 1426 | gp_WritingStr(180,6,sPointBuf);                                        
     9692                   ;----------------------------------------------------------------------
     9693 00001059 5000000b         ldiu      fp,r0
     9694 0000105a 02600001         addi      1,r0
     9695 0000105b 0f200000         push      r0
     9696 0000105c 506200b4         ldiu      180,r2
     9697 0000105d 50610006         ldiu      6,r1
     9698 0000105e 0f210000         push      r1
     9699 0000105f 0f220000         push      r2
     9700 00001060 620000ba'        call      _gp_WritingStr
     9701                                                           ; Call Occurs
     9702 00001061 18740003         subi      3,sp
     9703                           .line   49
     9704                   ;----------------------------------------------------------------------
     9705                   ; 1427 | gp_WritingStr(170,6,nTr_St_Info.nGpStName.nNext);                      
     9706                   ;----------------------------------------------------------------------
     9707 00001062 5022020e-        ldiu      @CL6,r2
     9708 00001063 0f220000         push      r2
     9709 00001064 506000aa         ldiu      170,r0
     9710 00001065 50610006         ldiu      6,r1
     9711 00001066 0f210000         push      r1
     9712 00001067 0f200000         push      r0
     9713 00001068 620000ba'        call      _gp_WritingStr
     9714                                                           ; Call Occurs
     9715 00001069 18740003         subi      3,sp
     9716                           .line   50
     9717                   ;----------------------------------------------------------------------
     9718                   ; 1428 | gp_WritingStr(160,6,nTr_St_Info.nGpStName.nNow);                       
     9719                   ;----------------------------------------------------------------------
     9720 0000106a 5022020c-        ldiu      @CL4,r2
TMS320C3x/4x COFF AssemblerVersion 5.11     Mon Apr 29 17:36:37 2013
Copyright (c) 1987-1999 Texas Instruments Incorporatedc:\lang\tms320c3x\511\bin\asm30.exe -l gpproface.asm gpproface.obj -tC:\Users\JDS\AppData\Local\Temp\gpproface.tmp 

gpproface.asm                                                        PAGE  181

     9721 0000106b 0f220000         push      r2
     9722 0000106c 50600006         ldiu      6,r0
     9723 0000106d 0f200000         push      r0
     9724 0000106e 506100a0         ldiu      160,r1
     9725 0000106f 0f210000         push      r1
     9726 00001070 620000ba'        call      _gp_WritingStr
     9727                                                           ; Call Occurs
     9728 00001071 18740003         subi      3,sp
     9729 00001072          L414:        
     9730                           .line   54
     9731 00001072 50530b01         ldiu      *-fp(1),bk
     9732 00001073 504bc300         ldiu      *fp,fp
     9733 00001074 1874003e         subi      62,sp
     9734 00001075 68000013         bu        bk
     9735                   ;*      Branch Occurs to bk 
     9736                           .endfunc        1432,000000000h,60
     9737                   
     9738                   
     9739 00001076                  .sect    ".text"
     9740                   
     9741                           .global _GP_AUTO_SELFTEST
     9742                           .sym    _GP_AUTO_SELFTEST,_GP_AUTO_SELFTEST,32,2,0
     9743                           .func   1437
     9744                   ;******************************************************************************
     9745                   ;* FUNCTION NAME: _GP_AUTO_SELFTEST                                           *
     9746                   ;*                                                                            *
     9747                   ;*   Architecture       : TMS320C30                                           *
     9748                   ;*   Calling Convention : Stack Parameter Convention                          *
     9749                   ;*   Function Uses Regs : r0,r1,r2,fp,sp,st                                   *
     9750                   ;*   Regs Saved         :                                                     *
     9751                   ;*   Stack Frame        : Full (w/ debug)                                     *
     9752                   ;*   Total Frame Size   : 2 Call + 0 Parm + 60 Auto + 0 SOE = 62 words        *
     9753                   ;******************************************************************************
     9754 00001076          _GP_AUTO_SELFTEST:
     9755                           .sym    _sSelf_Buf,1,60,1,1920,,60
     9756                           .line   1
     9757                   ;----------------------------------------------------------------------
     9758                   ; 1437 | void GP_AUTO_SELFTEST()                                                
     9759                   ; 1439 | UCHAR sSelf_Buf[60];                                                   
     9760                   ;----------------------------------------------------------------------
     9761 00001076 0f2b0000         push      fp
     9762 00001077 500b0014         ldiu      sp,fp
     9763 00001078 0274003c         addi      60,sp
     9764                           .line   5
     9765                   ;----------------------------------------------------------------------
     9766                   ; 1441 | nTr_St_Info.nSinmuScrCnt = 0;                                          
     9767                   ; 1443 | //nSelf_Test.nSELF_ICR_SELECT = 0;                                     
     9768                   ;----------------------------------------------------------------------
     9769 00001079 50600000         ldiu      0,r0
     9770 0000107a 152000d6!        sti       r0,@_nTr_St_Info+214
     9771                           .line   9
     9772                   ;----------------------------------------------------------------------
     9773                   ; 1445 | if(WORD_L(nSelf_Test.nSELF_ICR_SELECT) == 1) { gpSELFT_12;}            
     9774                   ;----------------------------------------------------------------------
TMS320C3x/4x COFF AssemblerVersion 5.11     Mon Apr 29 17:36:37 2013
Copyright (c) 1987-1999 Texas Instruments Incorporatedc:\lang\tms320c3x\511\bin\asm30.exe -l gpproface.asm gpproface.obj -tC:\Users\JDS\AppData\Local\Temp\gpproface.tmp 

gpproface.asm                                                        PAGE  182

     9775 0000107b 506000ff         ldiu      255,r0
     9776 0000107c 02a0003f!        and       @_nSelf_Test+63,r0
     9777 0000107d 04e00001         cmpi      1,r0
     9778 0000107e 6a060007         bne       L418
     9779                   ;*      Branch Occurs to L418 
     9780 0000107f 50610084         ldiu      132,r1
     9781 00001080 5060000f         ldiu      15,r0
     9782 00001081 0f210000         push      r1
     9783 00001082 0f200000         push      r0
     9784 00001083 6200004d'        call      _gp_WritingWord
     9785                                                           ; Call Occurs
     9786 00001084 18740002         subi      2,sp
     9787 00001085 6a000009         bu        L420
     9788                   ;*      Branch Occurs to L420 
     9789 00001086          L418:        
     9790                           .line   10
     9791                   ;----------------------------------------------------------------------
     9792                   ; 1446 | else if(!WORD_L(nSelf_Test.nSELF_ICR_SELECT)) { gpSELFT_4;}            
     9793                   ;----------------------------------------------------------------------
     9794 00001086 506000ff         ldiu      255,r0
     9795 00001087 1a20003f!        tstb      @_nSelf_Test+63,r0
     9796 00001088 6a060006         bne       L420
     9797                   ;*      Branch Occurs to L420 
     9798 00001089 50600082         ldiu      130,r0
     9799 0000108a 5061000f         ldiu      15,r1
     9800 0000108b 0f200000         push      r0
     9801 0000108c 0f210000         push      r1
     9802 0000108d 6200004d'        call      _gp_WritingWord
     9803                                                           ; Call Occurs
     9804 0000108e 18740002         subi      2,sp
     9805 0000108f          L420:        
     9806                           .line   13
     9807                   ;----------------------------------------------------------------------
     9808                   ; 1449 | gpSELFTESTINIT;                                                        
     9809                   ;----------------------------------------------------------------------
     9810 0000108f 50600000         ldiu      0,r0
     9811 00001090 50610059         ldiu      89,r1
     9812 00001091 0f200000         push      r0
     9813 00001092 0f210000         push      r1
     9814 00001093 6200004d'        call      _gp_WritingWord
     9815                                                           ; Call Occurs
     9816 00001094 18740002         subi      2,sp
     9817 00001095 50600000         ldiu      0,r0
     9818 00001096 5061005a         ldiu      90,r1
     9819 00001097 0f200000         push      r0
     9820 00001098 0f210000         push      r1
     9821 00001099 6200004d'        call      _gp_WritingWord
     9822                                                           ; Call Occurs
     9823 0000109a 18740002         subi      2,sp
     9824 0000109b 50600000         ldiu      0,r0
     9825 0000109c 50610057         ldiu      87,r1
     9826 0000109d 0f200000         push      r0
     9827 0000109e 0f210000         push      r1
     9828 0000109f 6200004d'        call      _gp_WritingWord
TMS320C3x/4x COFF AssemblerVersion 5.11     Mon Apr 29 17:36:37 2013
Copyright (c) 1987-1999 Texas Instruments Incorporatedc:\lang\tms320c3x\511\bin\asm30.exe -l gpproface.asm gpproface.obj -tC:\Users\JDS\AppData\Local\Temp\gpproface.tmp 

gpproface.asm                                                        PAGE  183

     9829                                                           ; Call Occurs
     9830 000010a0 18740002         subi      2,sp
     9831                           .line   14
     9832                   ;----------------------------------------------------------------------
     9833                   ; 1450 | gp4RBLACK_S;gp6RWITE;gp8RWITE;                                         
     9834                   ;----------------------------------------------------------------------
     9835 000010a1 50600004         ldiu      4,r0
     9836 000010a2 50610061         ldiu      97,r1
     9837 000010a3 0f200000         push      r0
     9838 000010a4 0f210000         push      r1
     9839 000010a5 6200004d'        call      _gp_WritingWord
     9840                                                           ; Call Occurs
     9841 000010a6 18740002         subi      2,sp
     9842 000010a7 50610062         ldiu      98,r1
     9843 000010a8 50600000         ldiu      0,r0
     9844 000010a9 0f200000         push      r0
     9845 000010aa 0f210000         push      r1
     9846 000010ab 6200004d'        call      _gp_WritingWord
     9847                                                           ; Call Occurs
     9848 000010ac 18740002         subi      2,sp
     9849 000010ad 50600000         ldiu      0,r0
     9850 000010ae 0f200000         push      r0
     9851 000010af 50610060         ldiu      96,r1
     9852 000010b0 0f210000         push      r1
     9853 000010b1 6200004d'        call      _gp_WritingWord
     9854                                                           ; Call Occurs
     9855 000010b2 18740002         subi      2,sp
     9856                           .line   15
     9857                   ;----------------------------------------------------------------------
     9858                   ; 1451 | gp8SELFITEM;                                                           
     9859                   ;----------------------------------------------------------------------
     9860 000010b3 5061005c         ldiu      92,r1
     9861 000010b4 50600002         ldiu      2,r0
     9862 000010b5 0f200000         push      r0
     9863 000010b6 0f210000         push      r1
     9864 000010b7 6200004d'        call      _gp_WritingWord
     9865                                                           ; Call Occurs
     9866 000010b8 18740002         subi      2,sp
     9867                           .line   17
     9868                   ;----------------------------------------------------------------------
     9869                   ; 1453 | gpROOTEN;                                                              
     9870                   ;----------------------------------------------------------------------
     9871 000010b9 50610039         ldiu      57,r1
     9872 000010ba 50600001         ldiu      1,r0
     9873 000010bb 0f200000         push      r0
     9874 000010bc 0f210000         push      r1
     9875 000010bd 6200004d'        call      _gp_WritingWord
     9876                                                           ; Call Occurs
     9877 000010be 18740002         subi      2,sp
     9878                           .line   19
     9879                   ;----------------------------------------------------------------------
     9880                   ; 1455 | gpSELFTESTINIT;                                                        
     9881                   ;----------------------------------------------------------------------
     9882 000010bf 50600000         ldiu      0,r0
TMS320C3x/4x COFF AssemblerVersion 5.11     Mon Apr 29 17:36:37 2013
Copyright (c) 1987-1999 Texas Instruments Incorporatedc:\lang\tms320c3x\511\bin\asm30.exe -l gpproface.asm gpproface.obj -tC:\Users\JDS\AppData\Local\Temp\gpproface.tmp 

gpproface.asm                                                        PAGE  184

     9883 000010c0 50610059         ldiu      89,r1
     9884 000010c1 0f200000         push      r0
     9885 000010c2 0f210000         push      r1
     9886 000010c3 6200004d'        call      _gp_WritingWord
     9887                                                           ; Call Occurs
     9888 000010c4 18740002         subi      2,sp
     9889 000010c5 50600000         ldiu      0,r0
     9890 000010c6 0f200000         push      r0
     9891 000010c7 5061005a         ldiu      90,r1
     9892 000010c8 0f210000         push      r1
     9893 000010c9 6200004d'        call      _gp_WritingWord
     9894                                                           ; Call Occurs
     9895 000010ca 18740002         subi      2,sp
     9896 000010cb 50610057         ldiu      87,r1
     9897 000010cc 50600000         ldiu      0,r0
     9898 000010cd 0f200000         push      r0
     9899 000010ce 0f210000         push      r1
     9900 000010cf 6200004d'        call      _gp_WritingWord
     9901                                                           ; Call Occurs
     9902 000010d0 18740002         subi      2,sp
     9903                           .line   20
     9904                   ;----------------------------------------------------------------------
     9905                   ; 1456 | gp4RBLACK_S;                                                           
     9906                   ;----------------------------------------------------------------------
     9907 000010d1 50600004         ldiu      4,r0
     9908 000010d2 50610061         ldiu      97,r1
     9909 000010d3 0f200000         push      r0
     9910 000010d4 0f210000         push      r1
     9911 000010d5 6200004d'        call      _gp_WritingWord
     9912                                                           ; Call Occurs
     9913 000010d6 18740002         subi      2,sp
     9914                           .line   22
     9915                   ;----------------------------------------------------------------------
     9916                   ; 1458 | nSelf_Test.nSELF_All_Cnt = 0;                                          
     9917                   ;----------------------------------------------------------------------
     9918 000010d7 50600000         ldiu      0,r0
     9919 000010d8 1520003d!        sti       r0,@_nSelf_Test+61
     9920                           .line   23
     9921                   ;----------------------------------------------------------------------
     9922                   ; 1459 | nSelf_Test.nSELF_ICR_CNT = 0;                                          
     9923                   ;----------------------------------------------------------------------
     9924 000010d9 1520003e!        sti       r0,@_nSelf_Test+62
     9925                           .line   25
     9926                   ;----------------------------------------------------------------------
     9927                   ; 1461 | nTr_St_Info.nSelf_Test_Flag = TRUE;                                    
     9928                   ;----------------------------------------------------------------------
     9929 000010da 50600001         ldiu      1,r0
     9930 000010db 152001fa!        sti       r0,@_nTr_St_Info+506
     9931                           .line   27
     9932                   ;----------------------------------------------------------------------
     9933                   ; 1463 | memset(nSelf_Test.nSELF_RXDATA_Buf,0x01,15);                           
     9934                   ;----------------------------------------------------------------------
     9935 000010dc 5061000f         ldiu      15,r1
     9936 000010dd 50220217-        ldiu      @CL15,r2
TMS320C3x/4x COFF AssemblerVersion 5.11     Mon Apr 29 17:36:37 2013
Copyright (c) 1987-1999 Texas Instruments Incorporatedc:\lang\tms320c3x\511\bin\asm30.exe -l gpproface.asm gpproface.obj -tC:\Users\JDS\AppData\Local\Temp\gpproface.tmp 

gpproface.asm                                                        PAGE  185

     9937 000010de 0f210000         push      r1
     9938 000010df 0f200000         push      r0
     9939 000010e0 0f220000         push      r2
     9940 000010e1 62000000!        call      _memset
     9941                                                           ; Call Occurs
     9942 000010e2 18740003         subi      3,sp
     9943                           .line   28
     9944                   ;----------------------------------------------------------------------
     9945                   ; 1464 | memset(nSelf_Test.nSELF_RXDATA_Buf_2R,0x01,15);                        
     9946                   ; 1465 | //memset(nSelf_Test.nSELF_RXDATA_Buf_3R,0x01,20);                      
     9947                   ;----------------------------------------------------------------------
     9948 000010e3 5061000f         ldiu      15,r1
     9949 000010e4 0f210000         push      r1
     9950 000010e5 50600001         ldiu      1,r0
     9951 000010e6 0f200000         push      r0
     9952 000010e7 50220218-        ldiu      @CL16,r2
     9953 000010e8 0f220000         push      r2
     9954 000010e9 62000000!        call      _memset
     9955                                                           ; Call Occurs
     9956 000010ea 18740003         subi      3,sp
     9957                           .line   31
     9958                   ;----------------------------------------------------------------------
     9959                   ; 1467 | memset(sSelf_Buf,0x01,60);                                             
     9960                   ;----------------------------------------------------------------------
     9961 000010eb 5060003c         ldiu      60,r0
     9962 000010ec 0f200000         push      r0
     9963 000010ed 5000000b         ldiu      fp,r0
     9964 000010ee 02600001         addi      1,r0
     9965 000010ef 50610001         ldiu      1,r1
     9966 000010f0 0f210000         push      r1
     9967 000010f1 0f200000         push      r0
     9968 000010f2 62000000!        call      _memset
     9969                                                           ; Call Occurs
     9970 000010f3 18740003         subi      3,sp
     9971                           .line   33
     9972                   ;----------------------------------------------------------------------
     9973                   ; 1469 | SDR_Routine_Complete(sSelf_Buf,FALSE);// .                 
     9974                   ;----------------------------------------------------------------------
     9975 000010f4 50610000         ldiu      0,r1
     9976 000010f5 0f210000         push      r1
     9977 000010f6 5000000b         ldiu      fp,r0
     9978 000010f7 02600001         addi      1,r0
     9979 000010f8 0f200000         push      r0
     9980 000010f9 62000f05'        call      _SDR_Routine_Complete
     9981                                                           ; Call Occurs
     9982 000010fa 18740002         subi      2,sp
     9983                           .line   35
     9984                   ;----------------------------------------------------------------------
     9985                   ; 1471 | nSelect_Button.nScreenSetNum = 3;                                      
     9986                   ;----------------------------------------------------------------------
     9987 000010fb 50600003         ldiu      3,r0
     9988 000010fc 15200205-        sti       r0,@_nSelect_Button+10
     9989                           .line   37
     9990 000010fd 50530b01         ldiu      *-fp(1),bk
TMS320C3x/4x COFF AssemblerVersion 5.11     Mon Apr 29 17:36:37 2013
Copyright (c) 1987-1999 Texas Instruments Incorporatedc:\lang\tms320c3x\511\bin\asm30.exe -l gpproface.asm gpproface.obj -tC:\Users\JDS\AppData\Local\Temp\gpproface.tmp 

gpproface.asm                                                        PAGE  186

     9991 000010fe 504bc300         ldiu      *fp,fp
     9992 000010ff 1874003e         subi      62,sp
     9993 00001100 68000013         bu        bk
     9994                   ;*      Branch Occurs to bk 
     9995                           .endfunc        1473,000000000h,60
     9996                   
     9997                   
     9998 00001101                  .sect    ".text"
     9999                   
    10000                           .global _GP_DOWNLOAD_SDR
    10001                           .sym    _GP_DOWNLOAD_SDR,_GP_DOWNLOAD_SDR,32,2,0
    10002                           .func   1478
    10003                   ;******************************************************************************
    10004                   ;* FUNCTION NAME: _GP_DOWNLOAD_SDR                                            *
    10005                   ;*                                                                            *
    10006                   ;*   Architecture       : TMS320C30                                           *
    10007                   ;*   Calling Convention : Stack Parameter Convention                          *
    10008                   ;*   Function Uses Regs : r0,r1,r2,fp,sp                                      *
    10009                   ;*   Regs Saved         :                                                     *
    10010                   ;*   Stack Frame        : Full (w/ debug)                                     *
    10011                   ;*   Total Frame Size   : 2 Call + 0 Parm + 60 Auto + 0 SOE = 62 words        *
    10012                   ;******************************************************************************
    10013 00001101          _GP_DOWNLOAD_SDR:
    10014                           .sym    _sSelf_Buf,1,60,1,1920,,60
    10015                           .line   1
    10016                   ;----------------------------------------------------------------------
    10017                   ; 1478 | void GP_DOWNLOAD_SDR()                                                 
    10018                   ; 1480 | UCHAR sSelf_Buf[60];                                                   
    10019                   ;----------------------------------------------------------------------
    10020 00001101 0f2b0000         push      fp
    10021 00001102 500b0014         ldiu      sp,fp
    10022 00001103 0274003c         addi      60,sp
    10023                           .line   4
    10024                   ;----------------------------------------------------------------------
    10025                   ; 1481 | nTr_St_Info.nSinmuScrCnt = 0;                                          
    10026                   ; 1483 | //nSelf_Test.nSELF_ICR_SELECT = 0;                                     
    10027                   ;----------------------------------------------------------------------
    10028 00001104 50600000         ldiu      0,r0
    10029 00001105 152000d6!        sti       r0,@_nTr_St_Info+214
    10030                           .line   8
    10031                   ;----------------------------------------------------------------------
    10032                   ; 1485 | nSelf_Test.nSELF_All_Cnt = 0;                                          
    10033                   ;----------------------------------------------------------------------
    10034 00001106 1520003d!        sti       r0,@_nSelf_Test+61
    10035                           .line   9
    10036                   ;----------------------------------------------------------------------
    10037                   ; 1486 | nSelf_Test.nSELF_ICR_CNT = 0;                                          
    10038                   ;----------------------------------------------------------------------
    10039 00001107 1520003e!        sti       r0,@_nSelf_Test+62
    10040                           .line   11
    10041                   ;----------------------------------------------------------------------
    10042                   ; 1488 | memset(nSelf_Test.nSELF_RXDATA_Buf,0x01,15);                           
    10043                   ;----------------------------------------------------------------------
    10044 00001108 5062000f         ldiu      15,r2
TMS320C3x/4x COFF AssemblerVersion 5.11     Mon Apr 29 17:36:37 2013
Copyright (c) 1987-1999 Texas Instruments Incorporatedc:\lang\tms320c3x\511\bin\asm30.exe -l gpproface.asm gpproface.obj -tC:\Users\JDS\AppData\Local\Temp\gpproface.tmp 

gpproface.asm                                                        PAGE  187

    10045 00001109 50610001         ldiu      1,r1
    10046 0000110a 0f220000         push      r2
    10047 0000110b 50200217-        ldiu      @CL15,r0
    10048 0000110c 0f210000         push      r1
    10049 0000110d 0f200000         push      r0
    10050 0000110e 62000000!        call      _memset
    10051                                                           ; Call Occurs
    10052 0000110f 18740003         subi      3,sp
    10053                           .line   12
    10054                   ;----------------------------------------------------------------------
    10055                   ; 1489 | memset(nSelf_Test.nSELF_RXDATA_Buf_2R,0x01,15);                        
    10056                   ;----------------------------------------------------------------------
    10057 00001110 5061000f         ldiu      15,r1
    10058 00001111 50620001         ldiu      1,r2
    10059 00001112 50200218-        ldiu      @CL16,r0
    10060 00001113 0f210000         push      r1
    10061 00001114 0f220000         push      r2
    10062 00001115 0f200000         push      r0
    10063 00001116 62000000!        call      _memset
    10064                                                           ; Call Occurs
    10065 00001117 18740003         subi      3,sp
    10066                           .line   14
    10067                   ;----------------------------------------------------------------------
    10068                   ; 1491 | memset(sSelf_Buf,0x01,60);                                             
    10069                   ;----------------------------------------------------------------------
    10070 00001118 5061003c         ldiu      60,r1
    10071 00001119 0f210000         push      r1
    10072 0000111a 50620001         ldiu      1,r2
    10073 0000111b 0f220000         push      r2
    10074 0000111c 5000000b         ldiu      fp,r0
    10075 0000111d 02600001         addi      1,r0
    10076 0000111e 0f200000         push      r0
    10077 0000111f 62000000!        call      _memset
    10078                                                           ; Call Occurs
    10079 00001120 18740003         subi      3,sp
    10080                           .line   16
    10081                   ;----------------------------------------------------------------------
    10082                   ; 1493 | SDR_Routine_Complete(sSelf_Buf,FALSE);// .                 
    10083                   ;----------------------------------------------------------------------
    10084 00001121 5000000b         ldiu      fp,r0
    10085 00001122 02600001         addi      1,r0
    10086 00001123 50610000         ldiu      0,r1
    10087 00001124 0f210000         push      r1
    10088 00001125 0f200000         push      r0
    10089 00001126 62000f05'        call      _SDR_Routine_Complete
    10090                                                           ; Call Occurs
    10091 00001127 18740002         subi      2,sp
    10092                           .line   17
    10093 00001128 50530b01         ldiu      *-fp(1),bk
    10094 00001129 504bc300         ldiu      *fp,fp
    10095 0000112a 1874003e         subi      62,sp
    10096 0000112b 68000013         bu        bk
    10097                   ;*      Branch Occurs to bk 
    10098                           .endfunc        1494,000000000h,60
TMS320C3x/4x COFF AssemblerVersion 5.11     Mon Apr 29 17:36:37 2013
Copyright (c) 1987-1999 Texas Instruments Incorporatedc:\lang\tms320c3x\511\bin\asm30.exe -l gpproface.asm gpproface.obj -tC:\Users\JDS\AppData\Local\Temp\gpproface.tmp 

gpproface.asm                                                        PAGE  188

    10099                   
    10100                   
    10101                   
    10102 00000012                  .sect   ".cinit"
    10103 00000012 00000001         .field          1,32
    10104 00000013 00000006-        .field          _d_UPUP+0,32
    10105 00000014 00000000         .field          0,32            ; _d_UPUP @ 0
    10106                   
    10107 0000112c                  .sect   ".text"
    10108                   
    10109                           .global _d_UPUP
    10110 00000006                  .bss    _d_UPUP,1
    10111                           .sym    _d_UPUP,_d_UPUP,12,2,32
    10112 0000112c                  .sect    ".text"
    10113                   
    10114                           .global _GP_IDC_SW_UPLOAD
    10115                           .sym    _GP_IDC_SW_UPLOAD,_GP_IDC_SW_UPLOAD,32,2,0
    10116                           .func   1499
    10117                   ;******************************************************************************
    10118                   ;* FUNCTION NAME: _GP_IDC_SW_UPLOAD                                           *
    10119                   ;*                                                                            *
    10120                   ;*   Architecture       : TMS320C30                                           *
    10121                   ;*   Calling Convention : Stack Parameter Convention                          *
    10122                   ;*   Function Uses Regs : r0,r1,r2,fp,sp,st                                   *
    10123                   ;*   Regs Saved         :                                                     *
    10124                   ;*   Stack Frame        : Full (w/ debug)                                     *
    10125                   ;*   Total Frame Size   : 2 Call + 1 Parm + 50 Auto + 0 SOE = 53 words        *
    10126                   ;******************************************************************************
    10127 0000112c          _GP_IDC_SW_UPLOAD:
    10128                           .sym    _nScreenInf,-2,12,9,32
    10129                           .sym    _sDataBuf,1,60,1,960,,30
    10130                           .sym    _sClenBuf,31,60,1,640,,20
    10131                           .line   1
    10132                   ;----------------------------------------------------------------------
    10133                   ; 1499 | void GP_IDC_SW_UPLOAD(UCHAR nScreenInf)                                
    10134                   ;----------------------------------------------------------------------
    10135 0000112c 0f2b0000         push      fp
    10136 0000112d 500b0014         ldiu      sp,fp
    10137 0000112e 02740032         addi      50,sp
    10138                           .line   2
    10139                   ;----------------------------------------------------------------------
    10140                   ; 1501 | UCHAR sDataBuf[30];                                                    
    10141                   ; 1502 | UCHAR sClenBuf[20];                                                    
    10142                   ;----------------------------------------------------------------------
    10143                           .line   6
    10144                   ;----------------------------------------------------------------------
    10145                   ; 1504 | memset(sClenBuf,0x20,20);                                              
    10146                   ; 1506 | switch(nScreenInf)                                                     
    10147                   ; 1508 | case 117:       //  .                                    
    10148                   ;----------------------------------------------------------------------
    10149 0000112f 50620014         ldiu      20,r2
    10150 00001130 50610020         ldiu      32,r1
    10151 00001131 5000000b         ldiu      fp,r0
    10152 00001132 0f220000         push      r2
TMS320C3x/4x COFF AssemblerVersion 5.11     Mon Apr 29 17:36:37 2013
Copyright (c) 1987-1999 Texas Instruments Incorporatedc:\lang\tms320c3x\511\bin\asm30.exe -l gpproface.asm gpproface.obj -tC:\Users\JDS\AppData\Local\Temp\gpproface.tmp 

gpproface.asm                                                        PAGE  189

    10153 00001133 0260001f         addi      31,r0
    10154 00001134 0f210000         push      r1
    10155 00001135 0f200000         push      r0
    10156 00001136 62000000!        call      _memset
    10157                                                           ; Call Occurs
    10158 00001137 6a2000ce         bud       L441
    10159 00001138 18740003         subi      3,sp
    10160 00001139 50400b02         ldiu      *-fp(2),r0
    10161 0000113a 04e00075         cmpi      117,r0
    10162                   ;*      Branch Occurs to L441 
    10163 0000113b          L428:        
    10164                           .line   12
    10165                   ;----------------------------------------------------------------------
    10166                   ; 1510 | nSelect_Button.nScreenSetNum = 0;                                      
    10167                   ;----------------------------------------------------------------------
    10168 0000113b 50600000         ldiu      0,r0
    10169 0000113c 15200205-        sti       r0,@_nSelect_Button+10
    10170                           .line   14
    10171                   ;----------------------------------------------------------------------
    10172                   ; 1512 | gpUpLoad;                                                              
    10173                   ;----------------------------------------------------------------------
    10174 0000113d 50610086         ldiu      134,r1
    10175 0000113e 0f210000         push      r1
    10176 0000113f 5060000f         ldiu      15,r0
    10177 00001140 0f200000         push      r0
    10178 00001141 6200004d'        call      _gp_WritingWord
    10179                                                           ; Call Occurs
    10180 00001142 18740002         subi      2,sp
    10181                           .line   15
    10182                   ;----------------------------------------------------------------------
    10183                   ; 1513 | gpROOTDIS;                                                             
    10184                   ;----------------------------------------------------------------------
    10185 00001143 50610000         ldiu      0,r1
    10186 00001144 50600039         ldiu      57,r0
    10187 00001145 0f210000         push      r1
    10188 00001146 0f200000         push      r0
    10189 00001147 6200004d'        call      _gp_WritingWord
    10190                                                           ; Call Occurs
    10191 00001148 18740002         subi      2,sp
    10192                           .line   17
    10193                   ;----------------------------------------------------------------------
    10194                   ; 1515 | gp_WritingStr(550,5,sClenBuf);                                         
    10195                   ;----------------------------------------------------------------------
    10196 00001149 5000000b         ldiu      fp,r0
    10197 0000114a 0260001f         addi      31,r0
    10198 0000114b 0f200000         push      r0
    10199 0000114c 50610005         ldiu      5,r1
    10200 0000114d 0f210000         push      r1
    10201 0000114e 50620226         ldiu      550,r2
    10202 0000114f 0f220000         push      r2
    10203 00001150 620000ba'        call      _gp_WritingStr
    10204                                                           ; Call Occurs
    10205 00001151 18740003         subi      3,sp
    10206                           .line   18
TMS320C3x/4x COFF AssemblerVersion 5.11     Mon Apr 29 17:36:37 2013
Copyright (c) 1987-1999 Texas Instruments Incorporatedc:\lang\tms320c3x\511\bin\asm30.exe -l gpproface.asm gpproface.obj -tC:\Users\JDS\AppData\Local\Temp\gpproface.tmp 

gpproface.asm                                                        PAGE  190

    10207                   ;----------------------------------------------------------------------
    10208                   ; 1516 | gp_WritingStr(555,5,sClenBuf);                                         
    10209                   ;----------------------------------------------------------------------
    10210 00001152 5000000b         ldiu      fp,r0
    10211 00001153 0260001f         addi      31,r0
    10212 00001154 0f200000         push      r0
    10213 00001155 50610005         ldiu      5,r1
    10214 00001156 0f210000         push      r1
    10215 00001157 5062022b         ldiu      555,r2
    10216 00001158 0f220000         push      r2
    10217 00001159 620000ba'        call      _gp_WritingStr
    10218                                                           ; Call Occurs
    10219 0000115a 18740003         subi      3,sp
    10220                           .line   20
    10221                   ;----------------------------------------------------------------------
    10222                   ; 1518 | break;                                                                 
    10223                   ; 1519 | case 118:       //                                     
    10224                   ;----------------------------------------------------------------------
    10225 0000115b 6a0000b1         bu        L444
    10226                   ;*      Branch Occurs to L444 
    10227 0000115c          L429:        
    10228                           .line   22
    10229                   ;----------------------------------------------------------------------
    10230                   ; 1520 | if(SanDisk_Vari.nDiskInputCheckFlag)    //  .                  
    10231                   ;----------------------------------------------------------------------
    10232 0000115c 08200002!        ldi       @_SanDisk_Vari+2,r0
    10233 0000115d 6a25008c         beqd      L438
    10234 0000115e 5280000b         ldieq     fp,r0
    10235 0000115f 52e10005         ldieq     5,r1
    10236 00001160 52e20226         ldieq     550,r2
    10237                   ;*      Branch Occurs to L438 
    10238                           .line   24
    10239                   ;----------------------------------------------------------------------
    10240                   ; 1522 | SanDisk_Vari.nDiskUpChekFlag = Nvsram_IDC_UpLoad_CK(sDataBuf,IDC_FILE);
    10241                   ;     |  //                                                            
    10242                   ;----------------------------------------------------------------------
    10243 00001161 50610001         ldiu      1,r1
    10244 00001162 5000000b         ldiu      fp,r0
    10245 00001163 0f210000         push      r1
    10246 00001164 02600001         addi      1,r0
    10247 00001165 0f200000         push      r0
    10248 00001166 62000000!        call      _Nvsram_IDC_UpLoad_CK
    10249                                                           ; Call Occurs
    10250 00001167 15200003!        sti       r0,@_SanDisk_Vari+3
    10251 00001168 18740002         subi      2,sp
    10252                           .line   26
    10253                   ;----------------------------------------------------------------------
    10254                   ; 1524 | gpUpLoad_2;                                                            
    10255                   ;----------------------------------------------------------------------
    10256 00001169 50610087         ldiu      135,r1
    10257 0000116a 5060000f         ldiu      15,r0
    10258 0000116b 0f210000         push      r1
    10259 0000116c 0f200000         push      r0
    10260 0000116d 6200004d'        call      _gp_WritingWord
TMS320C3x/4x COFF AssemblerVersion 5.11     Mon Apr 29 17:36:37 2013
Copyright (c) 1987-1999 Texas Instruments Incorporatedc:\lang\tms320c3x\511\bin\asm30.exe -l gpproface.asm gpproface.obj -tC:\Users\JDS\AppData\Local\Temp\gpproface.tmp 

gpproface.asm                                                        PAGE  191

    10261                                                           ; Call Occurs
    10262 0000116e 18740002         subi      2,sp
    10263                           .line   28
    10264                   ;----------------------------------------------------------------------
    10265                   ; 1526 | gp_WritingWord(300,0);                                                 
    10266                   ;----------------------------------------------------------------------
    10267 0000116f 50610000         ldiu      0,r1
    10268 00001170 0f210000         push      r1
    10269 00001171 5060012c         ldiu      300,r0
    10270 00001172 0f200000         push      r0
    10271 00001173 6200004d'        call      _gp_WritingWord
    10272                                                           ; Call Occurs
    10273 00001174 18740002         subi      2,sp
    10274                           .line   29
    10275                   ;----------------------------------------------------------------------
    10276                   ; 1527 | gp_WritingWord(301,0);                                                 
    10277                   ;----------------------------------------------------------------------
    10278 00001175 50610000         ldiu      0,r1
    10279 00001176 0f210000         push      r1
    10280 00001177 5060012d         ldiu      301,r0
    10281 00001178 0f200000         push      r0
    10282 00001179 6200004d'        call      _gp_WritingWord
    10283                                                           ; Call Occurs
    10284 0000117a 18740002         subi      2,sp
    10285                           .line   31
    10286                   ;----------------------------------------------------------------------
    10287                   ; 1529 | gp_WritingStr(560,3,(UCHAR*)ROM_VER_S);                                
    10288                   ;----------------------------------------------------------------------
    10289 0000117b 50200234-        ldiu      @CL44,r0
    10290 0000117c 50620230         ldiu      560,r2
    10291 0000117d 0f200000         push      r0
    10292 0000117e 50610003         ldiu      3,r1
    10293 0000117f 0f210000         push      r1
    10294 00001180 0f220000         push      r2
    10295 00001181 620000ba'        call      _gp_WritingStr
    10296                                                           ; Call Occurs
    10297 00001182 18740003         subi      3,sp
    10298                           .line   32
    10299                   ;----------------------------------------------------------------------
    10300                   ; 1530 | gp_WritingStr(565,1,(UCHAR*)"->");                                     
    10301                   ;----------------------------------------------------------------------
    10302 00001183 50220235-        ldiu      @CL45,r2
    10303 00001184 0f220000         push      r2
    10304 00001185 50610001         ldiu      1,r1
    10305 00001186 50600235         ldiu      565,r0
    10306 00001187 0f210000         push      r1
    10307 00001188 0f200000         push      r0
    10308 00001189 620000ba'        call      _gp_WritingStr
    10309                                                           ; Call Occurs
    10310 0000118a 18740003         subi      3,sp
    10311                           .line   33
    10312                   ;----------------------------------------------------------------------
    10313                   ; 1531 | gp_WritingStr(570,3,sDataBuf);                                         
    10314                   ;----------------------------------------------------------------------
TMS320C3x/4x COFF AssemblerVersion 5.11     Mon Apr 29 17:36:37 2013
Copyright (c) 1987-1999 Texas Instruments Incorporatedc:\lang\tms320c3x\511\bin\asm30.exe -l gpproface.asm gpproface.obj -tC:\Users\JDS\AppData\Local\Temp\gpproface.tmp 

gpproface.asm                                                        PAGE  192

    10315 0000118b 5000000b         ldiu      fp,r0
    10316 0000118c 02600001         addi      1,r0
    10317 0000118d 0f200000         push      r0
    10318 0000118e 50620003         ldiu      3,r2
    10319 0000118f 0f220000         push      r2
    10320 00001190 5061023a         ldiu      570,r1
    10321 00001191 0f210000         push      r1
    10322 00001192 620000ba'        call      _gp_WritingStr
    10323                                                           ; Call Occurs
    10324 00001193 18740003         subi      3,sp
    10325                           .line   35
    10326                   ;----------------------------------------------------------------------
    10327                   ; 1533 | gp_WritingStr(540,2,(UCHAR*)"000%");                                   
    10328                   ;----------------------------------------------------------------------
    10329 00001194 50610002         ldiu      2,r1
    10330 00001195 50200226-        ldiu      @CL30,r0
    10331 00001196 0f200000         push      r0
    10332 00001197 5062021c         ldiu      540,r2
    10333 00001198 0f210000         push      r1
    10334 00001199 0f220000         push      r2
    10335 0000119a 620000ba'        call      _gp_WritingStr
    10336                                                           ; Call Occurs
    10337 0000119b 18740003         subi      3,sp
    10338                           .line   36
    10339                   ;----------------------------------------------------------------------
    10340                   ; 1534 | gp_WritingStr(545,2,(UCHAR*)"000%");                                   
    10341                   ;----------------------------------------------------------------------
    10342 0000119c 50210226-        ldiu      @CL30,r1
    10343 0000119d 0f210000         push      r1
    10344 0000119e 50620002         ldiu      2,r2
    10345 0000119f 50600221         ldiu      545,r0
    10346 000011a0 0f220000         push      r2
    10347 000011a1 0f200000         push      r0
    10348 000011a2 620000ba'        call      _gp_WritingStr
    10349                                                           ; Call Occurs
    10350 000011a3 18740003         subi      3,sp
    10351                           .line   38
    10352                   ;----------------------------------------------------------------------
    10353                   ; 1536 | if(WORD_L(SanDisk_Vari.nDiskUpChekFlag) == 1)                          
    10354                   ;----------------------------------------------------------------------
    10355 000011a4 506000ff         ldiu      255,r0
    10356 000011a5 02a00003!        and       @_SanDisk_Vari+3,r0
    10357 000011a6 04e00001         cmpi      1,r0
    10358 000011a7 6a060012         bne       L432
    10359                   ;*      Branch Occurs to L432 
    10360                           .line   40
    10361                   ;----------------------------------------------------------------------
    10362                   ; 1538 | gp_WritingStr(550,5,sClenBuf);                                         
    10363                   ;----------------------------------------------------------------------
    10364 000011a8 5000000b         ldiu      fp,r0
    10365 000011a9 50620005         ldiu      5,r2
    10366 000011aa 50610226         ldiu      550,r1
    10367 000011ab 0260001f         addi      31,r0
    10368 000011ac 0f200000         push      r0
TMS320C3x/4x COFF AssemblerVersion 5.11     Mon Apr 29 17:36:37 2013
Copyright (c) 1987-1999 Texas Instruments Incorporatedc:\lang\tms320c3x\511\bin\asm30.exe -l gpproface.asm gpproface.obj -tC:\Users\JDS\AppData\Local\Temp\gpproface.tmp 

gpproface.asm                                                        PAGE  193

    10369 000011ad 0f220000         push      r2
    10370 000011ae 0f210000         push      r1
    10371 000011af 620000ba'        call      _gp_WritingStr
    10372                                                           ; Call Occurs
    10373 000011b0 18740003         subi      3,sp
    10374                           .line   41
    10375                   ;----------------------------------------------------------------------
    10376                   ; 1539 | gp_WritingStr(555,5,(UCHAR*)"New UpLoad");                             
    10377                   ;----------------------------------------------------------------------
    10378 000011b1 50210236-        ldiu      @CL46,r1
    10379 000011b2 50600005         ldiu      5,r0
    10380 000011b3 5062022b         ldiu      555,r2
    10381 000011b4 0f210000         push      r1
    10382 000011b5 0f200000         push      r0
    10383 000011b6 0f220000         push      r2
    10384 000011b7 620000ba'        call      _gp_WritingStr
    10385                                                           ; Call Occurs
    10386 000011b8 18740003         subi      3,sp
    10387 000011b9 6a00002b         bu        L436
    10388                   ;*      Branch Occurs to L436 
    10389 000011ba          L432:        
    10390                           .line   43
    10391                   ;----------------------------------------------------------------------
    10392                   ; 1541 | else if(WORD_L(SanDisk_Vari.nDiskUpChekFlag) == 2)                     
    10393                   ;----------------------------------------------------------------------
    10394 000011ba 506000ff         ldiu      255,r0
    10395 000011bb 02a00003!        and       @_SanDisk_Vari+3,r0
    10396 000011bc 04e00002         cmpi      2,r0
    10397 000011bd 6a060012         bne       L434
    10398                   ;*      Branch Occurs to L434 
    10399                           .line   45
    10400                   ;----------------------------------------------------------------------
    10401                   ; 1543 | gp_WritingStr(555,5,sClenBuf);                                         
    10402                   ;----------------------------------------------------------------------
    10403 000011be 5000000b         ldiu      fp,r0
    10404 000011bf 50620005         ldiu      5,r2
    10405 000011c0 5061022b         ldiu      555,r1
    10406 000011c1 0260001f         addi      31,r0
    10407 000011c2 0f200000         push      r0
    10408 000011c3 0f220000         push      r2
    10409 000011c4 0f210000         push      r1
    10410 000011c5 620000ba'        call      _gp_WritingStr
    10411                                                           ; Call Occurs
    10412 000011c6 18740003         subi      3,sp
    10413                           .line   46
    10414                   ;----------------------------------------------------------------------
    10415                   ; 1544 | gp_WritingStr(550,5,(UCHAR*)" ");                              
    10416                   ;----------------------------------------------------------------------
    10417 000011c7 50210237-        ldiu      @CL47,r1
    10418 000011c8 50600005         ldiu      5,r0
    10419 000011c9 50620226         ldiu      550,r2
    10420 000011ca 0f210000         push      r1
    10421 000011cb 0f200000         push      r0
    10422 000011cc 0f220000         push      r2
TMS320C3x/4x COFF AssemblerVersion 5.11     Mon Apr 29 17:36:37 2013
Copyright (c) 1987-1999 Texas Instruments Incorporatedc:\lang\tms320c3x\511\bin\asm30.exe -l gpproface.asm gpproface.obj -tC:\Users\JDS\AppData\Local\Temp\gpproface.tmp 

gpproface.asm                                                        PAGE  194

    10423 000011cd 620000ba'        call      _gp_WritingStr
    10424                                                           ; Call Occurs
    10425 000011ce 18740003         subi      3,sp
    10426 000011cf 6a000015         bu        L436
    10427                   ;*      Branch Occurs to L436 
    10428 000011d0          L434:        
    10429                           .line   48
    10430                   ;----------------------------------------------------------------------
    10431                   ; 1546 | else if(WORD_L(SanDisk_Vari.nDiskUpChekFlag) == 3)                     
    10432                   ;----------------------------------------------------------------------
    10433 000011d0 506000ff         ldiu      255,r0
    10434 000011d1 02a00003!        and       @_SanDisk_Vari+3,r0
    10435 000011d2 04e00003         cmpi      3,r0
    10436 000011d3 6a060011         bne       L436
    10437                   ;*      Branch Occurs to L436 
    10438                           .line   50
    10439                   ;----------------------------------------------------------------------
    10440                   ; 1548 | gp_WritingStr(555,5,sClenBuf);                                         
    10441                   ;----------------------------------------------------------------------
    10442 000011d4 5000000b         ldiu      fp,r0
    10443 000011d5 50620005         ldiu      5,r2
    10444 000011d6 5061022b         ldiu      555,r1
    10445 000011d7 0260001f         addi      31,r0
    10446 000011d8 0f200000         push      r0
    10447 000011d9 0f220000         push      r2
    10448 000011da 0f210000         push      r1
    10449 000011db 620000ba'        call      _gp_WritingStr
    10450                                                           ; Call Occurs
    10451 000011dc 18740003         subi      3,sp
    10452                           .line   51
    10453                   ;----------------------------------------------------------------------
    10454                   ; 1549 | gp_WritingStr(550,5,(UCHAR*)" ");                              
    10455                   ;----------------------------------------------------------------------
    10456 000011dd 50210238-        ldiu      @CL48,r1
    10457 000011de 50600005         ldiu      5,r0
    10458 000011df 50620226         ldiu      550,r2
    10459 000011e0 0f210000         push      r1
    10460 000011e1 0f200000         push      r0
    10461 000011e2 0f220000         push      r2
    10462 000011e3 620000ba'        call      _gp_WritingStr
    10463                                                           ; Call Occurs
    10464 000011e4 18740003         subi      3,sp
    10465 000011e5          L436:        
    10466                           .line   54
    10467                   ;----------------------------------------------------------------------
    10468                   ; 1552 | gpROOTEN;                                                              
    10469                   ; 1554 | else                                                                   
    10470                   ;----------------------------------------------------------------------
    10471 000011e5 50610001         ldiu      1,r1
    10472 000011e6 50600039         ldiu      57,r0
    10473 000011e7 0f210000         push      r1
    10474 000011e8 0f200000         push      r0
    10475 000011e9 6200004d'        call      _gp_WritingWord
    10476                                                           ; Call Occurs
TMS320C3x/4x COFF AssemblerVersion 5.11     Mon Apr 29 17:36:37 2013
Copyright (c) 1987-1999 Texas Instruments Incorporatedc:\lang\tms320c3x\511\bin\asm30.exe -l gpproface.asm gpproface.obj -tC:\Users\JDS\AppData\Local\Temp\gpproface.tmp 

gpproface.asm                                                        PAGE  195

    10477 000011ea 18740002         subi      2,sp
    10478 000011eb 6a000021         bu        L444
    10479                   ;*      Branch Occurs to L444 
    10480                           .line   58
    10481                   ;----------------------------------------------------------------------
    10482                   ; 1556 | gp_WritingStr(550,5,sClenBuf);                                         
    10483                   ;----------------------------------------------------------------------
    10484 000011ec          L438:        
    10485 000011ec 0260001f         addi      31,r0
    10486 000011ed 0f200000         push      r0
    10487 000011ee 0f210000         push      r1
    10488 000011ef 0f220000         push      r2
    10489 000011f0 620000ba'        call      _gp_WritingStr
    10490                                                           ; Call Occurs
    10491 000011f1 18740003         subi      3,sp
    10492                           .line   59
    10493                   ;----------------------------------------------------------------------
    10494                   ; 1557 | gp_WritingStr(555,5,(UCHAR*)"CARD CHECK");                             
    10495                   ;----------------------------------------------------------------------
    10496 000011f2 50200239-        ldiu      @CL49,r0
    10497 000011f3 50610005         ldiu      5,r1
    10498 000011f4 5062022b         ldiu      555,r2
    10499 000011f5 0f200000         push      r0
    10500 000011f6 0f210000         push      r1
    10501 000011f7 0f220000         push      r2
    10502 000011f8 620000ba'        call      _gp_WritingStr
    10503                                                           ; Call Occurs
    10504 000011f9 18740003         subi      3,sp
    10505                           .line   60
    10506                   ;----------------------------------------------------------------------
    10507                   ; 1558 | gpROOTDIS;                                                             
    10508                   ;----------------------------------------------------------------------
    10509 000011fa 50610000         ldiu      0,r1
    10510 000011fb 50600039         ldiu      57,r0
    10511 000011fc 0f210000         push      r1
    10512 000011fd 0f200000         push      r0
    10513 000011fe 6200004d'        call      _gp_WritingWord
    10514                                                           ; Call Occurs
    10515 000011ff 18740002         subi      2,sp
    10516                           .line   64
    10517                   ;----------------------------------------------------------------------
    10518                   ; 1562 | break;                                                                 
    10519                   ; 1563 | case 119:                                                              
    10520                   ; 1565 | //gpButtonOFF;                                                         
    10521                   ;----------------------------------------------------------------------
    10522 00001200 6a00000c         bu        L444
    10523                   ;*      Branch Occurs to L444 
    10524 00001201          L439:        
    10525                           .line   69
    10526                   ;----------------------------------------------------------------------
    10527                   ; 1567 | Idc_Load.nIDC_ROM_Flag = 1;                                            
    10528                   ;----------------------------------------------------------------------
    10529 00001201 50600001         ldiu      1,r0
    10530 00001202 15200000!        sti       r0,@_Idc_Load+0
TMS320C3x/4x COFF AssemblerVersion 5.11     Mon Apr 29 17:36:37 2013
Copyright (c) 1987-1999 Texas Instruments Incorporatedc:\lang\tms320c3x\511\bin\asm30.exe -l gpproface.asm gpproface.obj -tC:\Users\JDS\AppData\Local\Temp\gpproface.tmp 

gpproface.asm                                                        PAGE  196

    10531                           .line   70
    10532                   ;----------------------------------------------------------------------
    10533                   ; 1568 | Idc_Load.nKO_Flag = 0;                                                 
    10534                   ;----------------------------------------------------------------------
    10535 00001203 50600000         ldiu      0,r0
    10536 00001204 15200006!        sti       r0,@_Idc_Load+6
    10537                           .line   71
    10538                   ;----------------------------------------------------------------------
    10539                   ; 1569 | nSelect_Button.nScreenSetNum = 9;                                      
    10540                   ;----------------------------------------------------------------------
    10541 00001205 50600009         ldiu      9,r0
    10542 00001206 15200205-        sti       r0,@_nSelect_Button+10
    10543                           .line   73
    10544                   ;----------------------------------------------------------------------
    10545                   ; 1571 | break;                                                                 
    10546                   ;----------------------------------------------------------------------
    10547 00001207 6a000005         bu        L444
    10548                   ;*      Branch Occurs to L444 
    10549                           .line   8
    10550 00001208          L441:        
    10551 00001208 6a05ff32         beq       L428
    10552                   ;*      Branch Occurs to L428 
    10553 00001209 04e00076         cmpi      118,r0
    10554 0000120a 6a05ff51         beq       L429
    10555                   ;*      Branch Occurs to L429 
    10556 0000120b 04e00077         cmpi      119,r0
    10557 0000120c 6a05fff4         beq       L439
    10558                   ;*      Branch Occurs to L439 
    10559 0000120d          L444:        
    10560                           .line   77
    10561 0000120d 50530b01         ldiu      *-fp(1),bk
    10562 0000120e 504bc300         ldiu      *fp,fp
    10563 0000120f 18740034         subi      52,sp
    10564 00001210 68000013         bu        bk
    10565                   ;*      Branch Occurs to bk 
    10566                           .endfunc        1575,000000000h,50
    10567                   
    10568                   
    10569 00001211                  .sect    ".text"
    10570                   
    10571                           .global _GP_SFDD_SW_UPLOAD
    10572                           .sym    _GP_SFDD_SW_UPLOAD,_GP_SFDD_SW_UPLOAD,32,2,0
    10573                           .func   1580
    10574                   ;******************************************************************************
    10575                   ;* FUNCTION NAME: _GP_SFDD_SW_UPLOAD                                          *
    10576                   ;*                                                                            *
    10577                   ;*   Architecture       : TMS320C30                                           *
    10578                   ;*   Calling Convention : Stack Parameter Convention                          *
    10579                   ;*   Function Uses Regs : r0,r1,r2,r3,ar0,fp,sp,st,rs                         *
    10580                   ;*   Regs Saved         :                                                     *
    10581                   ;*   Stack Frame        : Full (w/ debug)                                     *
    10582                   ;*   Total Frame Size   : 2 Call + 1 Parm + 30 Auto + 0 SOE = 33 words        *
    10583                   ;******************************************************************************
    10584 00001211          _GP_SFDD_SW_UPLOAD:
TMS320C3x/4x COFF AssemblerVersion 5.11     Mon Apr 29 17:36:37 2013
Copyright (c) 1987-1999 Texas Instruments Incorporatedc:\lang\tms320c3x\511\bin\asm30.exe -l gpproface.asm gpproface.obj -tC:\Users\JDS\AppData\Local\Temp\gpproface.tmp 

gpproface.asm                                                        PAGE  197

    10585                           .sym    _nScreenInf,-2,12,9,32
    10586                           .sym    _sClenBuf,1,60,1,640,,20
    10587                           .sym    _sDataBuf,21,60,1,320,,10
    10588                           .line   1
    10589                   ;----------------------------------------------------------------------
    10590                   ; 1580 | void GP_SFDD_SW_UPLOAD(UCHAR nScreenInf)                               
    10591                   ;----------------------------------------------------------------------
    10592 00001211 0f2b0000         push      fp
    10593 00001212 500b0014         ldiu      sp,fp
    10594 00001213 0274001e         addi      30,sp
    10595                           .line   2
    10596                   ;----------------------------------------------------------------------
    10597                   ; 1582 | UCHAR sClenBuf[20];                                                    
    10598                   ; 1583 | UCHAR sDataBuf[10];                                                    
    10599                   ;----------------------------------------------------------------------
    10600                           .line   6
    10601                   ;----------------------------------------------------------------------
    10602                   ; 1585 | memset(sClenBuf,0x20,20);                                              
    10603                   ; 1587 | switch(nScreenInf)                                                     
    10604                   ; 1589 | case 121:       //                                             
    10605                   ;----------------------------------------------------------------------
    10606 00001214 50620014         ldiu      20,r2
    10607 00001215 50610020         ldiu      32,r1
    10608 00001216 5000000b         ldiu      fp,r0
    10609 00001217 0f220000         push      r2
    10610 00001218 02600001         addi      1,r0
    10611 00001219 0f210000         push      r1
    10612 0000121a 0f200000         push      r0
    10613 0000121b 62000000!        call      _memset
    10614                                                           ; Call Occurs
    10615 0000121c 6a2000c9         bud       L469
    10616 0000121d 18740003         subi      3,sp
    10617 0000121e 50400b02         ldiu      *-fp(2),r0
    10618 0000121f 04e00079         cmpi      121,r0
    10619                   ;*      Branch Occurs to L469 
    10620 00001220          L447:        
    10621                           .line   11
    10622                   ;----------------------------------------------------------------------
    10623                   ; 1590 | nLedDataLoad.nWaitSDR = 6;                                             
    10624                   ;----------------------------------------------------------------------
    10625 00001220 50600006         ldiu      6,r0
    10626 00001221 15200003!        sti       r0,@_nLedDataLoad+3
    10627                           .line   12
    10628                   ;----------------------------------------------------------------------
    10629                   ; 1591 | xr16l788_Init(XR16L788_3CHL,19200,XR16L788_DATA8,XR16L788_EVENPARITY,XR
    10630                   ;     | 16L788_1STOPBIT);                                                      
    10631                   ;----------------------------------------------------------------------
    10632 00001222 50790000         ldiu      0,rs
    10633 00001223 50610003         ldiu      3,r1
    10634 00001224 50624b00         ldiu      19200,r2
    10635 00001225 50630002         ldiu      2,r3
    10636 00001226 0f390000         push      rs
    10637 00001227 50600018         ldiu      24,r0
    10638 00001228 0f200000         push      r0
TMS320C3x/4x COFF AssemblerVersion 5.11     Mon Apr 29 17:36:37 2013
Copyright (c) 1987-1999 Texas Instruments Incorporatedc:\lang\tms320c3x\511\bin\asm30.exe -l gpproface.asm gpproface.obj -tC:\Users\JDS\AppData\Local\Temp\gpproface.tmp 

gpproface.asm                                                        PAGE  198

    10639 00001229 0f210000         push      r1
    10640 0000122a 0f220000         push      r2
    10641 0000122b 0f230000         push      r3
    10642 0000122c 62000000!        call      _xr16l788_Init
    10643                                                           ; Call Occurs
    10644 0000122d 18740005         subi      5,sp
    10645                           .line   13
    10646                   ;----------------------------------------------------------------------
    10647                   ; 1592 | Xr16788_3Ch.nBPS = 192;                                                
    10648                   ;----------------------------------------------------------------------
    10649 0000122e 506000c0         ldiu      192,r0
    10650 0000122f 15200012!        sti       r0,@_Xr16788_3Ch+18
    10651                           .line   15
    10652                   ;----------------------------------------------------------------------
    10653                   ; 1594 | gpROOTDIS;                                                             
    10654                   ;----------------------------------------------------------------------
    10655 00001230 50610000         ldiu      0,r1
    10656 00001231 50600039         ldiu      57,r0
    10657 00001232 0f210000         push      r1
    10658 00001233 0f200000         push      r0
    10659 00001234 6200004d'        call      _gp_WritingWord
    10660                                                           ; Call Occurs
    10661 00001235 18740002         subi      2,sp
    10662                           .line   16
    10663                   ;----------------------------------------------------------------------
    10664                   ; 1595 | break;                                                                 
    10665                   ; 1596 | case 122:       //Erass                                                
    10666                   ;----------------------------------------------------------------------
    10667 00001236 6a0000c0         bu        L474
    10668                   ;*      Branch Occurs to L474 
    10669 00001237          L448:        
    10670                           .line   18
    10671                   ;----------------------------------------------------------------------
    10672                   ; 1597 | nLedDataLoad.nErassFlag.nST_1 = TRUE;                                  
    10673                   ;----------------------------------------------------------------------
    10674 00001237 50600001         ldiu      1,r0
    10675 00001238 15200006!        sti       r0,@_nLedDataLoad+6
    10676                           .line   19
    10677                   ;----------------------------------------------------------------------
    10678                   ; 1598 | nLedDataLoad.nErassFlag.nErassOk = FALSE;                              
    10679                   ;----------------------------------------------------------------------
    10680 00001239 50600000         ldiu      0,r0
    10681 0000123a 1520000a!        sti       r0,@_nLedDataLoad+10
    10682                           .line   20
    10683                   ;----------------------------------------------------------------------
    10684                   ; 1599 | nSelf_Test.nSELF_TX_Cnt = 0;                                           
    10685                   ;----------------------------------------------------------------------
    10686 0000123b 1520003c!        sti       r0,@_nSelf_Test+60
    10687                           .line   21
    10688                   ;----------------------------------------------------------------------
    10689                   ; 1600 | gpLED_UPLOAD_ERBUT_SF_OFF;                                             
    10690                   ;----------------------------------------------------------------------
    10691 0000123c 50610000         ldiu      0,r1
    10692 0000123d 0f210000         push      r1
TMS320C3x/4x COFF AssemblerVersion 5.11     Mon Apr 29 17:36:37 2013
Copyright (c) 1987-1999 Texas Instruments Incorporatedc:\lang\tms320c3x\511\bin\asm30.exe -l gpproface.asm gpproface.obj -tC:\Users\JDS\AppData\Local\Temp\gpproface.tmp 

gpproface.asm                                                        PAGE  199

    10693 0000123e 506002c6         ldiu      710,r0
    10694 0000123f 0f200000         push      r0
    10695 00001240 6200004d'        call      _gp_WritingWord
    10696                                                           ; Call Occurs
    10697 00001241 18740002         subi      2,sp
    10698                           .line   22
    10699                   ;----------------------------------------------------------------------
    10700                   ; 1601 | gpROOTDIS;                                                             
    10701                   ;----------------------------------------------------------------------
    10702 00001242 50600000         ldiu      0,r0
    10703 00001243 50610039         ldiu      57,r1
    10704 00001244 0f200000         push      r0
    10705 00001245 0f210000         push      r1
    10706 00001246 6200004d'        call      _gp_WritingWord
    10707                                                           ; Call Occurs
    10708 00001247 18740002         subi      2,sp
    10709                           .line   24
    10710                   ;----------------------------------------------------------------------
    10711                   ; 1603 | break;                                                                 
    10712                   ; 1604 | case 123:       //                                       
    10713                   ;----------------------------------------------------------------------
    10714 00001248 6a0000ae         bu        L474
    10715                   ;*      Branch Occurs to L474 
    10716 00001249          L449:        
    10717                           .line   26
    10718                   ;----------------------------------------------------------------------
    10719                   ; 1605 | nLedDataLoad.nDataDownFlag = TRUE;                                     
    10720                   ;----------------------------------------------------------------------
    10721 00001249 50600001         ldiu      1,r0
    10722 0000124a 1520000b!        sti       r0,@_nLedDataLoad+11
    10723                           .line   27
    10724                   ;----------------------------------------------------------------------
    10725                   ; 1606 | nSelect_Button.nScreenSetNum = 13;                                     
    10726                   ;----------------------------------------------------------------------
    10727 0000124b 5060000d         ldiu      13,r0
    10728 0000124c 15200205-        sti       r0,@_nSelect_Button+10
    10729                           .line   29
    10730                   ;----------------------------------------------------------------------
    10731                   ; 1608 | gpLED_UPLOAD_DABUT_SF_OFF;                                             
    10732                   ;----------------------------------------------------------------------
    10733 0000124d 506102c7         ldiu      711,r1
    10734 0000124e 50600000         ldiu      0,r0
    10735 0000124f 0f200000         push      r0
    10736 00001250 0f210000         push      r1
    10737 00001251 6200004d'        call      _gp_WritingWord
    10738                                                           ; Call Occurs
    10739 00001252 18740002         subi      2,sp
    10740                           .line   30
    10741                   ;----------------------------------------------------------------------
    10742                   ; 1609 | gpROOTDIS;                                                             
    10743                   ;----------------------------------------------------------------------
    10744 00001253 50600000         ldiu      0,r0
    10745 00001254 50610039         ldiu      57,r1
    10746 00001255 0f200000         push      r0
TMS320C3x/4x COFF AssemblerVersion 5.11     Mon Apr 29 17:36:37 2013
Copyright (c) 1987-1999 Texas Instruments Incorporatedc:\lang\tms320c3x\511\bin\asm30.exe -l gpproface.asm gpproface.obj -tC:\Users\JDS\AppData\Local\Temp\gpproface.tmp 

gpproface.asm                                                        PAGE  200

    10747 00001256 0f210000         push      r1
    10748 00001257 6200004d'        call      _gp_WritingWord
    10749                                                           ; Call Occurs
    10750 00001258 18740002         subi      2,sp
    10751                           .line   32
    10752                   ;----------------------------------------------------------------------
    10753                   ; 1611 | break;                                                                 
    10754                   ; 1612 | case 124:       //SDD                                              
    10755                   ;----------------------------------------------------------------------
    10756 00001259 6a00009d         bu        L474
    10757                   ;*      Branch Occurs to L474 
    10758                           .line   34
    10759                   ;----------------------------------------------------------------------
    10760                   ; 1613 | gpROOTEN;                                                              
    10761                   ;----------------------------------------------------------------------
    10762 0000125a          L451:        
    10763 0000125a 0f210000         push      r1
    10764 0000125b 0f200000         push      r0
    10765 0000125c 6200004d'        call      _gp_WritingWord
    10766                                                           ; Call Occurs
    10767 0000125d 18740002         subi      2,sp
    10768                           .line   36
    10769                   ;----------------------------------------------------------------------
    10770                   ; 1615 | nSelect_Button.nScreenSetNum = 0;                                      
    10771                   ;----------------------------------------------------------------------
    10772 0000125e 50600000         ldiu      0,r0
    10773 0000125f 15200205-        sti       r0,@_nSelect_Button+10
    10774                           .line   38
    10775                   ;----------------------------------------------------------------------
    10776                   ; 1617 | if(!Nvsram_IDC_UpLoad_CK(sDataBuf,SDD_FILE))                           
    10777                   ;----------------------------------------------------------------------
    10778 00001260 50610002         ldiu      2,r1
    10779 00001261 5000000b         ldiu      fp,r0
    10780 00001262 0f210000         push      r1
    10781 00001263 02600015         addi      21,r0
    10782 00001264 0f200000         push      r0
    10783 00001265 62000000!        call      _Nvsram_IDC_UpLoad_CK
    10784                                                           ; Call Occurs
    10785 00001266 04e00000         cmpi      0,r0
    10786 00001267 6a260013         bned      L454
    10787 00001268 18740002         subi      2,sp
    10788 00001269 0c800000         nop
    10789 0000126a 53600001         ldine     1,r0
    10790                   ;*      Branch Occurs to L454 
    10791                           .line   40
    10792                   ;----------------------------------------------------------------------
    10793                   ; 1619 | gp_WritingStr(550,5,sClenBuf);                                         
    10794                   ;----------------------------------------------------------------------
    10795 0000126b 5000000b         ldiu      fp,r0
    10796 0000126c 50620005         ldiu      5,r2
    10797 0000126d 50610226         ldiu      550,r1
    10798 0000126e 02600001         addi      1,r0
    10799 0000126f 0f200000         push      r0
    10800 00001270 0f220000         push      r2
TMS320C3x/4x COFF AssemblerVersion 5.11     Mon Apr 29 17:36:37 2013
Copyright (c) 1987-1999 Texas Instruments Incorporatedc:\lang\tms320c3x\511\bin\asm30.exe -l gpproface.asm gpproface.obj -tC:\Users\JDS\AppData\Local\Temp\gpproface.tmp 

gpproface.asm                                                        PAGE  201

    10801 00001271 0f210000         push      r1
    10802 00001272 620000ba'        call      _gp_WritingStr
    10803                                                           ; Call Occurs
    10804 00001273 18740003         subi      3,sp
    10805                           .line   41
    10806                   ;----------------------------------------------------------------------
    10807                   ; 1620 | gp_WritingStr(555,5,(UCHAR*)"FILE CHECK");                             
    10808                   ; 1622 | else                                                                   
    10809                   ;----------------------------------------------------------------------
    10810 00001274 5020023a-        ldiu      @CL50,r0
    10811 00001275 50610005         ldiu      5,r1
    10812 00001276 5062022b         ldiu      555,r2
    10813 00001277 0f200000         push      r0
    10814 00001278 0f210000         push      r1
    10815 00001279 0f220000         push      r2
    10816 0000127a 620000ba'        call      _gp_WritingStr
    10817                                                           ; Call Occurs
    10818 0000127b 18740003         subi      3,sp
    10819 0000127c 6a00007a         bu        L474
    10820                   ;*      Branch Occurs to L474 
    10821                           .line   45
    10822                   ;----------------------------------------------------------------------
    10823                   ; 1624 | nLedDataLoad.nSDDSelt = TRUE;                                          
    10824                   ;----------------------------------------------------------------------
    10825 0000127d          L454:        
    10826 0000127d 15200000!        sti       r0,@_nLedDataLoad+0
    10827                           .line   46
    10828                   ;----------------------------------------------------------------------
    10829                   ; 1625 | nLedDataLoad.nFDDSelt = FALSE;                                         
    10830                   ;----------------------------------------------------------------------
    10831 0000127e 50600000         ldiu      0,r0
    10832 0000127f 15200001!        sti       r0,@_nLedDataLoad+1
    10833                           .line   48
    10834                   ;----------------------------------------------------------------------
    10835                   ; 1627 | gpSFDD_UPLOAD_SCREEN;                                                  
    10836                   ;----------------------------------------------------------------------
    10837 00001280 50610089         ldiu      137,r1
    10838 00001281 0f210000         push      r1
    10839 00001282 5060000f         ldiu      15,r0
    10840 00001283 0f200000         push      r0
    10841 00001284 6200004d'        call      _gp_WritingWord
    10842                                                           ; Call Occurs
    10843 00001285 18740002         subi      2,sp
    10844                           .line   50
    10845                   ;----------------------------------------------------------------------
    10846                   ; 1629 | nLedDataLoad.nSFKindCode = 0xF6;                                       
    10847                   ;----------------------------------------------------------------------
    10848 00001286 506000f6         ldiu      246,r0
    10849 00001287 15200002!        sti       r0,@_nLedDataLoad+2
    10850                           .line   52
    10851                   ;----------------------------------------------------------------------
    10852                   ; 1631 | if(WORD_L(sDataBuf[0]) == 0x35)                                        
    10853                   ;----------------------------------------------------------------------
    10854 00001288 5008000b         ldiu      fp,ar0
TMS320C3x/4x COFF AssemblerVersion 5.11     Mon Apr 29 17:36:37 2013
Copyright (c) 1987-1999 Texas Instruments Incorporatedc:\lang\tms320c3x\511\bin\asm30.exe -l gpproface.asm gpproface.obj -tC:\Users\JDS\AppData\Local\Temp\gpproface.tmp 

gpproface.asm                                                        PAGE  202

    10855 00001289 02680015         addi      21,ar0
    10856 0000128a 506000ff         ldiu      255,r0
    10857 0000128b 21a0c000         and3      r0,*ar0,r0
    10858 0000128c 04e00035         cmpi      53,r0
    10859 0000128d 6a26000a         bned      L457
    10860 0000128e 5322023c-        ldine     @CL52,r2
    10861 0000128f 53610008         ldine     8,r1
    10862 00001290 5360023f         ldine     575,r0
    10863                   ;*      Branch Occurs to L457 
    10864                           .line   54
    10865                   ;----------------------------------------------------------------------
    10866                   ; 1633 | gp_WritingStr(575,8,(UCHAR*)"SDD CHECK -> OK");                        
    10867                   ; 1635 | else                                                                   
    10868                   ;----------------------------------------------------------------------
    10869 00001291 5022023b-        ldiu      @CL51,r2
    10870 00001292 50610008         ldiu      8,r1
    10871 00001293 5060023f         ldiu      575,r0
    10872 00001294 0f220000         push      r2
    10873 00001295 0f210000         push      r1
    10874 00001296 0f200000         push      r0
    10875 00001297 620000ba'        call      _gp_WritingStr
    10876                                                           ; Call Occurs
    10877 00001298 18740003         subi      3,sp
    10878 00001299 6a000005         bu        L458
    10879                   ;*      Branch Occurs to L458 
    10880                           .line   58
    10881                   ;----------------------------------------------------------------------
    10882                   ; 1637 | gp_WritingStr(575,8,(UCHAR*)"SDD CHECK -> NG");                        
    10883                   ;----------------------------------------------------------------------
    10884 0000129a          L457:        
    10885 0000129a 0f220000         push      r2
    10886 0000129b 0f210000         push      r1
    10887 0000129c 0f200000         push      r0
    10888 0000129d 620000ba'        call      _gp_WritingStr
    10889                                                           ; Call Occurs
    10890 0000129e 18740003         subi      3,sp
    10891 0000129f          L458:        
    10892                           .line   61
    10893                   ;----------------------------------------------------------------------
    10894                   ; 1640 | GP_SFDD_SW_UPLOAD_CLEAN();                                             
    10895                   ;----------------------------------------------------------------------
    10896 0000129f 620012fb'        call      _GP_SFDD_SW_UPLOAD_CLEAN
    10897                                                           ; Call Occurs
    10898                           .line   65
    10899                   ;----------------------------------------------------------------------
    10900                   ; 1644 | break;                                                                 
    10901                   ; 1646 | case 125:       //FDD                                              
    10902                   ;----------------------------------------------------------------------
    10903 000012a0 6a000056         bu        L474
    10904                   ;*      Branch Occurs to L474 
    10905                           .line   68
    10906                   ;----------------------------------------------------------------------
    10907                   ; 1647 | gpROOTEN;                                                              
    10908                   ;----------------------------------------------------------------------
TMS320C3x/4x COFF AssemblerVersion 5.11     Mon Apr 29 17:36:37 2013
Copyright (c) 1987-1999 Texas Instruments Incorporatedc:\lang\tms320c3x\511\bin\asm30.exe -l gpproface.asm gpproface.obj -tC:\Users\JDS\AppData\Local\Temp\gpproface.tmp 

gpproface.asm                                                        PAGE  203

    10909 000012a1          L460:        
    10910 000012a1 0f200000         push      r0
    10911 000012a2 0f210000         push      r1
    10912 000012a3 6200004d'        call      _gp_WritingWord
    10913                                                           ; Call Occurs
    10914 000012a4 18740002         subi      2,sp
    10915                           .line   70
    10916                   ;----------------------------------------------------------------------
    10917                   ; 1649 | nSelect_Button.nScreenSetNum = 0;                                      
    10918                   ;----------------------------------------------------------------------
    10919 000012a5 50600000         ldiu      0,r0
    10920 000012a6 15200205-        sti       r0,@_nSelect_Button+10
    10921                           .line   72
    10922                   ;----------------------------------------------------------------------
    10923                   ; 1651 | if(!Nvsram_IDC_UpLoad_CK(sDataBuf,FDD_FILE))                           
    10924                   ;----------------------------------------------------------------------
    10925 000012a7 50610003         ldiu      3,r1
    10926 000012a8 5000000b         ldiu      fp,r0
    10927 000012a9 0f210000         push      r1
    10928 000012aa 02600015         addi      21,r0
    10929 000012ab 0f200000         push      r0
    10930 000012ac 62000000!        call      _Nvsram_IDC_UpLoad_CK
    10931                                                           ; Call Occurs
    10932 000012ad 04e00000         cmpi      0,r0
    10933 000012ae 6a260013         bned      L463
    10934 000012af 18740002         subi      2,sp
    10935 000012b0 0c800000         nop
    10936 000012b1 53600001         ldine     1,r0
    10937                   ;*      Branch Occurs to L463 
    10938                           .line   74
    10939                   ;----------------------------------------------------------------------
    10940                   ; 1653 | gp_WritingStr(550,5,sClenBuf);                                         
    10941                   ;----------------------------------------------------------------------
    10942 000012b2 5000000b         ldiu      fp,r0
    10943 000012b3 50620005         ldiu      5,r2
    10944 000012b4 50610226         ldiu      550,r1
    10945 000012b5 02600001         addi      1,r0
    10946 000012b6 0f200000         push      r0
    10947 000012b7 0f220000         push      r2
    10948 000012b8 0f210000         push      r1
    10949 000012b9 620000ba'        call      _gp_WritingStr
    10950                                                           ; Call Occurs
    10951 000012ba 18740003         subi      3,sp
    10952                           .line   75
    10953                   ;----------------------------------------------------------------------
    10954                   ; 1654 | gp_WritingStr(555,5,(UCHAR*)"FILE CHECK");                             
    10955                   ; 1656 | else                                                                   
    10956                   ;----------------------------------------------------------------------
    10957 000012bb 5020023a-        ldiu      @CL50,r0
    10958 000012bc 50610005         ldiu      5,r1
    10959 000012bd 5062022b         ldiu      555,r2
    10960 000012be 0f200000         push      r0
    10961 000012bf 0f210000         push      r1
    10962 000012c0 0f220000         push      r2
TMS320C3x/4x COFF AssemblerVersion 5.11     Mon Apr 29 17:36:37 2013
Copyright (c) 1987-1999 Texas Instruments Incorporatedc:\lang\tms320c3x\511\bin\asm30.exe -l gpproface.asm gpproface.obj -tC:\Users\JDS\AppData\Local\Temp\gpproface.tmp 

gpproface.asm                                                        PAGE  204

    10963 000012c1 620000ba'        call      _gp_WritingStr
    10964                                                           ; Call Occurs
    10965 000012c2 18740003         subi      3,sp
    10966 000012c3 6a000033         bu        L474
    10967                   ;*      Branch Occurs to L474 
    10968                           .line   80
    10969                   ;----------------------------------------------------------------------
    10970                   ; 1659 | nLedDataLoad.nFDDSelt = TRUE;                                          
    10971                   ;----------------------------------------------------------------------
    10972 000012c4          L463:        
    10973 000012c4 15200001!        sti       r0,@_nLedDataLoad+1
    10974                           .line   81
    10975                   ;----------------------------------------------------------------------
    10976                   ; 1660 | nLedDataLoad.nSDDSelt = FALSE;                                         
    10977                   ;----------------------------------------------------------------------
    10978 000012c5 50600000         ldiu      0,r0
    10979 000012c6 15200000!        sti       r0,@_nLedDataLoad+0
    10980                           .line   83
    10981                   ;----------------------------------------------------------------------
    10982                   ; 1662 | gpSFDD_UPLOAD_SCREEN;                                                  
    10983                   ;----------------------------------------------------------------------
    10984 000012c7 5061000f         ldiu      15,r1
    10985 000012c8 50600089         ldiu      137,r0
    10986 000012c9 0f200000         push      r0
    10987 000012ca 0f210000         push      r1
    10988 000012cb 6200004d'        call      _gp_WritingWord
    10989                                                           ; Call Occurs
    10990 000012cc 18740002         subi      2,sp
    10991                           .line   84
    10992                   ;----------------------------------------------------------------------
    10993                   ; 1663 | nLedDataLoad.nSFKindCode = 0xF5;                                       
    10994                   ;----------------------------------------------------------------------
    10995 000012cd 506000f5         ldiu      245,r0
    10996 000012ce 15200002!        sti       r0,@_nLedDataLoad+2
    10997                           .line   85
    10998                   ;----------------------------------------------------------------------
    10999                   ; 1664 | if(WORD_L(sDataBuf[0]) == 0x34)                                        
    11000                   ;----------------------------------------------------------------------
    11001 000012cf 5008000b         ldiu      fp,ar0
    11002 000012d0 02680015         addi      21,ar0
    11003 000012d1 506000ff         ldiu      255,r0
    11004 000012d2 21a0c000         and3      r0,*ar0,r0
    11005 000012d3 04e00034         cmpi      52,r0
    11006 000012d4 6a26000a         bned      L466
    11007 000012d5 5320023e-        ldine     @CL54,r0
    11008 000012d6 53610008         ldine     8,r1
    11009 000012d7 5362023f         ldine     575,r2
    11010                   ;*      Branch Occurs to L466 
    11011                           .line   87
    11012                   ;----------------------------------------------------------------------
    11013                   ; 1666 | gp_WritingStr(575,8,(UCHAR*)"FDD CHECK -> OK");                        
    11014                   ; 1668 | else                                                                   
    11015                   ;----------------------------------------------------------------------
    11016 000012d8 5020023d-        ldiu      @CL53,r0
TMS320C3x/4x COFF AssemblerVersion 5.11     Mon Apr 29 17:36:37 2013
Copyright (c) 1987-1999 Texas Instruments Incorporatedc:\lang\tms320c3x\511\bin\asm30.exe -l gpproface.asm gpproface.obj -tC:\Users\JDS\AppData\Local\Temp\gpproface.tmp 

gpproface.asm                                                        PAGE  205

    11017 000012d9 50610008         ldiu      8,r1
    11018 000012da 5062023f         ldiu      575,r2
    11019 000012db 0f200000         push      r0
    11020 000012dc 0f210000         push      r1
    11021 000012dd 0f220000         push      r2
    11022 000012de 620000ba'        call      _gp_WritingStr
    11023                                                           ; Call Occurs
    11024 000012df 18740003         subi      3,sp
    11025 000012e0 6a000005         bu        L467
    11026                   ;*      Branch Occurs to L467 
    11027                           .line   91
    11028                   ;----------------------------------------------------------------------
    11029                   ; 1670 | gp_WritingStr(575,8,(UCHAR*)"FDD CHECK -> NG");                        
    11030                   ;----------------------------------------------------------------------
    11031 000012e1          L466:        
    11032 000012e1 0f200000         push      r0
    11033 000012e2 0f210000         push      r1
    11034 000012e3 0f220000         push      r2
    11035 000012e4 620000ba'        call      _gp_WritingStr
    11036                                                           ; Call Occurs
    11037 000012e5 18740003         subi      3,sp
    11038 000012e6          L467:        
    11039                           .line   94
    11040                   ;----------------------------------------------------------------------
    11041                   ; 1673 | GP_SFDD_SW_UPLOAD_CLEAN();                                             
    11042                   ;----------------------------------------------------------------------
    11043 000012e6 620012fb'        call      _GP_SFDD_SW_UPLOAD_CLEAN
    11044                                                           ; Call Occurs
    11045                           .line   98
    11046                   ;----------------------------------------------------------------------
    11047                   ; 1677 | break;                                                                 
    11048                   ;----------------------------------------------------------------------
    11049 000012e7 6a00000f         bu        L474
    11050                   ;*      Branch Occurs to L474 
    11051                           .line   8
    11052 000012e8          L469:        
    11053 000012e8 6a05ff37         beq       L447
    11054                   ;*      Branch Occurs to L447 
    11055 000012e9 04e0007a         cmpi      122,r0
    11056 000012ea 6a05ff4c         beq       L448
    11057                   ;*      Branch Occurs to L448 
    11058 000012eb 04e0007b         cmpi      123,r0
    11059 000012ec 6a05ff5c         beq       L449
    11060                   ;*      Branch Occurs to L449 
    11061 000012ed 04e0007c         cmpi      124,r0
    11062 000012ee 6a25ff69         beqd      L451
    11063 000012ef 0c800000         nop
    11064 000012f0 52e10001         ldieq     1,r1
    11065 000012f1 52e00039         ldieq     57,r0
    11066                   ;*      Branch Occurs to L451 
    11067 000012f2 04e0007d         cmpi      125,r0
    11068 000012f3 6a25ffab         beqd      L460
    11069 000012f4 0c800000         nop
    11070 000012f5 52e00001         ldieq     1,r0
TMS320C3x/4x COFF AssemblerVersion 5.11     Mon Apr 29 17:36:37 2013
Copyright (c) 1987-1999 Texas Instruments Incorporatedc:\lang\tms320c3x\511\bin\asm30.exe -l gpproface.asm gpproface.obj -tC:\Users\JDS\AppData\Local\Temp\gpproface.tmp 

gpproface.asm                                                        PAGE  206

    11071 000012f6 52e10039         ldieq     57,r1
    11072                   ;*      Branch Occurs to L460 
    11073 000012f7          L474:        
    11074                           .line   102
    11075 000012f7 50530b01         ldiu      *-fp(1),bk
    11076 000012f8 504bc300         ldiu      *fp,fp
    11077 000012f9 18740020         subi      32,sp
    11078 000012fa 68000013         bu        bk
    11079                   ;*      Branch Occurs to bk 
    11080                           .endfunc        1681,000000000h,30
    11081                   
    11082                   
    11083 000012fb                  .sect    ".text"
    11084                   
    11085                           .global _GP_SFDD_SW_UPLOAD_CLEAN
    11086                           .sym    _GP_SFDD_SW_UPLOAD_CLEAN,_GP_SFDD_SW_UPLOAD_CLEAN,32,2,0
    11087                           .func   1686
    11088                   ;******************************************************************************
    11089                   ;* FUNCTION NAME: _GP_SFDD_SW_UPLOAD_CLEAN                                    *
    11090                   ;*                                                                            *
    11091                   ;*   Architecture       : TMS320C30                                           *
    11092                   ;*   Calling Convention : Stack Parameter Convention                          *
    11093                   ;*   Function Uses Regs : r0,r1,r2,fp,sp                                      *
    11094                   ;*   Regs Saved         :                                                     *
    11095                   ;*   Stack Frame        : Full (w/ debug)                                     *
    11096                   ;*   Total Frame Size   : 2 Call + 0 Parm + 80 Auto + 0 SOE = 82 words        *
    11097                   ;******************************************************************************
    11098 000012fb          _GP_SFDD_SW_UPLOAD_CLEAN:
    11099                           .sym    _sSelf_Buf,1,60,1,1920,,60
    11100                           .sym    _sClenBuf,61,60,1,640,,20
    11101                           .line   1
    11102                   ;----------------------------------------------------------------------
    11103                   ; 1686 | void GP_SFDD_SW_UPLOAD_CLEAN()                                         
    11104                   ; 1688 | UCHAR sSelf_Buf[60];                                                   
    11105                   ; 1689 | UCHAR sClenBuf[20];                                                    
    11106                   ;----------------------------------------------------------------------
    11107 000012fb 0f2b0000         push      fp
    11108 000012fc 500b0014         ldiu      sp,fp
    11109 000012fd 02740050         addi      80,sp
    11110                           .line   6
    11111                   ;----------------------------------------------------------------------
    11112                   ; 1691 | memset(sSelf_Buf,0x01,60);                                             
    11113                   ;----------------------------------------------------------------------
    11114 000012fe 5062003c         ldiu      60,r2
    11115 000012ff 50610001         ldiu      1,r1
    11116 00001300 5000000b         ldiu      fp,r0
    11117 00001301 0f220000         push      r2
    11118 00001302 02600001         addi      1,r0
    11119 00001303 0f210000         push      r1
    11120 00001304 0f200000         push      r0
    11121 00001305 62000000!        call      _memset
    11122                                                           ; Call Occurs
    11123 00001306 18740003         subi      3,sp
    11124                           .line   8
TMS320C3x/4x COFF AssemblerVersion 5.11     Mon Apr 29 17:36:37 2013
Copyright (c) 1987-1999 Texas Instruments Incorporatedc:\lang\tms320c3x\511\bin\asm30.exe -l gpproface.asm gpproface.obj -tC:\Users\JDS\AppData\Local\Temp\gpproface.tmp 

gpproface.asm                                                        PAGE  207

    11125                   ;----------------------------------------------------------------------
    11126                   ; 1693 | memset(sClenBuf,0x20,20);                                              
    11127                   ;----------------------------------------------------------------------
    11128 00001307 50620014         ldiu      20,r2
    11129 00001308 50610020         ldiu      32,r1
    11130 00001309 5000000b         ldiu      fp,r0
    11131 0000130a 0f220000         push      r2
    11132 0000130b 0260003d         addi      61,r0
    11133 0000130c 0f210000         push      r1
    11134 0000130d 0f200000         push      r0
    11135 0000130e 62000000!        call      _memset
    11136                                                           ; Call Occurs
    11137 0000130f 18740003         subi      3,sp
    11138                           .line   10
    11139                   ;----------------------------------------------------------------------
    11140                   ; 1695 | SDR_Routine_Complete(sSelf_Buf,FALSE);// .                 
    11141                   ;----------------------------------------------------------------------
    11142 00001310 50610000         ldiu      0,r1
    11143 00001311 5000000b         ldiu      fp,r0
    11144 00001312 0f210000         push      r1
    11145 00001313 02600001         addi      1,r0
    11146 00001314 0f200000         push      r0
    11147 00001315 62000f05'        call      _SDR_Routine_Complete
    11148                                                           ; Call Occurs
    11149 00001316 18740002         subi      2,sp
    11150                           .line   12
    11151                   ;----------------------------------------------------------------------
    11152                   ; 1697 | gpLED_UPLOAD_BUTOFF;                                                   
    11153                   ;----------------------------------------------------------------------
    11154 00001317 50610000         ldiu      0,r1
    11155 00001318 0f210000         push      r1
    11156 00001319 506002bc         ldiu      700,r0
    11157 0000131a 0f200000         push      r0
    11158 0000131b 6200004d'        call      _gp_WritingWord
    11159                                                           ; Call Occurs
    11160 0000131c 18740002         subi      2,sp
    11161                           .line   13
    11162                   ;----------------------------------------------------------------------
    11163                   ; 1698 | gpLED_UPLOAD_DABUTOFF;                                                 
    11164                   ;----------------------------------------------------------------------
    11165 0000131d 50610000         ldiu      0,r1
    11166 0000131e 506002bd         ldiu      701,r0
    11167 0000131f 0f210000         push      r1
    11168 00001320 0f200000         push      r0
    11169 00001321 6200004d'        call      _gp_WritingWord
    11170                                                           ; Call Occurs
    11171 00001322 18740002         subi      2,sp
    11172                           .line   15
    11173                   ;----------------------------------------------------------------------
    11174                   ; 1700 | gpLED_UPLOAD_ERBUT_SF_OFF;                                             
    11175                   ;----------------------------------------------------------------------
    11176 00001323 50610000         ldiu      0,r1
    11177 00001324 506002c6         ldiu      710,r0
    11178 00001325 0f210000         push      r1
TMS320C3x/4x COFF AssemblerVersion 5.11     Mon Apr 29 17:36:37 2013
Copyright (c) 1987-1999 Texas Instruments Incorporatedc:\lang\tms320c3x\511\bin\asm30.exe -l gpproface.asm gpproface.obj -tC:\Users\JDS\AppData\Local\Temp\gpproface.tmp 

gpproface.asm                                                        PAGE  208

    11179 00001326 0f200000         push      r0
    11180 00001327 6200004d'        call      _gp_WritingWord
    11181                                                           ; Call Occurs
    11182 00001328 18740002         subi      2,sp
    11183                           .line   16
    11184                   ;----------------------------------------------------------------------
    11185                   ; 1701 | gpLED_UPLOAD_DABUT_SF_OFF;                                             
    11186                   ;----------------------------------------------------------------------
    11187 00001329 50610000         ldiu      0,r1
    11188 0000132a 0f210000         push      r1
    11189 0000132b 506002c7         ldiu      711,r0
    11190 0000132c 0f200000         push      r0
    11191 0000132d 6200004d'        call      _gp_WritingWord
    11192                                                           ; Call Occurs
    11193 0000132e 18740002         subi      2,sp
    11194                           .line   18
    11195                   ;----------------------------------------------------------------------
    11196                   ; 1703 | gp_WritingStr(585,10,sClenBuf);                                        
    11197                   ;----------------------------------------------------------------------
    11198 0000132f 5000000b         ldiu      fp,r0
    11199 00001330 0260003d         addi      61,r0
    11200 00001331 0f200000         push      r0
    11201 00001332 5061000a         ldiu      10,r1
    11202 00001333 50620249         ldiu      585,r2
    11203 00001334 0f210000         push      r1
    11204 00001335 0f220000         push      r2
    11205 00001336 620000ba'        call      _gp_WritingStr
    11206                                                           ; Call Occurs
    11207 00001337 18740003         subi      3,sp
    11208                           .line   19
    11209                   ;----------------------------------------------------------------------
    11210                   ; 1704 | gp_WritingStr(595,10,sClenBuf);                                        
    11211                   ;----------------------------------------------------------------------
    11212 00001338 5000000b         ldiu      fp,r0
    11213 00001339 0260003d         addi      61,r0
    11214 0000133a 5061000a         ldiu      10,r1
    11215 0000133b 0f200000         push      r0
    11216 0000133c 0f210000         push      r1
    11217 0000133d 50620253         ldiu      595,r2
    11218 0000133e 0f220000         push      r2
    11219 0000133f 620000ba'        call      _gp_WritingStr
    11220                                                           ; Call Occurs
    11221 00001340 18740003         subi      3,sp
    11222                           .line   20
    11223                   ;----------------------------------------------------------------------
    11224                   ; 1705 | gp_WritingStr(605,10,sClenBuf);                                        
    11225                   ;----------------------------------------------------------------------
    11226 00001341 5000000b         ldiu      fp,r0
    11227 00001342 0260003d         addi      61,r0
    11228 00001343 5061000a         ldiu      10,r1
    11229 00001344 0f200000         push      r0
    11230 00001345 0f210000         push      r1
    11231 00001346 5062025d         ldiu      605,r2
    11232 00001347 0f220000         push      r2
TMS320C3x/4x COFF AssemblerVersion 5.11     Mon Apr 29 17:36:37 2013
Copyright (c) 1987-1999 Texas Instruments Incorporatedc:\lang\tms320c3x\511\bin\asm30.exe -l gpproface.asm gpproface.obj -tC:\Users\JDS\AppData\Local\Temp\gpproface.tmp 

gpproface.asm                                                        PAGE  209

    11233 00001348 620000ba'        call      _gp_WritingStr
    11234                                                           ; Call Occurs
    11235 00001349 18740003         subi      3,sp
    11236                           .line   21
    11237                   ;----------------------------------------------------------------------
    11238                   ; 1706 | gp_WritingStr(615,10,sClenBuf);                                        
    11239                   ;----------------------------------------------------------------------
    11240 0000134a 5062000a         ldiu      10,r2
    11241 0000134b 5000000b         ldiu      fp,r0
    11242 0000134c 0260003d         addi      61,r0
    11243 0000134d 0f200000         push      r0
    11244 0000134e 50610267         ldiu      615,r1
    11245 0000134f 0f220000         push      r2
    11246 00001350 0f210000         push      r1
    11247 00001351 620000ba'        call      _gp_WritingStr
    11248                                                           ; Call Occurs
    11249 00001352 18740003         subi      3,sp
    11250                           .line   23
    11251                   ;----------------------------------------------------------------------
    11252                   ; 1708 | gp_WritingWord(300,0);                                                 
    11253                   ;----------------------------------------------------------------------
    11254 00001353 50600000         ldiu      0,r0
    11255 00001354 5061012c         ldiu      300,r1
    11256 00001355 0f200000         push      r0
    11257 00001356 0f210000         push      r1
    11258 00001357 6200004d'        call      _gp_WritingWord
    11259                                                           ; Call Occurs
    11260 00001358 18740002         subi      2,sp
    11261                           .line   24
    11262                   ;----------------------------------------------------------------------
    11263                   ; 1709 | gp_WritingStr(540,2,(UCHAR*)"000%");                                   
    11264                   ;----------------------------------------------------------------------
    11265 00001359 50200226-        ldiu      @CL30,r0
    11266 0000135a 50610002         ldiu      2,r1
    11267 0000135b 5062021c         ldiu      540,r2
    11268 0000135c 0f200000         push      r0
    11269 0000135d 0f210000         push      r1
    11270 0000135e 0f220000         push      r2
    11271 0000135f 620000ba'        call      _gp_WritingStr
    11272                                                           ; Call Occurs
    11273 00001360 18740003         subi      3,sp
    11274                           .line   26
    11275                   ;----------------------------------------------------------------------
    11276                   ; 1711 | gp_WritingWord(301,0);                                                 
    11277                   ;----------------------------------------------------------------------
    11278 00001361 50600000         ldiu      0,r0
    11279 00001362 5061012d         ldiu      301,r1
    11280 00001363 0f200000         push      r0
    11281 00001364 0f210000         push      r1
    11282 00001365 6200004d'        call      _gp_WritingWord
    11283                                                           ; Call Occurs
    11284 00001366 18740002         subi      2,sp
    11285                           .line   27
    11286                   ;----------------------------------------------------------------------
TMS320C3x/4x COFF AssemblerVersion 5.11     Mon Apr 29 17:36:37 2013
Copyright (c) 1987-1999 Texas Instruments Incorporatedc:\lang\tms320c3x\511\bin\asm30.exe -l gpproface.asm gpproface.obj -tC:\Users\JDS\AppData\Local\Temp\gpproface.tmp 

gpproface.asm                                                        PAGE  210

    11287                   ; 1712 | gp_WritingStr(545,2,(UCHAR*)"000%");                                   
    11288                   ;----------------------------------------------------------------------
    11289 00001367 50620002         ldiu      2,r2
    11290 00001368 50210226-        ldiu      @CL30,r1
    11291 00001369 0f210000         push      r1
    11292 0000136a 50600221         ldiu      545,r0
    11293 0000136b 0f220000         push      r2
    11294 0000136c 0f200000         push      r0
    11295 0000136d 620000ba'        call      _gp_WritingStr
    11296                                                           ; Call Occurs
    11297 0000136e 18740003         subi      3,sp
    11298                           .line   29
    11299 0000136f 50530b01         ldiu      *-fp(1),bk
    11300 00001370 504bc300         ldiu      *fp,fp
    11301 00001371 18740052         subi      82,sp
    11302 00001372 68000013         bu        bk
    11303                   ;*      Branch Occurs to bk 
    11304                           .endfunc        1714,000000000h,80
    11305                   
    11306                   
    11307                   
    11308                           .global _m_GPTxDataBuf
    11309 00000007                  .bss    _m_GPTxDataBuf,500
    11310                           .sym    _m_GPTxDataBuf,_m_GPTxDataBuf,60,2,16000,,500
    11311                   
    11312                           .global _nSelect_Button
    11313 000001fb                  .bss    _nSelect_Button,14
    11314                           .sym    _nSelect_Button,_nSelect_Button,8,2,448,.fake115
    11315                   ;******************************************************************************
    11316                   ;* STRINGS                                                                    *
    11317                   ;******************************************************************************
    11318 00000000                  .sect   ".const"
    11319 00000000 00000054 SL1:    .byte   "TMS -> PIC",0
          00000001 0000004d 
          00000002 00000053 
          00000003 00000020 
          00000004 0000002d 
          00000005 0000003e 
          00000006 00000020 
          00000007 00000050 
          00000008 00000049 
          00000009 00000043 
          0000000a 00000000 
    11320 0000000b 00000050 SL2:    .byte   "PIC -> TMS",0
          0000000c 00000049 
          0000000d 00000043 
          0000000e 00000020 
          0000000f 0000002d 
          00000010 0000003e 
          00000011 00000020 
          00000012 00000054 
          00000013 0000004d 
          00000014 00000053 
          00000015 00000000 
TMS320C3x/4x COFF AssemblerVersion 5.11     Mon Apr 29 17:36:37 2013
Copyright (c) 1987-1999 Texas Instruments Incorporatedc:\lang\tms320c3x\511\bin\asm30.exe -l gpproface.asm gpproface.obj -tC:\Users\JDS\AppData\Local\Temp\gpproface.tmp 

gpproface.asm                                                        PAGE  211

    11321 00000016 00000054 SL3:    .byte   "TMS <-> PIC",0
          00000017 0000004d 
          00000018 00000053 
          00000019 00000020 
          0000001a 0000003c 
          0000001b 0000002d 
          0000001c 0000003e 
          0000001d 00000020 
          0000001e 00000050 
          0000001f 00000049 
          00000020 00000043 
          00000021 00000000 
    11322 00000022 00000055 SL4:    .byte   "UpLoading!",0
          00000023 00000070 
          00000024 0000004c 
          00000025 0000006f 
          00000026 00000061 
          00000027 00000064 
          00000028 00000069 
          00000029 0000006e 
          0000002a 00000067 
          0000002b 00000021 
          0000002c 00000000 
    11323 0000002d 00000031 SL5:    .byte   "100%",0
          0000002e 00000030 
          0000002f 00000030 
          00000030 00000025 
          00000031 00000000 
    11324 00000032 0000004f SL6:    .byte   "OK_Finish!",0
          00000033 0000004b 
          00000034 0000005f 
          00000035 00000046 
          00000036 00000069 
          00000037 0000006e 
          00000038 00000069 
          00000039 00000073 
          0000003a 00000068 
          0000003b 00000021 
          0000003c 00000000 
    11325 0000003d 00000050 SL7:    .byte   "PIC -> PA",0
          0000003e 00000049 
          0000003f 00000043 
          00000040 00000020 
          00000041 0000002d 
          00000042 0000003e 
          00000043 00000020 
          00000044 00000050 
          00000045 00000041 
          00000046 00000000 
    11326 00000047 00000050 SL8:    .byte   "PA -> PIC",0
          00000048 00000041 
          00000049 00000020 
          0000004a 0000002d 
          0000004b 0000003e 
TMS320C3x/4x COFF AssemblerVersion 5.11     Mon Apr 29 17:36:37 2013
Copyright (c) 1987-1999 Texas Instruments Incorporatedc:\lang\tms320c3x\511\bin\asm30.exe -l gpproface.asm gpproface.obj -tC:\Users\JDS\AppData\Local\Temp\gpproface.tmp 

gpproface.asm                                                        PAGE  212

          0000004c 00000020 
          0000004d 00000050 
          0000004e 00000049 
          0000004f 00000043 
          00000050 00000000 
    11327 00000051 00000050 SL9:    .byte   "PIC <-> PA",0
          00000052 00000049 
          00000053 00000043 
          00000054 00000020 
          00000055 0000003c 
          00000056 0000002d 
          00000057 0000003e 
          00000058 00000020 
          00000059 00000050 
          0000005a 00000041 
          0000005b 00000000 
    11328 0000005c 00000055 SL10:   .byte   "UNIT FiND -> OK",0
          0000005d 0000004e 
          0000005e 00000049 
          0000005f 00000054 
          00000060 00000020 
          00000061 00000046 
          00000062 00000069 
          00000063 0000004e 
          00000064 00000044 
          00000065 00000020 
          00000066 0000002d 
          00000067 0000003e 
          00000068 00000020 
          00000069 0000004f 
          0000006a 0000004b 
          0000006b 00000000 
    11329 0000006c 00000055 SL11:   .byte   "UNIT FiND -> NG",0
          0000006d 0000004e 
          0000006e 00000049 
          0000006f 00000054 
          00000070 00000020 
          00000071 00000046 
          00000072 00000069 
          00000073 0000004e 
          00000074 00000044 
          00000075 00000020 
          00000076 0000002d 
          00000077 0000003e 
          00000078 00000020 
          00000079 0000004e 
          0000007a 00000047 
          0000007b 00000000 
    11330 0000007c 00000030 SL12:   .byte   "000%",0
          0000007d 00000030 
          0000007e 00000030 
          0000007f 00000025 
          00000080 00000000 
    11331 00000081 00000052 SL13:   .byte   "Repet Num -> ",0
TMS320C3x/4x COFF AssemblerVersion 5.11     Mon Apr 29 17:36:37 2013
Copyright (c) 1987-1999 Texas Instruments Incorporatedc:\lang\tms320c3x\511\bin\asm30.exe -l gpproface.asm gpproface.obj -tC:\Users\JDS\AppData\Local\Temp\gpproface.tmp 

gpproface.asm                                                        PAGE  213

          00000082 00000065 
          00000083 00000070 
          00000084 00000065 
          00000085 00000074 
          00000086 00000020 
          00000087 0000004e 
          00000088 00000075 
          00000089 0000006d 
          0000008a 00000020 
          0000008b 0000002d 
          0000008c 0000003e 
          0000008d 00000020 
          0000008e 00000000 
    11332 0000008f 00000045 SL14:   .byte   "ERASS     -> NG",0
          00000090 00000052 
          00000091 00000041 
          00000092 00000053 
          00000093 00000053 
          00000094 00000020 
          00000095 00000020 
          00000096 00000020 
          00000097 00000020 
          00000098 00000020 
          00000099 0000002d 
          0000009a 0000003e 
          0000009b 00000020 
          0000009c 0000004e 
          0000009d 00000047 
          0000009e 00000000 
    11333 0000009f 00000045 SL15:   .byte   "ERASS     -> OK",0
          000000a0 00000052 
          000000a1 00000041 
          000000a2 00000053 
          000000a3 00000053 
          000000a4 00000020 
          000000a5 00000020 
          000000a6 00000020 
          000000a7 00000020 
          000000a8 00000020 
          000000a9 0000002d 
          000000aa 0000003e 
          000000ab 00000020 
          000000ac 0000004f 
          000000ad 0000004b 
          000000ae 00000000 
    11334 000000af 00000044 SL16:   .byte   "DATA DOWN -> OK",0
          000000b0 00000041 
          000000b1 00000054 
          000000b2 00000041 
          000000b3 00000020 
          000000b4 00000044 
          000000b5 0000004f 
          000000b6 00000057 
          000000b7 0000004e 
TMS320C3x/4x COFF AssemblerVersion 5.11     Mon Apr 29 17:36:37 2013
Copyright (c) 1987-1999 Texas Instruments Incorporatedc:\lang\tms320c3x\511\bin\asm30.exe -l gpproface.asm gpproface.obj -tC:\Users\JDS\AppData\Local\Temp\gpproface.tmp 

gpproface.asm                                                        PAGE  214

          000000b8 00000020 
          000000b9 0000002d 
          000000ba 0000003e 
          000000bb 00000020 
          000000bc 0000004f 
          000000bd 0000004b 
          000000be 00000000 
    11335 000000bf 00000044 SL17:   .byte   "DATA SDR CHACK.",0
          000000c0 00000041 
          000000c1 00000054 
          000000c2 00000041 
          000000c3 00000020 
          000000c4 00000053 
          000000c5 00000044 
          000000c6 00000052 
          000000c7 00000020 
          000000c8 00000043 
          000000c9 00000048 
          000000ca 00000041 
          000000cb 00000043 
          000000cc 0000004b 
          000000cd 0000002e 
          000000ce 00000000 
    11336 000000cf 00000054 SL18:   .byte   "The Next Station ",0
          000000d0 00000068 
          000000d1 00000065 
          000000d2 00000020 
          000000d3 0000004e 
          000000d4 00000065 
          000000d5 00000078 
          000000d6 00000074 
          000000d7 00000020 
          000000d8 00000053 
          000000d9 00000074 
          000000da 00000061 
          000000db 00000074 
          000000dc 00000069 
          000000dd 0000006f 
          000000de 0000006e 
          000000df 00000020 
          000000e0 00000000 
    11337 000000e1 0000002a SL19:   .byte   "* TMS InterFace NG",0
          000000e2 00000020 
          000000e3 00000054 
          000000e4 0000004d 
          000000e5 00000053 
          000000e6 00000020 
          000000e7 00000049 
          000000e8 0000006e 
          000000e9 00000074 
          000000ea 00000065 
          000000eb 00000072 
          000000ec 00000046 
          000000ed 00000061 
TMS320C3x/4x COFF AssemblerVersion 5.11     Mon Apr 29 17:36:37 2013
Copyright (c) 1987-1999 Texas Instruments Incorporatedc:\lang\tms320c3x\511\bin\asm30.exe -l gpproface.asm gpproface.obj -tC:\Users\JDS\AppData\Local\Temp\gpproface.tmp 

gpproface.asm                                                        PAGE  215

          000000ee 00000063 
          000000ef 00000065 
          000000f0 00000020 
          000000f1 0000004e 
          000000f2 00000047 
          000000f3 00000000 
    11338 000000f4 00000020 SL20:   .byte   "                              ",0
          000000f5 00000020 
          000000f6 00000020 
          000000f7 00000020 
          000000f8 00000020 
          000000f9 00000020 
          000000fa 00000020 
          000000fb 00000020 
          000000fc 00000020 
          000000fd 00000020 
          000000fe 00000020 
          000000ff 00000020 
          00000100 00000020 
          00000101 00000020 
          00000102 00000020 
          00000103 00000020 
          00000104 00000020 
          00000105 00000020 
          00000106 00000020 
          00000107 00000020 
          00000108 00000020 
          00000109 00000020 
          0000010a 00000020 
          0000010b 00000020 
          0000010c 00000020 
          0000010d 00000020 
          0000010e 00000020 
          0000010f 00000020 
          00000110 00000020 
          00000111 00000020 
          00000112 00000000 
    11339 00000113 00000049 SL21:   .byte   "IDC60",0
          00000114 00000044 
          00000115 00000043 
          00000116 00000036 
          00000117 00000030 
          00000118 00000000 
    11340 00000119 0000002d SL22:   .byte   "->",0
          0000011a 0000003e 
          0000011b 00000000 
    11341 0000011c 0000004e SL23:   .byte   "New UpLoad",0
          0000011d 00000065 
          0000011e 00000077 
          0000011f 00000020 
          00000120 00000055 
          00000121 00000070 
          00000122 0000004c 
          00000123 0000006f 
TMS320C3x/4x COFF AssemblerVersion 5.11     Mon Apr 29 17:36:37 2013
Copyright (c) 1987-1999 Texas Instruments Incorporatedc:\lang\tms320c3x\511\bin\asm30.exe -l gpproface.asm gpproface.obj -tC:\Users\JDS\AppData\Local\Temp\gpproface.tmp 

gpproface.asm                                                        PAGE  216

          00000124 00000061 
          00000125 00000064 
          00000126 00000000 
    11342 00000127 000000b0 SL24:   .byte   176,176,192,186,185,246,192,252," ",0
          00000128 000000b0 
          00000129 000000c0 
          0000012a 000000ba 
          0000012b 000000b9 
          0000012c 000000f6 
          0000012d 000000c0 
          0000012e 000000fc 
          0000012f 00000020 
          00000130 00000000 
    11343 00000131 000000bf SL25:   .byte   191,190,179,175,185,246,192,252," ",0
          00000132 000000be 
          00000133 000000b3 
          00000134 000000af 
          00000135 000000b9 
          00000136 000000f6 
          00000137 000000c0 
          00000138 000000fc 
          00000139 00000020 
          0000013a 00000000 
    11344 0000013b 00000043 SL26:   .byte   "CARD CHECK",0
          0000013c 00000041 
          0000013d 00000052 
          0000013e 00000044 
          0000013f 00000020 
          00000140 00000043 
          00000141 00000048 
          00000142 00000045 
          00000143 00000043 
          00000144 0000004b 
          00000145 00000000 
    11345 00000146 00000046 SL27:   .byte   "FILE CHECK",0
          00000147 00000049 
          00000148 0000004c 
          00000149 00000045 
          0000014a 00000020 
          0000014b 00000043 
          0000014c 00000048 
          0000014d 00000045 
          0000014e 00000043 
          0000014f 0000004b 
          00000150 00000000 
    11346 00000151 00000053 SL28:   .byte   "SDD CHECK -> OK",0
          00000152 00000044 
          00000153 00000044 
          00000154 00000020 
          00000155 00000043 
          00000156 00000048 
          00000157 00000045 
          00000158 00000043 
          00000159 0000004b 
TMS320C3x/4x COFF AssemblerVersion 5.11     Mon Apr 29 17:36:37 2013
Copyright (c) 1987-1999 Texas Instruments Incorporatedc:\lang\tms320c3x\511\bin\asm30.exe -l gpproface.asm gpproface.obj -tC:\Users\JDS\AppData\Local\Temp\gpproface.tmp 

gpproface.asm                                                        PAGE  217

          0000015a 00000020 
          0000015b 0000002d 
          0000015c 0000003e 
          0000015d 00000020 
          0000015e 0000004f 
          0000015f 0000004b 
          00000160 00000000 
    11347 00000161 00000053 SL29:   .byte   "SDD CHECK -> NG",0
          00000162 00000044 
          00000163 00000044 
          00000164 00000020 
          00000165 00000043 
          00000166 00000048 
          00000167 00000045 
          00000168 00000043 
          00000169 0000004b 
          0000016a 00000020 
          0000016b 0000002d 
          0000016c 0000003e 
          0000016d 00000020 
          0000016e 0000004e 
          0000016f 00000047 
          00000170 00000000 
    11348 00000171 00000046 SL30:   .byte   "FDD CHECK -> OK",0
          00000172 00000044 
          00000173 00000044 
          00000174 00000020 
          00000175 00000043 
          00000176 00000048 
          00000177 00000045 
          00000178 00000043 
          00000179 0000004b 
          0000017a 00000020 
          0000017b 0000002d 
          0000017c 0000003e 
          0000017d 00000020 
          0000017e 0000004f 
          0000017f 0000004b 
          00000180 00000000 
    11349 00000181 00000046 SL31:   .byte   "FDD CHECK -> NG",0
          00000182 00000044 
          00000183 00000044 
          00000184 00000020 
          00000185 00000043 
          00000186 00000048 
          00000187 00000045 
          00000188 00000043 
          00000189 0000004b 
          0000018a 00000020 
          0000018b 0000002d 
          0000018c 0000003e 
          0000018d 00000020 
          0000018e 0000004e 
          0000018f 00000047 
TMS320C3x/4x COFF AssemblerVersion 5.11     Mon Apr 29 17:36:37 2013
Copyright (c) 1987-1999 Texas Instruments Incorporatedc:\lang\tms320c3x\511\bin\asm30.exe -l gpproface.asm gpproface.obj -tC:\Users\JDS\AppData\Local\Temp\gpproface.tmp 

gpproface.asm                                                        PAGE  218

          00000190 00000000 
    11350                   ;******************************************************************************
    11351                   ;* CONSTANT TABLE                                                             *
    11352                   ;******************************************************************************
    11353 00000191                  .sect   ".const"
    11354 00000209                  .bss    CL1,1
    11355 0000020a                  .bss    CL2,1
    11356 0000020b                  .bss    CL3,1
    11357 0000020c                  .bss    CL4,1
    11358 0000020d                  .bss    CL5,1
    11359 0000020e                  .bss    CL6,1
    11360 0000020f                  .bss    CL7,1
    11361 00000210                  .bss    CL8,1
    11362 00000211                  .bss    CL9,1
    11363 00000212                  .bss    CL10,1
    11364 00000213                  .bss    CL11,1
    11365 00000214                  .bss    CL12,1
    11366 00000215                  .bss    CL13,1
    11367 00000216                  .bss    CL14,1
    11368 00000217                  .bss    CL15,1
    11369 00000218                  .bss    CL16,1
    11370 00000219                  .bss    CL17,1
    11371 0000021a                  .bss    CL18,1
    11372 0000021b                  .bss    CL19,1
    11373 0000021c                  .bss    CL20,1
    11374 0000021d                  .bss    CL21,1
    11375 0000021e                  .bss    CL22,1
    11376 0000021f                  .bss    CL23,1
    11377 00000220                  .bss    CL24,1
    11378 00000221                  .bss    CL25,1
    11379 00000222                  .bss    CL26,1
    11380 00000223                  .bss    CL27,1
    11381 00000224                  .bss    CL28,1
    11382 00000225                  .bss    CL29,1
    11383 00000226                  .bss    CL30,1
    11384 00000227                  .bss    CL31,1
    11385 00000228                  .bss    CL32,1
    11386 00000229                  .bss    CL33,1
    11387 0000022a                  .bss    CL34,1
    11388 0000022b                  .bss    CL35,1
    11389 0000022c                  .bss    CL36,1
    11390 0000022d                  .bss    CL37,1
    11391 0000022e                  .bss    CL38,1
    11392 0000022f                  .bss    CL39,1
    11393 00000230                  .bss    CL40,1
    11394 00000231                  .bss    CL41,1
    11395 00000232                  .bss    CL42,1
    11396 00000233                  .bss    CL43,1
    11397 00000234                  .bss    CL44,1
    11398 00000235                  .bss    CL45,1
    11399 00000236                  .bss    CL46,1
    11400 00000237                  .bss    CL47,1
    11401 00000238                  .bss    CL48,1
    11402 00000239                  .bss    CL49,1
TMS320C3x/4x COFF AssemblerVersion 5.11     Mon Apr 29 17:36:37 2013
Copyright (c) 1987-1999 Texas Instruments Incorporatedc:\lang\tms320c3x\511\bin\asm30.exe -l gpproface.asm gpproface.obj -tC:\Users\JDS\AppData\Local\Temp\gpproface.tmp 

gpproface.asm                                                        PAGE  219

    11403 0000023a                  .bss    CL50,1
    11404 0000023b                  .bss    CL51,1
    11405 0000023c                  .bss    CL52,1
    11406 0000023d                  .bss    CL53,1
    11407 0000023e                  .bss    CL54,1
    11408                   
    11409 00000015                  .sect   ".cinit"
    11410 00000015 00000036         .field          54,32
    11411 00000016 00000209-        .field          CL1+0,32
    11412 00000017 00000007-        .field          _m_GPTxDataBuf,32
    11413 00000018 0000ea60         .field          60000,32
    11414 00000019 0000ffff         .field          65535,32
    11415 0000001a 000001cd!        .field          _nTr_St_Info+461,32
    11416 0000001b 00000135!        .field          _nTr_St_Info+309,32
    11417 0000001c 000001dc!        .field          _nTr_St_Info+476,32
    11418 0000001d 00000163!        .field          _nTr_St_Info+355,32
    11419 0000001e 000001eb!        .field          _nTr_St_Info+491,32
    11420 0000001f 00000191!        .field          _nTr_St_Info+401,32
    11421 00000020 00bffffd         .field          12582909,32
    11422 00000021 00bffffc         .field          12582908,32
    11423 00000022 00bffff9         .field          12582905,32
    11424 00000023 00bffff8         .field          12582904,32
    11425 00000024 00000000!        .field          _m_PA_SelfTest_Buf,32
    11426 00000025 0000001e!        .field          _nSelf_Test+30,32
    11427 00000026 0000002d!        .field          _nSelf_Test+45,32
    11428 00000027 00000000+        .field          SL1,32
    11429 00000028 0000000b+        .field          SL2,32
    11430 00000029 00000016+        .field          SL3,32
    11431 0000002a 00000022+        .field          SL4,32
    11432 0000002b 0000002d+        .field          SL5,32
    11433 0000002c 00000032+        .field          SL6,32
    11434 0000002d 0000003d+        .field          SL7,32
    11435 0000002e 00000047+        .field          SL8,32
    11436 0000002f 00000051+        .field          SL9,32
    11437 00000030 000001fd!        .field          _nTr_St_Info+509,32
    11438 00000031 0000005c+        .field          SL10,32
    11439 00000032 0000006c+        .field          SL11,32
    11440 00000033 0000ffff         .field          65535,32
    11441 00000034 0000007c+        .field          SL12,32
    11442 00000035 00000081+        .field          SL13,32
    11443 00000036 0000008f+        .field          SL14,32
    11444 00000037 0000009f+        .field          SL15,32
    11445 00000038 000000af+        .field          SL16,32
    11446 00000039 000000bf+        .field          SL17,32
    11447 0000003a 000007dd'        .field          SW0,32
    11448 0000003b 000000cf+        .field          SL18,32
    11449 0000003c ffffffff         .field          -1,32
    11450 0000003d 000000e1+        .field          SL19,32
    11451 0000003e 00000cb5'        .field          SW1,32
    11452 0000003f 000000f4+        .field          SL20,32
    11453 00000040 00000d7d'        .field          SW2,32
    11454 00000041 000001be!        .field          _nTr_St_Info+446,32
    11455 00000042 00000113+        .field          SL21,32
    11456 00000043 00000119+        .field          SL22,32
TMS320C3x/4x COFF AssemblerVersion 5.11     Mon Apr 29 17:36:37 2013
Copyright (c) 1987-1999 Texas Instruments Incorporatedc:\lang\tms320c3x\511\bin\asm30.exe -l gpproface.asm gpproface.obj -tC:\Users\JDS\AppData\Local\Temp\gpproface.tmp 

gpproface.asm                                                        PAGE  220

    11457 00000044 0000011c+        .field          SL23,32
    11458 00000045 00000127+        .field          SL24,32
    11459 00000046 00000131+        .field          SL25,32
    11460 00000047 0000013b+        .field          SL26,32
    11461 00000048 00000146+        .field          SL27,32
    11462 00000049 00000151+        .field          SL28,32
    11463 0000004a 00000161+        .field          SL29,32
    11464 0000004b 00000171+        .field          SL30,32
    11465 0000004c 00000181+        .field          SL31,32
    11466                   
    11467 00001373                  .sect   ".text"
    11468                   ;******************************************************************************
    11469                   ;* UNDEFINED EXTERNAL REFERENCES                                              *
    11470                   ;******************************************************************************
    11471                   
    11472                           .global _saf82532_Send
    11473                   
    11474                           .global _DP_GpDataChange
    11475                   
    11476                           .global _DP_STNAME_INFO_UP
    11477                   
    11478                           .global _DP_ALL_TEXT_CHECK
    11479                   
    11480                           .global _DP_ConvHex2Asc
    11481                   
    11482                           .global _Nvsram_IDC_UpLoad_CK
    11483                   
    11484                           .global _NVSRAM_Rd_StationName_Code
    11485                   
    11486                           .global _NVSRAM_Find_StationRoot
    11487                   
    11488                           .global _xr16l788_Init
    11489                   
    11490                           .global _m_FileSize
    11491                   
    11492                           .global _nDi_Check
    11493                   
    11494                           .global _Saf82532_Ach
    11495                   
    11496                           .global _nSccSendFlag
    11497                   
    11498                           .global _nTcmsIdcInfo
    11499                   
    11500                           .global _nLedDataLoad
    11501                   
    11502                           .global _Idc_Load
    11503                   
    11504                           .global _nSelf_Test
    11505                   
    11506                           .global _StationName
    11507                   
    11508                           .global _nTr_St_Info
    11509                   
    11510                           .global _SanDisk_Vari
TMS320C3x/4x COFF AssemblerVersion 5.11     Mon Apr 29 17:36:37 2013
Copyright (c) 1987-1999 Texas Instruments Incorporatedc:\lang\tms320c3x\511\bin\asm30.exe -l gpproface.asm gpproface.obj -tC:\Users\JDS\AppData\Local\Temp\gpproface.tmp 

gpproface.asm                                                        PAGE  221

    11511                   
    11512                           .global _nNvsram_Variable
    11513                   
    11514                           .global _nIndex_Flag
    11515                   
    11516                           .global _nTmsRxData
    11517                   
    11518                           .global _Xr16788_3Ch
    11519                   
    11520                           .global _Xr16788_1Ch
    11521                   
    11522                           .global _Saf82532_Bch
    11523                   
    11524                           .global _m_PA_SelfTest_Buf
    11525                           .global MOD_U30
    11526                           .global DIV_U30
    11527                           .global _memset
    11528                           .global MPY_K30

 No Errors,  No Warnings
