TMS320C3x/4x COFF AssemblerVersion 5.11     Mon Apr 29 17:36:37 2013
Copyright (c) 1987-1999 Texas Instruments Incorporatedc:\lang\tms320c3x\511\bin\asm30.exe -l saf82532.asm saf82532.obj -tC:\Users\JDS\AppData\Local\Temp\saf82532.tmp 

saf82532.asm                                                         PAGE    1

        1                   ;******************************************************************************
        2                   ;* TMS320C3x/4x ANSI C Code Generator                            Version 5.11 *
        3                   ;* Date/Time created: Mon Apr 29 17:36:36 2013                                *
        4                   ;******************************************************************************
        5                           .regalias       ; enable floating point register aliases
        6          0000000b fp      .set    ar3
        7          0000000b FP      .set    ar3
        8                   ;******************************************************************************
        9                   ;* GLOBAL FILE PARAMETERS                                                     *
       10                   ;*                                                                            *
       11                   ;*   Optimization       : Always Choose Smaller Code Size                     *
       12                   ;*   Memory             : Small Memory Model                                  *
       13                   ;*   Float-to-Int       : Normal Conversions (round toward zero)              *
       14                   ;*   Multiply           : in Hardware (24 bits max)                           *
       15                   ;*   Memory Info        : Unmapped Memory Exists                              *
       16                   ;*   Repeat Loops       : Use RPTS and/or RPTB                                *
       17                   ;*   Calls              : Normal Library ASM calls                            *
       18                   ;*   Debug Info         : Optimized TI Debug Information                      *
       19                   ;******************************************************************************
       20                   ;       c:\lang\tms320c3x\511\bin\ac30.exe saf82532.c C:\Users\JDS\AppData\Local\Temp\saf82532.if 
       21                           .file   "saf82532.c"
       22                           .file   "def.h"
       23                           .sym    _WORD,0,13,13,32
       24                           .sym    _USHORT,0,13,13,32
       25                           .sym    _BYTE,0,12,13,32
       26                           .sym    _UCHAR,0,12,13,32
       27                           .sym    _UINT,0,14,13,32
       28                           .sym    _BOOL,0,4,13,32
       29                           .sym    _DWORD,0,15,13,32
       30                           .file   "main.h"
       31                           .file   "saf82532.h"
       32                           .stag   .fake0,2048
       33                           .member _XFIFO,0,60,8,1024,,32
       34                           .member _STA_CMD,1024,12,8,32
       35                           .member _MODE,1088,12,8,32
       36                           .member _TIMR,1120,12,8,32
       37                           .member _XON,1152,12,8,32
       38                           .member _XOFF,1184,12,8,32
       39                           .member _TCR,1216,12,8,32
       40                           .member _DAFO,1248,12,8,32
       41                           .member _RFC,1280,12,8,32
       42                           .member _RBCL_XBCL,1344,12,8,32
       43                           .member _RBCH_XBCH,1376,12,8,32
       44                           .member _CCR0,1408,12,8,32
       45                           .member _CCR1,1440,12,8,32
       46                           .member _CCR2,1472,12,8,32
       47                           .member _CCR3,1504,12,8,32
       48                           .member _TSAX,1536,12,8,32
       49                           .member _TSAR,1568,12,8,32
       50                           .member _XCCR,1600,12,8,32
       51                           .member _RCCR,1632,12,8,32
       52                           .member _VSTR_BGR,1664,12,8,32
       53                           .member _TIC,1696,12,8,32
       54                           .member _MXN,1728,12,8,32
TMS320C3x/4x COFF AssemblerVersion 5.11     Mon Apr 29 17:36:37 2013
Copyright (c) 1987-1999 Texas Instruments Incorporatedc:\lang\tms320c3x\511\bin\asm30.exe -l saf82532.asm saf82532.obj -tC:\Users\JDS\AppData\Local\Temp\saf82532.tmp 

saf82532.asm                                                         PAGE    2

       55                           .member _MXF,1760,12,8,32
       56                           .member _GIS_IVA,1792,12,8,32
       57                           .member _IPC,1824,12,8,32
       58                           .member _ISR0_IMR0,1856,12,8,32
       59                           .member _ISR1_IMR1,1888,12,8,32
       60                           .member _PVR,1920,12,8,32
       61                           .member _PIS_PIM,1952,12,8,32
       62                           .member _PCR,1984,12,8,32
       63                           .member _CCR4,2016,12,8,32
       64                           .eos
       65                           .sym    _SAF82532ASYNCREG1CH,0,8,13,2048,.fake0
       66                           .sym    _PSAF82532ASYNCREG1CH,0,24,13,32,.fake0
       67                           .stag   .fake1,4096
       68                           .member _ACHREG,0,8,8,2048,.fake0
       69                           .member _BCHREG,2048,8,8,2048,.fake0
       70                           .eos
       71                           .sym    _SAF82532ASYNCREG,0,8,13,4096,.fake1
       72                           .sym    _PSAF82532ASYNCREG,0,24,13,32,.fake1
       73                           .stag   .fake2,416
       74                           .member _nRxOkFlag,0,4,8,32
       75                           .member _nRxRear,32,4,8,32
       76                           .member _nRxFront,64,4,8,32
       77                           .member _nRxPos,96,4,8,32
       78                           .member _nRxCnt,128,4,8,32
       79                           .member _nRxBuffer,160,28,8,32
       80                           .member _nGetRxBuf,192,28,8,32
       81                           .member _nRxBackUp,224,28,8,32
       82                           .member _nIs485,256,4,8,32
       83                           .member _nUsPer1Byte,288,4,8,32
       84                           .member _nTxDisable1msCnt,320,4,8,32
       85                           .member _nTxLedOnDly,352,4,8,32
       86                           .member _nTxCnt,384,4,8,32
       87                           .eos
       88                           .sym    _SAF82532_SCC,0,8,13,416,.fake2
       89                           .file   "string.h"
       90                           .sym    _size_t,0,14,13,32
       91                           .file   "saf82532.c"
       92 00000000                  .sect    ".text"
       93                   
       94                           .global _saf82532_AsyncInit
       95                           .sym    _saf82532_AsyncInit,_saf82532_AsyncInit,32,2,0
       96                           .func   24
       97                   ;******************************************************************************
       98                   ;* FUNCTION NAME: _saf82532_AsyncInit                                         *
       99                   ;*                                                                            *
      100                   ;*   Architecture       : TMS320C30                                           *
      101                   ;*   Calling Convention : Stack Parameter Convention                          *
      102                   ;*   Function Uses Regs : f0,r0,f1,r1,f2,r2,ar0,fp,sp,st                      *
      103                   ;*   Regs Saved         :                                                     *
      104                   ;*   Stack Frame        : Full (w/ debug)                                     *
      105                   ;*   Total Frame Size   : 2 Call + 6 Parm + 3 Auto + 0 SOE = 11 words         *
      106                   ;******************************************************************************
      107 00000000          _saf82532_AsyncInit:
      108                           .sym    _nChl,-2,4,9,32
TMS320C3x/4x COFF AssemblerVersion 5.11     Mon Apr 29 17:36:37 2013
Copyright (c) 1987-1999 Texas Instruments Incorporatedc:\lang\tms320c3x\511\bin\asm30.exe -l saf82532.asm saf82532.obj -tC:\Users\JDS\AppData\Local\Temp\saf82532.tmp 

saf82532.asm                                                         PAGE    3

      109                           .sym    _nBps,-3,4,9,32
      110                           .sym    _nDataBit,-4,4,9,32
      111                           .sym    _nParity,-5,4,9,32
      112                           .sym    _nStopBit,-6,4,9,32
      113                           .sym    _bIs485Chl,-7,4,9,32
      114                           .sym    _i,1,4,1,32
      115                           .sym    _btTemp,2,12,1,32
      116                           .sym    _pShReg,3,24,1,32,.fake0
      117                           .line   1
      118                   ;----------------------------------------------------------------------
      119                   ;  24 | void saf82532_AsyncInit(int nChl,int nBps,int nDataBit,int nParity,int
      120                   ;     | nStopBit,BOOL bIs485Chl)                                               
      121                   ;----------------------------------------------------------------------
      122 00000000 0f2b0000         push      fp
      123 00000001 500b0014         ldiu      sp,fp
      124 00000002 02740003         addi      3,sp
      125                           .line   2
      126                   ;----------------------------------------------------------------------
      127                   ;  26 | int i;                                                                 
      128                   ;  27 | UCHAR btTemp;                                                          
      129                   ;----------------------------------------------------------------------
      130                           .line   5
      131                   ;----------------------------------------------------------------------
      132                   ;  28 | PSAF82532ASYNCREG1CH pShReg = (SAF82532ASYNCREG1CH *)(SAB82532_BASE+nCh
      133                   ;     | l);                                                                    
      134                   ;----------------------------------------------------------------------
      135 00000003 502000b0-        ldiu      @CL1,r0
      136 00000004 02400b02         addi      *-fp(2),r0            ; Unsigned
      137 00000005 15400303         sti       r0,*+fp(3)
      138                           .line   7
      139                   ;----------------------------------------------------------------------
      140                   ;  30 | pShReg->IPC = 0x01;                                                    
      141                   ;----------------------------------------------------------------------
      142 00000006 50080000         ldiu      r0,ar0
      143 00000007 50600001         ldiu      1,r0
      144 00000008 15400039         sti       r0,*+ar0(57)
      145                           .line   9
      146                   ;----------------------------------------------------------------------
      147                   ;  32 | pShReg->MODE = SAF82532_ASYNC_MODE_RCVA;                               
      148                   ;----------------------------------------------------------------------
      149 00000009 50480303         ldiu      *+fp(3),ar0
      150 0000000a 50600008         ldiu      8,r0
      151 0000000b 15400022         sti       r0,*+ar0(34)
      152                           .line   11
      153                   ;----------------------------------------------------------------------
      154                   ;  34 | pShReg->CCR0 = SAF82532_ASYNC_CCR0_PWUP | SAF82532_ASYNC_CCR0_MCE | SAF
      155                   ;     | 82532_ASYNC_CCR0_NRZ | SAF82532_ASYNC_CCR0_ASYNC;                      
      156                   ;----------------------------------------------------------------------
      157 0000000c 50480303         ldiu      *+fp(3),ar0
      158 0000000d 506000c3         ldiu      195,r0
      159 0000000e 1540002c         sti       r0,*+ar0(44)
      160                           .line   12
      161                   ;----------------------------------------------------------------------
      162                   ;  35 | pShReg->CCR1 = SAF82532_ASYNC_CCR1_ODS | SAF82532_ASYNC_CCR1_CM7 | SAF8
TMS320C3x/4x COFF AssemblerVersion 5.11     Mon Apr 29 17:36:37 2013
Copyright (c) 1987-1999 Texas Instruments Incorporatedc:\lang\tms320c3x\511\bin\asm30.exe -l saf82532.asm saf82532.obj -tC:\Users\JDS\AppData\Local\Temp\saf82532.tmp 

saf82532.asm                                                         PAGE    4

      163                   ;     | 2532_ASYNC_CCR1_BCR; // RX,TX:BRG                                      
      164                   ;----------------------------------------------------------------------
      165 0000000f 50480303         ldiu      *+fp(3),ar0
      166 00000010 5060001f         ldiu      31,r0
      167 00000011 1540002d         sti       r0,*+ar0(45)
      168                           .line   13
      169                   ;----------------------------------------------------------------------
      170                   ;  36 | pShReg->CCR2 = SAF82532_ASYNC_CCR2_BDF | SAF82532_ASYNC_CCR2_SSEL;     
      171                   ;----------------------------------------------------------------------
      172 00000012 50480303         ldiu      *+fp(3),ar0
      173 00000013 50600030         ldiu      48,r0
      174 00000014 1540002e         sti       r0,*+ar0(46)
      175                           .line   15
      176                   ;----------------------------------------------------------------------
      177                   ;  38 | pShReg->RFC = 0x10;                                                    
      178                   ;  40 | // BuadRate                                                            
      179                   ;----------------------------------------------------------------------
      180 00000015 50480303         ldiu      *+fp(3),ar0
      181 00000016 50600010         ldiu      16,r0
      182 00000017 15400028         sti       r0,*+ar0(40)
      183                           .line   18
      184                   ;----------------------------------------------------------------------
      185                   ;  41 | i = (SAF82532_INTOSCCLK_HZ/32/nBps) - 1;                               
      186                   ;----------------------------------------------------------------------
      187 00000018 50410b03         ldiu      *-fp(3),r1
      188 00000019 502000b1-        ldiu      @CL2,r0
      189 0000001a 62000000!        call      DIV_I30
      190                                                           ; Call Occurs
      191 0000001b 18600001         subi      1,r0
      192 0000001c 15400301         sti       r0,*+fp(1)
      193                           .line   19
      194                   ;----------------------------------------------------------------------
      195                   ;  42 | pShReg->CCR2 |= WORD_H(i)<<6;                                          
      196                   ;----------------------------------------------------------------------
      197 0000001d 50480303         ldiu      *+fp(3),ar0
      198 0000001e 03e0fff8         ash       -8,r0
      199 0000001f 02e000ff         and       255,r0
      200 00000020 03e00006         ash       6,r0
      201 00000021 1040002e         or        *+ar0(46),r0
      202 00000022 1540002e         sti       r0,*+ar0(46)
      203                           .line   20
      204                   ;----------------------------------------------------------------------
      205                   ;  43 | pShReg->VSTR_BGR = WORD_L(i);                                          
      206                   ;  45 | // Control Bit                                                         
      207                   ;----------------------------------------------------------------------
      208 00000023 506000ff         ldiu      255,r0
      209 00000024 50480303         ldiu      *+fp(3),ar0
      210 00000025 02c00301         and       *+fp(1),r0
      211 00000026 15400034         sti       r0,*+ar0(52)
      212                           .line   23
      213                   ;----------------------------------------------------------------------
      214                   ;  46 | pShReg->DAFO = (nStopBit<<5) | (nParity<<3) | (nParity?0x04:0x00) | nDa
      215                   ;     | taBit;                                                                 
      216                   ;  48 | // Port                                                                
TMS320C3x/4x COFF AssemblerVersion 5.11     Mon Apr 29 17:36:37 2013
Copyright (c) 1987-1999 Texas Instruments Incorporatedc:\lang\tms320c3x\511\bin\asm30.exe -l saf82532.asm saf82532.obj -tC:\Users\JDS\AppData\Local\Temp\saf82532.tmp 

saf82532.asm                                                         PAGE    5

      217                   ;----------------------------------------------------------------------
      218 00000027 50410b06         ldiu      *-fp(6),r1
      219 00000028 03e10005         ash       5,r1
      220 00000029 50400b05         ldiu      *-fp(5),r0
      221 0000002a 50020000         ldiu      r0,r2
      222 0000002b 03e00003         ash       3,r0
      223 0000002c 25810001         or3       r1,r0,r1
      224 0000002d 04e20000         cmpi      0,r2
      225 0000002e 6a050004         beq       L3
      226                   ;*      Branch Occurs to L3 
      227 0000002f 6a200002         bud       L4
      228 00000030 0c800000         nop
      229 00000031 0c800000         nop
      230 00000032 50600004         ldiu      4,r0
      231                   ;*      Branch Occurs to L4 
      232 00000033          L3:        
      233 00000033 50600000         ldiu      0,r0
      234 00000034          L4:        
      235 00000034 25800001         or3       r1,r0,r0
      236 00000035 50480303         ldiu      *+fp(3),ar0
      237 00000036 10400b04         or        *-fp(4),r0
      238 00000037 15400027         sti       r0,*+ar0(39)
      239                           .line   26
      240                   ;----------------------------------------------------------------------
      241                   ;  49 | pShReg->PCR = 0xFA; // Port Input : 0->OUT, 1->IN                      
      242                   ;----------------------------------------------------------------------
      243 00000038 50480303         ldiu      *+fp(3),ar0
      244 00000039 506000fa         ldiu      250,r0
      245 0000003a 1540003e         sti       r0,*+ar0(62)
      246                           .line   27
      247                   ;----------------------------------------------------------------------
      248                   ;  50 | pShReg->PVR = 0x00; // Port Value                                      
      249                   ;  52 | //pShReg->PVR = 0xFA; // Port Value  NEW BOARD                         
      250                   ;  53 | //pShReg->PCR = 0x50; // Port Input : 0->OUT, 1->IN  NEW BOARD         
      251                   ;----------------------------------------------------------------------
      252 0000003b 50480303         ldiu      *+fp(3),ar0
      253 0000003c 50600000         ldiu      0,r0
      254 0000003d 1540003c         sti       r0,*+ar0(60)
      255                           .line   32
      256                   ;----------------------------------------------------------------------
      257                   ;  55 | pShReg->ISR0_IMR0 = ~(SAF82532_ASYNC_IMR0_RPF);                        
      258                   ;  56 | //pShReg->ISR1_IMR1 = ~(SAF82532_ASYNC_IMR1_XPR);                      
      259                   ;----------------------------------------------------------------------
      260 0000003e 50480303         ldiu      *+fp(3),ar0
      261 0000003f 502000b2-        ldiu      @CL3,r0
      262 00000040 1540003a         sti       r0,*+ar0(58)
      263                           .line   34
      264                   ;----------------------------------------------------------------------
      265                   ;  57 | pShReg->ISR1_IMR1 = 0xFF;                                              
      266                   ;----------------------------------------------------------------------
      267 00000041 50480303         ldiu      *+fp(3),ar0
      268 00000042 506000ff         ldiu      255,r0
      269 00000043 1540003b         sti       r0,*+ar0(59)
      270                           .line   36
TMS320C3x/4x COFF AssemblerVersion 5.11     Mon Apr 29 17:36:37 2013
Copyright (c) 1987-1999 Texas Instruments Incorporatedc:\lang\tms320c3x\511\bin\asm30.exe -l saf82532.asm saf82532.obj -tC:\Users\JDS\AppData\Local\Temp\saf82532.tmp 

saf82532.asm                                                         PAGE    6

      271                   ;----------------------------------------------------------------------
      272                   ;  59 | pShReg->STA_CMD = SAF82532_ASYNC_CMD_RRES | SAF82532_ASYNC_CMD_XRES;   
      273                   ;----------------------------------------------------------------------
      274 00000044 50480303         ldiu      *+fp(3),ar0
      275 00000045 50600041         ldiu      65,r0
      276 00000046 15400020         sti       r0,*+ar0(32)
      277                           .line   38
      278                   ;----------------------------------------------------------------------
      279                   ;  61 | btTemp = pShReg->ISR0_IMR0;                                            
      280                   ;----------------------------------------------------------------------
      281 00000047 50480303         ldiu      *+fp(3),ar0
      282 00000048 5040003a         ldiu      *+ar0(58),r0
      283 00000049 15400302         sti       r0,*+fp(2)
      284                           .line   39
      285                   ;----------------------------------------------------------------------
      286                   ;  62 | btTemp = pShReg->ISR1_IMR1;                                            
      287                   ;  65 | switch(nChl)                                                           
      288                   ;  67 | case SAB82532_ACH:                                                     
      289                   ;----------------------------------------------------------------------
      290 0000004a 6a200071         bud       L8
      291 0000004b 5040003b         ldiu      *+ar0(59),r0
      292 0000004c 15400302         sti       r0,*+fp(2)
      293 0000004d 0c800000         nop
      294                   ;*      Branch Occurs to L8 
      295 0000004e          L5:        
      296                           .line   46
      297                   ;----------------------------------------------------------------------
      298                   ;  69 | Saf82532_Ach.nIs485 = bIs485Chl;                                       
      299                   ;----------------------------------------------------------------------
      300 0000004e 50400b07         ldiu      *-fp(7),r0
      301 0000004f 15200021-        sti       r0,@_Saf82532_Ach+8
      302                           .line   47
      303                   ;----------------------------------------------------------------------
      304                   ;  70 | Saf82532_Ach.nUsPer1Byte = (int)(((1.0/(float)nBps))*1000.*1000.*10.0);
      305                   ;----------------------------------------------------------------------
      306 00000050 05c10b03         float     *-fp(3),f1
      307 00000051 40600000         ldfu      1.0000000000e+00,f0
      308 00000052 62000000!        call      DIV_F30
      309                                                           ; Call Occurs
      310 00000053 0a2000b3-        mpyf      @CL4,f0
      311 00000054 0a2000b3-        mpyf      @CL4,f0
      312 00000055 0a603200         mpyf      1.0000000000e+01,f0
      313 00000056 0b820000         negf      f0,f2
      314 00000057 05010000         fix       f0,r1
      315 00000058 05000002         fix       f2,r0
      316 00000059 0c000000         negi      r0,r0
      317 0000005a 54010000         ldile     r0,r1
      318 0000005b 15210022-        sti       r1,@_Saf82532_Ach+9
      319                           .line   48
      320                   ;----------------------------------------------------------------------
      321                   ;  71 | Saf82532_Ach.nGetRxBuf = m_btSaf82532RxAchGetBuf;                      
      322                   ;----------------------------------------------------------------------
      323 0000005c 502000b4-        ldiu      @CL5,r0
      324 0000005d 1520001f-        sti       r0,@_Saf82532_Ach+6
TMS320C3x/4x COFF AssemblerVersion 5.11     Mon Apr 29 17:36:37 2013
Copyright (c) 1987-1999 Texas Instruments Incorporatedc:\lang\tms320c3x\511\bin\asm30.exe -l saf82532.asm saf82532.obj -tC:\Users\JDS\AppData\Local\Temp\saf82532.tmp 

saf82532.asm                                                         PAGE    7

      325                           .line   49
      326                   ;----------------------------------------------------------------------
      327                   ;  72 | Saf82532_Ach.nRxBackUp = m_btSaf82532RxAchBackUp;                      
      328                   ;----------------------------------------------------------------------
      329 0000005e 502000b5-        ldiu      @CL6,r0
      330 0000005f 15200020-        sti       r0,@_Saf82532_Ach+7
      331                           .line   50
      332                   ;----------------------------------------------------------------------
      333                   ;  73 | Saf82532_Ach.nRxBuffer = m_btSaf82532RxAchBuffer;                      
      334                   ;----------------------------------------------------------------------
      335 00000060 502000b6-        ldiu      @CL7,r0
      336 00000061 1520001e-        sti       r0,@_Saf82532_Ach+5
      337                           .line   51
      338                   ;----------------------------------------------------------------------
      339                   ;  74 | Saf82532_Ach.nRxFront = 0;                                             
      340                   ;----------------------------------------------------------------------
      341 00000062 50600000         ldiu      0,r0
      342 00000063 1520001b-        sti       r0,@_Saf82532_Ach+2
      343                           .line   52
      344                   ;----------------------------------------------------------------------
      345                   ;  75 | Saf82532_Ach.nRxOkFlag = 0;                                            
      346                   ;----------------------------------------------------------------------
      347 00000064 15200019-        sti       r0,@_Saf82532_Ach+0
      348                           .line   53
      349                   ;----------------------------------------------------------------------
      350                   ;  76 | Saf82532_Ach.nRxPos = 0;                                               
      351                   ;----------------------------------------------------------------------
      352 00000065 1520001c-        sti       r0,@_Saf82532_Ach+3
      353                           .line   54
      354                   ;----------------------------------------------------------------------
      355                   ;  77 | Saf82532_Ach.nRxCnt = 0;                                               
      356                   ;----------------------------------------------------------------------
      357 00000066 1520001d-        sti       r0,@_Saf82532_Ach+4
      358                           .line   55
      359                   ;----------------------------------------------------------------------
      360                   ;  78 | Saf82532_Ach.nRxRear = 1;                                              
      361                   ;----------------------------------------------------------------------
      362 00000067 50600001         ldiu      1,r0
      363 00000068 1520001a-        sti       r0,@_Saf82532_Ach+1
      364                           .line   56
      365                   ;----------------------------------------------------------------------
      366                   ;  79 | Saf82532_Ach.nTxDisable1msCnt = 0;                                     
      367                   ;----------------------------------------------------------------------
      368 00000069 50600000         ldiu      0,r0
      369 0000006a 15200023-        sti       r0,@_Saf82532_Ach+10
      370                           .line   57
      371                   ;----------------------------------------------------------------------
      372                   ;  80 | Saf82532_Ach.nTxLedOnDly = 0;                                          
      373                   ;----------------------------------------------------------------------
      374 0000006b 15200024-        sti       r0,@_Saf82532_Ach+11
      375                           .line   58
      376                   ;----------------------------------------------------------------------
      377                   ;  81 | Saf82532_Ach.nTxCnt = 0;                                               
      378                   ;----------------------------------------------------------------------
TMS320C3x/4x COFF AssemblerVersion 5.11     Mon Apr 29 17:36:37 2013
Copyright (c) 1987-1999 Texas Instruments Incorporatedc:\lang\tms320c3x\511\bin\asm30.exe -l saf82532.asm saf82532.obj -tC:\Users\JDS\AppData\Local\Temp\saf82532.tmp 

saf82532.asm                                                         PAGE    8

      379 0000006c 15200025-        sti       r0,@_Saf82532_Ach+12
      380                           .line   60
      381                   ;----------------------------------------------------------------------
      382                   ;  83 | memset(Saf82532_Ach.nRxBackUp,0x00,sizeof(m_btSaf82532RxAchBackUp));   
      383                   ;----------------------------------------------------------------------
      384 0000006d 50600019         ldiu      25,r0
      385 0000006e 0f200000         push      r0
      386 0000006f 50610000         ldiu      0,r1
      387 00000070 0f210000         push      r1
      388 00000071 50200020-        ldiu      @_Saf82532_Ach+7,r0
      389 00000072 0f200000         push      r0
      390 00000073 62000000!        call      _memset
      391                                                           ; Call Occurs
      392 00000074 18740003         subi      3,sp
      393                           .line   61
      394                   ;----------------------------------------------------------------------
      395                   ;  84 | memset(Saf82532_Ach.nRxBuffer,0x00,sizeof(m_btSaf82532RxAchBuffer));   
      396                   ;----------------------------------------------------------------------
      397 00000075 50610019         ldiu      25,r1
      398 00000076 50600000         ldiu      0,r0
      399 00000077 0f210000         push      r1
      400 00000078 0f200000         push      r0
      401 00000079 5020001e-        ldiu      @_Saf82532_Ach+5,r0
      402 0000007a 0f200000         push      r0
      403 0000007b 62000000!        call      _memset
      404                                                           ; Call Occurs
      405 0000007c 18740003         subi      3,sp
      406                           .line   62
      407                   ;----------------------------------------------------------------------
      408                   ;  85 | memset(Saf82532_Ach.nGetRxBuf,0x00,sizeof(m_btSaf82532RxAchGetBuf));   
      409                   ;----------------------------------------------------------------------
      410 0000007d 50610019         ldiu      25,r1
      411 0000007e 0f210000         push      r1
      412 0000007f 50600000         ldiu      0,r0
      413 00000080 0f200000         push      r0
      414 00000081 5020001f-        ldiu      @_Saf82532_Ach+6,r0
      415 00000082 0f200000         push      r0
      416 00000083 62000000!        call      _memset
      417                                                           ; Call Occurs
      418 00000084 18740003         subi      3,sp
      419                           .line   64
      420                   ;----------------------------------------------------------------------
      421                   ;  87 | break;                                                                 
      422                   ;  88 | case SAB82532_BCH:                                                     
      423                   ;----------------------------------------------------------------------
      424 00000085 6a00003c         bu        L10
      425                   ;*      Branch Occurs to L10 
      426 00000086          L6:        
      427                           .line   67
      428                   ;----------------------------------------------------------------------
      429                   ;  90 | Saf82532_Bch.nIs485 = bIs485Chl;                                       
      430                   ;----------------------------------------------------------------------
      431 00000086 50400b07         ldiu      *-fp(7),r0
      432 00000087 15200060-        sti       r0,@_Saf82532_Bch+8
TMS320C3x/4x COFF AssemblerVersion 5.11     Mon Apr 29 17:36:37 2013
Copyright (c) 1987-1999 Texas Instruments Incorporatedc:\lang\tms320c3x\511\bin\asm30.exe -l saf82532.asm saf82532.obj -tC:\Users\JDS\AppData\Local\Temp\saf82532.tmp 

saf82532.asm                                                         PAGE    9

      433                           .line   68
      434                   ;----------------------------------------------------------------------
      435                   ;  91 | Saf82532_Bch.nUsPer1Byte = (int)(((1.0/(float)nBps))*1000.*1000.*10.0);
      436                   ;----------------------------------------------------------------------
      437 00000088 05c10b03         float     *-fp(3),f1
      438 00000089 40600000         ldfu      1.0000000000e+00,f0
      439 0000008a 62000000!        call      DIV_F30
      440                                                           ; Call Occurs
      441 0000008b 0a2000b3-        mpyf      @CL4,f0
      442 0000008c 0a2000b3-        mpyf      @CL4,f0
      443 0000008d 0a603200         mpyf      1.0000000000e+01,f0
      444 0000008e 0b820000         negf      f0,f2
      445 0000008f 05010000         fix       f0,r1
      446 00000090 05000002         fix       f2,r0
      447 00000091 0c000000         negi      r0,r0
      448 00000092 54010000         ldile     r0,r1
      449 00000093 15210061-        sti       r1,@_Saf82532_Bch+9
      450                           .line   69
      451                   ;----------------------------------------------------------------------
      452                   ;  92 | Saf82532_Bch.nGetRxBuf = m_btSaf82532RxBchGetBuf;                      
      453                   ;----------------------------------------------------------------------
      454 00000094 502000b7-        ldiu      @CL8,r0
      455 00000095 1520005e-        sti       r0,@_Saf82532_Bch+6
      456                           .line   70
      457                   ;----------------------------------------------------------------------
      458                   ;  93 | Saf82532_Bch.nRxBackUp = m_btSaf82532RxBchBackUp;                      
      459                   ;----------------------------------------------------------------------
      460 00000096 502000b8-        ldiu      @CL9,r0
      461 00000097 1520005f-        sti       r0,@_Saf82532_Bch+7
      462                           .line   71
      463                   ;----------------------------------------------------------------------
      464                   ;  94 | Saf82532_Bch.nRxBuffer = m_btSaf82532RxBchBuffer;                      
      465                   ;----------------------------------------------------------------------
      466 00000098 502000b9-        ldiu      @CL10,r0
      467 00000099 1520005d-        sti       r0,@_Saf82532_Bch+5
      468                           .line   72
      469                   ;----------------------------------------------------------------------
      470                   ;  95 | Saf82532_Bch.nRxFront = 0;                                             
      471                   ;----------------------------------------------------------------------
      472 0000009a 50600000         ldiu      0,r0
      473 0000009b 1520005a-        sti       r0,@_Saf82532_Bch+2
      474                           .line   73
      475                   ;----------------------------------------------------------------------
      476                   ;  96 | Saf82532_Bch.nRxOkFlag = 0;                                            
      477                   ;----------------------------------------------------------------------
      478 0000009c 15200058-        sti       r0,@_Saf82532_Bch+0
      479                           .line   74
      480                   ;----------------------------------------------------------------------
      481                   ;  97 | Saf82532_Bch.nRxPos = 0;                                               
      482                   ;----------------------------------------------------------------------
      483 0000009d 1520005b-        sti       r0,@_Saf82532_Bch+3
      484                           .line   75
      485                   ;----------------------------------------------------------------------
      486                   ;  98 | Saf82532_Bch.nRxCnt = 0;                                               
TMS320C3x/4x COFF AssemblerVersion 5.11     Mon Apr 29 17:36:37 2013
Copyright (c) 1987-1999 Texas Instruments Incorporatedc:\lang\tms320c3x\511\bin\asm30.exe -l saf82532.asm saf82532.obj -tC:\Users\JDS\AppData\Local\Temp\saf82532.tmp 

saf82532.asm                                                         PAGE   10

      487                   ;----------------------------------------------------------------------
      488 0000009e 1520005c-        sti       r0,@_Saf82532_Bch+4
      489                           .line   76
      490                   ;----------------------------------------------------------------------
      491                   ;  99 | Saf82532_Bch.nRxRear = 1;                                              
      492                   ;----------------------------------------------------------------------
      493 0000009f 50600001         ldiu      1,r0
      494 000000a0 15200059-        sti       r0,@_Saf82532_Bch+1
      495                           .line   77
      496                   ;----------------------------------------------------------------------
      497                   ; 100 | Saf82532_Bch.nTxDisable1msCnt = 0;                                     
      498                   ;----------------------------------------------------------------------
      499 000000a1 50600000         ldiu      0,r0
      500 000000a2 15200062-        sti       r0,@_Saf82532_Bch+10
      501                           .line   78
      502                   ;----------------------------------------------------------------------
      503                   ; 101 | Saf82532_Bch.nTxLedOnDly = 0;                                          
      504                   ;----------------------------------------------------------------------
      505 000000a3 15200063-        sti       r0,@_Saf82532_Bch+11
      506                           .line   79
      507                   ;----------------------------------------------------------------------
      508                   ; 102 | Saf82532_Bch.nTxCnt = 0;                                               
      509                   ;----------------------------------------------------------------------
      510 000000a4 15200064-        sti       r0,@_Saf82532_Bch+12
      511                           .line   81
      512                   ;----------------------------------------------------------------------
      513                   ; 104 | memset(Saf82532_Bch.nRxBackUp,0x00,sizeof(m_btSaf82532RxBchBackUp));   
      514                   ;----------------------------------------------------------------------
      515 000000a5 50600019         ldiu      25,r0
      516 000000a6 0f200000         push      r0
      517 000000a7 50610000         ldiu      0,r1
      518 000000a8 0f210000         push      r1
      519 000000a9 5020005f-        ldiu      @_Saf82532_Bch+7,r0
      520 000000aa 0f200000         push      r0
      521 000000ab 62000000!        call      _memset
      522                                                           ; Call Occurs
      523 000000ac 18740003         subi      3,sp
      524                           .line   82
      525                   ;----------------------------------------------------------------------
      526                   ; 105 | memset(Saf82532_Bch.nRxBuffer,0x00,sizeof(m_btSaf82532RxBchBuffer));   
      527                   ;----------------------------------------------------------------------
      528 000000ad 50600019         ldiu      25,r0
      529 000000ae 50610000         ldiu      0,r1
      530 000000af 0f200000         push      r0
      531 000000b0 0f210000         push      r1
      532 000000b1 5020005d-        ldiu      @_Saf82532_Bch+5,r0
      533 000000b2 0f200000         push      r0
      534 000000b3 62000000!        call      _memset
      535                                                           ; Call Occurs
      536 000000b4 18740003         subi      3,sp
      537                           .line   83
      538                   ;----------------------------------------------------------------------
      539                   ; 106 | memset(Saf82532_Bch.nGetRxBuf,0x00,sizeof(m_btSaf82532RxBchGetBuf));   
      540                   ;----------------------------------------------------------------------
TMS320C3x/4x COFF AssemblerVersion 5.11     Mon Apr 29 17:36:37 2013
Copyright (c) 1987-1999 Texas Instruments Incorporatedc:\lang\tms320c3x\511\bin\asm30.exe -l saf82532.asm saf82532.obj -tC:\Users\JDS\AppData\Local\Temp\saf82532.tmp 

saf82532.asm                                                         PAGE   11

      541 000000b5 50600019         ldiu      25,r0
      542 000000b6 0f200000         push      r0
      543 000000b7 50610000         ldiu      0,r1
      544 000000b8 0f210000         push      r1
      545 000000b9 5020005e-        ldiu      @_Saf82532_Bch+6,r0
      546 000000ba 0f200000         push      r0
      547 000000bb 62000000!        call      _memset
      548                                                           ; Call Occurs
      549 000000bc 18740003         subi      3,sp
      550                           .line   85
      551                   ;----------------------------------------------------------------------
      552                   ; 108 | break;                                                                 
      553                   ;----------------------------------------------------------------------
      554 000000bd 6a000004         bu        L10
      555                   ;*      Branch Occurs to L10 
      556                           .line   42
      557 000000be          L8:        
      558 000000be 08400b02         ldi       *-fp(2),r0
      559 000000bf 6a05ff8e         beq       L5
      560                   ;*      Branch Occurs to L5 
      561 000000c0 04e00040         cmpi      64,r0
      562 000000c1 6a05ffc4         beq       L6
      563                   ;*      Branch Occurs to L6 
      564 000000c2          L10:        
      565                           .line   87
      566 000000c2 50530b01         ldiu      *-fp(1),bk
      567 000000c3 504bc300         ldiu      *fp,fp
      568 000000c4 18740005         subi      5,sp
      569 000000c5 68000013         bu        bk
      570                   ;*      Branch Occurs to bk 
      571                           .endfunc        110,000000000h,3
      572                   
      573                   
      574 000000c6                  .sect    ".text"
      575                   
      576                           .global _saf82532_Send
      577                           .sym    _saf82532_Send,_saf82532_Send,32,2,0
      578                           .func   115
      579                   ;******************************************************************************
      580                   ;* FUNCTION NAME: _saf82532_Send                                              *
      581                   ;*                                                                            *
      582                   ;*   Architecture       : TMS320C30                                           *
      583                   ;*   Calling Convention : Stack Parameter Convention                          *
      584                   ;*   Function Uses Regs : r0,r1,fp,sp,st                                      *
      585                   ;*   Regs Saved         :                                                     *
      586                   ;*   Stack Frame        : Full (w/ debug)                                     *
      587                   ;*   Total Frame Size   : 2 Call + 3 Parm + 0 Auto + 0 SOE = 5 words          *
      588                   ;******************************************************************************
      589 000000c6          _saf82532_Send:
      590                           .sym    _btChl,-2,12,9,32
      591                           .sym    _pDat,-3,28,9,32
      592                           .sym    _nTxLen,-4,4,9,32
      593                           .line   1
      594                   ;----------------------------------------------------------------------
TMS320C3x/4x COFF AssemblerVersion 5.11     Mon Apr 29 17:36:37 2013
Copyright (c) 1987-1999 Texas Instruments Incorporatedc:\lang\tms320c3x\511\bin\asm30.exe -l saf82532.asm saf82532.obj -tC:\Users\JDS\AppData\Local\Temp\saf82532.tmp 

saf82532.asm                                                         PAGE   12

      595                   ; 115 | void saf82532_Send(UCHAR btChl,UCHAR *pDat,int nTxLen)                 
      596                   ;----------------------------------------------------------------------
      597                           .line   2
      598                   ;----------------------------------------------------------------------
      599                   ; 117 | switch(btChl)                                                          
      600                   ; 119 | case SAB82532_ACH:                                                     
      601                   ;----------------------------------------------------------------------
      602 000000c6 6a200013         bud       L16
      603 000000c7 0f2b0000         push      fp
      604 000000c8 500b0014         ldiu      sp,fp
      605 000000c9 0c800000         nop
      606                   ;*      Branch Occurs to L16 
      607 000000ca          L13:        
      608                           .line   6
      609                   ;----------------------------------------------------------------------
      610                   ; 120 | saf82532_AsyncSend(SAB82532_ACH,pDat,nTxLen);                          
      611                   ;----------------------------------------------------------------------
      612 000000ca 50410b04         ldiu      *-fp(4),r1
      613 000000cb 50600000         ldiu      0,r0
      614 000000cc 0f210000         push      r1
      615 000000cd 50410b03         ldiu      *-fp(3),r1
      616 000000ce 0f210000         push      r1
      617 000000cf 0f200000         push      r0
      618 000000d0 620000e4'        call      _saf82532_AsyncSend
      619                                                           ; Call Occurs
      620 000000d1 18740003         subi      3,sp
      621                           .line   7
      622                   ;----------------------------------------------------------------------
      623                   ; 121 | break;                                                                 
      624                   ; 123 | case SAB82532_BCH:                                                     
      625                   ;----------------------------------------------------------------------
      626 000000d2 6a00000d         bu        L18
      627                   ;*      Branch Occurs to L18 
      628 000000d3          L14:        
      629                           .line   10
      630                   ;----------------------------------------------------------------------
      631                   ; 124 | saf82532_AsyncSend(SAB82532_BCH,pDat,nTxLen);                          
      632                   ;----------------------------------------------------------------------
      633 000000d3 50400b04         ldiu      *-fp(4),r0
      634 000000d4 50610040         ldiu      64,r1
      635 000000d5 0f200000         push      r0
      636 000000d6 50400b03         ldiu      *-fp(3),r0
      637 000000d7 0f200000         push      r0
      638 000000d8 0f210000         push      r1
      639 000000d9 620000e4'        call      _saf82532_AsyncSend
      640                                                           ; Call Occurs
      641 000000da 18740003         subi      3,sp
      642                           .line   11
      643                   ;----------------------------------------------------------------------
      644                   ; 125 | break;                                                                 
      645                   ;----------------------------------------------------------------------
      646 000000db 6a000004         bu        L18
      647                   ;*      Branch Occurs to L18 
      648                           .line   3
TMS320C3x/4x COFF AssemblerVersion 5.11     Mon Apr 29 17:36:37 2013
Copyright (c) 1987-1999 Texas Instruments Incorporatedc:\lang\tms320c3x\511\bin\asm30.exe -l saf82532.asm saf82532.obj -tC:\Users\JDS\AppData\Local\Temp\saf82532.tmp 

saf82532.asm                                                         PAGE   13

      649 000000dc          L16:        
      650 000000dc 08400b02         ldi       *-fp(2),r0
      651 000000dd 6a05ffec         beq       L13
      652                   ;*      Branch Occurs to L13 
      653 000000de 04e00040         cmpi      64,r0
      654 000000df 6a05fff3         beq       L14
      655                   ;*      Branch Occurs to L14 
      656 000000e0          L18:        
      657                           .line   13
      658 000000e0 50530b01         ldiu      *-fp(1),bk
      659 000000e1 504bc300         ldiu      *fp,fp
      660 000000e2 18740002         subi      2,sp
      661 000000e3 68000013         bu        bk
      662                   ;*      Branch Occurs to bk 
      663                           .endfunc        127,000000000h,0
      664                   
      665                   
      666 000000e4                  .sect    ".text"
      667                   
      668                           .global _saf82532_AsyncSend
      669                           .sym    _saf82532_AsyncSend,_saf82532_AsyncSend,32,2,0
      670                           .func   132
      671                   ;******************************************************************************
      672                   ;* FUNCTION NAME: _saf82532_AsyncSend                                         *
      673                   ;*                                                                            *
      674                   ;*   Architecture       : TMS320C30                                           *
      675                   ;*   Calling Convention : Stack Parameter Convention                          *
      676                   ;*   Function Uses Regs : r0,r1,r2,ar0,ar1,fp,sp,st,rs,re,rc                  *
      677                   ;*   Regs Saved         :                                                     *
      678                   ;*   Stack Frame        : Full (w/ debug)                                     *
      679                   ;*   Total Frame Size   : 2 Call + 3 Parm + 3 Auto + 0 SOE = 8 words          *
      680                   ;******************************************************************************
      681 000000e4          _saf82532_AsyncSend:
      682                           .sym    _btChl,-2,12,9,32
      683                           .sym    _pDat,-3,28,9,32
      684                           .sym    _nTxLen,-4,4,9,32
      685                           .sym    _i,1,4,1,32
      686                           .sym    _j,2,4,1,32
      687                           .sym    _pShReg,3,24,1,32,.fake0
      688                           .line   1
      689                   ;----------------------------------------------------------------------
      690                   ; 132 | void saf82532_AsyncSend(UCHAR btChl,UCHAR *pDat,int nTxLen)            
      691                   ;----------------------------------------------------------------------
      692 000000e4 0f2b0000         push      fp
      693 000000e5 500b0014         ldiu      sp,fp
      694 000000e6 02740003         addi      3,sp
      695                           .line   2
      696                   ;----------------------------------------------------------------------
      697                   ; 134 | int i,j;                                                               
      698                   ;----------------------------------------------------------------------
      699                           .line   4
      700                   ;----------------------------------------------------------------------
      701                   ; 135 | PSAF82532ASYNCREG1CH pShReg = (SAF82532ASYNCREG1CH *)(SAB82532_BASE+btC
      702                   ;     | hl);                                                                   
TMS320C3x/4x COFF AssemblerVersion 5.11     Mon Apr 29 17:36:37 2013
Copyright (c) 1987-1999 Texas Instruments Incorporatedc:\lang\tms320c3x\511\bin\asm30.exe -l saf82532.asm saf82532.obj -tC:\Users\JDS\AppData\Local\Temp\saf82532.tmp 

saf82532.asm                                                         PAGE   14

      703                   ; 137 | switch(btChl)                                                          
      704                   ;----------------------------------------------------------------------
      705 000000e7 6a200001         bud       L22
      706 000000e8 502000ba-        ldiu      @CL11,r0
      707 000000e9 02400b02         addi      *-fp(2),r0            ; Unsigned
      708 000000ea 15400303         sti       r0,*+fp(3)
      709                   ;*      Branch Occurs to L22 
      710                           .line   8
      711                   ;----------------------------------------------------------------------
      712                   ; 139 | case SAB82532_ACH:RS485_TX_ACHL_ENABLE;break;                          
      713                   ;----------------------------------------------------------------------
      714                           .line   9
      715                   ;----------------------------------------------------------------------
      716                   ; 140 | case SAB82532_BCH:RS485_TX_BCHL_ENABLE;break;                          
      717                   ;----------------------------------------------------------------------
      718 000000eb          L22:        
      719                           .line   6
      720 000000eb 50400b02         ldiu      *-fp(2),r0
      721 000000ec 04e00000         cmpi      0,r0
      722                           .line   12
      723                   ;----------------------------------------------------------------------
      724                   ; 143 | for(i=0;i<WORD_L(nTxLen/SAF82532_FIFO_SIZE);i++)                       
      725                   ;----------------------------------------------------------------------
      726 000000ed 50600000         ldiu      0,r0
      727 000000ee 15400301         sti       r0,*+fp(1)
      728 000000ef 50410b04         ldiu      *-fp(4),r1
      729 000000f0 50000001         ldiu      r1,r0
      730 000000f1 03e0fffc         ash       -4,r0
      731 000000f2 09e0ffe5         lsh       -27,r0
      732 000000f3 21000100         addi3     r0,r1,r0
      733 000000f4 03e0fffb         ash       -5,r0
      734 000000f5 50410301         ldiu      *+fp(1),r1
      735 000000f6 02e000ff         and       255,r0
      736 000000f7 23800100         cmpi3     r0,r1
      737 000000f8 6a0a001c         bge       L25
      738                   ;*      Branch Occurs to L25 
      739 000000f9          L23:        
      740                           .line   14
      741                   ;----------------------------------------------------------------------
      742                   ; 145 | while(!(pShReg->STA_CMD & 0x40));                                      
      743                   ;----------------------------------------------------------------------
      744 000000f9 50480303         ldiu      *+fp(3),ar0
      745 000000fa 50600040         ldiu      64,r0
      746 000000fb 1a400020         tstb      *+ar0(32),r0
      747 000000fc 6a05fffc         beq       L23
      748                   ;*      Branch Occurs to L23 
      749                           .line   15
      750                   ;----------------------------------------------------------------------
      751                   ; 146 | memcpy(pShReg->XFIFO,pDat,SAF82532_FIFO_SIZE);                         
      752                   ;----------------------------------------------------------------------
      753 000000fd 50490b03         ldiu      *-fp(3),ar1
      754 000000fe 50402101         ldiu      *ar1++(1),r0
      755 000000ff 13fb001e         rpts      30                    ; Fast MEMCPY(#3)
      756 00000100 da002021         sti       r0,*ar0++(1)
TMS320C3x/4x COFF AssemblerVersion 5.11     Mon Apr 29 17:36:37 2013
Copyright (c) 1987-1999 Texas Instruments Incorporatedc:\lang\tms320c3x\511\bin\asm30.exe -l saf82532.asm saf82532.obj -tC:\Users\JDS\AppData\Local\Temp\saf82532.tmp 

saf82532.asm                                                         PAGE   15

      757                   ||      ldi       *ar1++(1),r0
      758 00000101 15402001         sti       r0,*ar0++(1)
      759                           .line   16
      760                   ;----------------------------------------------------------------------
      761                   ; 147 | pShReg->STA_CMD = SAF82532_ASYNC_CMD_XF;                               
      762                   ;----------------------------------------------------------------------
      763 00000102 50480303         ldiu      *+fp(3),ar0
      764 00000103 50600008         ldiu      8,r0
      765 00000104 15400020         sti       r0,*+ar0(32)
      766                           .line   17
      767                   ;----------------------------------------------------------------------
      768                   ; 148 | pDat+=32;                                                              
      769                   ;----------------------------------------------------------------------
      770 00000105 50600020         ldiu      32,r0
      771 00000106 02400b03         addi      *-fp(3),r0            ; Unsigned
      772 00000107 15400b03         sti       r0,*-fp(3)
      773                           .line   12
      774 00000108 50600001         ldiu      1,r0
      775 00000109 02400301         addi      *+fp(1),r0
      776 0000010a 15400301         sti       r0,*+fp(1)
      777 0000010b 50410b04         ldiu      *-fp(4),r1
      778 0000010c 50000001         ldiu      r1,r0
      779 0000010d 03e0fffc         ash       -4,r0
      780 0000010e 09e0ffe5         lsh       -27,r0
      781 0000010f 21000100         addi3     r0,r1,r0
      782 00000110 50410301         ldiu      *+fp(1),r1
      783 00000111 03e0fffb         ash       -5,r0
      784 00000112 02e000ff         and       255,r0
      785 00000113 23800100         cmpi3     r0,r1
      786 00000114 6a07ffe4         blt       L23
      787                   ;*      Branch Occurs to L23 
      788 00000115          L25:        
      789                           .line   21
      790                   ;----------------------------------------------------------------------
      791                   ; 152 | if((nTxLen%SAF82532_FIFO_SIZE))                                        
      792                   ;----------------------------------------------------------------------
      793 00000115 50420b04         ldiu      *-fp(4),r2
      794 00000116 50010002         ldiu      r2,r1
      795 00000117 03e1fffc         ash       -4,r1
      796 00000118 09a100bb-        lsh       @CL12,r1
      797 00000119 21010201         addi3     r1,r2,r1
      798 0000011a 0361001f         andn      31,r1
      799 0000011b 19810002         subri     r2,r1
      800 0000011c 50600040         ldiu      64,r0
      801 0000011d 6a05001f         beq       L33
      802                   ;*      Branch Occurs to L33 
      803 0000011e          L26:        
      804                           .line   23
      805                   ;----------------------------------------------------------------------
      806                   ; 154 | while(!(pShReg->STA_CMD & 0x40));                                      
      807                   ;----------------------------------------------------------------------
      808 0000011e 50480303         ldiu      *+fp(3),ar0
      809 0000011f 1a400020         tstb      *+ar0(32),r0
      810 00000120 6a05fffd         beq       L26
TMS320C3x/4x COFF AssemblerVersion 5.11     Mon Apr 29 17:36:37 2013
Copyright (c) 1987-1999 Texas Instruments Incorporatedc:\lang\tms320c3x\511\bin\asm30.exe -l saf82532.asm saf82532.obj -tC:\Users\JDS\AppData\Local\Temp\saf82532.tmp 

saf82532.asm                                                         PAGE   16

      811                   ;*      Branch Occurs to L26 
      812                           .line   24
      813                   ;----------------------------------------------------------------------
      814                   ; 155 | memcpy(pShReg->XFIFO,pDat,nTxLen%SAF82532_FIFO_SIZE);                  
      815                   ; 158 | switch(btChl)                                                          
      816                   ;----------------------------------------------------------------------
      817 00000121 5060001f         ldiu      31,r0
      818 00000122 02c00b04         and       *-fp(4),r0
      819 00000123 0f200000         push      r0
      820 00000124 50400b03         ldiu      *-fp(3),r0
      821 00000125 0f200000         push      r0
      822 00000126 50400303         ldiu      *+fp(3),r0
      823 00000127 0f200000         push      r0
      824 00000128 62000000!        call      _memcpy
      825                                                           ; Call Occurs
      826 00000129 18740003         subi      3,sp
      827 0000012a 6a000012         bu        L33
      828                   ;*      Branch Occurs to L33 
      829 0000012b          L28:        
      830                           .line   29
      831                   ;----------------------------------------------------------------------
      832                   ; 160 | case SAB82532_ACH: if(Saf82532_Ach.nIs485) Saf82532_Ach.nTxDisable1msCn
      833                   ;     | t = ((Saf82532_Ach.nUsPer1Byte * (nTxLen)) / 1000) + 10; break;        
      834                   ;----------------------------------------------------------------------
      835 0000012b 08200021-        ldi       @_Saf82532_Ach+8,r0
      836 0000012c 6a050014         beq       L35
      837                   ;*      Branch Occurs to L35 
      838 0000012d 50200022-        ldiu      @_Saf82532_Ach+9,r0
      839 0000012e 0ac00b04         mpyi      *-fp(4),r0
      840 0000012f 506103e8         ldiu      1000,r1
      841 00000130 62000000!        call      DIV_I30
      842                                                           ; Call Occurs
      843 00000131 0260000a         addi      10,r0
      844 00000132 15200023-        sti       r0,@_Saf82532_Ach+10
      845 00000133 6a00000d         bu        L35
      846                   ;*      Branch Occurs to L35 
      847 00000134          L30:        
      848                           .line   30
      849                   ;----------------------------------------------------------------------
      850                   ; 161 | case SAB82532_BCH: if(Saf82532_Bch.nIs485) Saf82532_Bch.nTxDisable1msCn
      851                   ;     | t = ((Saf82532_Bch.nUsPer1Byte * (nTxLen)) / 1000) + 10; break;        
      852                   ;----------------------------------------------------------------------
      853 00000134 08200060-        ldi       @_Saf82532_Bch+8,r0
      854 00000135 6a05000b         beq       L35
      855                   ;*      Branch Occurs to L35 
      856 00000136 50200061-        ldiu      @_Saf82532_Bch+9,r0
      857 00000137 0ac00b04         mpyi      *-fp(4),r0
      858 00000138 506103e8         ldiu      1000,r1
      859 00000139 62000000!        call      DIV_I30
      860                                                           ; Call Occurs
      861 0000013a 0260000a         addi      10,r0
      862 0000013b 15200062-        sti       r0,@_Saf82532_Bch+10
      863 0000013c 6a000004         bu        L35
      864                   ;*      Branch Occurs to L35 
TMS320C3x/4x COFF AssemblerVersion 5.11     Mon Apr 29 17:36:37 2013
Copyright (c) 1987-1999 Texas Instruments Incorporatedc:\lang\tms320c3x\511\bin\asm30.exe -l saf82532.asm saf82532.obj -tC:\Users\JDS\AppData\Local\Temp\saf82532.tmp 

saf82532.asm                                                         PAGE   17

      865 0000013d          L33:        
      866                           .line   27
      867 0000013d 08400b02         ldi       *-fp(2),r0
      868 0000013e 6a05ffec         beq       L28
      869                   ;*      Branch Occurs to L28 
      870 0000013f 04e00040         cmpi      64,r0
      871 00000140 6a05fff3         beq       L30
      872                   ;*      Branch Occurs to L30 
      873 00000141          L35:        
      874                           .line   33
      875                   ;----------------------------------------------------------------------
      876                   ; 164 | pShReg->STA_CMD = SAF82532_ASYNC_CMD_XF | SAF82532_ASYNC_CMD_XME;      
      877                   ;----------------------------------------------------------------------
      878 00000141 50480303         ldiu      *+fp(3),ar0
      879 00000142 5060000a         ldiu      10,r0
      880 00000143 15400020         sti       r0,*+ar0(32)
      881                           .line   35
      882 00000144 50530b01         ldiu      *-fp(1),bk
      883 00000145 504bc300         ldiu      *fp,fp
      884 00000146 18740005         subi      5,sp
      885 00000147 68000013         bu        bk
      886                   ;*      Branch Occurs to bk 
      887                           .endfunc        166,000000000h,3
      888                   
      889                   
      890 00000148                  .sect    ".text"
      891                   
      892                           .global _Saf82532_GetAsyncRecv
      893                           .sym    _Saf82532_GetAsyncRecv,_Saf82532_GetAsyncRecv,36,2,0
      894                           .func   171
      895                   ;******************************************************************************
      896                   ;* FUNCTION NAME: _Saf82532_GetAsyncRecv                                      *
      897                   ;*                                                                            *
      898                   ;*   Architecture       : TMS320C30                                           *
      899                   ;*   Calling Convention : Stack Parameter Convention                          *
      900                   ;*   Function Uses Regs : r0,r1,ar0,ar1,ir0,ir1,st                            *
      901                   ;*   Regs Saved         :                                                     *
      902                   ;*   Stack Frame        : Full (w/ debug)                                     *
      903                   ;*   Total Frame Size   : 2 Call + 2 Parm + 5 Auto + 0 SOE = 9 words          *
      904                   ;******************************************************************************
      905 00000148          _Saf82532_GetAsyncRecv:
      906                           .sym    _nChl,-2,4,9,32
      907                           .sym    _pBuf,-3,28,9,32
      908                           .sym    _i,1,4,1,32
      909                           .sym    _pRr,2,20,1,32
      910                           .sym    _pFr,3,20,1,32
      911                           .sym    _pRxBuf,4,28,1,32
      912                           .sym    _nBufPos,5,4,1,32
      913                           .line   1
      914                   ;----------------------------------------------------------------------
      915                   ; 171 | int Saf82532_GetAsyncRecv(int nChl,UCHAR *pBuf)                        
      916                   ;----------------------------------------------------------------------
      917                           .line   2
      918                   ;----------------------------------------------------------------------
TMS320C3x/4x COFF AssemblerVersion 5.11     Mon Apr 29 17:36:37 2013
Copyright (c) 1987-1999 Texas Instruments Incorporatedc:\lang\tms320c3x\511\bin\asm30.exe -l saf82532.asm saf82532.obj -tC:\Users\JDS\AppData\Local\Temp\saf82532.tmp 

saf82532.asm                                                         PAGE   18

      919                   ; 173 | int i;                                                                 
      920                   ; 174 | int *pRr;                                                              
      921                   ; 175 | int *pFr;                                                              
      922                   ; 176 | UCHAR *pRxBuf;                                                         
      923                   ; 177 | int nBufPos;                                                           
      924                   ; 179 | switch(nChl)                                                           
      925                   ; 181 | case SAB82532_ACH:                                                     
      926                   ;----------------------------------------------------------------------
      927 00000148 6a20000f         bud       L42
      928 00000149 0f2b0000         push      fp
      929 0000014a 500b0014         ldiu      sp,fp
      930 0000014b 02740005         addi      5,sp
      931                   ;*      Branch Occurs to L42 
      932 0000014c          L39:        
      933                           .line   12
      934                   ;----------------------------------------------------------------------
      935                   ; 182 | pRr = &Saf82532_Ach.nRxRear;                                           
      936                   ;----------------------------------------------------------------------
      937 0000014c 502000bc-        ldiu      @CL13,r0
      938 0000014d 15400302         sti       r0,*+fp(2)
      939                           .line   13
      940                   ;----------------------------------------------------------------------
      941                   ; 183 | pFr = &Saf82532_Ach.nRxFront;                                          
      942                   ;----------------------------------------------------------------------
      943 0000014e 502000bd-        ldiu      @CL14,r0
      944 0000014f 15400303         sti       r0,*+fp(3)
      945                           .line   14
      946                   ;----------------------------------------------------------------------
      947                   ; 184 | pRxBuf = Saf82532_Ach.nRxBuffer;                                       
      948                   ;----------------------------------------------------------------------
      949 00000150 5020001e-        ldiu      @_Saf82532_Ach+5,r0
      950 00000151 15400304         sti       r0,*+fp(4)
      951                           .line   15
      952                   ;----------------------------------------------------------------------
      953                   ; 185 | break;                                                                 
      954                   ; 186 | case SAB82532_BCH:                                                     
      955                   ;----------------------------------------------------------------------
      956 00000152 6a00000b         bu        L44
      957                   ;*      Branch Occurs to L44 
      958 00000153          L40:        
      959                           .line   17
      960                   ;----------------------------------------------------------------------
      961                   ; 187 | pRr = &Saf82532_Bch.nRxRear;                                           
      962                   ;----------------------------------------------------------------------
      963 00000153 502000be-        ldiu      @CL15,r0
      964 00000154 15400302         sti       r0,*+fp(2)
      965                           .line   18
      966                   ;----------------------------------------------------------------------
      967                   ; 188 | pFr = &Saf82532_Bch.nRxFront;                                          
      968                   ;----------------------------------------------------------------------
      969 00000155 502000bf-        ldiu      @CL16,r0
      970 00000156 15400303         sti       r0,*+fp(3)
      971                           .line   19
      972                   ;----------------------------------------------------------------------
TMS320C3x/4x COFF AssemblerVersion 5.11     Mon Apr 29 17:36:37 2013
Copyright (c) 1987-1999 Texas Instruments Incorporatedc:\lang\tms320c3x\511\bin\asm30.exe -l saf82532.asm saf82532.obj -tC:\Users\JDS\AppData\Local\Temp\saf82532.tmp 

saf82532.asm                                                         PAGE   19

      973                   ; 189 | pRxBuf = Saf82532_Bch.nRxBuffer;                                       
      974                   ;----------------------------------------------------------------------
      975 00000157 5020005d-        ldiu      @_Saf82532_Bch+5,r0
      976 00000158 15400304         sti       r0,*+fp(4)
      977                           .line   20
      978                   ;----------------------------------------------------------------------
      979                   ; 190 | break;                                                                 
      980                   ;----------------------------------------------------------------------
      981 00000159 6a000004         bu        L44
      982                   ;*      Branch Occurs to L44 
      983 0000015a          L42:        
      984                           .line   9
      985 0000015a 08400b02         ldi       *-fp(2),r0
      986 0000015b 6a05fff0         beq       L39
      987                   ;*      Branch Occurs to L39 
      988 0000015c 04e00040         cmpi      64,r0
      989 0000015d 6a05fff5         beq       L40
      990                   ;*      Branch Occurs to L40 
      991 0000015e          L44:        
      992                           .line   23
      993                   ;----------------------------------------------------------------------
      994                   ; 193 | nBufPos = 0;                                                           
      995                   ; 194 | while(1)                                                               
      996                   ;----------------------------------------------------------------------
      997 0000015e 50600000         ldiu      0,r0
      998 0000015f 15400305         sti       r0,*+fp(5)
      999 00000160          L45:        
     1000                           .line   26
     1001                   ;----------------------------------------------------------------------
     1002                   ; 196 | i = (*pFr+1)%SAB82532_BUFFER_SIZE;                                     
     1003                   ;----------------------------------------------------------------------
     1004 00000160 50480303         ldiu      *+fp(3),ar0
     1005 00000161 50600001         ldiu      1,r0
     1006 00000162 2120c000         addi3     r0,*ar0,r0
     1007 00000163 50610019         ldiu      25,r1
     1008 00000164 62000000!        call      MOD_I30
     1009                                                           ; Call Occurs
     1010 00000165 15400301         sti       r0,*+fp(1)
     1011                           .line   27
     1012                   ;----------------------------------------------------------------------
     1013                   ; 197 | if(i != *pRr) {pBuf[nBufPos++] = WORD_L(pRxBuf[i]); }                  
     1014                   ;----------------------------------------------------------------------
     1015 00000166 50480302         ldiu      *+fp(2),ar0
     1016 00000167 23c000c0         cmpi3     *ar0,r0
     1017 00000168 6a05000f         beq       L49
     1018                   ;*      Branch Occurs to L49 
     1019 00000169 50610001         ldiu      1,r1
     1020 0000016a 50480305         ldiu      *+fp(5),ar0
     1021 0000016b 506000ff         ldiu      255,r0
     1022 0000016c 50510304         ldiu      *+fp(4),ir0
     1023 0000016d 50490301         ldiu      *+fp(1),ar1
     1024 0000016e 50520b03         ldiu      *-fp(3),ir1
     1025 0000016f 02010008         addi      ar0,r1
     1026 00000170 6a200001         bud       L48
TMS320C3x/4x COFF AssemblerVersion 5.11     Mon Apr 29 17:36:37 2013
Copyright (c) 1987-1999 Texas Instruments Incorporatedc:\lang\tms320c3x\511\bin\asm30.exe -l saf82532.asm saf82532.obj -tC:\Users\JDS\AppData\Local\Temp\saf82532.tmp 

saf82532.asm                                                         PAGE   20

     1027 00000171 21a04100         and3      r0,*+ar1(ir0),r0
     1028 00000172 15410305         sti       r1,*+fp(5)
     1029 00000173 15408000         sti       r0,*+ar0(ir1)
     1030                   ;*      Branch Occurs to L48 
     1031                           .line   28
     1032                   ;----------------------------------------------------------------------
     1033                   ; 198 | else    break;                                                         
     1034                   ;----------------------------------------------------------------------
     1035 00000174          L48:        
     1036                           .line   29
     1037                   ;----------------------------------------------------------------------
     1038                   ; 199 | *pFr = i;                                                              
     1039                   ;----------------------------------------------------------------------
     1040 00000174 50480303         ldiu      *+fp(3),ar0
     1041 00000175 50400301         ldiu      *+fp(1),r0
     1042 00000176 1540c000         sti       r0,*ar0
     1043                           .line   30
     1044 00000177 6a00ffe8         bu        L45
     1045                   ;*      Branch Occurs to L45 
     1046 00000178          L49:        
     1047                           .line   32
     1048                   ;----------------------------------------------------------------------
     1049                   ; 202 | return nBufPos;                                                        
     1050                   ;----------------------------------------------------------------------
     1051 00000178 50400305         ldiu      *+fp(5),r0
     1052                           .line   33
     1053 00000179 50520b01         ldiu      *-fp(1),ir1
     1054 0000017a 504bc300         ldiu      *fp,fp
     1055 0000017b 18740007         subi      7,sp
     1056 0000017c 68000012         bu        ir1
     1057                   ;*      Branch Occurs to ir1 
     1058                           .endfunc        203,000000000h,5
     1059                   
     1060                   
     1061 0000017d                  .sect    ".text"
     1062                   
     1063                           .global _Saf82532_GetRecv
     1064                           .sym    _Saf82532_GetRecv,_Saf82532_GetRecv,36,2,0
     1065                           .func   208
     1066                   ;******************************************************************************
     1067                   ;* FUNCTION NAME: _Saf82532_GetRecv                                           *
     1068                   ;*                                                                            *
     1069                   ;*   Architecture       : TMS320C30                                           *
     1070                   ;*   Calling Convention : Stack Parameter Convention                          *
     1071                   ;*   Function Uses Regs : r0,fp,sp,st                                         *
     1072                   ;*   Regs Saved         :                                                     *
     1073                   ;*   Stack Frame        : Full (w/ debug)                                     *
     1074                   ;*   Total Frame Size   : 2 Call + 2 Parm + 1 Auto + 0 SOE = 5 words          *
     1075                   ;******************************************************************************
     1076 0000017d          _Saf82532_GetRecv:
     1077                           .sym    _nChl,-2,4,9,32
     1078                           .sym    _pBuf,-3,28,9,32
     1079                           .sym    _i,1,4,1,32
     1080                           .line   1
TMS320C3x/4x COFF AssemblerVersion 5.11     Mon Apr 29 17:36:37 2013
Copyright (c) 1987-1999 Texas Instruments Incorporatedc:\lang\tms320c3x\511\bin\asm30.exe -l saf82532.asm saf82532.obj -tC:\Users\JDS\AppData\Local\Temp\saf82532.tmp 

saf82532.asm                                                         PAGE   21

     1081                   ;----------------------------------------------------------------------
     1082                   ; 208 | int Saf82532_GetRecv(int nChl,UCHAR *pBuf)                             
     1083                   ;----------------------------------------------------------------------
     1084                           .line   2
     1085                   ;----------------------------------------------------------------------
     1086                   ; 210 | int i;                                                                 
     1087                   ; 211 | // A                                                               
     1088                   ; 212 | switch(nChl)                                                           
     1089                   ; 214 | case SAB82532_ACH:                                                     
     1090                   ;----------------------------------------------------------------------
     1091 0000017d 6a20000f         bud       L57
     1092 0000017e 0f2b0000         push      fp
     1093 0000017f 500b0014         ldiu      sp,fp
     1094 00000180 02740001         addi      1,sp
     1095                   ;*      Branch Occurs to L57 
     1096 00000181          L53:        
     1097                           .line   8
     1098                   ;----------------------------------------------------------------------
     1099                   ; 215 | return Saf82532_GetAsyncRecv(nChl,pBuf);                               
     1100                   ;----------------------------------------------------------------------
     1101 00000181 50400b03         ldiu      *-fp(3),r0
     1102 00000182 0f200000         push      r0
     1103 00000183 50400b02         ldiu      *-fp(2),r0
     1104 00000184 0f200000         push      r0
     1105 00000185 62000148'        call      _Saf82532_GetAsyncRecv
     1106                                                           ; Call Occurs
     1107 00000186 18740002         subi      2,sp
     1108 00000187 6a00000b         bu        L59
     1109                   ;*      Branch Occurs to L59 
     1110                           .line   9
     1111                   ;----------------------------------------------------------------------
     1112                   ; 216 | break;                                                                 
     1113                   ; 218 | // B                                                               
     1114                   ; 219 | case SAB82532_BCH:                                                     
     1115                   ;----------------------------------------------------------------------
     1116 00000188          L55:        
     1117                           .line   13
     1118                   ;----------------------------------------------------------------------
     1119                   ; 220 | return Saf82532_GetAsyncRecv(nChl,pBuf);                               
     1120                   ;----------------------------------------------------------------------
     1121 00000188 50400b03         ldiu      *-fp(3),r0
     1122 00000189 0f200000         push      r0
     1123 0000018a 50400b02         ldiu      *-fp(2),r0
     1124 0000018b 0f200000         push      r0
     1125 0000018c 62000148'        call      _Saf82532_GetAsyncRecv
     1126                                                           ; Call Occurs
     1127 0000018d 18740002         subi      2,sp
     1128 0000018e 6a000004         bu        L59
     1129                   ;*      Branch Occurs to L59 
     1130                           .line   14
     1131                   ;----------------------------------------------------------------------
     1132                   ; 221 | break;                                                                 
     1133                   ;----------------------------------------------------------------------
     1134 0000018f          L57:        
TMS320C3x/4x COFF AssemblerVersion 5.11     Mon Apr 29 17:36:37 2013
Copyright (c) 1987-1999 Texas Instruments Incorporatedc:\lang\tms320c3x\511\bin\asm30.exe -l saf82532.asm saf82532.obj -tC:\Users\JDS\AppData\Local\Temp\saf82532.tmp 

saf82532.asm                                                         PAGE   22

     1135                           .line   5
     1136 0000018f 08400b02         ldi       *-fp(2),r0
     1137 00000190 6a05fff0         beq       L53
     1138                   ;*      Branch Occurs to L53 
     1139 00000191 04e00040         cmpi      64,r0
     1140 00000192 6a05fff5         beq       L55
     1141                   ;*      Branch Occurs to L55 
     1142 00000193          L59:        
     1143                           .line   16
     1144 00000193 50530b01         ldiu      *-fp(1),bk
     1145 00000194 504bc300         ldiu      *fp,fp
     1146 00000195 18740003         subi      3,sp
     1147 00000196 68000013         bu        bk
     1148                   ;*      Branch Occurs to bk 
     1149                           .endfunc        223,000000000h,1
     1150                   
     1151                   
     1152 00000197                  .sect    ".text"
     1153                   
     1154                           .global _saf82532_Isr
     1155                           .sym    _saf82532_Isr,_saf82532_Isr,32,2,0
     1156                           .func   229
     1157                   ;******************************************************************************
     1158                   ;* FUNCTION NAME: _saf82532_Isr                                               *
     1159                   ;*                                                                            *
     1160                   ;*   Architecture       : TMS320C30                                           *
     1161                   ;*   Calling Convention : Stack Parameter Convention                          *
     1162                   ;*   Function Uses Regs :                                                     *
     1163                   ;*   Regs Saved         :                                                     *
     1164                   ;*   Stack Frame        : Full (w/ debug)                                     *
     1165                   ;*   Total Frame Size   : 2 Call + 0 Parm + 0 Auto + 0 SOE = 2 words          *
     1166                   ;******************************************************************************
     1167 00000197          _saf82532_Isr:
     1168                           .line   1
     1169                   ;----------------------------------------------------------------------
     1170                   ; 229 | void saf82532_Isr()                                                    
     1171                   ;----------------------------------------------------------------------
     1172 00000197 0f2b0000         push      fp
     1173 00000198 500b0014         ldiu      sp,fp
     1174                           .line   3
     1175                   ;----------------------------------------------------------------------
     1176                   ; 231 | saf82532_AsyncIsrAch();                                                
     1177                   ;----------------------------------------------------------------------
     1178 00000199 6200019f'        call      _saf82532_AsyncIsrAch
     1179                                                           ; Call Occurs
     1180                           .line   4
     1181                   ;----------------------------------------------------------------------
     1182                   ; 232 | saf82532_AsyncIsrBch();                                                
     1183                   ;----------------------------------------------------------------------
     1184 0000019a 620001c9'        call      _saf82532_AsyncIsrBch
     1185                                                           ; Call Occurs
     1186                           .line   5
     1187 0000019b 50530b01         ldiu      *-fp(1),bk
     1188 0000019c 504bc300         ldiu      *fp,fp
TMS320C3x/4x COFF AssemblerVersion 5.11     Mon Apr 29 17:36:37 2013
Copyright (c) 1987-1999 Texas Instruments Incorporatedc:\lang\tms320c3x\511\bin\asm30.exe -l saf82532.asm saf82532.obj -tC:\Users\JDS\AppData\Local\Temp\saf82532.tmp 

saf82532.asm                                                         PAGE   23

     1189 0000019d 18740002         subi      2,sp
     1190 0000019e 68000013         bu        bk
     1191                   ;*      Branch Occurs to bk 
     1192                           .endfunc        233,000000000h,0
     1193                   
     1194                   
     1195 0000019f                  .sect    ".text"
     1196                   
     1197                           .global _saf82532_AsyncIsrAch
     1198                           .sym    _saf82532_AsyncIsrAch,_saf82532_AsyncIsrAch,32,2,0
     1199                           .func   237
     1200                   ;******************************************************************************
     1201                   ;* FUNCTION NAME: _saf82532_AsyncIsrAch                                       *
     1202                   ;*                                                                            *
     1203                   ;*   Architecture       : TMS320C30                                           *
     1204                   ;*   Calling Convention : Stack Parameter Convention                          *
     1205                   ;*   Function Uses Regs : r0,r1,ar0,ar1,ir0,st                                *
     1206                   ;*   Regs Saved         :                                                     *
     1207                   ;*   Stack Frame        : Full (w/ debug)                                     *
     1208                   ;*   Total Frame Size   : 2 Call + 0 Parm + 5 Auto + 0 SOE = 7 words          *
     1209                   ;******************************************************************************
     1210 0000019f          _saf82532_AsyncIsrAch:
     1211                           .sym    _i,1,4,1,32
     1212                           .sym    _nIsrSt,2,12,1,32
     1213                           .sym    _btDat,3,12,1,32
     1214                           .sym    _btDatSt,4,12,1,32
     1215                           .sym    _pShReg,5,24,1,32,.fake1
     1216                           .line   1
     1217                   ;----------------------------------------------------------------------
     1218                   ; 237 | void saf82532_AsyncIsrAch()                                            
     1219                   ; 239 | int i;                                                                 
     1220                   ; 240 | UCHAR nIsrSt;                                                          
     1221                   ; 241 | UCHAR btDat;                                                           
     1222                   ; 242 | UCHAR btDatSt;                                                         
     1223                   ;----------------------------------------------------------------------
     1224 0000019f 0f2b0000         push      fp
     1225 000001a0 500b0014         ldiu      sp,fp
     1226 000001a1 02740005         addi      5,sp
     1227                           .line   7
     1228                   ;----------------------------------------------------------------------
     1229                   ; 243 | PSAF82532ASYNCREG pShReg = (SAF82532ASYNCREG *)SAB82532_BASE;          
     1230                   ; 245 | // A Channel, Recieve                                                  
     1231                   ;----------------------------------------------------------------------
     1232 000001a2 502000c0-        ldiu      @CL17,r0
     1233 000001a3 15400305         sti       r0,*+fp(5)
     1234                           .line   10
     1235                   ;----------------------------------------------------------------------
     1236                   ; 246 | nIsrSt = pShReg->ACHREG.ISR0_IMR0;                                     
     1237                   ;----------------------------------------------------------------------
     1238 000001a4 50080000         ldiu      r0,ar0
     1239 000001a5 5040003a         ldiu      *+ar0(58),r0
     1240 000001a6 15400302         sti       r0,*+fp(2)
     1241                           .line   12
     1242                   ;----------------------------------------------------------------------
TMS320C3x/4x COFF AssemblerVersion 5.11     Mon Apr 29 17:36:37 2013
Copyright (c) 1987-1999 Texas Instruments Incorporatedc:\lang\tms320c3x\511\bin\asm30.exe -l saf82532.asm saf82532.obj -tC:\Users\JDS\AppData\Local\Temp\saf82532.tmp 

saf82532.asm                                                         PAGE   24

     1243                   ; 248 | if(nIsrSt & SAF82532_ASYNC_IMR0_RPF)                                   
     1244                   ;----------------------------------------------------------------------
     1245 000001a7 50600001         ldiu      1,r0
     1246 000001a8 1a400302         tstb      *+fp(2),r0
     1247 000001a9 6a05001b         beq       L68
     1248                   ;*      Branch Occurs to L68 
     1249                           .line   14
     1250                   ;----------------------------------------------------------------------
     1251                   ; 250 | btDat = pShReg->ACHREG.XFIFO[0];                                       
     1252                   ;----------------------------------------------------------------------
     1253 000001aa 5040c000         ldiu      *ar0,r0
     1254 000001ab 15400303         sti       r0,*+fp(3)
     1255                           .line   15
     1256                   ;----------------------------------------------------------------------
     1257                   ; 251 | DUMMY_ACCESS;                                                          
     1258                   ;----------------------------------------------------------------------
     1259 000001ac 502900c1-        ldiu      @CL18,ar1
     1260 000001ad 502800c1-        ldiu      @CL18,ar0
     1261 000001ae 5040c100         ldiu      *ar1,r0
     1262 000001af 1540c000         sti       r0,*ar0
     1263                           .line   16
     1264                   ;----------------------------------------------------------------------
     1265                   ; 252 | btDatSt = pShReg->ACHREG.XFIFO[1];                                     
     1266                   ;----------------------------------------------------------------------
     1267 000001b0 50480305         ldiu      *+fp(5),ar0
     1268 000001b1 50400001         ldiu      *+ar0(1),r0
     1269 000001b2 15400304         sti       r0,*+fp(4)
     1270                           .line   17
     1271                   ;----------------------------------------------------------------------
     1272                   ; 253 | pShReg->ACHREG.STA_CMD = SAF82532_ASYNC_CMD_RMC;                       
     1273                   ;----------------------------------------------------------------------
     1274 000001b3 50600080         ldiu      128,r0
     1275 000001b4 15400020         sti       r0,*+ar0(32)
     1276                           .line   18
     1277                   ;----------------------------------------------------------------------
     1278                   ; 254 | if(!(btDatSt&SAF82532_ASYNC_PARITYERR))                                
     1279                   ;----------------------------------------------------------------------
     1280 000001b5 1a400304         tstb      *+fp(4),r0
     1281 000001b6 6a06000e         bne       L68
     1282                   ;*      Branch Occurs to L68 
     1283                           .line   20
     1284                   ;----------------------------------------------------------------------
     1285                   ; 256 | i = (Saf82532_Ach.nRxRear+1)%SAB82532_BUFFER_SIZE;                     
     1286                   ;----------------------------------------------------------------------
     1287 000001b7 50600001         ldiu      1,r0
     1288 000001b8 0220001a-        addi      @_Saf82532_Ach+1,r0
     1289 000001b9 50610019         ldiu      25,r1
     1290 000001ba 62000000!        call      MOD_I30
     1291                                                           ; Call Occurs
     1292 000001bb 15400301         sti       r0,*+fp(1)
     1293                           .line   21
     1294                   ;----------------------------------------------------------------------
     1295                   ; 257 | if(Saf82532_Ach.nRxFront != i)                                         
     1296                   ;----------------------------------------------------------------------
TMS320C3x/4x COFF AssemblerVersion 5.11     Mon Apr 29 17:36:37 2013
Copyright (c) 1987-1999 Texas Instruments Incorporatedc:\lang\tms320c3x\511\bin\asm30.exe -l saf82532.asm saf82532.obj -tC:\Users\JDS\AppData\Local\Temp\saf82532.tmp 

saf82532.asm                                                         PAGE   25

     1297 000001bc 5020001b-        ldiu      @_Saf82532_Ach+2,r0
     1298 000001bd 04c00301         cmpi      *+fp(1),r0
     1299 000001be 6a250004         beqd      L68
     1300 000001bf 5331001e-        ldine     @_Saf82532_Ach+5,ir0
     1301 000001c0 5328001a-        ldine     @_Saf82532_Ach+1,ar0
     1302 000001c1 53400303         ldine     *+fp(3),r0
     1303                   ;*      Branch Occurs to L68 
     1304                           .line   24
     1305                   ;----------------------------------------------------------------------
     1306                   ; 260 | Saf82532_Ach.nRxBuffer[Saf82532_Ach.nRxRear] = btDat;                  
     1307                   ;----------------------------------------------------------------------
     1308 000001c2 15404000         sti       r0,*+ar0(ir0)
     1309                           .line   25
     1310                   ;----------------------------------------------------------------------
     1311                   ; 261 | Saf82532_Ach.nRxRear = i;                                              
     1312                   ;----------------------------------------------------------------------
     1313 000001c3 50400301         ldiu      *+fp(1),r0
     1314 000001c4 1520001a-        sti       r0,@_Saf82532_Ach+1
     1315 000001c5          L68:        
     1316                           .line   29
     1317 000001c5 50510b01         ldiu      *-fp(1),ir0
     1318 000001c6 504bc300         ldiu      *fp,fp
     1319 000001c7 18740007         subi      7,sp
     1320 000001c8 68000011         bu        ir0
     1321                   ;*      Branch Occurs to ir0 
     1322                           .endfunc        265,000000000h,5
     1323                   
     1324                   
     1325 000001c9                  .sect    ".text"
     1326                   
     1327                           .global _saf82532_AsyncIsrBch
     1328                           .sym    _saf82532_AsyncIsrBch,_saf82532_AsyncIsrBch,32,2,0
     1329                           .func   267
     1330                   ;******************************************************************************
     1331                   ;* FUNCTION NAME: _saf82532_AsyncIsrBch                                       *
     1332                   ;*                                                                            *
     1333                   ;*   Architecture       : TMS320C30                                           *
     1334                   ;*   Calling Convention : Stack Parameter Convention                          *
     1335                   ;*   Function Uses Regs : r0,r1,ar0,ar1,ir0,st                                *
     1336                   ;*   Regs Saved         :                                                     *
     1337                   ;*   Stack Frame        : Full (w/ debug)                                     *
     1338                   ;*   Total Frame Size   : 2 Call + 0 Parm + 5 Auto + 0 SOE = 7 words          *
     1339                   ;******************************************************************************
     1340 000001c9          _saf82532_AsyncIsrBch:
     1341                           .sym    _i,1,4,1,32
     1342                           .sym    _nIsrSt,2,12,1,32
     1343                           .sym    _btDat,3,12,1,32
     1344                           .sym    _btDatSt,4,12,1,32
     1345                           .sym    _pShReg,5,24,1,32,.fake1
     1346                           .line   1
     1347                   ;----------------------------------------------------------------------
     1348                   ; 267 | void saf82532_AsyncIsrBch()                                            
     1349                   ; 269 | int i;                                                                 
     1350                   ; 270 | UCHAR nIsrSt;                                                          
TMS320C3x/4x COFF AssemblerVersion 5.11     Mon Apr 29 17:36:37 2013
Copyright (c) 1987-1999 Texas Instruments Incorporatedc:\lang\tms320c3x\511\bin\asm30.exe -l saf82532.asm saf82532.obj -tC:\Users\JDS\AppData\Local\Temp\saf82532.tmp 

saf82532.asm                                                         PAGE   26

     1351                   ; 271 | UCHAR btDat;                                                           
     1352                   ; 272 | UCHAR btDatSt;                                                         
     1353                   ;----------------------------------------------------------------------
     1354 000001c9 0f2b0000         push      fp
     1355 000001ca 500b0014         ldiu      sp,fp
     1356 000001cb 02740005         addi      5,sp
     1357                           .line   8
     1358                   ;----------------------------------------------------------------------
     1359                   ; 274 | PSAF82532ASYNCREG pShReg = (SAF82532ASYNCREG *)SAB82532_BASE;          
     1360                   ; 276 | // B Channel, Recieve                                                  
     1361                   ;----------------------------------------------------------------------
     1362 000001cc 502000c0-        ldiu      @CL17,r0
     1363 000001cd 15400305         sti       r0,*+fp(5)
     1364                           .line   11
     1365                   ;----------------------------------------------------------------------
     1366                   ; 277 | nIsrSt = pShReg->BCHREG.ISR0_IMR0;                                     
     1367                   ;----------------------------------------------------------------------
     1368 000001ce 50080000         ldiu      r0,ar0
     1369 000001cf 5040007a         ldiu      *+ar0(122),r0
     1370 000001d0 15400302         sti       r0,*+fp(2)
     1371                           .line   13
     1372                   ;----------------------------------------------------------------------
     1373                   ; 279 | if(nIsrSt & SAF82532_ASYNC_IMR0_RPF)                                   
     1374                   ;----------------------------------------------------------------------
     1375 000001d1 50600001         ldiu      1,r0
     1376 000001d2 1a400302         tstb      *+fp(2),r0
     1377 000001d3 6a05001b         beq       L74
     1378                   ;*      Branch Occurs to L74 
     1379                           .line   15
     1380                   ;----------------------------------------------------------------------
     1381                   ; 281 | btDat = pShReg->BCHREG.XFIFO[0];                                       
     1382                   ;----------------------------------------------------------------------
     1383 000001d4 50400040         ldiu      *+ar0(64),r0
     1384 000001d5 15400303         sti       r0,*+fp(3)
     1385                           .line   16
     1386                   ;----------------------------------------------------------------------
     1387                   ; 282 | DUMMY_ACCESS;                                                          
     1388                   ;----------------------------------------------------------------------
     1389 000001d6 502900c1-        ldiu      @CL18,ar1
     1390 000001d7 502800c1-        ldiu      @CL18,ar0
     1391 000001d8 5040c100         ldiu      *ar1,r0
     1392 000001d9 1540c000         sti       r0,*ar0
     1393                           .line   17
     1394                   ;----------------------------------------------------------------------
     1395                   ; 283 | btDatSt = pShReg->BCHREG.XFIFO[1];                                     
     1396                   ;----------------------------------------------------------------------
     1397 000001da 50480305         ldiu      *+fp(5),ar0
     1398 000001db 50400041         ldiu      *+ar0(65),r0
     1399 000001dc 15400304         sti       r0,*+fp(4)
     1400                           .line   18
     1401                   ;----------------------------------------------------------------------
     1402                   ; 284 | pShReg->BCHREG.STA_CMD = SAF82532_ASYNC_CMD_RMC;                       
     1403                   ;----------------------------------------------------------------------
     1404 000001dd 50600080         ldiu      128,r0
TMS320C3x/4x COFF AssemblerVersion 5.11     Mon Apr 29 17:36:37 2013
Copyright (c) 1987-1999 Texas Instruments Incorporatedc:\lang\tms320c3x\511\bin\asm30.exe -l saf82532.asm saf82532.obj -tC:\Users\JDS\AppData\Local\Temp\saf82532.tmp 

saf82532.asm                                                         PAGE   27

     1405 000001de 15400060         sti       r0,*+ar0(96)
     1406                           .line   20
     1407                   ;----------------------------------------------------------------------
     1408                   ; 286 | if(!(btDatSt&SAF82532_ASYNC_PARITYERR))                                
     1409                   ;----------------------------------------------------------------------
     1410 000001df 1a400304         tstb      *+fp(4),r0
     1411 000001e0 6a06000e         bne       L74
     1412                   ;*      Branch Occurs to L74 
     1413                           .line   22
     1414                   ;----------------------------------------------------------------------
     1415                   ; 288 | i = (Saf82532_Bch.nRxRear+1)%SAB82532_BUFFER_SIZE;                     
     1416                   ;----------------------------------------------------------------------
     1417 000001e1 50600001         ldiu      1,r0
     1418 000001e2 02200059-        addi      @_Saf82532_Bch+1,r0
     1419 000001e3 50610019         ldiu      25,r1
     1420 000001e4 62000000!        call      MOD_I30
     1421                                                           ; Call Occurs
     1422 000001e5 15400301         sti       r0,*+fp(1)
     1423                           .line   23
     1424                   ;----------------------------------------------------------------------
     1425                   ; 289 | if(Saf82532_Bch.nRxFront != i)                                         
     1426                   ;----------------------------------------------------------------------
     1427 000001e6 5020005a-        ldiu      @_Saf82532_Bch+2,r0
     1428 000001e7 04c00301         cmpi      *+fp(1),r0
     1429 000001e8 6a250004         beqd      L74
     1430 000001e9 5331005d-        ldine     @_Saf82532_Bch+5,ir0
     1431 000001ea 53280059-        ldine     @_Saf82532_Bch+1,ar0
     1432 000001eb 53400303         ldine     *+fp(3),r0
     1433                   ;*      Branch Occurs to L74 
     1434                           .line   25
     1435                   ;----------------------------------------------------------------------
     1436                   ; 291 | Saf82532_Bch.nRxBuffer[Saf82532_Bch.nRxRear] = btDat;                  
     1437                   ;----------------------------------------------------------------------
     1438 000001ec 15404000         sti       r0,*+ar0(ir0)
     1439                           .line   26
     1440                   ;----------------------------------------------------------------------
     1441                   ; 292 | Saf82532_Bch.nRxRear = i;                                              
     1442                   ;----------------------------------------------------------------------
     1443 000001ed 50400301         ldiu      *+fp(1),r0
     1444 000001ee 15200059-        sti       r0,@_Saf82532_Bch+1
     1445 000001ef          L74:        
     1446                           .line   30
     1447 000001ef 50510b01         ldiu      *-fp(1),ir0
     1448 000001f0 504bc300         ldiu      *fp,fp
     1449 000001f1 18740007         subi      7,sp
     1450 000001f2 68000011         bu        ir0
     1451                   ;*      Branch Occurs to ir0 
     1452                           .endfunc        296,000000000h,5
     1453                   
     1454                   
     1455 000001f3                  .sect    ".text"
     1456                   
     1457                           .global _saf82532_1msLoop
     1458                           .sym    _saf82532_1msLoop,_saf82532_1msLoop,32,2,0
TMS320C3x/4x COFF AssemblerVersion 5.11     Mon Apr 29 17:36:37 2013
Copyright (c) 1987-1999 Texas Instruments Incorporatedc:\lang\tms320c3x\511\bin\asm30.exe -l saf82532.asm saf82532.obj -tC:\Users\JDS\AppData\Local\Temp\saf82532.tmp 

saf82532.asm                                                         PAGE   28

     1459                           .func   302
     1460                   ;******************************************************************************
     1461                   ;* FUNCTION NAME: _saf82532_1msLoop                                           *
     1462                   ;*                                                                            *
     1463                   ;*   Architecture       : TMS320C30                                           *
     1464                   ;*   Calling Convention : Stack Parameter Convention                          *
     1465                   ;*   Function Uses Regs : r0,ar0,ar1,st                                       *
     1466                   ;*   Regs Saved         :                                                     *
     1467                   ;*   Stack Frame        : Full (w/ debug)                                     *
     1468                   ;*   Total Frame Size   : 2 Call + 0 Parm + 0 Auto + 0 SOE = 2 words          *
     1469                   ;******************************************************************************
     1470 000001f3          _saf82532_1msLoop:
     1471                           .line   1
     1472                   ;----------------------------------------------------------------------
     1473                   ; 302 | void saf82532_1msLoop()                                                
     1474                   ; 304 | //if(Saf82532_Ach.nTxDisable1msCnt == 1) RS485_TX_ACHL_DISABLE;        
     1475                   ; 305 | //if(Saf82532_Ach.nTxDisable1msCnt) Saf82532_Ach.nTxDisable1msCnt--;   
     1476                   ;----------------------------------------------------------------------
     1477 000001f3 0f2b0000         push      fp
     1478 000001f4 500b0014         ldiu      sp,fp
     1479                           .line   6
     1480                   ;----------------------------------------------------------------------
     1481                   ; 307 | if(Saf82532_Bch.nTxDisable1msCnt == 1) RS485_TX_BCHL_DISABLE;          
     1482                   ;----------------------------------------------------------------------
     1483 000001f5 08200062-        ldi       @_Saf82532_Bch+10,r0
     1484                           .line   7
     1485                   ;----------------------------------------------------------------------
     1486                   ; 308 | if(Saf82532_Bch.nTxDisable1msCnt) Saf82532_Bch.nTxDisable1msCnt--;
     1487                   ;     |                                                                        
     1488                   ;----------------------------------------------------------------------
     1489 000001f6 6a050003         beq       L78
     1490                   ;*      Branch Occurs to L78 
     1491 000001f7 50600001         ldiu      1,r0
     1492 000001f8 19a00062-        subri     @_Saf82532_Bch+10,r0
     1493 000001f9 15200062-        sti       r0,@_Saf82532_Bch+10
     1494 000001fa          L78:        
     1495                           .line   9
     1496                   ;----------------------------------------------------------------------
     1497                   ; 310 | if(Saf82532_Ach.nTxLedOnDly == 10) SCM_HDLC_TX1(1);                    
     1498                   ;----------------------------------------------------------------------
     1499 000001fa 50200024-        ldiu      @_Saf82532_Ach+11,r0
     1500 000001fb 04e0000a         cmpi      10,r0
     1501 000001fc 6a060005         bne       L80
     1502                   ;*      Branch Occurs to L80 
     1503 000001fd 5060000e         ldiu      14,r0
     1504 000001fe 502800c2-        ldiu      @CL19,ar0
     1505 000001ff 502900c2-        ldiu      @CL19,ar1
     1506 00000200 21a0c000         and3      r0,*ar0,r0
     1507 00000201 1540c100         sti       r0,*ar1
     1508 00000202          L80:        
     1509                           .line   10
     1510                   ;----------------------------------------------------------------------
     1511                   ; 311 | if(Saf82532_Ach.nTxLedOnDly == 1) SCM_HDLC_TX1(0);                     
     1512                   ;----------------------------------------------------------------------
TMS320C3x/4x COFF AssemblerVersion 5.11     Mon Apr 29 17:36:37 2013
Copyright (c) 1987-1999 Texas Instruments Incorporatedc:\lang\tms320c3x\511\bin\asm30.exe -l saf82532.asm saf82532.obj -tC:\Users\JDS\AppData\Local\Temp\saf82532.tmp 

saf82532.asm                                                         PAGE   29

     1513 00000202 50200024-        ldiu      @_Saf82532_Ach+11,r0
     1514 00000203 04e00001         cmpi      1,r0
     1515 00000204 6a260003         bned      L82
     1516 00000205 52e00001         ldieq     1,r0
     1517 00000206 52a900c2-        ldieq     @CL19,ar1
     1518 00000207 52a800c2-        ldieq     @CL19,ar0
     1519                   ;*      Branch Occurs to L82 
     1520 00000208 25a0c100         or3       r0,*ar1,r0
     1521 00000209 1540c000         sti       r0,*ar0
     1522 0000020a          L82:        
     1523                           .line   11
     1524                   ;----------------------------------------------------------------------
     1525                   ; 312 | if(Saf82532_Ach.nTxLedOnDly) Saf82532_Ach.nTxLedOnDly--;               
     1526                   ;----------------------------------------------------------------------
     1527 0000020a 08200024-        ldi       @_Saf82532_Ach+11,r0
     1528 0000020b 6a050003         beq       L84
     1529                   ;*      Branch Occurs to L84 
     1530 0000020c 50600001         ldiu      1,r0
     1531 0000020d 19a00024-        subri     @_Saf82532_Ach+11,r0
     1532 0000020e 15200024-        sti       r0,@_Saf82532_Ach+11
     1533 0000020f          L84:        
     1534                           .line   13
     1535                   ;----------------------------------------------------------------------
     1536                   ; 314 | if(Saf82532_Bch.nTxLedOnDly == 10) SCM_HDLC_TX2(1);                    
     1537                   ;----------------------------------------------------------------------
     1538 0000020f 50200063-        ldiu      @_Saf82532_Bch+11,r0
     1539 00000210 04e0000a         cmpi      10,r0
     1540 00000211 6a060005         bne       L86
     1541                   ;*      Branch Occurs to L86 
     1542 00000212 5060000d         ldiu      13,r0
     1543 00000213 502900c2-        ldiu      @CL19,ar1
     1544 00000214 502800c2-        ldiu      @CL19,ar0
     1545 00000215 21a0c100         and3      r0,*ar1,r0
     1546 00000216 1540c000         sti       r0,*ar0
     1547 00000217          L86:        
     1548                           .line   14
     1549                   ;----------------------------------------------------------------------
     1550                   ; 315 | if(Saf82532_Bch.nTxLedOnDly == 1) SCM_HDLC_TX2(0);                     
     1551                   ;----------------------------------------------------------------------
     1552 00000217 50200063-        ldiu      @_Saf82532_Bch+11,r0
     1553 00000218 04e00001         cmpi      1,r0
     1554 00000219 6a260003         bned      L88
     1555 0000021a 52e00002         ldieq     2,r0
     1556 0000021b 52a900c2-        ldieq     @CL19,ar1
     1557 0000021c 52a800c2-        ldieq     @CL19,ar0
     1558                   ;*      Branch Occurs to L88 
     1559 0000021d 25a0c100         or3       r0,*ar1,r0
     1560 0000021e 1540c000         sti       r0,*ar0
     1561 0000021f          L88:        
     1562                           .line   15
     1563                   ;----------------------------------------------------------------------
     1564                   ; 316 | if(Saf82532_Bch.nTxLedOnDly) Saf82532_Bch.nTxLedOnDly--;               
     1565                   ;----------------------------------------------------------------------
     1566 0000021f 08200063-        ldi       @_Saf82532_Bch+11,r0
TMS320C3x/4x COFF AssemblerVersion 5.11     Mon Apr 29 17:36:37 2013
Copyright (c) 1987-1999 Texas Instruments Incorporatedc:\lang\tms320c3x\511\bin\asm30.exe -l saf82532.asm saf82532.obj -tC:\Users\JDS\AppData\Local\Temp\saf82532.tmp 

saf82532.asm                                                         PAGE   30

     1567 00000220 6a050003         beq       L90
     1568                   ;*      Branch Occurs to L90 
     1569 00000221 50600001         ldiu      1,r0
     1570 00000222 19a00063-        subri     @_Saf82532_Bch+11,r0
     1571 00000223 15200063-        sti       r0,@_Saf82532_Bch+11
     1572 00000224          L90:        
     1573                           .line   16
     1574                   ;----------------------------------------------------------------------
     1575                   ; 317 | }                                                                      
     1576                   ;----------------------------------------------------------------------
     1577 00000224 50490b01         ldiu      *-fp(1),ar1
     1578 00000225 504bc300         ldiu      *fp,fp
     1579 00000226 18740002         subi      2,sp
     1580 00000227 68000009         bu        ar1
     1581                   ;*      Branch Occurs to ar1 
     1582                           .endfunc        317,000000000h,0
     1583                   
     1584                   
     1585                   
     1586                           .global _m_btSaf82532RxBchBackUp
     1587 00000000                  .bss    _m_btSaf82532RxBchBackUp,25
     1588                           .sym    _m_btSaf82532RxBchBackUp,_m_btSaf82532RxBchBackUp,60,2,800,,25
     1589                   
     1590                           .global _Saf82532_Ach
     1591 00000019                  .bss    _Saf82532_Ach,13
     1592                           .sym    _Saf82532_Ach,_Saf82532_Ach,8,2,416,.fake2
     1593                   
     1594                           .global _m_btSaf82532RxAchBackUp
     1595 00000026                  .bss    _m_btSaf82532RxAchBackUp,25
     1596                           .sym    _m_btSaf82532RxAchBackUp,_m_btSaf82532RxAchBackUp,60,2,800,,25
     1597                   
     1598                           .global _m_btSaf82532RxAchBuffer
     1599 0000003f                  .bss    _m_btSaf82532RxAchBuffer,25
     1600                           .sym    _m_btSaf82532RxAchBuffer,_m_btSaf82532RxAchBuffer,60,2,800,,25
     1601                   
     1602                           .global _Saf82532_Bch
     1603 00000058                  .bss    _Saf82532_Bch,13
     1604                           .sym    _Saf82532_Bch,_Saf82532_Bch,8,2,416,.fake2
     1605                   
     1606                           .global _m_btSaf82532RxBchBuffer
     1607 00000065                  .bss    _m_btSaf82532RxBchBuffer,25
     1608                           .sym    _m_btSaf82532RxBchBuffer,_m_btSaf82532RxBchBuffer,60,2,800,,25
     1609                   
     1610                           .global _m_btSaf82532RxAchGetBuf
     1611 0000007e                  .bss    _m_btSaf82532RxAchGetBuf,25
     1612                           .sym    _m_btSaf82532RxAchGetBuf,_m_btSaf82532RxAchGetBuf,60,2,800,,25
     1613                   
     1614                           .global _m_btSaf82532RxBchGetBuf
     1615 00000097                  .bss    _m_btSaf82532RxBchGetBuf,25
     1616                           .sym    _m_btSaf82532RxBchGetBuf,_m_btSaf82532RxBchGetBuf,60,2,800,,25
     1617                   ;******************************************************************************
     1618                   ;* CONSTANT TABLE                                                             *
     1619                   ;******************************************************************************
     1620 00000000                  .sect   ".const"
TMS320C3x/4x COFF AssemblerVersion 5.11     Mon Apr 29 17:36:37 2013
Copyright (c) 1987-1999 Texas Instruments Incorporatedc:\lang\tms320c3x\511\bin\asm30.exe -l saf82532.asm saf82532.obj -tC:\Users\JDS\AppData\Local\Temp\saf82532.tmp 

saf82532.asm                                                         PAGE   31

     1621 000000b0                  .bss    CL1,1
     1622 000000b1                  .bss    CL2,1
     1623 000000b2                  .bss    CL3,1
     1624 000000b3                  .bss    CL4,1
     1625 000000b4                  .bss    CL5,1
     1626 000000b5                  .bss    CL6,1
     1627 000000b6                  .bss    CL7,1
     1628 000000b7                  .bss    CL8,1
     1629 000000b8                  .bss    CL9,1
     1630 000000b9                  .bss    CL10,1
     1631 000000ba                  .bss    CL11,1
     1632 000000bb                  .bss    CL12,1
     1633 000000bc                  .bss    CL13,1
     1634 000000bd                  .bss    CL14,1
     1635 000000be                  .bss    CL15,1
     1636 000000bf                  .bss    CL16,1
     1637 000000c0                  .bss    CL17,1
     1638 000000c1                  .bss    CL18,1
     1639 000000c2                  .bss    CL19,1
     1640                   
     1641 00000000                  .sect   ".cinit"
     1642 00000000 00000013         .field          19,32
     1643 00000001 000000b0-        .field          CL1+0,32
     1644 00000002 00a00000         .field          10485760,32
     1645 00000003 0004c4b4         .field          312500,32
     1646 00000004 fffffffe         .field          -2,32
     1647 00000005 097a0000         .word           0097A0000H ; double  1.000000000000000e+03
     1648 00000006 0000007e-        .field          _m_btSaf82532RxAchGetBuf,32
     1649 00000007 00000026-        .field          _m_btSaf82532RxAchBackUp,32
     1650 00000008 0000003f-        .field          _m_btSaf82532RxAchBuffer,32
     1651 00000009 00000097-        .field          _m_btSaf82532RxBchGetBuf,32
     1652 0000000a 00000000-        .field          _m_btSaf82532RxBchBackUp,32
     1653 0000000b 00000065-        .field          _m_btSaf82532RxBchBuffer,32
     1654 0000000c 00a00000         .field          10485760,32
     1655 0000000d ffffffe5         .field          -27,32
     1656 0000000e 0000001a-        .field          _Saf82532_Ach+1,32
     1657 0000000f 0000001b-        .field          _Saf82532_Ach+2,32
     1658 00000010 00000059-        .field          _Saf82532_Bch+1,32
     1659 00000011 0000005a-        .field          _Saf82532_Bch+2,32
     1660 00000012 00a00000         .field          10485760,32
     1661 00000013 00f00000         .field          15728640,32
     1662 00000014 00e30000         .field          14876672,32
     1663                   
     1664 00000228                  .sect   ".text"
     1665                   ;******************************************************************************
     1666                   ;* UNDEFINED EXTERNAL REFERENCES                                              *
     1667                   ;******************************************************************************
     1668                   
     1669                           .global _memset
     1670                           .global DIV_I30
     1671                           .global DIV_F30
     1672                           .global _memcpy
     1673                           .global MOD_I30

 No Errors,  No Warnings
